ARM GAS  C:\Users\cronos\AppData\Local\Temp\ccinF6bS.s 			page 1


   1              		.syntax unified
   2              		.cpu cortex-m3
   3              		.fpu softvfp
   4              		.eabi_attribute 20, 1
   5              		.eabi_attribute 21, 1
   6              		.eabi_attribute 23, 3
   7              		.eabi_attribute 24, 1
   8              		.eabi_attribute 25, 1
   9              		.eabi_attribute 26, 1
  10              		.eabi_attribute 30, 1
  11              		.eabi_attribute 34, 1
  12              		.eabi_attribute 18, 4
  13              		.thumb
  14              		.syntax unified
  15              		.file	"ff.c"
  16              		.text
  17              	.Ltext0:
  18              		.cfi_sections	.debug_frame
  19              		.section	.text.mem_cpy,"ax",%progbits
  20              		.align	2
  21              		.thumb
  22              		.thumb_func
  23              		.type	mem_cpy, %function
  24              	mem_cpy:
  25              	.LFB0:
  26              		.file 1 "sdc\\ff.c"
   1:sdc/ff.c      **** /*----------------------------------------------------------------------------/
   2:sdc/ff.c      **** /  FatFs - FAT file system module  R0.10b                (C)ChaN, 2014
   3:sdc/ff.c      **** /-----------------------------------------------------------------------------/
   4:sdc/ff.c      **** / FatFs module is a generic FAT file system module for small embedded systems.
   5:sdc/ff.c      **** / This is a free software that opened for education, research and commercial
   6:sdc/ff.c      **** / developments under license policy of following terms.
   7:sdc/ff.c      **** /
   8:sdc/ff.c      **** /  Copyright (C) 2014, ChaN, all right reserved.
   9:sdc/ff.c      **** /
  10:sdc/ff.c      **** / * The FatFs module is a free software and there is NO WARRANTY.
  11:sdc/ff.c      **** / * No restriction on use. You can use, modify and redistribute it for
  12:sdc/ff.c      **** /   personal, non-profit or commercial products UNDER YOUR RESPONSIBILITY.
  13:sdc/ff.c      **** / * Redistributions of source code must retain the above copyright notice.
  14:sdc/ff.c      **** /
  15:sdc/ff.c      **** /-----------------------------------------------------------------------------/
  16:sdc/ff.c      **** / Feb 26,'06 R0.00  Prototype.
  17:sdc/ff.c      **** /
  18:sdc/ff.c      **** / Apr 29,'06 R0.01  First stable version.
  19:sdc/ff.c      **** /
  20:sdc/ff.c      **** / Jun 01,'06 R0.02  Added FAT12 support.
  21:sdc/ff.c      **** /                   Removed unbuffered mode.
  22:sdc/ff.c      **** /                   Fixed a problem on small (<32M) partition.
  23:sdc/ff.c      **** / Jun 10,'06 R0.02a Added a configuration option (_FS_MINIMUM).
  24:sdc/ff.c      **** /
  25:sdc/ff.c      **** / Sep 22,'06 R0.03  Added f_rename().
  26:sdc/ff.c      **** /                   Changed option _FS_MINIMUM to _FS_MINIMIZE.
  27:sdc/ff.c      **** / Dec 11,'06 R0.03a Improved cluster scan algorithm to write files fast.
  28:sdc/ff.c      **** /                   Fixed f_mkdir() creates incorrect directory on FAT32.
  29:sdc/ff.c      **** /
  30:sdc/ff.c      **** / Feb 04,'07 R0.04  Supported multiple drive system.
  31:sdc/ff.c      **** /                   Changed some interfaces for multiple drive system.
ARM GAS  C:\Users\cronos\AppData\Local\Temp\ccinF6bS.s 			page 2


  32:sdc/ff.c      **** /                   Changed f_mountdrv() to f_mount().
  33:sdc/ff.c      **** /                   Added f_mkfs().
  34:sdc/ff.c      **** / Apr 01,'07 R0.04a Supported multiple partitions on a physical drive.
  35:sdc/ff.c      **** /                   Added a capability of extending file size to f_lseek().
  36:sdc/ff.c      **** /                   Added minimization level 3.
  37:sdc/ff.c      **** /                   Fixed an endian sensitive code in f_mkfs().
  38:sdc/ff.c      **** / May 05,'07 R0.04b Added a configuration option _USE_NTFLAG.
  39:sdc/ff.c      **** /                   Added FSINFO support.
  40:sdc/ff.c      **** /                   Fixed DBCS name can result FR_INVALID_NAME.
  41:sdc/ff.c      **** /                   Fixed short seek (<= csize) collapses the file object.
  42:sdc/ff.c      **** /
  43:sdc/ff.c      **** / Aug 25,'07 R0.05  Changed arguments of f_read(), f_write() and f_mkfs().
  44:sdc/ff.c      **** /                   Fixed f_mkfs() on FAT32 creates incorrect FSINFO.
  45:sdc/ff.c      **** /                   Fixed f_mkdir() on FAT32 creates incorrect directory.
  46:sdc/ff.c      **** / Feb 03,'08 R0.05a Added f_truncate() and f_utime().
  47:sdc/ff.c      **** /                   Fixed off by one error at FAT sub-type determination.
  48:sdc/ff.c      **** /                   Fixed btr in f_read() can be mistruncated.
  49:sdc/ff.c      **** /                   Fixed cached sector is not flushed when create and close without write.
  50:sdc/ff.c      **** /
  51:sdc/ff.c      **** / Apr 01,'08 R0.06  Added fputc(), fputs(), fprintf() and fgets().
  52:sdc/ff.c      **** /                   Improved performance of f_lseek() on moving to the same or following cluster.
  53:sdc/ff.c      **** /
  54:sdc/ff.c      **** / Apr 01,'09 R0.07  Merged Tiny-FatFs as a configuration option. (_FS_TINY)
  55:sdc/ff.c      **** /                   Added long file name feature.
  56:sdc/ff.c      **** /                   Added multiple code page feature.
  57:sdc/ff.c      **** /                   Added re-entrancy for multitask operation.
  58:sdc/ff.c      **** /                   Added auto cluster size selection to f_mkfs().
  59:sdc/ff.c      **** /                   Added rewind option to f_readdir().
  60:sdc/ff.c      **** /                   Changed result code of critical errors.
  61:sdc/ff.c      **** /                   Renamed string functions to avoid name collision.
  62:sdc/ff.c      **** / Apr 14,'09 R0.07a Separated out OS dependent code on reentrant cfg.
  63:sdc/ff.c      **** /                   Added multiple sector size feature.
  64:sdc/ff.c      **** / Jun 21,'09 R0.07c Fixed f_unlink() can return FR_OK on error.
  65:sdc/ff.c      **** /                   Fixed wrong cache control in f_lseek().
  66:sdc/ff.c      **** /                   Added relative path feature.
  67:sdc/ff.c      **** /                   Added f_chdir() and f_chdrive().
  68:sdc/ff.c      **** /                   Added proper case conversion to extended character.
  69:sdc/ff.c      **** / Nov 03,'09 R0.07e Separated out configuration options from ff.h to ffconf.h.
  70:sdc/ff.c      **** /                   Fixed f_unlink() fails to remove a sub-directory on _FS_RPATH.
  71:sdc/ff.c      **** /                   Fixed name matching error on the 13 character boundary.
  72:sdc/ff.c      **** /                   Added a configuration option, _LFN_UNICODE.
  73:sdc/ff.c      **** /                   Changed f_readdir() to return the SFN with always upper case on non-LFN cfg.
  74:sdc/ff.c      **** /
  75:sdc/ff.c      **** / May 15,'10 R0.08  Added a memory configuration option. (_USE_LFN = 3)
  76:sdc/ff.c      **** /                   Added file lock feature. (_FS_SHARE)
  77:sdc/ff.c      **** /                   Added fast seek feature. (_USE_FASTSEEK)
  78:sdc/ff.c      **** /                   Changed some types on the API, XCHAR->TCHAR.
  79:sdc/ff.c      **** /                   Changed .fname in the FILINFO structure on Unicode cfg.
  80:sdc/ff.c      **** /                   String functions support UTF-8 encoding files on Unicode cfg.
  81:sdc/ff.c      **** / Aug 16,'10 R0.08a Added f_getcwd().
  82:sdc/ff.c      **** /                   Added sector erase feature. (_USE_ERASE)
  83:sdc/ff.c      **** /                   Moved file lock semaphore table from fs object to the bss.
  84:sdc/ff.c      **** /                   Fixed a wrong directory entry is created on non-LFN cfg when the given name con
  85:sdc/ff.c      **** /                   Fixed f_mkfs() creates wrong FAT32 volume.
  86:sdc/ff.c      **** / Jan 15,'11 R0.08b Fast seek feature is also applied to f_read() and f_write().
  87:sdc/ff.c      **** /                   f_lseek() reports required table size on creating CLMP.
  88:sdc/ff.c      **** /                   Extended format syntax of f_printf().
ARM GAS  C:\Users\cronos\AppData\Local\Temp\ccinF6bS.s 			page 3


  89:sdc/ff.c      **** /                   Ignores duplicated directory separators in given path name.
  90:sdc/ff.c      **** /
  91:sdc/ff.c      **** / Sep 06,'11 R0.09  f_mkfs() supports multiple partition to complete the multiple partition feature
  92:sdc/ff.c      **** /                   Added f_fdisk().
  93:sdc/ff.c      **** / Aug 27,'12 R0.09a Changed f_open() and f_opendir() reject null object pointer to avoid crash.
  94:sdc/ff.c      **** /                   Changed option name _FS_SHARE to _FS_LOCK.
  95:sdc/ff.c      **** /                   Fixed assertion failure due to OS/2 EA on FAT12/16 volume.
  96:sdc/ff.c      **** / Jan 24,'13 R0.09b Added f_setlabel() and f_getlabel().
  97:sdc/ff.c      **** /
  98:sdc/ff.c      **** / Oct 02,'13 R0.10  Added selection of character encoding on the file. (_STRF_ENCODE)
  99:sdc/ff.c      **** /                   Added f_closedir().
 100:sdc/ff.c      **** /                   Added forced full FAT scan for f_getfree(). (_FS_NOFSINFO)
 101:sdc/ff.c      **** /                   Added forced mount feature with changes of f_mount().
 102:sdc/ff.c      **** /                   Improved behavior of volume auto detection.
 103:sdc/ff.c      **** /                   Improved write throughput of f_puts() and f_printf().
 104:sdc/ff.c      **** /                   Changed argument of f_chdrive(), f_mkfs(), disk_read() and disk_write().
 105:sdc/ff.c      **** /                   Fixed f_write() can be truncated when the file size is close to 4GB.
 106:sdc/ff.c      **** /                   Fixed f_open(), f_mkdir() and f_setlabel() can return incorrect error code.
 107:sdc/ff.c      **** / Jan 15,'14 R0.10a Added arbitrary strings as drive number in the path name. (_STR_VOLUME_ID)
 108:sdc/ff.c      **** /                   Added a configuration option of minimum sector size. (_MIN_SS)
 109:sdc/ff.c      **** /                   2nd argument of f_rename() can have a drive number and it will be ignored.
 110:sdc/ff.c      **** /                   Fixed f_mount() with forced mount fails when drive number is >= 1.
 111:sdc/ff.c      **** /                   Fixed f_close() invalidates the file object without volume lock.
 112:sdc/ff.c      **** /                   Fixed f_closedir() returns but the volume lock is left acquired.
 113:sdc/ff.c      **** /                   Fixed creation of an entry with LFN fails on too many SFN collisions.
 114:sdc/ff.c      **** / May 19,'14 R0.10b Fixed a hard error in the disk I/O layer can collapse the directory entry.
 115:sdc/ff.c      **** /                   Fixed LFN entry is not deleted on delete/rename an object with lossy converted 
 116:sdc/ff.c      **** /---------------------------------------------------------------------------*/
 117:sdc/ff.c      **** 
 118:sdc/ff.c      **** #include "ff.h"			/* Declarations of FatFs API */
 119:sdc/ff.c      **** #include "diskio.h"		/* Declarations of disk I/O functions */
 120:sdc/ff.c      **** 
 121:sdc/ff.c      **** 
 122:sdc/ff.c      **** 
 123:sdc/ff.c      **** 
 124:sdc/ff.c      **** /*--------------------------------------------------------------------------
 125:sdc/ff.c      **** 
 126:sdc/ff.c      ****    Module Private Definitions
 127:sdc/ff.c      **** 
 128:sdc/ff.c      **** ---------------------------------------------------------------------------*/
 129:sdc/ff.c      **** 
 130:sdc/ff.c      **** #if _FATFS != 8051	/* Revision ID */
 131:sdc/ff.c      **** #error Wrong include file (ff.h).
 132:sdc/ff.c      **** #endif
 133:sdc/ff.c      **** 
 134:sdc/ff.c      **** 
 135:sdc/ff.c      **** /* Reentrancy related */
 136:sdc/ff.c      **** #if _FS_REENTRANT
 137:sdc/ff.c      **** #if _USE_LFN == 1
 138:sdc/ff.c      **** #error Static LFN work area cannot be used at thread-safe configuration.
 139:sdc/ff.c      **** #endif
 140:sdc/ff.c      **** #define	ENTER_FF(fs)		{ if (!lock_fs(fs)) return FR_TIMEOUT; }
 141:sdc/ff.c      **** #define	LEAVE_FF(fs, res)	{ unlock_fs(fs, res); return res; }
 142:sdc/ff.c      **** #else
 143:sdc/ff.c      **** #define	ENTER_FF(fs)
 144:sdc/ff.c      **** #define LEAVE_FF(fs, res)	return res
 145:sdc/ff.c      **** #endif
ARM GAS  C:\Users\cronos\AppData\Local\Temp\ccinF6bS.s 			page 4


 146:sdc/ff.c      **** 
 147:sdc/ff.c      **** #define	ABORT(fs, res)		{ fp->err = (BYTE)(res); LEAVE_FF(fs, res); }
 148:sdc/ff.c      **** 
 149:sdc/ff.c      **** 
 150:sdc/ff.c      **** /* Definitions of sector size */
 151:sdc/ff.c      **** #if (_MAX_SS < _MIN_SS) || (_MAX_SS != 512 && _MAX_SS != 1024 && _MAX_SS != 2048 && _MAX_SS != 4096
 152:sdc/ff.c      **** #error Wrong sector size configuration.
 153:sdc/ff.c      **** #endif
 154:sdc/ff.c      **** #if _MAX_SS == _MIN_SS
 155:sdc/ff.c      **** #define	SS(fs)	((UINT)_MAX_SS)	/* Fixed sector size */
 156:sdc/ff.c      **** #else
 157:sdc/ff.c      **** #define	SS(fs)	((fs)->ssize)	/* Variable sector size */
 158:sdc/ff.c      **** #endif
 159:sdc/ff.c      **** 
 160:sdc/ff.c      **** 
 161:sdc/ff.c      **** /* File access control feature */
 162:sdc/ff.c      **** #if _FS_LOCK
 163:sdc/ff.c      **** #if _FS_READONLY
 164:sdc/ff.c      **** #error _FS_LOCK must be 0 at read-only cfg.
 165:sdc/ff.c      **** #endif
 166:sdc/ff.c      **** typedef struct {
 167:sdc/ff.c      **** 	FATFS *fs;		/* Object ID 1, volume (NULL:blank entry) */
 168:sdc/ff.c      **** 	DWORD clu;		/* Object ID 2, directory (0:root) */
 169:sdc/ff.c      **** 	WORD idx;		/* Object ID 3, directory index */
 170:sdc/ff.c      **** 	WORD ctr;		/* Object open counter, 0:none, 0x01..0xFF:read mode open count, 0x100:write mode */
 171:sdc/ff.c      **** } FILESEM;
 172:sdc/ff.c      **** #endif
 173:sdc/ff.c      **** 
 174:sdc/ff.c      **** 
 175:sdc/ff.c      **** 
 176:sdc/ff.c      **** /* DBCS code ranges and SBCS extend character conversion table */
 177:sdc/ff.c      **** 
 178:sdc/ff.c      **** #if _CODE_PAGE == 932	/* Japanese Shift-JIS */
 179:sdc/ff.c      **** #define _DF1S	0x81	/* DBC 1st byte range 1 start */
 180:sdc/ff.c      **** #define _DF1E	0x9F	/* DBC 1st byte range 1 end */
 181:sdc/ff.c      **** #define _DF2S	0xE0	/* DBC 1st byte range 2 start */
 182:sdc/ff.c      **** #define _DF2E	0xFC	/* DBC 1st byte range 2 end */
 183:sdc/ff.c      **** #define _DS1S	0x40	/* DBC 2nd byte range 1 start */
 184:sdc/ff.c      **** #define _DS1E	0x7E	/* DBC 2nd byte range 1 end */
 185:sdc/ff.c      **** #define _DS2S	0x80	/* DBC 2nd byte range 2 start */
 186:sdc/ff.c      **** #define _DS2E	0xFC	/* DBC 2nd byte range 2 end */
 187:sdc/ff.c      **** 
 188:sdc/ff.c      **** #elif _CODE_PAGE == 936	/* Simplified Chinese GBK */
 189:sdc/ff.c      **** #define _DF1S	0x81
 190:sdc/ff.c      **** #define _DF1E	0xFE
 191:sdc/ff.c      **** #define _DS1S	0x40
 192:sdc/ff.c      **** #define _DS1E	0x7E
 193:sdc/ff.c      **** #define _DS2S	0x80
 194:sdc/ff.c      **** #define _DS2E	0xFE
 195:sdc/ff.c      **** 
 196:sdc/ff.c      **** #elif _CODE_PAGE == 949	/* Korean */
 197:sdc/ff.c      **** #define _DF1S	0x81
 198:sdc/ff.c      **** #define _DF1E	0xFE
 199:sdc/ff.c      **** #define _DS1S	0x41
 200:sdc/ff.c      **** #define _DS1E	0x5A
 201:sdc/ff.c      **** #define _DS2S	0x61
 202:sdc/ff.c      **** #define _DS2E	0x7A
ARM GAS  C:\Users\cronos\AppData\Local\Temp\ccinF6bS.s 			page 5


 203:sdc/ff.c      **** #define _DS3S	0x81
 204:sdc/ff.c      **** #define _DS3E	0xFE
 205:sdc/ff.c      **** 
 206:sdc/ff.c      **** #elif _CODE_PAGE == 950	/* Traditional Chinese Big5 */
 207:sdc/ff.c      **** #define _DF1S	0x81
 208:sdc/ff.c      **** #define _DF1E	0xFE
 209:sdc/ff.c      **** #define _DS1S	0x40
 210:sdc/ff.c      **** #define _DS1E	0x7E
 211:sdc/ff.c      **** #define _DS2S	0xA1
 212:sdc/ff.c      **** #define _DS2E	0xFE
 213:sdc/ff.c      **** 
 214:sdc/ff.c      **** #elif _CODE_PAGE == 437	/* U.S. (OEM) */
 215:sdc/ff.c      **** #define _DF1S	0
 216:sdc/ff.c      **** #define _EXCVT {0x80,0x9A,0x90,0x41,0x8E,0x41,0x8F,0x80,0x45,0x45,0x45,0x49,0x49,0x49,0x8E,0x8F,0x9
 217:sdc/ff.c      **** 				0x41,0x49,0x4F,0x55,0xA5,0xA5,0xA6,0xA7,0xA8,0xA9,0xAA,0xAB,0xAC,0x21,0xAE,0xAF,0xB0,0xB1,0xB2,
 218:sdc/ff.c      **** 				0xC0,0xC1,0xC2,0xC3,0xC4,0xC5,0xC6,0xC7,0xC8,0xC9,0xCA,0xCB,0xCC,0xCD,0xCE,0xCF,0xD0,0xD1,0xD2,
 219:sdc/ff.c      **** 				0xE0,0xE1,0xE2,0xE3,0xE4,0xE5,0xE6,0xE7,0xE8,0xE9,0xEA,0xEB,0xEC,0xED,0xEE,0xEF,0xF0,0xF1,0xF2,
 220:sdc/ff.c      **** 
 221:sdc/ff.c      **** #elif _CODE_PAGE == 720	/* Arabic (OEM) */
 222:sdc/ff.c      **** #define _DF1S	0
 223:sdc/ff.c      **** #define _EXCVT {0x80,0x81,0x45,0x41,0x84,0x41,0x86,0x43,0x45,0x45,0x45,0x49,0x49,0x8D,0x8E,0x8F,0x9
 224:sdc/ff.c      **** 				0xA0,0xA1,0xA2,0xA3,0xA4,0xA5,0xA6,0xA7,0xA8,0xA9,0xAA,0xAB,0xAC,0xAD,0xAE,0xAF,0xB0,0xB1,0xB2,
 225:sdc/ff.c      **** 				0xC0,0xC1,0xC2,0xC3,0xC4,0xC5,0xC6,0xC7,0xC8,0xC9,0xCA,0xCB,0xCC,0xCD,0xCE,0xCF,0xD0,0xD1,0xD2,
 226:sdc/ff.c      **** 				0xE0,0xE1,0xE2,0xE3,0xE4,0xE5,0xE6,0xE7,0xE8,0xE9,0xEA,0xEB,0xEC,0xED,0xEE,0xEF,0xF0,0xF1,0xF2,
 227:sdc/ff.c      **** 
 228:sdc/ff.c      **** #elif _CODE_PAGE == 737	/* Greek (OEM) */
 229:sdc/ff.c      **** #define _DF1S	0
 230:sdc/ff.c      **** #define _EXCVT {0x80,0x81,0x82,0x83,0x84,0x85,0x86,0x87,0x88,0x89,0x8A,0x8B,0x8C,0x8D,0x8E,0x8F,0x9
 231:sdc/ff.c      **** 				0x88,0x89,0x8A,0x8B,0x8C,0x8D,0x8E,0x8F,0x90,0x91,0xAA,0x92,0x93,0x94,0x95,0x96,0xB0,0xB1,0xB2,
 232:sdc/ff.c      **** 				0xC0,0xC1,0xC2,0xC3,0xC4,0xC5,0xC6,0xC7,0xC8,0xC9,0xCA,0xCB,0xCC,0xCD,0xCE,0xCF,0xD0,0xD1,0xD2,
 233:sdc/ff.c      **** 				0x97,0xEA,0xEB,0xEC,0xE4,0xED,0xEE,0xE7,0xE8,0xF1,0xEA,0xEB,0xEC,0xED,0xEE,0xEF,0xF0,0xF1,0xF2,
 234:sdc/ff.c      **** 
 235:sdc/ff.c      **** #elif _CODE_PAGE == 775	/* Baltic (OEM) */
 236:sdc/ff.c      **** #define _DF1S	0
 237:sdc/ff.c      **** #define _EXCVT {0x80,0x9A,0x91,0xA0,0x8E,0x95,0x8F,0x80,0xAD,0xED,0x8A,0x8A,0xA1,0x8D,0x8E,0x8F,0x9
 238:sdc/ff.c      **** 				0xA0,0xA1,0xE0,0xA3,0xA3,0xA5,0xA6,0xA7,0xA8,0xA9,0xAA,0xAB,0xAC,0xAD,0xAE,0xAF,0xB0,0xB1,0xB2,
 239:sdc/ff.c      **** 				0xC0,0xC1,0xC2,0xC3,0xC4,0xC5,0xC6,0xC7,0xC8,0xC9,0xCA,0xCB,0xCC,0xCD,0xCE,0xCF,0xB5,0xB6,0xB7,
 240:sdc/ff.c      **** 				0xE0,0xE1,0xE2,0xE3,0xE5,0xE5,0xE6,0xE3,0xE8,0xE8,0xEA,0xEA,0xEE,0xED,0xEE,0xEF,0xF0,0xF1,0xF2,
 241:sdc/ff.c      **** 
 242:sdc/ff.c      **** #elif _CODE_PAGE == 850	/* Multilingual Latin 1 (OEM) */
 243:sdc/ff.c      **** #define _DF1S	0
 244:sdc/ff.c      **** #define _EXCVT {0x80,0x9A,0x90,0xB6,0x8E,0xB7,0x8F,0x80,0xD2,0xD3,0xD4,0xD8,0xD7,0xDE,0x8E,0x8F,0x9
 245:sdc/ff.c      **** 				0xB5,0xD6,0xE0,0xE9,0xA5,0xA5,0xA6,0xA7,0xA8,0xA9,0xAA,0xAB,0xAC,0x21,0xAE,0xAF,0xB0,0xB1,0xB2,
 246:sdc/ff.c      **** 				0xC0,0xC1,0xC2,0xC3,0xC4,0xC5,0xC7,0xC7,0xC8,0xC9,0xCA,0xCB,0xCC,0xCD,0xCE,0xCF,0xD0,0xD1,0xD2,
 247:sdc/ff.c      **** 				0xE0,0xE1,0xE2,0xE3,0xE5,0xE5,0xE6,0xE7,0xE7,0xE9,0xEA,0xEB,0xED,0xED,0xEE,0xEF,0xF0,0xF1,0xF2,
 248:sdc/ff.c      **** 
 249:sdc/ff.c      **** #elif _CODE_PAGE == 852	/* Latin 2 (OEM) */
 250:sdc/ff.c      **** #define _DF1S	0
 251:sdc/ff.c      **** #define _EXCVT {0x80,0x9A,0x90,0xB6,0x8E,0xDE,0x8F,0x80,0x9D,0xD3,0x8A,0x8A,0xD7,0x8D,0x8E,0x8F,0x9
 252:sdc/ff.c      **** 				0xB5,0xD6,0xE0,0xE9,0xA4,0xA4,0xA6,0xA6,0xA8,0xA8,0xAA,0x8D,0xAC,0xB8,0xAE,0xAF,0xB0,0xB1,0xB2,
 253:sdc/ff.c      **** 				0xC0,0xC1,0xC2,0xC3,0xC4,0xC5,0xC6,0xC6,0xC8,0xC9,0xCA,0xCB,0xCC,0xCD,0xCE,0xCF,0xD1,0xD1,0xD2,
 254:sdc/ff.c      **** 				0xE0,0xE1,0xE2,0xE3,0xE3,0xD5,0xE6,0xE6,0xE8,0xE9,0xE8,0xEB,0xED,0xED,0xDD,0xEF,0xF0,0xF1,0xF2,
 255:sdc/ff.c      **** 
 256:sdc/ff.c      **** #elif _CODE_PAGE == 855	/* Cyrillic (OEM) */
 257:sdc/ff.c      **** #define _DF1S	0
 258:sdc/ff.c      **** #define _EXCVT {0x81,0x81,0x83,0x83,0x85,0x85,0x87,0x87,0x89,0x89,0x8B,0x8B,0x8D,0x8D,0x8F,0x8F,0x9
 259:sdc/ff.c      **** 				0xA1,0xA1,0xA3,0xA3,0xA5,0xA5,0xA7,0xA7,0xA9,0xA9,0xAB,0xAB,0xAD,0xAD,0xAE,0xAF,0xB0,0xB1,0xB2,
ARM GAS  C:\Users\cronos\AppData\Local\Temp\ccinF6bS.s 			page 6


 260:sdc/ff.c      **** 				0xC0,0xC1,0xC2,0xC3,0xC4,0xC5,0xC7,0xC7,0xC8,0xC9,0xCA,0xCB,0xCC,0xCD,0xCE,0xCF,0xD1,0xD1,0xD3,
 261:sdc/ff.c      **** 				0xE0,0xE2,0xE2,0xE4,0xE4,0xE6,0xE6,0xE8,0xE8,0xEA,0xEA,0xEC,0xEC,0xEE,0xEE,0xEF,0xF0,0xF2,0xF2,
 262:sdc/ff.c      **** 
 263:sdc/ff.c      **** #elif _CODE_PAGE == 857	/* Turkish (OEM) */
 264:sdc/ff.c      **** #define _DF1S	0
 265:sdc/ff.c      **** #define _EXCVT {0x80,0x9A,0x90,0xB6,0x8E,0xB7,0x8F,0x80,0xD2,0xD3,0xD4,0xD8,0xD7,0x98,0x8E,0x8F,0x9
 266:sdc/ff.c      **** 				0xB5,0xD6,0xE0,0xE9,0xA5,0xA5,0xA6,0xA6,0xA8,0xA9,0xAA,0xAB,0xAC,0x21,0xAE,0xAF,0xB0,0xB1,0xB2,
 267:sdc/ff.c      **** 				0xC0,0xC1,0xC2,0xC3,0xC4,0xC5,0xC7,0xC7,0xC8,0xC9,0xCA,0xCB,0xCC,0xCD,0xCE,0xCF,0xD0,0xD1,0xD2,
 268:sdc/ff.c      **** 				0xE0,0xE1,0xE2,0xE3,0xE5,0xE5,0xE6,0xE7,0xE8,0xE9,0xEA,0xEB,0xDE,0x59,0xEE,0xEF,0xF0,0xF1,0xF2,
 269:sdc/ff.c      **** 
 270:sdc/ff.c      **** #elif _CODE_PAGE == 858	/* Multilingual Latin 1 + Euro (OEM) */
 271:sdc/ff.c      **** #define _DF1S	0
 272:sdc/ff.c      **** #define _EXCVT {0x80,0x9A,0x90,0xB6,0x8E,0xB7,0x8F,0x80,0xD2,0xD3,0xD4,0xD8,0xD7,0xDE,0x8E,0x8F,0x9
 273:sdc/ff.c      **** 				0xB5,0xD6,0xE0,0xE9,0xA5,0xA5,0xA6,0xA7,0xA8,0xA9,0xAA,0xAB,0xAC,0x21,0xAE,0xAF,0xB0,0xB1,0xB2,
 274:sdc/ff.c      **** 				0xC0,0xC1,0xC2,0xC3,0xC4,0xC5,0xC7,0xC7,0xC8,0xC9,0xCA,0xCB,0xCC,0xCD,0xCE,0xCF,0xD1,0xD1,0xD2,
 275:sdc/ff.c      **** 				0xE0,0xE1,0xE2,0xE3,0xE5,0xE5,0xE6,0xE7,0xE7,0xE9,0xEA,0xEB,0xED,0xED,0xEE,0xEF,0xF0,0xF1,0xF2,
 276:sdc/ff.c      **** 
 277:sdc/ff.c      **** #elif _CODE_PAGE == 862	/* Hebrew (OEM) */
 278:sdc/ff.c      **** #define _DF1S	0
 279:sdc/ff.c      **** #define _EXCVT {0x80,0x81,0x82,0x83,0x84,0x85,0x86,0x87,0x88,0x89,0x8A,0x8B,0x8C,0x8D,0x8E,0x8F,0x9
 280:sdc/ff.c      **** 				0x41,0x49,0x4F,0x55,0xA5,0xA5,0xA6,0xA7,0xA8,0xA9,0xAA,0xAB,0xAC,0x21,0xAE,0xAF,0xB0,0xB1,0xB2,
 281:sdc/ff.c      **** 				0xC0,0xC1,0xC2,0xC3,0xC4,0xC5,0xC6,0xC7,0xC8,0xC9,0xCA,0xCB,0xCC,0xCD,0xCE,0xCF,0xD0,0xD1,0xD2,
 282:sdc/ff.c      **** 				0xE0,0xE1,0xE2,0xE3,0xE4,0xE5,0xE6,0xE7,0xE8,0xE9,0xEA,0xEB,0xEC,0xED,0xEE,0xEF,0xF0,0xF1,0xF2,
 283:sdc/ff.c      **** 
 284:sdc/ff.c      **** #elif _CODE_PAGE == 866	/* Russian (OEM) */
 285:sdc/ff.c      **** #define _DF1S	0
 286:sdc/ff.c      **** #define _EXCVT {0x80,0x81,0x82,0x83,0x84,0x85,0x86,0x87,0x88,0x89,0x8A,0x8B,0x8C,0x8D,0x8E,0x8F,0x9
 287:sdc/ff.c      **** 				0x80,0x81,0x82,0x83,0x84,0x85,0x86,0x87,0x88,0x89,0x8A,0x8B,0x8C,0x8D,0x8E,0x8F,0xB0,0xB1,0xB2,
 288:sdc/ff.c      **** 				0xC0,0xC1,0xC2,0xC3,0xC4,0xC5,0xC6,0xC7,0xC8,0xC9,0xCA,0xCB,0xCC,0xCD,0xCE,0xCF,0xD0,0xD1,0xD2,
 289:sdc/ff.c      **** 				0x90,0x91,0x92,0x93,0x9d,0x95,0x96,0x97,0x98,0x99,0x9A,0x9B,0x9C,0x9D,0x9E,0x9F,0xF0,0xF0,0xF2,
 290:sdc/ff.c      **** 
 291:sdc/ff.c      **** #elif _CODE_PAGE == 874	/* Thai (OEM, Windows) */
 292:sdc/ff.c      **** #define _DF1S	0
 293:sdc/ff.c      **** #define _EXCVT {0x80,0x81,0x82,0x83,0x84,0x85,0x86,0x87,0x88,0x89,0x8A,0x8B,0x8C,0x8D,0x8E,0x8F,0x9
 294:sdc/ff.c      **** 				0xA0,0xA1,0xA2,0xA3,0xA4,0xA5,0xA6,0xA7,0xA8,0xA9,0xAA,0xAB,0xAC,0xAD,0xAE,0xAF,0xB0,0xB1,0xB2,
 295:sdc/ff.c      **** 				0xC0,0xC1,0xC2,0xC3,0xC4,0xC5,0xC6,0xC7,0xC8,0xC9,0xCA,0xCB,0xCC,0xCD,0xCE,0xCF,0xD0,0xD1,0xD2,
 296:sdc/ff.c      **** 				0xE0,0xE1,0xE2,0xE3,0xE4,0xE5,0xE6,0xE7,0xE8,0xE9,0xEA,0xEB,0xEC,0xED,0xEE,0xEF,0xF0,0xF1,0xF2,
 297:sdc/ff.c      **** 
 298:sdc/ff.c      **** #elif _CODE_PAGE == 1250 /* Central Europe (Windows) */
 299:sdc/ff.c      **** #define _DF1S	0
 300:sdc/ff.c      **** #define _EXCVT {0x80,0x81,0x82,0x83,0x84,0x85,0x86,0x87,0x88,0x89,0x8A,0x8B,0x8C,0x8D,0x8E,0x8F,0x9
 301:sdc/ff.c      **** 				0xA0,0xA1,0xA2,0xA3,0xA4,0xA5,0xA6,0xA7,0xA8,0xA9,0xAA,0xAB,0xAC,0xAD,0xAE,0xAF,0xB0,0xB1,0xB2,
 302:sdc/ff.c      **** 				0xC0,0xC1,0xC2,0xC3,0xC4,0xC5,0xC6,0xC7,0xC8,0xC9,0xCA,0xCB,0xCC,0xCD,0xCE,0xCF,0xD0,0xD1,0xD2,
 303:sdc/ff.c      **** 				0xC0,0xC1,0xC2,0xC3,0xC4,0xC5,0xC6,0xC7,0xC8,0xC9,0xCA,0xCB,0xCC,0xCD,0xCE,0xCF,0xD0,0xD1,0xD2,
 304:sdc/ff.c      **** 
 305:sdc/ff.c      **** #elif _CODE_PAGE == 1251 /* Cyrillic (Windows) */
 306:sdc/ff.c      **** #define _DF1S	0
 307:sdc/ff.c      **** #define _EXCVT {0x80,0x81,0x82,0x82,0x84,0x85,0x86,0x87,0x88,0x89,0x8A,0x8B,0x8C,0x8D,0x8E,0x8F,0x8
 308:sdc/ff.c      **** 				0xA0,0xA2,0xA2,0xA3,0xA4,0xA5,0xA6,0xA7,0xA8,0xA9,0xAA,0xAB,0xAC,0xAD,0xAE,0xAF,0xB0,0xB1,0xB2,
 309:sdc/ff.c      **** 				0xC0,0xC1,0xC2,0xC3,0xC4,0xC5,0xC6,0xC7,0xC8,0xC9,0xCA,0xCB,0xCC,0xCD,0xCE,0xCF,0xD0,0xD1,0xD2,
 310:sdc/ff.c      **** 				0xC0,0xC1,0xC2,0xC3,0xC4,0xC5,0xC6,0xC7,0xC8,0xC9,0xCA,0xCB,0xCC,0xCD,0xCE,0xCF,0xD0,0xD1,0xD2,
 311:sdc/ff.c      **** 
 312:sdc/ff.c      **** #elif _CODE_PAGE == 1252 /* Latin 1 (Windows) */
 313:sdc/ff.c      **** #define _DF1S	0
 314:sdc/ff.c      **** #define _EXCVT {0x80,0x81,0x82,0x83,0x84,0x85,0x86,0x87,0x88,0x89,0x8A,0x8B,0x8C,0x8D,0x8E,0x8F,0x9
 315:sdc/ff.c      **** 				0xA0,0x21,0xA2,0xA3,0xA4,0xA5,0xA6,0xA7,0xA8,0xA9,0xAA,0xAB,0xAC,0xAD,0xAE,0xAF,0xB0,0xB1,0xB2,
 316:sdc/ff.c      **** 				0xC0,0xC1,0xC2,0xC3,0xC4,0xC5,0xC6,0xC7,0xC8,0xC9,0xCA,0xCB,0xCC,0xCD,0xCE,0xCF,0xD0,0xD1,0xD2,
ARM GAS  C:\Users\cronos\AppData\Local\Temp\ccinF6bS.s 			page 7


 317:sdc/ff.c      **** 				0xC0,0xC1,0xC2,0xC3,0xC4,0xC5,0xC6,0xC7,0xC8,0xC9,0xCA,0xCB,0xCC,0xCD,0xCE,0xCF,0xD0,0xD1,0xD2,
 318:sdc/ff.c      **** 
 319:sdc/ff.c      **** #elif _CODE_PAGE == 1253 /* Greek (Windows) */
 320:sdc/ff.c      **** #define _DF1S	0
 321:sdc/ff.c      **** #define _EXCVT {0x80,0x81,0x82,0x83,0x84,0x85,0x86,0x87,0x88,0x89,0x8A,0x8B,0x8C,0x8D,0x8E,0x8F,0x9
 322:sdc/ff.c      **** 				0xA0,0xA1,0xA2,0xA3,0xA4,0xA5,0xA6,0xA7,0xA8,0xA9,0xAA,0xAB,0xAC,0xAD,0xAE,0xAF,0xB0,0xB1,0xB2,
 323:sdc/ff.c      **** 				0xC0,0xC1,0xC2,0xC3,0xC4,0xC5,0xC6,0xC7,0xC8,0xC9,0xCA,0xCB,0xCC,0xCD,0xCE,0xCF,0xD0,0xD1,0xD2,
 324:sdc/ff.c      **** 				0xE0,0xC1,0xC2,0xC3,0xC4,0xC5,0xC6,0xC7,0xC8,0xC9,0xCA,0xCB,0xCC,0xCD,0xCE,0xCF,0xD0,0xD1,0xF2,
 325:sdc/ff.c      **** 
 326:sdc/ff.c      **** #elif _CODE_PAGE == 1254 /* Turkish (Windows) */
 327:sdc/ff.c      **** #define _DF1S	0
 328:sdc/ff.c      **** #define _EXCVT {0x80,0x81,0x82,0x83,0x84,0x85,0x86,0x87,0x88,0x89,0x8A,0x8B,0x8C,0x8D,0x8E,0x8F,0x9
 329:sdc/ff.c      **** 				0xA0,0x21,0xA2,0xA3,0xA4,0xA5,0xA6,0xA7,0xA8,0xA9,0xAA,0xAB,0xAC,0xAD,0xAE,0xAF,0xB0,0xB1,0xB2,
 330:sdc/ff.c      **** 				0xC0,0xC1,0xC2,0xC3,0xC4,0xC5,0xC6,0xC7,0xC8,0xC9,0xCA,0xCB,0xCC,0xCD,0xCE,0xCF,0xD0,0xD1,0xD2,
 331:sdc/ff.c      **** 				0xC0,0xC1,0xC2,0xC3,0xC4,0xC5,0xC6,0xC7,0xC8,0xC9,0xCA,0xCB,0xCC,0xCD,0xCE,0xCF,0xD0,0xD1,0xD2,
 332:sdc/ff.c      **** 
 333:sdc/ff.c      **** #elif _CODE_PAGE == 1255 /* Hebrew (Windows) */
 334:sdc/ff.c      **** #define _DF1S	0
 335:sdc/ff.c      **** #define _EXCVT {0x80,0x81,0x82,0x83,0x84,0x85,0x86,0x87,0x88,0x89,0x8A,0x8B,0x8C,0x8D,0x8E,0x8F,0x9
 336:sdc/ff.c      **** 				0xA0,0x21,0xA2,0xA3,0xA4,0xA5,0xA6,0xA7,0xA8,0xA9,0xAA,0xAB,0xAC,0xAD,0xAE,0xAF,0xB0,0xB1,0xB2,
 337:sdc/ff.c      **** 				0xC0,0xC1,0xC2,0xC3,0xC4,0xC5,0xC6,0xC7,0xC8,0xC9,0xCA,0xCB,0xCC,0xCD,0xCE,0xCF,0xD0,0xD1,0xD2,
 338:sdc/ff.c      **** 				0xE0,0xE1,0xE2,0xE3,0xE4,0xE5,0xE6,0xE7,0xE8,0xE9,0xEA,0xEB,0xEC,0xED,0xEE,0xEF,0xF0,0xF1,0xF2,
 339:sdc/ff.c      **** 
 340:sdc/ff.c      **** #elif _CODE_PAGE == 1256 /* Arabic (Windows) */
 341:sdc/ff.c      **** #define _DF1S	0
 342:sdc/ff.c      **** #define _EXCVT {0x80,0x81,0x82,0x83,0x84,0x85,0x86,0x87,0x88,0x89,0x8A,0x8B,0x8C,0x8D,0x8E,0x8F,0x9
 343:sdc/ff.c      **** 				0xA0,0xA1,0xA2,0xA3,0xA4,0xA5,0xA6,0xA7,0xA8,0xA9,0xAA,0xAB,0xAC,0xAD,0xAE,0xAF,0xB0,0xB1,0xB2,
 344:sdc/ff.c      **** 				0xC0,0xC1,0xC2,0xC3,0xC4,0xC5,0xC6,0xC7,0xC8,0xC9,0xCA,0xCB,0xCC,0xCD,0xCE,0xCF,0xD0,0xD1,0xD2,
 345:sdc/ff.c      **** 				0x41,0xE1,0x41,0xE3,0xE4,0xE5,0xE6,0x43,0x45,0x45,0x45,0x45,0xEC,0xED,0x49,0x49,0xF0,0xF1,0xF2,
 346:sdc/ff.c      **** 
 347:sdc/ff.c      **** #elif _CODE_PAGE == 1257 /* Baltic (Windows) */
 348:sdc/ff.c      **** #define _DF1S	0
 349:sdc/ff.c      **** #define _EXCVT {0x80,0x81,0x82,0x83,0x84,0x85,0x86,0x87,0x88,0x89,0x8A,0x8B,0x8C,0x8D,0x8E,0x8F,0x9
 350:sdc/ff.c      **** 				0xA0,0xA1,0xA2,0xA3,0xA4,0xA5,0xA6,0xA7,0xA8,0xA9,0xAA,0xAB,0xAC,0xAD,0xAE,0xAF,0xB0,0xB1,0xB2,
 351:sdc/ff.c      **** 				0xC0,0xC1,0xC2,0xC3,0xC4,0xC5,0xC6,0xC7,0xC8,0xC9,0xCA,0xCB,0xCC,0xCD,0xCE,0xCF,0xD0,0xD1,0xD2,
 352:sdc/ff.c      **** 				0xC0,0xC1,0xC2,0xC3,0xC4,0xC5,0xC6,0xC7,0xC8,0xC9,0xCA,0xCB,0xCC,0xCD,0xCE,0xCF,0xD0,0xD1,0xD2,
 353:sdc/ff.c      **** 
 354:sdc/ff.c      **** #elif _CODE_PAGE == 1258 /* Vietnam (OEM, Windows) */
 355:sdc/ff.c      **** #define _DF1S	0
 356:sdc/ff.c      **** #define _EXCVT {0x80,0x81,0x82,0x83,0x84,0x85,0x86,0x87,0x88,0x89,0x8A,0x8B,0x8C,0x8D,0x8E,0x8F,0x9
 357:sdc/ff.c      **** 				0xA0,0x21,0xA2,0xA3,0xA4,0xA5,0xA6,0xA7,0xA8,0xA9,0xAA,0xAB,0xAC,0xAD,0xAE,0xAF,0xB0,0xB1,0xB2,
 358:sdc/ff.c      **** 				0xC0,0xC1,0xC2,0xC3,0xC4,0xC5,0xC6,0xC7,0xC8,0xC9,0xCA,0xCB,0xCC,0xCD,0xCE,0xCF,0xD0,0xD1,0xD2,
 359:sdc/ff.c      **** 				0xC0,0xC1,0xC2,0xC3,0xC4,0xC5,0xC6,0xC7,0xC8,0xC9,0xCA,0xCB,0xEC,0xCD,0xCE,0xCF,0xD0,0xD1,0xF2,
 360:sdc/ff.c      **** 
 361:sdc/ff.c      **** #elif _CODE_PAGE == 1	/* ASCII (for only non-LFN cfg) */
 362:sdc/ff.c      **** #if _USE_LFN
 363:sdc/ff.c      **** #error Cannot use LFN feature without valid code page.
 364:sdc/ff.c      **** #endif
 365:sdc/ff.c      **** #define _DF1S	0
 366:sdc/ff.c      **** 
 367:sdc/ff.c      **** #else
 368:sdc/ff.c      **** #error Unknown code page
 369:sdc/ff.c      **** 
 370:sdc/ff.c      **** #endif
 371:sdc/ff.c      **** 
 372:sdc/ff.c      **** 
 373:sdc/ff.c      **** /* Character code support macros */
ARM GAS  C:\Users\cronos\AppData\Local\Temp\ccinF6bS.s 			page 8


 374:sdc/ff.c      **** #define IsUpper(c)	(((c)>='A')&&((c)<='Z'))
 375:sdc/ff.c      **** #define IsLower(c)	(((c)>='a')&&((c)<='z'))
 376:sdc/ff.c      **** #define IsDigit(c)	(((c)>='0')&&((c)<='9'))
 377:sdc/ff.c      **** 
 378:sdc/ff.c      **** #if _DF1S		/* Code page is DBCS */
 379:sdc/ff.c      **** 
 380:sdc/ff.c      **** #ifdef _DF2S	/* Two 1st byte areas */
 381:sdc/ff.c      **** #define IsDBCS1(c)	(((BYTE)(c) >= _DF1S && (BYTE)(c) <= _DF1E) || ((BYTE)(c) >= _DF2S && (BYTE)(c) 
 382:sdc/ff.c      **** #else			/* One 1st byte area */
 383:sdc/ff.c      **** #define IsDBCS1(c)	((BYTE)(c) >= _DF1S && (BYTE)(c) <= _DF1E)
 384:sdc/ff.c      **** #endif
 385:sdc/ff.c      **** 
 386:sdc/ff.c      **** #ifdef _DS3S	/* Three 2nd byte areas */
 387:sdc/ff.c      **** #define IsDBCS2(c)	(((BYTE)(c) >= _DS1S && (BYTE)(c) <= _DS1E) || ((BYTE)(c) >= _DS2S && (BYTE)(c) 
 388:sdc/ff.c      **** #else			/* Two 2nd byte areas */
 389:sdc/ff.c      **** #define IsDBCS2(c)	(((BYTE)(c) >= _DS1S && (BYTE)(c) <= _DS1E) || ((BYTE)(c) >= _DS2S && (BYTE)(c) 
 390:sdc/ff.c      **** #endif
 391:sdc/ff.c      **** 
 392:sdc/ff.c      **** #else			/* Code page is SBCS */
 393:sdc/ff.c      **** 
 394:sdc/ff.c      **** #define IsDBCS1(c)	0
 395:sdc/ff.c      **** #define IsDBCS2(c)	0
 396:sdc/ff.c      **** 
 397:sdc/ff.c      **** #endif /* _DF1S */
 398:sdc/ff.c      **** 
 399:sdc/ff.c      **** 
 400:sdc/ff.c      **** /* Name status flags */
 401:sdc/ff.c      **** #define NS			11		/* Index of name status byte in fn[] */
 402:sdc/ff.c      **** #define NS_LOSS		0x01	/* Out of 8.3 format */
 403:sdc/ff.c      **** #define NS_LFN		0x02	/* Force to create LFN entry */
 404:sdc/ff.c      **** #define NS_LAST		0x04	/* Last segment */
 405:sdc/ff.c      **** #define NS_BODY		0x08	/* Lower case flag (body) */
 406:sdc/ff.c      **** #define NS_EXT		0x10	/* Lower case flag (ext) */
 407:sdc/ff.c      **** #define NS_DOT		0x20	/* Dot entry */
 408:sdc/ff.c      **** 
 409:sdc/ff.c      **** 
 410:sdc/ff.c      **** /* FAT sub-type boundaries */
 411:sdc/ff.c      **** #define MIN_FAT16	4086U	/* Minimum number of clusters for FAT16 */
 412:sdc/ff.c      **** #define	MIN_FAT32	65526U	/* Minimum number of clusters for FAT32 */
 413:sdc/ff.c      **** 
 414:sdc/ff.c      **** 
 415:sdc/ff.c      **** /* FatFs refers the members in the FAT structures as byte array instead of
 416:sdc/ff.c      **** / structure member because the structure is not binary compatible between
 417:sdc/ff.c      **** / different platforms */
 418:sdc/ff.c      **** 
 419:sdc/ff.c      **** #define BS_jmpBoot			0		/* Jump instruction (3) */
 420:sdc/ff.c      **** #define BS_OEMName			3		/* OEM name (8) */
 421:sdc/ff.c      **** #define BPB_BytsPerSec		11		/* Sector size [byte] (2) */
 422:sdc/ff.c      **** #define BPB_SecPerClus		13		/* Cluster size [sector] (1) */
 423:sdc/ff.c      **** #define BPB_RsvdSecCnt		14		/* Size of reserved area [sector] (2) */
 424:sdc/ff.c      **** #define BPB_NumFATs			16		/* Number of FAT copies (1) */
 425:sdc/ff.c      **** #define BPB_RootEntCnt		17		/* Number of root directory entries for FAT12/16 (2) */
 426:sdc/ff.c      **** #define BPB_TotSec16		19		/* Volume size [sector] (2) */
 427:sdc/ff.c      **** #define BPB_Media			21		/* Media descriptor (1) */
 428:sdc/ff.c      **** #define BPB_FATSz16			22		/* FAT size [sector] (2) */
 429:sdc/ff.c      **** #define BPB_SecPerTrk		24		/* Track size [sector] (2) */
 430:sdc/ff.c      **** #define BPB_NumHeads		26		/* Number of heads (2) */
ARM GAS  C:\Users\cronos\AppData\Local\Temp\ccinF6bS.s 			page 9


 431:sdc/ff.c      **** #define BPB_HiddSec			28		/* Number of special hidden sectors (4) */
 432:sdc/ff.c      **** #define BPB_TotSec32		32		/* Volume size [sector] (4) */
 433:sdc/ff.c      **** #define BS_DrvNum			36		/* Physical drive number (2) */
 434:sdc/ff.c      **** #define BS_BootSig			38		/* Extended boot signature (1) */
 435:sdc/ff.c      **** #define BS_VolID			39		/* Volume serial number (4) */
 436:sdc/ff.c      **** #define BS_VolLab			43		/* Volume label (8) */
 437:sdc/ff.c      **** #define BS_FilSysType		54		/* File system type (1) */
 438:sdc/ff.c      **** #define BPB_FATSz32			36		/* FAT size [sector] (4) */
 439:sdc/ff.c      **** #define BPB_ExtFlags		40		/* Extended flags (2) */
 440:sdc/ff.c      **** #define BPB_FSVer			42		/* File system version (2) */
 441:sdc/ff.c      **** #define BPB_RootClus		44		/* Root directory first cluster (4) */
 442:sdc/ff.c      **** #define BPB_FSInfo			48		/* Offset of FSINFO sector (2) */
 443:sdc/ff.c      **** #define BPB_BkBootSec		50		/* Offset of backup boot sector (2) */
 444:sdc/ff.c      **** #define BS_DrvNum32			64		/* Physical drive number (2) */
 445:sdc/ff.c      **** #define BS_BootSig32		66		/* Extended boot signature (1) */
 446:sdc/ff.c      **** #define BS_VolID32			67		/* Volume serial number (4) */
 447:sdc/ff.c      **** #define BS_VolLab32			71		/* Volume label (8) */
 448:sdc/ff.c      **** #define BS_FilSysType32		82		/* File system type (1) */
 449:sdc/ff.c      **** #define	FSI_LeadSig			0		/* FSI: Leading signature (4) */
 450:sdc/ff.c      **** #define	FSI_StrucSig		484		/* FSI: Structure signature (4) */
 451:sdc/ff.c      **** #define	FSI_Free_Count		488		/* FSI: Number of free clusters (4) */
 452:sdc/ff.c      **** #define	FSI_Nxt_Free		492		/* FSI: Last allocated cluster (4) */
 453:sdc/ff.c      **** #define MBR_Table			446		/* MBR: Partition table offset (2) */
 454:sdc/ff.c      **** #define	SZ_PTE				16		/* MBR: Size of a partition table entry */
 455:sdc/ff.c      **** #define BS_55AA				510		/* Signature word (2) */
 456:sdc/ff.c      **** 
 457:sdc/ff.c      **** #define	DIR_Name			0		/* Short file name (11) */
 458:sdc/ff.c      **** #define	DIR_Attr			11		/* Attribute (1) */
 459:sdc/ff.c      **** #define	DIR_NTres			12		/* NT flag (1) */
 460:sdc/ff.c      **** #define DIR_CrtTimeTenth	13		/* Created time sub-second (1) */
 461:sdc/ff.c      **** #define	DIR_CrtTime			14		/* Created time (2) */
 462:sdc/ff.c      **** #define	DIR_CrtDate			16		/* Created date (2) */
 463:sdc/ff.c      **** #define DIR_LstAccDate		18		/* Last accessed date (2) */
 464:sdc/ff.c      **** #define	DIR_FstClusHI		20		/* Higher 16-bit of first cluster (2) */
 465:sdc/ff.c      **** #define	DIR_WrtTime			22		/* Modified time (2) */
 466:sdc/ff.c      **** #define	DIR_WrtDate			24		/* Modified date (2) */
 467:sdc/ff.c      **** #define	DIR_FstClusLO		26		/* Lower 16-bit of first cluster (2) */
 468:sdc/ff.c      **** #define	DIR_FileSize		28		/* File size (4) */
 469:sdc/ff.c      **** #define	LDIR_Ord			0		/* LFN entry order and LLE flag (1) */
 470:sdc/ff.c      **** #define	LDIR_Attr			11		/* LFN attribute (1) */
 471:sdc/ff.c      **** #define	LDIR_Type			12		/* LFN type (1) */
 472:sdc/ff.c      **** #define	LDIR_Chksum			13		/* Sum of corresponding SFN entry */
 473:sdc/ff.c      **** #define	LDIR_FstClusLO		26		/* Filled by zero (0) */
 474:sdc/ff.c      **** #define	SZ_DIR				32		/* Size of a directory entry */
 475:sdc/ff.c      **** #define	LLE					0x40	/* Last long entry flag in LDIR_Ord */
 476:sdc/ff.c      **** #define	DDE					0xE5	/* Deleted directory entry mark in DIR_Name[0] */
 477:sdc/ff.c      **** #define	NDDE				0x05	/* Replacement of the character collides with DDE */
 478:sdc/ff.c      **** 
 479:sdc/ff.c      **** 
 480:sdc/ff.c      **** 
 481:sdc/ff.c      **** 
 482:sdc/ff.c      **** /*------------------------------------------------------------*/
 483:sdc/ff.c      **** /* Module private work area                                   */
 484:sdc/ff.c      **** /*------------------------------------------------------------*/
 485:sdc/ff.c      **** /* Note that uninitialized variables with static duration are
 486:sdc/ff.c      **** /  guaranteed zero/null as initial value. If not, either the
 487:sdc/ff.c      **** /  linker or start-up routine is out of ANSI-C standard.
ARM GAS  C:\Users\cronos\AppData\Local\Temp\ccinF6bS.s 			page 10


 488:sdc/ff.c      **** */
 489:sdc/ff.c      **** 
 490:sdc/ff.c      **** #if _VOLUMES >= 1 || _VOLUMES <= 10
 491:sdc/ff.c      **** static
 492:sdc/ff.c      **** FATFS *FatFs[_VOLUMES];		/* Pointer to the file system objects (logical drives) */
 493:sdc/ff.c      **** #else
 494:sdc/ff.c      **** #error Number of volumes must be 1 to 10.
 495:sdc/ff.c      **** #endif
 496:sdc/ff.c      **** 
 497:sdc/ff.c      **** static
 498:sdc/ff.c      **** WORD Fsid;					/* File system mount ID */
 499:sdc/ff.c      **** 
 500:sdc/ff.c      **** #if _FS_RPATH && _VOLUMES >= 2
 501:sdc/ff.c      **** static
 502:sdc/ff.c      **** BYTE CurrVol;				/* Current drive */
 503:sdc/ff.c      **** #endif
 504:sdc/ff.c      **** 
 505:sdc/ff.c      **** #if _FS_LOCK
 506:sdc/ff.c      **** static
 507:sdc/ff.c      **** FILESEM	Files[_FS_LOCK];	/* Open object lock semaphores */
 508:sdc/ff.c      **** #endif
 509:sdc/ff.c      **** 
 510:sdc/ff.c      **** #if _USE_LFN == 0			/* No LFN feature */
 511:sdc/ff.c      **** #define	DEF_NAMEBUF			BYTE sfn[12]
 512:sdc/ff.c      **** #define INIT_BUF(dobj)		(dobj).fn = sfn
 513:sdc/ff.c      **** #define	FREE_BUF()
 514:sdc/ff.c      **** 
 515:sdc/ff.c      **** #elif _USE_LFN == 1			/* LFN feature with static working buffer */
 516:sdc/ff.c      **** static
 517:sdc/ff.c      **** WCHAR LfnBuf[_MAX_LFN+1];
 518:sdc/ff.c      **** #define	DEF_NAMEBUF			BYTE sfn[12]
 519:sdc/ff.c      **** #define INIT_BUF(dobj)		{ (dobj).fn = sfn; (dobj).lfn = LfnBuf; }
 520:sdc/ff.c      **** #define	FREE_BUF()
 521:sdc/ff.c      **** 
 522:sdc/ff.c      **** #elif _USE_LFN == 2 		/* LFN feature with dynamic working buffer on the stack */
 523:sdc/ff.c      **** #define	DEF_NAMEBUF			BYTE sfn[12]; WCHAR lbuf[_MAX_LFN+1]
 524:sdc/ff.c      **** #define INIT_BUF(dobj)		{ (dobj).fn = sfn; (dobj).lfn = lbuf; }
 525:sdc/ff.c      **** #define	FREE_BUF()
 526:sdc/ff.c      **** 
 527:sdc/ff.c      **** #elif _USE_LFN == 3 		/* LFN feature with dynamic working buffer on the heap */
 528:sdc/ff.c      **** #define	DEF_NAMEBUF			BYTE sfn[12]; WCHAR *lfn
 529:sdc/ff.c      **** #define INIT_BUF(dobj)		{ lfn = ff_memalloc((_MAX_LFN + 1) * 2); \
 530:sdc/ff.c      **** 							  if (!lfn) LEAVE_FF((dobj).fs, FR_NOT_ENOUGH_CORE); \
 531:sdc/ff.c      **** 							  (dobj).lfn = lfn;	(dobj).fn = sfn; }
 532:sdc/ff.c      **** #define	FREE_BUF()			ff_memfree(lfn)
 533:sdc/ff.c      **** 
 534:sdc/ff.c      **** #else
 535:sdc/ff.c      **** #error Wrong LFN configuration.
 536:sdc/ff.c      **** #endif
 537:sdc/ff.c      **** 
 538:sdc/ff.c      **** 
 539:sdc/ff.c      **** #ifdef _EXCVT
 540:sdc/ff.c      **** static
 541:sdc/ff.c      **** const BYTE ExCvt[] = _EXCVT;	/* Upper conversion table for extended characters */
 542:sdc/ff.c      **** #endif
 543:sdc/ff.c      **** 
 544:sdc/ff.c      **** 
ARM GAS  C:\Users\cronos\AppData\Local\Temp\ccinF6bS.s 			page 11


 545:sdc/ff.c      **** 
 546:sdc/ff.c      **** 
 547:sdc/ff.c      **** 
 548:sdc/ff.c      **** 
 549:sdc/ff.c      **** /*--------------------------------------------------------------------------
 550:sdc/ff.c      **** 
 551:sdc/ff.c      ****    Module Private Functions
 552:sdc/ff.c      **** 
 553:sdc/ff.c      **** ---------------------------------------------------------------------------*/
 554:sdc/ff.c      **** 
 555:sdc/ff.c      **** 
 556:sdc/ff.c      **** /*-----------------------------------------------------------------------*/
 557:sdc/ff.c      **** /* String functions                                                      */
 558:sdc/ff.c      **** /*-----------------------------------------------------------------------*/
 559:sdc/ff.c      **** 
 560:sdc/ff.c      **** /* Copy memory to memory */
 561:sdc/ff.c      **** static
 562:sdc/ff.c      **** void mem_cpy (void* dst, const void* src, UINT cnt) {
  27              		.loc 1 562 0
  28              		.cfi_startproc
  29              		@ args = 0, pretend = 0, frame = 0
  30              		@ frame_needed = 0, uses_anonymous_args = 0
  31              		@ link register save eliminated.
  32              	.LVL0:
 563:sdc/ff.c      **** 	BYTE *d = (BYTE*)dst;
 564:sdc/ff.c      **** 	const BYTE *s = (const BYTE*)src;
 565:sdc/ff.c      **** 
 566:sdc/ff.c      **** #if _WORD_ACCESS == 1
 567:sdc/ff.c      **** 	while (cnt >= sizeof (int)) {
 568:sdc/ff.c      **** 		*(int*)d = *(int*)s;
 569:sdc/ff.c      **** 		d += sizeof (int); s += sizeof (int);
 570:sdc/ff.c      **** 		cnt -= sizeof (int);
 571:sdc/ff.c      **** 	}
 572:sdc/ff.c      **** #endif
 573:sdc/ff.c      **** 	while (cnt--)
  33              		.loc 1 573 0
  34 0000 04E0     		b	.L2
  35              	.LVL1:
  36              	.L3:
 574:sdc/ff.c      **** 		*d++ = *s++;
  37              		.loc 1 574 0
  38 0002 0A78     		ldrb	r2, [r1]	@ zero_extendqisi2
  39 0004 0270     		strb	r2, [r0]
 573:sdc/ff.c      **** 		*d++ = *s++;
  40              		.loc 1 573 0
  41 0006 1A46     		mov	r2, r3
  42              		.loc 1 574 0
  43 0008 0131     		adds	r1, r1, #1
  44              	.LVL2:
  45 000a 0130     		adds	r0, r0, #1
  46              	.LVL3:
  47              	.L2:
 573:sdc/ff.c      **** 		*d++ = *s++;
  48              		.loc 1 573 0
  49 000c 531E     		subs	r3, r2, #1
  50              	.LVL4:
  51 000e 002A     		cmp	r2, #0
ARM GAS  C:\Users\cronos\AppData\Local\Temp\ccinF6bS.s 			page 12


  52 0010 F7D1     		bne	.L3
 575:sdc/ff.c      **** }
  53              		.loc 1 575 0
  54 0012 7047     		bx	lr
  55              		.cfi_endproc
  56              	.LFE0:
  57              		.size	mem_cpy, .-mem_cpy
  58              		.section	.text.mem_set,"ax",%progbits
  59              		.align	2
  60              		.thumb
  61              		.thumb_func
  62              		.type	mem_set, %function
  63              	mem_set:
  64              	.LFB1:
 576:sdc/ff.c      **** 
 577:sdc/ff.c      **** /* Fill memory */
 578:sdc/ff.c      **** static
 579:sdc/ff.c      **** void mem_set (void* dst, int val, UINT cnt) {
  65              		.loc 1 579 0
  66              		.cfi_startproc
  67              		@ args = 0, pretend = 0, frame = 0
  68              		@ frame_needed = 0, uses_anonymous_args = 0
  69              		@ link register save eliminated.
  70              	.LVL5:
 580:sdc/ff.c      **** 	BYTE *d = (BYTE*)dst;
 581:sdc/ff.c      **** 
 582:sdc/ff.c      **** 	while (cnt--)
  71              		.loc 1 582 0
  72 0000 02E0     		b	.L5
  73              	.LVL6:
  74              	.L6:
 583:sdc/ff.c      **** 		*d++ = (BYTE)val;
  75              		.loc 1 583 0
  76 0002 0170     		strb	r1, [r0]
 582:sdc/ff.c      **** 		*d++ = (BYTE)val;
  77              		.loc 1 582 0
  78 0004 1A46     		mov	r2, r3
  79              		.loc 1 583 0
  80 0006 0130     		adds	r0, r0, #1
  81              	.LVL7:
  82              	.L5:
 582:sdc/ff.c      **** 		*d++ = (BYTE)val;
  83              		.loc 1 582 0
  84 0008 531E     		subs	r3, r2, #1
  85              	.LVL8:
  86 000a 002A     		cmp	r2, #0
  87 000c F9D1     		bne	.L6
 584:sdc/ff.c      **** }
  88              		.loc 1 584 0
  89 000e 7047     		bx	lr
  90              		.cfi_endproc
  91              	.LFE1:
  92              		.size	mem_set, .-mem_set
  93              		.section	.text.mem_cmp,"ax",%progbits
  94              		.align	2
  95              		.thumb
  96              		.thumb_func
ARM GAS  C:\Users\cronos\AppData\Local\Temp\ccinF6bS.s 			page 13


  97              		.type	mem_cmp, %function
  98              	mem_cmp:
  99              	.LFB2:
 585:sdc/ff.c      **** 
 586:sdc/ff.c      **** /* Compare memory to memory */
 587:sdc/ff.c      **** static
 588:sdc/ff.c      **** int mem_cmp (const void* dst, const void* src, UINT cnt) {
 100              		.loc 1 588 0
 101              		.cfi_startproc
 102              		@ args = 0, pretend = 0, frame = 0
 103              		@ frame_needed = 0, uses_anonymous_args = 0
 104              		@ link register save eliminated.
 105              	.LVL9:
 106 0000 70B4     		push	{r4, r5, r6}
 107              		.cfi_def_cfa_offset 12
 108              		.cfi_offset 4, -12
 109              		.cfi_offset 5, -8
 110              		.cfi_offset 6, -4
 111              	.LVL10:
 589:sdc/ff.c      **** 	const BYTE *d = (const BYTE *)dst, *s = (const BYTE *)src;
 590:sdc/ff.c      **** 	int r = 0;
 112              		.loc 1 590 0
 113 0002 0023     		movs	r3, #0
 591:sdc/ff.c      **** 
 592:sdc/ff.c      **** 	while (cnt-- && (r = *d++ - *s++) == 0) ;
 114              		.loc 1 592 0
 115 0004 01E0     		b	.L9
 116              	.LVL11:
 117              	.L10:
 118 0006 2946     		mov	r1, r5
 119 0008 3046     		mov	r0, r6
 120              	.LVL12:
 121              	.L9:
 122              		.loc 1 592 0 is_stmt 0 discriminator 2
 123 000a 541E     		subs	r4, r2, #1
 124              	.LVL13:
 125 000c 32B1     		cbz	r2, .L8
 126              		.loc 1 592 0 discriminator 1
 127 000e 461C     		adds	r6, r0, #1
 128              	.LVL14:
 129 0010 0378     		ldrb	r3, [r0]	@ zero_extendqisi2
 130              	.LVL15:
 131 0012 4D1C     		adds	r5, r1, #1
 132              	.LVL16:
 133 0014 0878     		ldrb	r0, [r1]	@ zero_extendqisi2
 134              	.LVL17:
 135 0016 2246     		mov	r2, r4
 136 0018 1B1A     		subs	r3, r3, r0
 137              	.LVL18:
 138 001a F4D0     		beq	.L10
 139              	.LVL19:
 140              	.L8:
 593:sdc/ff.c      **** 	return r;
 594:sdc/ff.c      **** }
 141              		.loc 1 594 0 is_stmt 1
 142 001c 1846     		mov	r0, r3
 143 001e 70BC     		pop	{r4, r5, r6}
ARM GAS  C:\Users\cronos\AppData\Local\Temp\ccinF6bS.s 			page 14


 144              		.cfi_restore 6
 145              		.cfi_restore 5
 146              		.cfi_restore 4
 147              		.cfi_def_cfa_offset 0
 148              	.LVL20:
 149 0020 7047     		bx	lr
 150              		.cfi_endproc
 151              	.LFE2:
 152              		.size	mem_cmp, .-mem_cmp
 153 0022 00BF     		.section	.text.chk_chr,"ax",%progbits
 154              		.align	2
 155              		.thumb
 156              		.thumb_func
 157              		.type	chk_chr, %function
 158              	chk_chr:
 159              	.LFB3:
 595:sdc/ff.c      **** 
 596:sdc/ff.c      **** /* Check if chr is contained in the string */
 597:sdc/ff.c      **** static
 598:sdc/ff.c      **** int chk_chr (const char* str, int chr) {
 160              		.loc 1 598 0
 161              		.cfi_startproc
 162              		@ args = 0, pretend = 0, frame = 0
 163              		@ frame_needed = 0, uses_anonymous_args = 0
 164              		@ link register save eliminated.
 165              	.LVL21:
 599:sdc/ff.c      **** 	while (*str && *str != chr) str++;
 166              		.loc 1 599 0
 167 0000 00E0     		b	.L13
 168              	.L15:
 169              		.loc 1 599 0 is_stmt 0 discriminator 3
 170 0002 0130     		adds	r0, r0, #1
 171              	.LVL22:
 172              	.L13:
 173              		.loc 1 599 0 discriminator 1
 174 0004 0378     		ldrb	r3, [r0]	@ zero_extendqisi2
 175 0006 0BB1     		cbz	r3, .L14
 176              		.loc 1 599 0 discriminator 2
 177 0008 8B42     		cmp	r3, r1
 178 000a FAD1     		bne	.L15
 179              	.L14:
 600:sdc/ff.c      **** 	return *str;
 601:sdc/ff.c      **** }
 180              		.loc 1 601 0 is_stmt 1
 181 000c 1846     		mov	r0, r3
 182              	.LVL23:
 183 000e 7047     		bx	lr
 184              		.cfi_endproc
 185              	.LFE3:
 186              		.size	chk_chr, .-chk_chr
 187              		.section	.text.ld_clust,"ax",%progbits
 188              		.align	2
 189              		.thumb
 190              		.thumb_func
 191              		.type	ld_clust, %function
 192              	ld_clust:
 193              	.LFB15:
ARM GAS  C:\Users\cronos\AppData\Local\Temp\ccinF6bS.s 			page 15


 602:sdc/ff.c      **** 
 603:sdc/ff.c      **** 
 604:sdc/ff.c      **** 
 605:sdc/ff.c      **** 
 606:sdc/ff.c      **** /*-----------------------------------------------------------------------*/
 607:sdc/ff.c      **** /* Request/Release grant to access the volume                            */
 608:sdc/ff.c      **** /*-----------------------------------------------------------------------*/
 609:sdc/ff.c      **** #if _FS_REENTRANT
 610:sdc/ff.c      **** static
 611:sdc/ff.c      **** int lock_fs (
 612:sdc/ff.c      **** 	FATFS* fs		/* File system object */
 613:sdc/ff.c      **** )
 614:sdc/ff.c      **** {
 615:sdc/ff.c      **** 	return ff_req_grant(fs->sobj);
 616:sdc/ff.c      **** }
 617:sdc/ff.c      **** 
 618:sdc/ff.c      **** 
 619:sdc/ff.c      **** static
 620:sdc/ff.c      **** void unlock_fs (
 621:sdc/ff.c      **** 	FATFS* fs,		/* File system object */
 622:sdc/ff.c      **** 	FRESULT res		/* Result code to be returned */
 623:sdc/ff.c      **** )
 624:sdc/ff.c      **** {
 625:sdc/ff.c      **** 	if (fs &&
 626:sdc/ff.c      **** 		res != FR_NOT_ENABLED &&
 627:sdc/ff.c      **** 		res != FR_INVALID_DRIVE &&
 628:sdc/ff.c      **** 		res != FR_INVALID_OBJECT &&
 629:sdc/ff.c      **** 		res != FR_TIMEOUT) {
 630:sdc/ff.c      **** 		ff_rel_grant(fs->sobj);
 631:sdc/ff.c      **** 	}
 632:sdc/ff.c      **** }
 633:sdc/ff.c      **** #endif
 634:sdc/ff.c      **** 
 635:sdc/ff.c      **** 
 636:sdc/ff.c      **** 
 637:sdc/ff.c      **** 
 638:sdc/ff.c      **** /*-----------------------------------------------------------------------*/
 639:sdc/ff.c      **** /* File lock control functions                                           */
 640:sdc/ff.c      **** /*-----------------------------------------------------------------------*/
 641:sdc/ff.c      **** #if _FS_LOCK
 642:sdc/ff.c      **** 
 643:sdc/ff.c      **** static
 644:sdc/ff.c      **** FRESULT chk_lock (	/* Check if the file can be accessed */
 645:sdc/ff.c      **** 	DIR* dp,		/* Directory object pointing the file to be checked */
 646:sdc/ff.c      **** 	int acc			/* Desired access type (0:Read, 1:Write, 2:Delete/Rename) */
 647:sdc/ff.c      **** )
 648:sdc/ff.c      **** {
 649:sdc/ff.c      **** 	UINT i, be;
 650:sdc/ff.c      **** 
 651:sdc/ff.c      **** 	/* Search file semaphore table */
 652:sdc/ff.c      **** 	for (i = be = 0; i < _FS_LOCK; i++) {
 653:sdc/ff.c      **** 		if (Files[i].fs) {	/* Existing entry */
 654:sdc/ff.c      **** 			if (Files[i].fs == dp->fs &&	 	/* Check if the object matched with an open object */
 655:sdc/ff.c      **** 				Files[i].clu == dp->sclust &&
 656:sdc/ff.c      **** 				Files[i].idx == dp->index) break;
 657:sdc/ff.c      **** 		} else {			/* Blank entry */
 658:sdc/ff.c      **** 			be = 1;
ARM GAS  C:\Users\cronos\AppData\Local\Temp\ccinF6bS.s 			page 16


 659:sdc/ff.c      **** 		}
 660:sdc/ff.c      **** 	}
 661:sdc/ff.c      **** 	if (i == _FS_LOCK)	/* The object is not opened */
 662:sdc/ff.c      **** 		return (be || acc == 2) ? FR_OK : FR_TOO_MANY_OPEN_FILES;	/* Is there a blank entry for new objec
 663:sdc/ff.c      **** 
 664:sdc/ff.c      **** 	/* The object has been opened. Reject any open against writing file and all write mode open */
 665:sdc/ff.c      **** 	return (acc || Files[i].ctr == 0x100) ? FR_LOCKED : FR_OK;
 666:sdc/ff.c      **** }
 667:sdc/ff.c      **** 
 668:sdc/ff.c      **** 
 669:sdc/ff.c      **** static
 670:sdc/ff.c      **** int enq_lock (void)	/* Check if an entry is available for a new object */
 671:sdc/ff.c      **** {
 672:sdc/ff.c      **** 	UINT i;
 673:sdc/ff.c      **** 
 674:sdc/ff.c      **** 	for (i = 0; i < _FS_LOCK && Files[i].fs; i++) ;
 675:sdc/ff.c      **** 	return (i == _FS_LOCK) ? 0 : 1;
 676:sdc/ff.c      **** }
 677:sdc/ff.c      **** 
 678:sdc/ff.c      **** 
 679:sdc/ff.c      **** static
 680:sdc/ff.c      **** UINT inc_lock (	/* Increment object open counter and returns its index (0:Internal error) */
 681:sdc/ff.c      **** 	DIR* dp,	/* Directory object pointing the file to register or increment */
 682:sdc/ff.c      **** 	int acc		/* Desired access (0:Read, 1:Write, 2:Delete/Rename) */
 683:sdc/ff.c      **** )
 684:sdc/ff.c      **** {
 685:sdc/ff.c      **** 	UINT i;
 686:sdc/ff.c      **** 
 687:sdc/ff.c      **** 
 688:sdc/ff.c      **** 	for (i = 0; i < _FS_LOCK; i++) {	/* Find the object */
 689:sdc/ff.c      **** 		if (Files[i].fs == dp->fs &&
 690:sdc/ff.c      **** 			Files[i].clu == dp->sclust &&
 691:sdc/ff.c      **** 			Files[i].idx == dp->index) break;
 692:sdc/ff.c      **** 	}
 693:sdc/ff.c      **** 
 694:sdc/ff.c      **** 	if (i == _FS_LOCK) {				/* Not opened. Register it as new. */
 695:sdc/ff.c      **** 		for (i = 0; i < _FS_LOCK && Files[i].fs; i++) ;
 696:sdc/ff.c      **** 		if (i == _FS_LOCK) return 0;	/* No free entry to register (int err) */
 697:sdc/ff.c      **** 		Files[i].fs = dp->fs;
 698:sdc/ff.c      **** 		Files[i].clu = dp->sclust;
 699:sdc/ff.c      **** 		Files[i].idx = dp->index;
 700:sdc/ff.c      **** 		Files[i].ctr = 0;
 701:sdc/ff.c      **** 	}
 702:sdc/ff.c      **** 
 703:sdc/ff.c      **** 	if (acc && Files[i].ctr) return 0;	/* Access violation (int err) */
 704:sdc/ff.c      **** 
 705:sdc/ff.c      **** 	Files[i].ctr = acc ? 0x100 : Files[i].ctr + 1;	/* Set semaphore value */
 706:sdc/ff.c      **** 
 707:sdc/ff.c      **** 	return i + 1;
 708:sdc/ff.c      **** }
 709:sdc/ff.c      **** 
 710:sdc/ff.c      **** 
 711:sdc/ff.c      **** static
 712:sdc/ff.c      **** FRESULT dec_lock (	/* Decrement object open counter */
 713:sdc/ff.c      **** 	UINT i			/* Semaphore index (1..) */
 714:sdc/ff.c      **** )
 715:sdc/ff.c      **** {
ARM GAS  C:\Users\cronos\AppData\Local\Temp\ccinF6bS.s 			page 17


 716:sdc/ff.c      **** 	WORD n;
 717:sdc/ff.c      **** 	FRESULT res;
 718:sdc/ff.c      **** 
 719:sdc/ff.c      **** 
 720:sdc/ff.c      **** 	if (--i < _FS_LOCK) {	/* Shift index number origin from 0 */
 721:sdc/ff.c      **** 		n = Files[i].ctr;
 722:sdc/ff.c      **** 		if (n == 0x100) n = 0;		/* If write mode open, delete the entry */
 723:sdc/ff.c      **** 		if (n) n--;					/* Decrement read mode open count */
 724:sdc/ff.c      **** 		Files[i].ctr = n;
 725:sdc/ff.c      **** 		if (!n) Files[i].fs = 0;	/* Delete the entry if open count gets zero */
 726:sdc/ff.c      **** 		res = FR_OK;
 727:sdc/ff.c      **** 	} else {
 728:sdc/ff.c      **** 		res = FR_INT_ERR;			/* Invalid index nunber */
 729:sdc/ff.c      **** 	}
 730:sdc/ff.c      **** 	return res;
 731:sdc/ff.c      **** }
 732:sdc/ff.c      **** 
 733:sdc/ff.c      **** 
 734:sdc/ff.c      **** static
 735:sdc/ff.c      **** void clear_lock (	/* Clear lock entries of the volume */
 736:sdc/ff.c      **** 	FATFS *fs
 737:sdc/ff.c      **** )
 738:sdc/ff.c      **** {
 739:sdc/ff.c      **** 	UINT i;
 740:sdc/ff.c      **** 
 741:sdc/ff.c      **** 	for (i = 0; i < _FS_LOCK; i++) {
 742:sdc/ff.c      **** 		if (Files[i].fs == fs) Files[i].fs = 0;
 743:sdc/ff.c      **** 	}
 744:sdc/ff.c      **** }
 745:sdc/ff.c      **** #endif
 746:sdc/ff.c      **** 
 747:sdc/ff.c      **** 
 748:sdc/ff.c      **** 
 749:sdc/ff.c      **** 
 750:sdc/ff.c      **** /*-----------------------------------------------------------------------*/
 751:sdc/ff.c      **** /* Move/Flush disk access window in the file system object               */
 752:sdc/ff.c      **** /*-----------------------------------------------------------------------*/
 753:sdc/ff.c      **** #if !_FS_READONLY
 754:sdc/ff.c      **** static
 755:sdc/ff.c      **** FRESULT sync_window (
 756:sdc/ff.c      **** 	FATFS* fs		/* File system object */
 757:sdc/ff.c      **** )
 758:sdc/ff.c      **** {
 759:sdc/ff.c      **** 	DWORD wsect;
 760:sdc/ff.c      **** 	UINT nf;
 761:sdc/ff.c      **** 
 762:sdc/ff.c      **** 
 763:sdc/ff.c      **** 	if (fs->wflag) {	/* Write back the sector if it is dirty */
 764:sdc/ff.c      **** 		wsect = fs->winsect;	/* Current sector number */
 765:sdc/ff.c      **** 		if (disk_write(fs->drv, fs->win, wsect, 1))
 766:sdc/ff.c      **** 			return FR_DISK_ERR;
 767:sdc/ff.c      **** 		fs->wflag = 0;
 768:sdc/ff.c      **** 		if (wsect - fs->fatbase < fs->fsize) {		/* Is it in the FAT area? */
 769:sdc/ff.c      **** 			for (nf = fs->n_fats; nf >= 2; nf--) {	/* Reflect the change to all FAT copies */
 770:sdc/ff.c      **** 				wsect += fs->fsize;
 771:sdc/ff.c      **** 				disk_write(fs->drv, fs->win, wsect, 1);
 772:sdc/ff.c      **** 			}
ARM GAS  C:\Users\cronos\AppData\Local\Temp\ccinF6bS.s 			page 18


 773:sdc/ff.c      **** 		}
 774:sdc/ff.c      **** 	}
 775:sdc/ff.c      **** 	return FR_OK;
 776:sdc/ff.c      **** }
 777:sdc/ff.c      **** #endif
 778:sdc/ff.c      **** 
 779:sdc/ff.c      **** 
 780:sdc/ff.c      **** static
 781:sdc/ff.c      **** FRESULT move_window (
 782:sdc/ff.c      **** 	FATFS* fs,		/* File system object */
 783:sdc/ff.c      **** 	DWORD sector	/* Sector number to make appearance in the fs->win[] */
 784:sdc/ff.c      **** )
 785:sdc/ff.c      **** {
 786:sdc/ff.c      **** 	if (sector != fs->winsect) {	/* Changed current window */
 787:sdc/ff.c      **** #if !_FS_READONLY
 788:sdc/ff.c      **** 		if (sync_window(fs) != FR_OK)
 789:sdc/ff.c      **** 			return FR_DISK_ERR;
 790:sdc/ff.c      **** #endif
 791:sdc/ff.c      **** 		if (disk_read(fs->drv, fs->win, sector, 1))
 792:sdc/ff.c      **** 			return FR_DISK_ERR;
 793:sdc/ff.c      **** 		fs->winsect = sector;
 794:sdc/ff.c      **** 	}
 795:sdc/ff.c      **** 
 796:sdc/ff.c      **** 	return FR_OK;
 797:sdc/ff.c      **** }
 798:sdc/ff.c      **** 
 799:sdc/ff.c      **** 
 800:sdc/ff.c      **** 
 801:sdc/ff.c      **** 
 802:sdc/ff.c      **** /*-----------------------------------------------------------------------*/
 803:sdc/ff.c      **** /* Synchronize file system and strage device                             */
 804:sdc/ff.c      **** /*-----------------------------------------------------------------------*/
 805:sdc/ff.c      **** #if !_FS_READONLY
 806:sdc/ff.c      **** static
 807:sdc/ff.c      **** FRESULT sync_fs (	/* FR_OK: successful, FR_DISK_ERR: failed */
 808:sdc/ff.c      **** 	FATFS* fs		/* File system object */
 809:sdc/ff.c      **** )
 810:sdc/ff.c      **** {
 811:sdc/ff.c      **** 	FRESULT res;
 812:sdc/ff.c      **** 
 813:sdc/ff.c      **** 
 814:sdc/ff.c      **** 	res = sync_window(fs);
 815:sdc/ff.c      **** 	if (res == FR_OK) {
 816:sdc/ff.c      **** 		/* Update FSINFO sector if needed */
 817:sdc/ff.c      **** 		if (fs->fs_type == FS_FAT32 && fs->fsi_flag == 1) {
 818:sdc/ff.c      **** 			/* Create FSINFO structure */
 819:sdc/ff.c      **** 			mem_set(fs->win, 0, SS(fs));
 820:sdc/ff.c      **** 			ST_WORD(fs->win+BS_55AA, 0xAA55);
 821:sdc/ff.c      **** 			ST_DWORD(fs->win+FSI_LeadSig, 0x41615252);
 822:sdc/ff.c      **** 			ST_DWORD(fs->win+FSI_StrucSig, 0x61417272);
 823:sdc/ff.c      **** 			ST_DWORD(fs->win+FSI_Free_Count, fs->free_clust);
 824:sdc/ff.c      **** 			ST_DWORD(fs->win+FSI_Nxt_Free, fs->last_clust);
 825:sdc/ff.c      **** 			/* Write it into the FSINFO sector */
 826:sdc/ff.c      **** 			fs->winsect = fs->volbase + 1;
 827:sdc/ff.c      **** 			disk_write(fs->drv, fs->win, fs->winsect, 1);
 828:sdc/ff.c      **** 			fs->fsi_flag = 0;
 829:sdc/ff.c      **** 		}
ARM GAS  C:\Users\cronos\AppData\Local\Temp\ccinF6bS.s 			page 19


 830:sdc/ff.c      **** 		/* Make sure that no pending write process in the physical drive */
 831:sdc/ff.c      **** 		if (disk_ioctl(fs->drv, CTRL_SYNC, 0) != RES_OK)
 832:sdc/ff.c      **** 			res = FR_DISK_ERR;
 833:sdc/ff.c      **** 	}
 834:sdc/ff.c      **** 
 835:sdc/ff.c      **** 	return res;
 836:sdc/ff.c      **** }
 837:sdc/ff.c      **** #endif
 838:sdc/ff.c      **** 
 839:sdc/ff.c      **** 
 840:sdc/ff.c      **** 
 841:sdc/ff.c      **** 
 842:sdc/ff.c      **** /*-----------------------------------------------------------------------*/
 843:sdc/ff.c      **** /* Get sector# from cluster#                                             */
 844:sdc/ff.c      **** /*-----------------------------------------------------------------------*/
 845:sdc/ff.c      **** 
 846:sdc/ff.c      **** 
 847:sdc/ff.c      **** DWORD clust2sect (	/* !=0: Sector number, 0: Failed - invalid cluster# */
 848:sdc/ff.c      **** 	FATFS* fs,		/* File system object */
 849:sdc/ff.c      **** 	DWORD clst		/* Cluster# to be converted */
 850:sdc/ff.c      **** )
 851:sdc/ff.c      **** {
 852:sdc/ff.c      **** 	clst -= 2;
 853:sdc/ff.c      **** 	if (clst >= (fs->n_fatent - 2)) return 0;		/* Invalid cluster# */
 854:sdc/ff.c      **** 	return clst * fs->csize + fs->database;
 855:sdc/ff.c      **** }
 856:sdc/ff.c      **** 
 857:sdc/ff.c      **** 
 858:sdc/ff.c      **** 
 859:sdc/ff.c      **** 
 860:sdc/ff.c      **** /*-----------------------------------------------------------------------*/
 861:sdc/ff.c      **** /* FAT access - Read value of a FAT entry                                */
 862:sdc/ff.c      **** /*-----------------------------------------------------------------------*/
 863:sdc/ff.c      **** 
 864:sdc/ff.c      **** 
 865:sdc/ff.c      **** DWORD get_fat (	/* 0xFFFFFFFF:Disk error, 1:Internal error, Else:Cluster status */
 866:sdc/ff.c      **** 	FATFS* fs,	/* File system object */
 867:sdc/ff.c      **** 	DWORD clst	/* Cluster# to get the link information */
 868:sdc/ff.c      **** )
 869:sdc/ff.c      **** {
 870:sdc/ff.c      **** 	UINT wc, bc;
 871:sdc/ff.c      **** 	BYTE *p;
 872:sdc/ff.c      **** 
 873:sdc/ff.c      **** 
 874:sdc/ff.c      **** 	if (clst < 2 || clst >= fs->n_fatent)	/* Check range */
 875:sdc/ff.c      **** 		return 1;
 876:sdc/ff.c      **** 
 877:sdc/ff.c      **** 	switch (fs->fs_type) {
 878:sdc/ff.c      **** 	case FS_FAT12 :
 879:sdc/ff.c      **** 		bc = (UINT)clst; bc += bc / 2;
 880:sdc/ff.c      **** 		if (move_window(fs, fs->fatbase + (bc / SS(fs)))) break;
 881:sdc/ff.c      **** 		wc = fs->win[bc % SS(fs)]; bc++;
 882:sdc/ff.c      **** 		if (move_window(fs, fs->fatbase + (bc / SS(fs)))) break;
 883:sdc/ff.c      **** 		wc |= fs->win[bc % SS(fs)] << 8;
 884:sdc/ff.c      **** 		return clst & 1 ? wc >> 4 : (wc & 0xFFF);
 885:sdc/ff.c      **** 
 886:sdc/ff.c      **** 	case FS_FAT16 :
ARM GAS  C:\Users\cronos\AppData\Local\Temp\ccinF6bS.s 			page 20


 887:sdc/ff.c      **** 		if (move_window(fs, fs->fatbase + (clst / (SS(fs) / 2)))) break;
 888:sdc/ff.c      **** 		p = &fs->win[clst * 2 % SS(fs)];
 889:sdc/ff.c      **** 		return LD_WORD(p);
 890:sdc/ff.c      **** 
 891:sdc/ff.c      **** 	case FS_FAT32 :
 892:sdc/ff.c      **** 		if (move_window(fs, fs->fatbase + (clst / (SS(fs) / 4)))) break;
 893:sdc/ff.c      **** 		p = &fs->win[clst * 4 % SS(fs)];
 894:sdc/ff.c      **** 		return LD_DWORD(p) & 0x0FFFFFFF;
 895:sdc/ff.c      **** 
 896:sdc/ff.c      **** 	default:
 897:sdc/ff.c      **** 		return 1;
 898:sdc/ff.c      **** 	}
 899:sdc/ff.c      **** 
 900:sdc/ff.c      **** 	return 0xFFFFFFFF;	/* An error occurred at the disk I/O layer */
 901:sdc/ff.c      **** }
 902:sdc/ff.c      **** 
 903:sdc/ff.c      **** 
 904:sdc/ff.c      **** 
 905:sdc/ff.c      **** 
 906:sdc/ff.c      **** /*-----------------------------------------------------------------------*/
 907:sdc/ff.c      **** /* FAT access - Change value of a FAT entry                              */
 908:sdc/ff.c      **** /*-----------------------------------------------------------------------*/
 909:sdc/ff.c      **** #if !_FS_READONLY
 910:sdc/ff.c      **** 
 911:sdc/ff.c      **** FRESULT put_fat (
 912:sdc/ff.c      **** 	FATFS* fs,	/* File system object */
 913:sdc/ff.c      **** 	DWORD clst,	/* Cluster# to be changed in range of 2 to fs->n_fatent - 1 */
 914:sdc/ff.c      **** 	DWORD val	/* New value to mark the cluster */
 915:sdc/ff.c      **** )
 916:sdc/ff.c      **** {
 917:sdc/ff.c      **** 	UINT bc;
 918:sdc/ff.c      **** 	BYTE *p;
 919:sdc/ff.c      **** 	FRESULT res;
 920:sdc/ff.c      **** 
 921:sdc/ff.c      **** 
 922:sdc/ff.c      **** 	if (clst < 2 || clst >= fs->n_fatent) {	/* Check range */
 923:sdc/ff.c      **** 		res = FR_INT_ERR;
 924:sdc/ff.c      **** 
 925:sdc/ff.c      **** 	} else {
 926:sdc/ff.c      **** 		switch (fs->fs_type) {
 927:sdc/ff.c      **** 		case FS_FAT12 :
 928:sdc/ff.c      **** 			bc = (UINT)clst; bc += bc / 2;
 929:sdc/ff.c      **** 			res = move_window(fs, fs->fatbase + (bc / SS(fs)));
 930:sdc/ff.c      **** 			if (res != FR_OK) break;
 931:sdc/ff.c      **** 			p = &fs->win[bc % SS(fs)];
 932:sdc/ff.c      **** 			*p = (clst & 1) ? ((*p & 0x0F) | ((BYTE)val << 4)) : (BYTE)val;
 933:sdc/ff.c      **** 			bc++;
 934:sdc/ff.c      **** 			fs->wflag = 1;
 935:sdc/ff.c      **** 			res = move_window(fs, fs->fatbase + (bc / SS(fs)));
 936:sdc/ff.c      **** 			if (res != FR_OK) break;
 937:sdc/ff.c      **** 			p = &fs->win[bc % SS(fs)];
 938:sdc/ff.c      **** 			*p = (clst & 1) ? (BYTE)(val >> 4) : ((*p & 0xF0) | ((BYTE)(val >> 8) & 0x0F));
 939:sdc/ff.c      **** 			break;
 940:sdc/ff.c      **** 
 941:sdc/ff.c      **** 		case FS_FAT16 :
 942:sdc/ff.c      **** 			res = move_window(fs, fs->fatbase + (clst / (SS(fs) / 2)));
 943:sdc/ff.c      **** 			if (res != FR_OK) break;
ARM GAS  C:\Users\cronos\AppData\Local\Temp\ccinF6bS.s 			page 21


 944:sdc/ff.c      **** 			p = &fs->win[clst * 2 % SS(fs)];
 945:sdc/ff.c      **** 			ST_WORD(p, (WORD)val);
 946:sdc/ff.c      **** 			break;
 947:sdc/ff.c      **** 
 948:sdc/ff.c      **** 		case FS_FAT32 :
 949:sdc/ff.c      **** 			res = move_window(fs, fs->fatbase + (clst / (SS(fs) / 4)));
 950:sdc/ff.c      **** 			if (res != FR_OK) break;
 951:sdc/ff.c      **** 			p = &fs->win[clst * 4 % SS(fs)];
 952:sdc/ff.c      **** 			val |= LD_DWORD(p) & 0xF0000000;
 953:sdc/ff.c      **** 			ST_DWORD(p, val);
 954:sdc/ff.c      **** 			break;
 955:sdc/ff.c      **** 
 956:sdc/ff.c      **** 		default :
 957:sdc/ff.c      **** 			res = FR_INT_ERR;
 958:sdc/ff.c      **** 		}
 959:sdc/ff.c      **** 		fs->wflag = 1;
 960:sdc/ff.c      **** 	}
 961:sdc/ff.c      **** 
 962:sdc/ff.c      **** 	return res;
 963:sdc/ff.c      **** }
 964:sdc/ff.c      **** #endif /* !_FS_READONLY */
 965:sdc/ff.c      **** 
 966:sdc/ff.c      **** 
 967:sdc/ff.c      **** 
 968:sdc/ff.c      **** 
 969:sdc/ff.c      **** /*-----------------------------------------------------------------------*/
 970:sdc/ff.c      **** /* FAT handling - Remove a cluster chain                                 */
 971:sdc/ff.c      **** /*-----------------------------------------------------------------------*/
 972:sdc/ff.c      **** #if !_FS_READONLY
 973:sdc/ff.c      **** static
 974:sdc/ff.c      **** FRESULT remove_chain (
 975:sdc/ff.c      **** 	FATFS* fs,			/* File system object */
 976:sdc/ff.c      **** 	DWORD clst			/* Cluster# to remove a chain from */
 977:sdc/ff.c      **** )
 978:sdc/ff.c      **** {
 979:sdc/ff.c      **** 	FRESULT res;
 980:sdc/ff.c      **** 	DWORD nxt;
 981:sdc/ff.c      **** #if _USE_ERASE
 982:sdc/ff.c      **** 	DWORD scl = clst, ecl = clst, rt[2];
 983:sdc/ff.c      **** #endif
 984:sdc/ff.c      **** 
 985:sdc/ff.c      **** 	if (clst < 2 || clst >= fs->n_fatent) {	/* Check range */
 986:sdc/ff.c      **** 		res = FR_INT_ERR;
 987:sdc/ff.c      **** 
 988:sdc/ff.c      **** 	} else {
 989:sdc/ff.c      **** 		res = FR_OK;
 990:sdc/ff.c      **** 		while (clst < fs->n_fatent) {			/* Not a last link? */
 991:sdc/ff.c      **** 			nxt = get_fat(fs, clst);			/* Get cluster status */
 992:sdc/ff.c      **** 			if (nxt == 0) break;				/* Empty cluster? */
 993:sdc/ff.c      **** 			if (nxt == 1) { res = FR_INT_ERR; break; }	/* Internal error? */
 994:sdc/ff.c      **** 			if (nxt == 0xFFFFFFFF) { res = FR_DISK_ERR; break; }	/* Disk error? */
 995:sdc/ff.c      **** 			res = put_fat(fs, clst, 0);			/* Mark the cluster "empty" */
 996:sdc/ff.c      **** 			if (res != FR_OK) break;
 997:sdc/ff.c      **** 			if (fs->free_clust != 0xFFFFFFFF) {	/* Update FSINFO */
 998:sdc/ff.c      **** 				fs->free_clust++;
 999:sdc/ff.c      **** 				fs->fsi_flag |= 1;
1000:sdc/ff.c      **** 			}
ARM GAS  C:\Users\cronos\AppData\Local\Temp\ccinF6bS.s 			page 22


1001:sdc/ff.c      **** #if _USE_ERASE
1002:sdc/ff.c      **** 			if (ecl + 1 == nxt) {	/* Is next cluster contiguous? */
1003:sdc/ff.c      **** 				ecl = nxt;
1004:sdc/ff.c      **** 			} else {				/* End of contiguous clusters */ 
1005:sdc/ff.c      **** 				rt[0] = clust2sect(fs, scl);					/* Start sector */
1006:sdc/ff.c      **** 				rt[1] = clust2sect(fs, ecl) + fs->csize - 1;	/* End sector */
1007:sdc/ff.c      **** 				disk_ioctl(fs->drv, CTRL_ERASE_SECTOR, rt);		/* Erase the block */
1008:sdc/ff.c      **** 				scl = ecl = nxt;
1009:sdc/ff.c      **** 			}
1010:sdc/ff.c      **** #endif
1011:sdc/ff.c      **** 			clst = nxt;	/* Next cluster */
1012:sdc/ff.c      **** 		}
1013:sdc/ff.c      **** 	}
1014:sdc/ff.c      **** 
1015:sdc/ff.c      **** 	return res;
1016:sdc/ff.c      **** }
1017:sdc/ff.c      **** #endif
1018:sdc/ff.c      **** 
1019:sdc/ff.c      **** 
1020:sdc/ff.c      **** 
1021:sdc/ff.c      **** 
1022:sdc/ff.c      **** /*-----------------------------------------------------------------------*/
1023:sdc/ff.c      **** /* FAT handling - Stretch or Create a cluster chain                      */
1024:sdc/ff.c      **** /*-----------------------------------------------------------------------*/
1025:sdc/ff.c      **** #if !_FS_READONLY
1026:sdc/ff.c      **** static
1027:sdc/ff.c      **** DWORD create_chain (	/* 0:No free cluster, 1:Internal error, 0xFFFFFFFF:Disk error, >=2:New cluster
1028:sdc/ff.c      **** 	FATFS* fs,			/* File system object */
1029:sdc/ff.c      **** 	DWORD clst			/* Cluster# to stretch. 0 means create a new chain. */
1030:sdc/ff.c      **** )
1031:sdc/ff.c      **** {
1032:sdc/ff.c      **** 	DWORD cs, ncl, scl;
1033:sdc/ff.c      **** 	FRESULT res;
1034:sdc/ff.c      **** 
1035:sdc/ff.c      **** 
1036:sdc/ff.c      **** 	if (clst == 0) {		/* Create a new chain */
1037:sdc/ff.c      **** 		scl = fs->last_clust;			/* Get suggested start point */
1038:sdc/ff.c      **** 		if (!scl || scl >= fs->n_fatent) scl = 1;
1039:sdc/ff.c      **** 	}
1040:sdc/ff.c      **** 	else {					/* Stretch the current chain */
1041:sdc/ff.c      **** 		cs = get_fat(fs, clst);			/* Check the cluster status */
1042:sdc/ff.c      **** 		if (cs < 2) return 1;			/* Invalid value */
1043:sdc/ff.c      **** 		if (cs == 0xFFFFFFFF) return cs;	/* A disk error occurred */
1044:sdc/ff.c      **** 		if (cs < fs->n_fatent) return cs;	/* It is already followed by next cluster */
1045:sdc/ff.c      **** 		scl = clst;
1046:sdc/ff.c      **** 	}
1047:sdc/ff.c      **** 
1048:sdc/ff.c      **** 	ncl = scl;				/* Start cluster */
1049:sdc/ff.c      **** 	for (;;) {
1050:sdc/ff.c      **** 		ncl++;							/* Next cluster */
1051:sdc/ff.c      **** 		if (ncl >= fs->n_fatent) {		/* Check wrap around */
1052:sdc/ff.c      **** 			ncl = 2;
1053:sdc/ff.c      **** 			if (ncl > scl) return 0;	/* No free cluster */
1054:sdc/ff.c      **** 		}
1055:sdc/ff.c      **** 		cs = get_fat(fs, ncl);			/* Get the cluster status */
1056:sdc/ff.c      **** 		if (cs == 0) break;				/* Found a free cluster */
1057:sdc/ff.c      **** 		if (cs == 0xFFFFFFFF || cs == 1)/* An error occurred */
ARM GAS  C:\Users\cronos\AppData\Local\Temp\ccinF6bS.s 			page 23


1058:sdc/ff.c      **** 			return cs;
1059:sdc/ff.c      **** 		if (ncl == scl) return 0;		/* No free cluster */
1060:sdc/ff.c      **** 	}
1061:sdc/ff.c      **** 
1062:sdc/ff.c      **** 	res = put_fat(fs, ncl, 0x0FFFFFFF);	/* Mark the new cluster "last link" */
1063:sdc/ff.c      **** 	if (res == FR_OK && clst != 0) {
1064:sdc/ff.c      **** 		res = put_fat(fs, clst, ncl);	/* Link it to the previous one if needed */
1065:sdc/ff.c      **** 	}
1066:sdc/ff.c      **** 	if (res == FR_OK) {
1067:sdc/ff.c      **** 		fs->last_clust = ncl;			/* Update FSINFO */
1068:sdc/ff.c      **** 		if (fs->free_clust != 0xFFFFFFFF) {
1069:sdc/ff.c      **** 			fs->free_clust--;
1070:sdc/ff.c      **** 			fs->fsi_flag |= 1;
1071:sdc/ff.c      **** 		}
1072:sdc/ff.c      **** 	} else {
1073:sdc/ff.c      **** 		ncl = (res == FR_DISK_ERR) ? 0xFFFFFFFF : 1;
1074:sdc/ff.c      **** 	}
1075:sdc/ff.c      **** 
1076:sdc/ff.c      **** 	return ncl;		/* Return new cluster number or error code */
1077:sdc/ff.c      **** }
1078:sdc/ff.c      **** #endif /* !_FS_READONLY */
1079:sdc/ff.c      **** 
1080:sdc/ff.c      **** 
1081:sdc/ff.c      **** 
1082:sdc/ff.c      **** 
1083:sdc/ff.c      **** /*-----------------------------------------------------------------------*/
1084:sdc/ff.c      **** /* FAT handling - Convert offset into cluster with link map table        */
1085:sdc/ff.c      **** /*-----------------------------------------------------------------------*/
1086:sdc/ff.c      **** 
1087:sdc/ff.c      **** #if _USE_FASTSEEK
1088:sdc/ff.c      **** static
1089:sdc/ff.c      **** DWORD clmt_clust (	/* <2:Error, >=2:Cluster number */
1090:sdc/ff.c      **** 	FIL* fp,		/* Pointer to the file object */
1091:sdc/ff.c      **** 	DWORD ofs		/* File offset to be converted to cluster# */
1092:sdc/ff.c      **** )
1093:sdc/ff.c      **** {
1094:sdc/ff.c      **** 	DWORD cl, ncl, *tbl;
1095:sdc/ff.c      **** 
1096:sdc/ff.c      **** 
1097:sdc/ff.c      **** 	tbl = fp->cltbl + 1;	/* Top of CLMT */
1098:sdc/ff.c      **** 	cl = ofs / SS(fp->fs) / fp->fs->csize;	/* Cluster order from top of the file */
1099:sdc/ff.c      **** 	for (;;) {
1100:sdc/ff.c      **** 		ncl = *tbl++;			/* Number of cluters in the fragment */
1101:sdc/ff.c      **** 		if (!ncl) return 0;		/* End of table? (error) */
1102:sdc/ff.c      **** 		if (cl < ncl) break;	/* In this fragment? */
1103:sdc/ff.c      **** 		cl -= ncl; tbl++;		/* Next fragment */
1104:sdc/ff.c      **** 	}
1105:sdc/ff.c      **** 	return cl + *tbl;	/* Return the cluster number */
1106:sdc/ff.c      **** }
1107:sdc/ff.c      **** #endif	/* _USE_FASTSEEK */
1108:sdc/ff.c      **** 
1109:sdc/ff.c      **** 
1110:sdc/ff.c      **** 
1111:sdc/ff.c      **** 
1112:sdc/ff.c      **** /*-----------------------------------------------------------------------*/
1113:sdc/ff.c      **** /* Directory handling - Set directory index                              */
1114:sdc/ff.c      **** /*-----------------------------------------------------------------------*/
ARM GAS  C:\Users\cronos\AppData\Local\Temp\ccinF6bS.s 			page 24


1115:sdc/ff.c      **** 
1116:sdc/ff.c      **** static
1117:sdc/ff.c      **** FRESULT dir_sdi (
1118:sdc/ff.c      **** 	DIR* dp,		/* Pointer to directory object */
1119:sdc/ff.c      **** 	UINT idx		/* Index of directory table */
1120:sdc/ff.c      **** )
1121:sdc/ff.c      **** {
1122:sdc/ff.c      **** 	DWORD clst, sect;
1123:sdc/ff.c      **** 	UINT ic;
1124:sdc/ff.c      **** 
1125:sdc/ff.c      **** 
1126:sdc/ff.c      **** 	dp->index = (WORD)idx;	/* Current index */
1127:sdc/ff.c      **** 	clst = dp->sclust;		/* Table start cluster (0:root) */
1128:sdc/ff.c      **** 	if (clst == 1 || clst >= dp->fs->n_fatent)	/* Check start cluster range */
1129:sdc/ff.c      **** 		return FR_INT_ERR;
1130:sdc/ff.c      **** 	if (!clst && dp->fs->fs_type == FS_FAT32)	/* Replace cluster# 0 with root cluster# if in FAT32 */
1131:sdc/ff.c      **** 		clst = dp->fs->dirbase;
1132:sdc/ff.c      **** 
1133:sdc/ff.c      **** 	if (clst == 0) {	/* Static table (root-directory in FAT12/16) */
1134:sdc/ff.c      **** 		if (idx >= dp->fs->n_rootdir)	/* Is index out of range? */
1135:sdc/ff.c      **** 			return FR_INT_ERR;
1136:sdc/ff.c      **** 		sect = dp->fs->dirbase;
1137:sdc/ff.c      **** 	}
1138:sdc/ff.c      **** 	else {				/* Dynamic table (root-directory in FAT32 or sub-directory) */
1139:sdc/ff.c      **** 		ic = SS(dp->fs) / SZ_DIR * dp->fs->csize;	/* Entries per cluster */
1140:sdc/ff.c      **** 		while (idx >= ic) {	/* Follow cluster chain */
1141:sdc/ff.c      **** 			clst = get_fat(dp->fs, clst);				/* Get next cluster */
1142:sdc/ff.c      **** 			if (clst == 0xFFFFFFFF) return FR_DISK_ERR;	/* Disk error */
1143:sdc/ff.c      **** 			if (clst < 2 || clst >= dp->fs->n_fatent)	/* Reached to end of table or internal error */
1144:sdc/ff.c      **** 				return FR_INT_ERR;
1145:sdc/ff.c      **** 			idx -= ic;
1146:sdc/ff.c      **** 		}
1147:sdc/ff.c      **** 		sect = clust2sect(dp->fs, clst);
1148:sdc/ff.c      **** 	}
1149:sdc/ff.c      **** 	dp->clust = clst;	/* Current cluster# */
1150:sdc/ff.c      **** 	if (!sect) return FR_INT_ERR;
1151:sdc/ff.c      **** 	dp->sect = sect + idx / (SS(dp->fs) / SZ_DIR);					/* Sector# of the directory entry */
1152:sdc/ff.c      **** 	dp->dir = dp->fs->win + (idx % (SS(dp->fs) / SZ_DIR)) * SZ_DIR;	/* Ptr to the entry in the sector 
1153:sdc/ff.c      **** 
1154:sdc/ff.c      **** 	return FR_OK;
1155:sdc/ff.c      **** }
1156:sdc/ff.c      **** 
1157:sdc/ff.c      **** 
1158:sdc/ff.c      **** 
1159:sdc/ff.c      **** 
1160:sdc/ff.c      **** /*-----------------------------------------------------------------------*/
1161:sdc/ff.c      **** /* Directory handling - Move directory table index next                  */
1162:sdc/ff.c      **** /*-----------------------------------------------------------------------*/
1163:sdc/ff.c      **** 
1164:sdc/ff.c      **** static
1165:sdc/ff.c      **** FRESULT dir_next (	/* FR_OK:Succeeded, FR_NO_FILE:End of table, FR_DENIED:Could not stretch */
1166:sdc/ff.c      **** 	DIR* dp,		/* Pointer to the directory object */
1167:sdc/ff.c      **** 	int stretch		/* 0: Do not stretch table, 1: Stretch table if needed */
1168:sdc/ff.c      **** )
1169:sdc/ff.c      **** {
1170:sdc/ff.c      **** 	DWORD clst;
1171:sdc/ff.c      **** 	UINT i;
ARM GAS  C:\Users\cronos\AppData\Local\Temp\ccinF6bS.s 			page 25


1172:sdc/ff.c      **** 
1173:sdc/ff.c      **** 
1174:sdc/ff.c      **** 	i = dp->index + 1;
1175:sdc/ff.c      **** 	if (!(i & 0xFFFF) || !dp->sect)	/* Report EOT when index has reached 65535 */
1176:sdc/ff.c      **** 		return FR_NO_FILE;
1177:sdc/ff.c      **** 
1178:sdc/ff.c      **** 	if (!(i % (SS(dp->fs) / SZ_DIR))) {	/* Sector changed? */
1179:sdc/ff.c      **** 		dp->sect++;					/* Next sector */
1180:sdc/ff.c      **** 
1181:sdc/ff.c      **** 		if (!dp->clust) {		/* Static table */
1182:sdc/ff.c      **** 			if (i >= dp->fs->n_rootdir)	/* Report EOT if it reached end of static table */
1183:sdc/ff.c      **** 				return FR_NO_FILE;
1184:sdc/ff.c      **** 		}
1185:sdc/ff.c      **** 		else {					/* Dynamic table */
1186:sdc/ff.c      **** 			if (((i / (SS(dp->fs) / SZ_DIR)) & (dp->fs->csize - 1)) == 0) {	/* Cluster changed? */
1187:sdc/ff.c      **** 				clst = get_fat(dp->fs, dp->clust);				/* Get next cluster */
1188:sdc/ff.c      **** 				if (clst <= 1) return FR_INT_ERR;
1189:sdc/ff.c      **** 				if (clst == 0xFFFFFFFF) return FR_DISK_ERR;
1190:sdc/ff.c      **** 				if (clst >= dp->fs->n_fatent) {					/* If it reached end of dynamic table, */
1191:sdc/ff.c      **** #if !_FS_READONLY
1192:sdc/ff.c      **** 					UINT c;
1193:sdc/ff.c      **** 					if (!stretch) return FR_NO_FILE;			/* If do not stretch, report EOT */
1194:sdc/ff.c      **** 					clst = create_chain(dp->fs, dp->clust);		/* Stretch cluster chain */
1195:sdc/ff.c      **** 					if (clst == 0) return FR_DENIED;			/* No free cluster */
1196:sdc/ff.c      **** 					if (clst == 1) return FR_INT_ERR;
1197:sdc/ff.c      **** 					if (clst == 0xFFFFFFFF) return FR_DISK_ERR;
1198:sdc/ff.c      **** 					/* Clean-up stretched table */
1199:sdc/ff.c      **** 					if (sync_window(dp->fs)) return FR_DISK_ERR;/* Flush disk access window */
1200:sdc/ff.c      **** 					mem_set(dp->fs->win, 0, SS(dp->fs));		/* Clear window buffer */
1201:sdc/ff.c      **** 					dp->fs->winsect = clust2sect(dp->fs, clst);	/* Cluster start sector */
1202:sdc/ff.c      **** 					for (c = 0; c < dp->fs->csize; c++) {		/* Fill the new cluster with 0 */
1203:sdc/ff.c      **** 						dp->fs->wflag = 1;
1204:sdc/ff.c      **** 						if (sync_window(dp->fs)) return FR_DISK_ERR;
1205:sdc/ff.c      **** 						dp->fs->winsect++;
1206:sdc/ff.c      **** 					}
1207:sdc/ff.c      **** 					dp->fs->winsect -= c;						/* Rewind window offset */
1208:sdc/ff.c      **** #else
1209:sdc/ff.c      **** 					if (!stretch) return FR_NO_FILE;			/* If do not stretch, report EOT (this is to suppress warni
1210:sdc/ff.c      **** 					return FR_NO_FILE;							/* Report EOT */
1211:sdc/ff.c      **** #endif
1212:sdc/ff.c      **** 				}
1213:sdc/ff.c      **** 				dp->clust = clst;				/* Initialize data for new cluster */
1214:sdc/ff.c      **** 				dp->sect = clust2sect(dp->fs, clst);
1215:sdc/ff.c      **** 			}
1216:sdc/ff.c      **** 		}
1217:sdc/ff.c      **** 	}
1218:sdc/ff.c      **** 
1219:sdc/ff.c      **** 	dp->index = (WORD)i;	/* Current index */
1220:sdc/ff.c      **** 	dp->dir = dp->fs->win + (i % (SS(dp->fs) / SZ_DIR)) * SZ_DIR;	/* Current entry in the window */
1221:sdc/ff.c      **** 
1222:sdc/ff.c      **** 	return FR_OK;
1223:sdc/ff.c      **** }
1224:sdc/ff.c      **** 
1225:sdc/ff.c      **** 
1226:sdc/ff.c      **** 
1227:sdc/ff.c      **** 
1228:sdc/ff.c      **** /*-----------------------------------------------------------------------*/
ARM GAS  C:\Users\cronos\AppData\Local\Temp\ccinF6bS.s 			page 26


1229:sdc/ff.c      **** /* Directory handling - Reserve directory entry                          */
1230:sdc/ff.c      **** /*-----------------------------------------------------------------------*/
1231:sdc/ff.c      **** 
1232:sdc/ff.c      **** #if !_FS_READONLY
1233:sdc/ff.c      **** static
1234:sdc/ff.c      **** FRESULT dir_alloc (
1235:sdc/ff.c      **** 	DIR* dp,	/* Pointer to the directory object */
1236:sdc/ff.c      **** 	UINT nent	/* Number of contiguous entries to allocate (1-21) */
1237:sdc/ff.c      **** )
1238:sdc/ff.c      **** {
1239:sdc/ff.c      **** 	FRESULT res;
1240:sdc/ff.c      **** 	UINT n;
1241:sdc/ff.c      **** 
1242:sdc/ff.c      **** 
1243:sdc/ff.c      **** 	res = dir_sdi(dp, 0);
1244:sdc/ff.c      **** 	if (res == FR_OK) {
1245:sdc/ff.c      **** 		n = 0;
1246:sdc/ff.c      **** 		do {
1247:sdc/ff.c      **** 			res = move_window(dp->fs, dp->sect);
1248:sdc/ff.c      **** 			if (res != FR_OK) break;
1249:sdc/ff.c      **** 			if (dp->dir[0] == DDE || dp->dir[0] == 0) {	/* Is it a blank entry? */
1250:sdc/ff.c      **** 				if (++n == nent) break;	/* A block of contiguous entries is found */
1251:sdc/ff.c      **** 			} else {
1252:sdc/ff.c      **** 				n = 0;					/* Not a blank entry. Restart to search */
1253:sdc/ff.c      **** 			}
1254:sdc/ff.c      **** 			res = dir_next(dp, 1);		/* Next entry with table stretch enabled */
1255:sdc/ff.c      **** 		} while (res == FR_OK);
1256:sdc/ff.c      **** 	}
1257:sdc/ff.c      **** 	if (res == FR_NO_FILE) res = FR_DENIED;	/* No directory entry to allocate */
1258:sdc/ff.c      **** 	return res;
1259:sdc/ff.c      **** }
1260:sdc/ff.c      **** #endif
1261:sdc/ff.c      **** 
1262:sdc/ff.c      **** 
1263:sdc/ff.c      **** 
1264:sdc/ff.c      **** 
1265:sdc/ff.c      **** /*-----------------------------------------------------------------------*/
1266:sdc/ff.c      **** /* Directory handling - Load/Store start cluster number                  */
1267:sdc/ff.c      **** /*-----------------------------------------------------------------------*/
1268:sdc/ff.c      **** 
1269:sdc/ff.c      **** static
1270:sdc/ff.c      **** DWORD ld_clust (
1271:sdc/ff.c      **** 	FATFS* fs,	/* Pointer to the fs object */
1272:sdc/ff.c      **** 	BYTE* dir	/* Pointer to the directory entry */
1273:sdc/ff.c      **** )
1274:sdc/ff.c      **** {
 194              		.loc 1 1274 0
 195              		.cfi_startproc
 196              		@ args = 0, pretend = 0, frame = 0
 197              		@ frame_needed = 0, uses_anonymous_args = 0
 198              		@ link register save eliminated.
 199              	.LVL24:
1275:sdc/ff.c      **** 	DWORD cl;
1276:sdc/ff.c      **** 
1277:sdc/ff.c      **** 	cl = LD_WORD(dir+DIR_FstClusLO);
 200              		.loc 1 1277 0
 201 0000 CA7E     		ldrb	r2, [r1, #27]	@ zero_extendqisi2
ARM GAS  C:\Users\cronos\AppData\Local\Temp\ccinF6bS.s 			page 27


 202 0002 8B7E     		ldrb	r3, [r1, #26]	@ zero_extendqisi2
 203 0004 43EA0223 		orr	r3, r3, r2, lsl #8
 204              	.LVL25:
1278:sdc/ff.c      **** 	if (fs->fs_type == FS_FAT32)
 205              		.loc 1 1278 0
 206 0008 0278     		ldrb	r2, [r0]	@ zero_extendqisi2
 207 000a 032A     		cmp	r2, #3
 208 000c 05D1     		bne	.L17
1279:sdc/ff.c      **** 		cl |= (DWORD)LD_WORD(dir+DIR_FstClusHI) << 16;
 209              		.loc 1 1279 0
 210 000e 487D     		ldrb	r0, [r1, #21]	@ zero_extendqisi2
 211              	.LVL26:
 212 0010 0A7D     		ldrb	r2, [r1, #20]	@ zero_extendqisi2
 213 0012 42EA0022 		orr	r2, r2, r0, lsl #8
 214 0016 43EA0243 		orr	r3, r3, r2, lsl #16
 215              	.LVL27:
 216              	.L17:
1280:sdc/ff.c      **** 
1281:sdc/ff.c      **** 	return cl;
1282:sdc/ff.c      **** }
 217              		.loc 1 1282 0
 218 001a 1846     		mov	r0, r3
 219 001c 7047     		bx	lr
 220              		.cfi_endproc
 221              	.LFE15:
 222              		.size	ld_clust, .-ld_clust
 223 001e 00BF     		.section	.text.st_clust,"ax",%progbits
 224              		.align	2
 225              		.thumb
 226              		.thumb_func
 227              		.type	st_clust, %function
 228              	st_clust:
 229              	.LFB16:
1283:sdc/ff.c      **** 
1284:sdc/ff.c      **** 
1285:sdc/ff.c      **** #if !_FS_READONLY
1286:sdc/ff.c      **** static
1287:sdc/ff.c      **** void st_clust (
1288:sdc/ff.c      **** 	BYTE* dir,	/* Pointer to the directory entry */
1289:sdc/ff.c      **** 	DWORD cl	/* Value to be set */
1290:sdc/ff.c      **** )
1291:sdc/ff.c      **** {
 230              		.loc 1 1291 0
 231              		.cfi_startproc
 232              		@ args = 0, pretend = 0, frame = 0
 233              		@ frame_needed = 0, uses_anonymous_args = 0
 234              		@ link register save eliminated.
 235              	.LVL28:
1292:sdc/ff.c      **** 	ST_WORD(dir+DIR_FstClusLO, cl);
 236              		.loc 1 1292 0
 237 0000 8176     		strb	r1, [r0, #26]
 238 0002 C1F30723 		ubfx	r3, r1, #8, #8
 239 0006 C376     		strb	r3, [r0, #27]
1293:sdc/ff.c      **** 	ST_WORD(dir+DIR_FstClusHI, cl >> 16);
 240              		.loc 1 1293 0
 241 0008 090C     		lsrs	r1, r1, #16
 242              	.LVL29:
ARM GAS  C:\Users\cronos\AppData\Local\Temp\ccinF6bS.s 			page 28


 243 000a 0175     		strb	r1, [r0, #20]
 244 000c 090A     		lsrs	r1, r1, #8
 245 000e 4175     		strb	r1, [r0, #21]
 246 0010 7047     		bx	lr
 247              		.cfi_endproc
 248              	.LFE16:
 249              		.size	st_clust, .-st_clust
 250 0012 00BF     		.section	.text.get_fileinfo,"ax",%progbits
 251              		.align	2
 252              		.thumb
 253              		.thumb_func
 254              		.type	get_fileinfo, %function
 255              	get_fileinfo:
 256              	.LFB21:
1294:sdc/ff.c      **** }
1295:sdc/ff.c      **** #endif
1296:sdc/ff.c      **** 
1297:sdc/ff.c      **** 
1298:sdc/ff.c      **** 
1299:sdc/ff.c      **** 
1300:sdc/ff.c      **** /*-----------------------------------------------------------------------*/
1301:sdc/ff.c      **** /* LFN handling - Test/Pick/Fit an LFN segment from/to directory entry   */
1302:sdc/ff.c      **** /*-----------------------------------------------------------------------*/
1303:sdc/ff.c      **** #if _USE_LFN
1304:sdc/ff.c      **** static
1305:sdc/ff.c      **** const BYTE LfnOfs[] = {1,3,5,7,9,14,16,18,20,22,24,28,30};	/* Offset of LFN characters in the direc
1306:sdc/ff.c      **** 
1307:sdc/ff.c      **** 
1308:sdc/ff.c      **** static
1309:sdc/ff.c      **** int cmp_lfn (			/* 1:Matched, 0:Not matched */
1310:sdc/ff.c      **** 	WCHAR* lfnbuf,		/* Pointer to the LFN to be compared */
1311:sdc/ff.c      **** 	BYTE* dir			/* Pointer to the directory entry containing a part of LFN */
1312:sdc/ff.c      **** )
1313:sdc/ff.c      **** {
1314:sdc/ff.c      **** 	UINT i, s;
1315:sdc/ff.c      **** 	WCHAR wc, uc;
1316:sdc/ff.c      **** 
1317:sdc/ff.c      **** 
1318:sdc/ff.c      **** 	i = ((dir[LDIR_Ord] & ~LLE) - 1) * 13;	/* Get offset in the LFN buffer */
1319:sdc/ff.c      **** 	s = 0; wc = 1;
1320:sdc/ff.c      **** 	do {
1321:sdc/ff.c      **** 		uc = LD_WORD(dir+LfnOfs[s]);	/* Pick an LFN character from the entry */
1322:sdc/ff.c      **** 		if (wc) {	/* Last character has not been processed */
1323:sdc/ff.c      **** 			wc = ff_wtoupper(uc);		/* Convert it to upper case */
1324:sdc/ff.c      **** 			if (i >= _MAX_LFN || wc != ff_wtoupper(lfnbuf[i++]))	/* Compare it */
1325:sdc/ff.c      **** 				return 0;				/* Not matched */
1326:sdc/ff.c      **** 		} else {
1327:sdc/ff.c      **** 			if (uc != 0xFFFF) return 0;	/* Check filler */
1328:sdc/ff.c      **** 		}
1329:sdc/ff.c      **** 	} while (++s < 13);				/* Repeat until all characters in the entry are checked */
1330:sdc/ff.c      **** 
1331:sdc/ff.c      **** 	if ((dir[LDIR_Ord] & LLE) && wc && lfnbuf[i])	/* Last segment matched but different length */
1332:sdc/ff.c      **** 		return 0;
1333:sdc/ff.c      **** 
1334:sdc/ff.c      **** 	return 1;						/* The part of LFN matched */
1335:sdc/ff.c      **** }
1336:sdc/ff.c      **** 
ARM GAS  C:\Users\cronos\AppData\Local\Temp\ccinF6bS.s 			page 29


1337:sdc/ff.c      **** 
1338:sdc/ff.c      **** 
1339:sdc/ff.c      **** static
1340:sdc/ff.c      **** int pick_lfn (			/* 1:Succeeded, 0:Buffer overflow */
1341:sdc/ff.c      **** 	WCHAR* lfnbuf,		/* Pointer to the Unicode-LFN buffer */
1342:sdc/ff.c      **** 	BYTE* dir			/* Pointer to the directory entry */
1343:sdc/ff.c      **** )
1344:sdc/ff.c      **** {
1345:sdc/ff.c      **** 	UINT i, s;
1346:sdc/ff.c      **** 	WCHAR wc, uc;
1347:sdc/ff.c      **** 
1348:sdc/ff.c      **** 
1349:sdc/ff.c      **** 	i = ((dir[LDIR_Ord] & 0x3F) - 1) * 13;	/* Offset in the LFN buffer */
1350:sdc/ff.c      **** 
1351:sdc/ff.c      **** 	s = 0; wc = 1;
1352:sdc/ff.c      **** 	do {
1353:sdc/ff.c      **** 		uc = LD_WORD(dir+LfnOfs[s]);		/* Pick an LFN character from the entry */
1354:sdc/ff.c      **** 		if (wc) {	/* Last character has not been processed */
1355:sdc/ff.c      **** 			if (i >= _MAX_LFN) return 0;	/* Buffer overflow? */
1356:sdc/ff.c      **** 			lfnbuf[i++] = wc = uc;			/* Store it */
1357:sdc/ff.c      **** 		} else {
1358:sdc/ff.c      **** 			if (uc != 0xFFFF) return 0;		/* Check filler */
1359:sdc/ff.c      **** 		}
1360:sdc/ff.c      **** 	} while (++s < 13);						/* Read all character in the entry */
1361:sdc/ff.c      **** 
1362:sdc/ff.c      **** 	if (dir[LDIR_Ord] & LLE) {				/* Put terminator if it is the last LFN part */
1363:sdc/ff.c      **** 		if (i >= _MAX_LFN) return 0;		/* Buffer overflow? */
1364:sdc/ff.c      **** 		lfnbuf[i] = 0;
1365:sdc/ff.c      **** 	}
1366:sdc/ff.c      **** 
1367:sdc/ff.c      **** 	return 1;
1368:sdc/ff.c      **** }
1369:sdc/ff.c      **** 
1370:sdc/ff.c      **** 
1371:sdc/ff.c      **** #if !_FS_READONLY
1372:sdc/ff.c      **** static
1373:sdc/ff.c      **** void fit_lfn (
1374:sdc/ff.c      **** 	const WCHAR* lfnbuf,	/* Pointer to the LFN buffer */
1375:sdc/ff.c      **** 	BYTE* dir,				/* Pointer to the directory entry */
1376:sdc/ff.c      **** 	BYTE ord,				/* LFN order (1-20) */
1377:sdc/ff.c      **** 	BYTE sum				/* SFN sum */
1378:sdc/ff.c      **** )
1379:sdc/ff.c      **** {
1380:sdc/ff.c      **** 	UINT i, s;
1381:sdc/ff.c      **** 	WCHAR wc;
1382:sdc/ff.c      **** 
1383:sdc/ff.c      **** 
1384:sdc/ff.c      **** 	dir[LDIR_Chksum] = sum;			/* Set check sum */
1385:sdc/ff.c      **** 	dir[LDIR_Attr] = AM_LFN;		/* Set attribute. LFN entry */
1386:sdc/ff.c      **** 	dir[LDIR_Type] = 0;
1387:sdc/ff.c      **** 	ST_WORD(dir+LDIR_FstClusLO, 0);
1388:sdc/ff.c      **** 
1389:sdc/ff.c      **** 	i = (ord - 1) * 13;				/* Get offset in the LFN buffer */
1390:sdc/ff.c      **** 	s = wc = 0;
1391:sdc/ff.c      **** 	do {
1392:sdc/ff.c      **** 		if (wc != 0xFFFF) wc = lfnbuf[i++];	/* Get an effective character */
1393:sdc/ff.c      **** 		ST_WORD(dir+LfnOfs[s], wc);	/* Put it */
ARM GAS  C:\Users\cronos\AppData\Local\Temp\ccinF6bS.s 			page 30


1394:sdc/ff.c      **** 		if (!wc) wc = 0xFFFF;		/* Padding characters following last character */
1395:sdc/ff.c      **** 	} while (++s < 13);
1396:sdc/ff.c      **** 	if (wc == 0xFFFF || !lfnbuf[i]) ord |= LLE;	/* Bottom LFN part is the start of LFN sequence */
1397:sdc/ff.c      **** 	dir[LDIR_Ord] = ord;			/* Set the LFN order */
1398:sdc/ff.c      **** }
1399:sdc/ff.c      **** 
1400:sdc/ff.c      **** #endif
1401:sdc/ff.c      **** #endif
1402:sdc/ff.c      **** 
1403:sdc/ff.c      **** 
1404:sdc/ff.c      **** 
1405:sdc/ff.c      **** 
1406:sdc/ff.c      **** /*-----------------------------------------------------------------------*/
1407:sdc/ff.c      **** /* Create numbered name                                                  */
1408:sdc/ff.c      **** /*-----------------------------------------------------------------------*/
1409:sdc/ff.c      **** #if _USE_LFN
1410:sdc/ff.c      **** static
1411:sdc/ff.c      **** void gen_numname (
1412:sdc/ff.c      **** 	BYTE* dst,			/* Pointer to the buffer to store numbered SFN */
1413:sdc/ff.c      **** 	const BYTE* src,	/* Pointer to SFN */
1414:sdc/ff.c      **** 	const WCHAR* lfn,	/* Pointer to LFN */
1415:sdc/ff.c      **** 	UINT seq			/* Sequence number */
1416:sdc/ff.c      **** )
1417:sdc/ff.c      **** {
1418:sdc/ff.c      **** 	BYTE ns[8], c;
1419:sdc/ff.c      **** 	UINT i, j;
1420:sdc/ff.c      **** 
1421:sdc/ff.c      **** 
1422:sdc/ff.c      **** 	mem_cpy(dst, src, 11);
1423:sdc/ff.c      **** 
1424:sdc/ff.c      **** 	if (seq > 5) {	/* On many collisions, generate a hash number instead of sequential number */
1425:sdc/ff.c      **** 		WCHAR wc;
1426:sdc/ff.c      **** 		DWORD sr = seq;
1427:sdc/ff.c      **** 
1428:sdc/ff.c      **** 		while (*lfn) {	/* Create a CRC */
1429:sdc/ff.c      **** 			wc = *lfn++;
1430:sdc/ff.c      **** 			for (i = 0; i < 16; i++) {
1431:sdc/ff.c      **** 				sr = (sr << 1) + (wc & 1);
1432:sdc/ff.c      **** 				wc >>= 1;
1433:sdc/ff.c      **** 				if (sr & 0x10000) sr ^= 0x11021;
1434:sdc/ff.c      **** 			}
1435:sdc/ff.c      **** 		}
1436:sdc/ff.c      **** 		seq = (UINT)sr;
1437:sdc/ff.c      **** 	}
1438:sdc/ff.c      **** 
1439:sdc/ff.c      **** 	/* itoa (hexdecimal) */
1440:sdc/ff.c      **** 	i = 7;
1441:sdc/ff.c      **** 	do {
1442:sdc/ff.c      **** 		c = (seq % 16) + '0';
1443:sdc/ff.c      **** 		if (c > '9') c += 7;
1444:sdc/ff.c      **** 		ns[i--] = c;
1445:sdc/ff.c      **** 		seq /= 16;
1446:sdc/ff.c      **** 	} while (seq);
1447:sdc/ff.c      **** 	ns[i] = '~';
1448:sdc/ff.c      **** 
1449:sdc/ff.c      **** 	/* Append the number */
1450:sdc/ff.c      **** 	for (j = 0; j < i && dst[j] != ' '; j++) {
ARM GAS  C:\Users\cronos\AppData\Local\Temp\ccinF6bS.s 			page 31


1451:sdc/ff.c      **** 		if (IsDBCS1(dst[j])) {
1452:sdc/ff.c      **** 			if (j == i - 1) break;
1453:sdc/ff.c      **** 			j++;
1454:sdc/ff.c      **** 		}
1455:sdc/ff.c      **** 	}
1456:sdc/ff.c      **** 	do {
1457:sdc/ff.c      **** 		dst[j++] = (i < 8) ? ns[i++] : ' ';
1458:sdc/ff.c      **** 	} while (j < 8);
1459:sdc/ff.c      **** }
1460:sdc/ff.c      **** #endif
1461:sdc/ff.c      **** 
1462:sdc/ff.c      **** 
1463:sdc/ff.c      **** 
1464:sdc/ff.c      **** 
1465:sdc/ff.c      **** /*-----------------------------------------------------------------------*/
1466:sdc/ff.c      **** /* Calculate sum of an SFN                                               */
1467:sdc/ff.c      **** /*-----------------------------------------------------------------------*/
1468:sdc/ff.c      **** #if _USE_LFN
1469:sdc/ff.c      **** static
1470:sdc/ff.c      **** BYTE sum_sfn (
1471:sdc/ff.c      **** 	const BYTE* dir		/* Pointer to the SFN entry */
1472:sdc/ff.c      **** )
1473:sdc/ff.c      **** {
1474:sdc/ff.c      **** 	BYTE sum = 0;
1475:sdc/ff.c      **** 	UINT n = 11;
1476:sdc/ff.c      **** 
1477:sdc/ff.c      **** 	do sum = (sum >> 1) + (sum << 7) + *dir++; while (--n);
1478:sdc/ff.c      **** 	return sum;
1479:sdc/ff.c      **** }
1480:sdc/ff.c      **** #endif
1481:sdc/ff.c      **** 
1482:sdc/ff.c      **** 
1483:sdc/ff.c      **** 
1484:sdc/ff.c      **** 
1485:sdc/ff.c      **** /*-----------------------------------------------------------------------*/
1486:sdc/ff.c      **** /* Directory handling - Find an object in the directory                  */
1487:sdc/ff.c      **** /*-----------------------------------------------------------------------*/
1488:sdc/ff.c      **** 
1489:sdc/ff.c      **** static
1490:sdc/ff.c      **** FRESULT dir_find (
1491:sdc/ff.c      **** 	DIR* dp			/* Pointer to the directory object linked to the file name */
1492:sdc/ff.c      **** )
1493:sdc/ff.c      **** {
1494:sdc/ff.c      **** 	FRESULT res;
1495:sdc/ff.c      **** 	BYTE c, *dir;
1496:sdc/ff.c      **** #if _USE_LFN
1497:sdc/ff.c      **** 	BYTE a, ord, sum;
1498:sdc/ff.c      **** #endif
1499:sdc/ff.c      **** 
1500:sdc/ff.c      **** 	res = dir_sdi(dp, 0);			/* Rewind directory object */
1501:sdc/ff.c      **** 	if (res != FR_OK) return res;
1502:sdc/ff.c      **** 
1503:sdc/ff.c      **** #if _USE_LFN
1504:sdc/ff.c      **** 	ord = sum = 0xFF; dp->lfn_idx = 0xFFFF;	/* Reset LFN sequence */
1505:sdc/ff.c      **** #endif
1506:sdc/ff.c      **** 	do {
1507:sdc/ff.c      **** 		res = move_window(dp->fs, dp->sect);
ARM GAS  C:\Users\cronos\AppData\Local\Temp\ccinF6bS.s 			page 32


1508:sdc/ff.c      **** 		if (res != FR_OK) break;
1509:sdc/ff.c      **** 		dir = dp->dir;					/* Ptr to the directory entry of current index */
1510:sdc/ff.c      **** 		c = dir[DIR_Name];
1511:sdc/ff.c      **** 		if (c == 0) { res = FR_NO_FILE; break; }	/* Reached to end of table */
1512:sdc/ff.c      **** #if _USE_LFN	/* LFN configuration */
1513:sdc/ff.c      **** 		a = dir[DIR_Attr] & AM_MASK;
1514:sdc/ff.c      **** 		if (c == DDE || ((a & AM_VOL) && a != AM_LFN)) {	/* An entry without valid data */
1515:sdc/ff.c      **** 			ord = 0xFF; dp->lfn_idx = 0xFFFF;	/* Reset LFN sequence */
1516:sdc/ff.c      **** 		} else {
1517:sdc/ff.c      **** 			if (a == AM_LFN) {			/* An LFN entry is found */
1518:sdc/ff.c      **** 				if (dp->lfn) {
1519:sdc/ff.c      **** 					if (c & LLE) {		/* Is it start of LFN sequence? */
1520:sdc/ff.c      **** 						sum = dir[LDIR_Chksum];
1521:sdc/ff.c      **** 						c &= ~LLE; ord = c;	/* LFN start order */
1522:sdc/ff.c      **** 						dp->lfn_idx = dp->index;	/* Start index of LFN */
1523:sdc/ff.c      **** 					}
1524:sdc/ff.c      **** 					/* Check validity of the LFN entry and compare it with given name */
1525:sdc/ff.c      **** 					ord = (c == ord && sum == dir[LDIR_Chksum] && cmp_lfn(dp->lfn, dir)) ? ord - 1 : 0xFF;
1526:sdc/ff.c      **** 				}
1527:sdc/ff.c      **** 			} else {					/* An SFN entry is found */
1528:sdc/ff.c      **** 				if (!ord && sum == sum_sfn(dir)) break;	/* LFN matched? */
1529:sdc/ff.c      **** 				if (!(dp->fn[NS] & NS_LOSS) && !mem_cmp(dir, dp->fn, 11)) break;	/* SFN matched? */
1530:sdc/ff.c      **** 				ord = 0xFF; dp->lfn_idx = 0xFFFF;	/* Reset LFN sequence */
1531:sdc/ff.c      **** 			}
1532:sdc/ff.c      **** 		}
1533:sdc/ff.c      **** #else		/* Non LFN configuration */
1534:sdc/ff.c      **** 		if (!(dir[DIR_Attr] & AM_VOL) && !mem_cmp(dir, dp->fn, 11)) /* Is it a valid entry? */
1535:sdc/ff.c      **** 			break;
1536:sdc/ff.c      **** #endif
1537:sdc/ff.c      **** 		res = dir_next(dp, 0);		/* Next entry */
1538:sdc/ff.c      **** 	} while (res == FR_OK);
1539:sdc/ff.c      **** 
1540:sdc/ff.c      **** 	return res;
1541:sdc/ff.c      **** }
1542:sdc/ff.c      **** 
1543:sdc/ff.c      **** 
1544:sdc/ff.c      **** 
1545:sdc/ff.c      **** 
1546:sdc/ff.c      **** /*-----------------------------------------------------------------------*/
1547:sdc/ff.c      **** /* Read an object from the directory                                     */
1548:sdc/ff.c      **** /*-----------------------------------------------------------------------*/
1549:sdc/ff.c      **** #if _FS_MINIMIZE <= 1 || _USE_LABEL || _FS_RPATH >= 2
1550:sdc/ff.c      **** static
1551:sdc/ff.c      **** FRESULT dir_read (
1552:sdc/ff.c      **** 	DIR* dp,		/* Pointer to the directory object */
1553:sdc/ff.c      **** 	int vol			/* Filtered by 0:file/directory or 1:volume label */
1554:sdc/ff.c      **** )
1555:sdc/ff.c      **** {
1556:sdc/ff.c      **** 	FRESULT res;
1557:sdc/ff.c      **** 	BYTE a, c, *dir;
1558:sdc/ff.c      **** #if _USE_LFN
1559:sdc/ff.c      **** 	BYTE ord = 0xFF, sum = 0xFF;
1560:sdc/ff.c      **** #endif
1561:sdc/ff.c      **** 
1562:sdc/ff.c      **** 	res = FR_NO_FILE;
1563:sdc/ff.c      **** 	while (dp->sect) {
1564:sdc/ff.c      **** 		res = move_window(dp->fs, dp->sect);
ARM GAS  C:\Users\cronos\AppData\Local\Temp\ccinF6bS.s 			page 33


1565:sdc/ff.c      **** 		if (res != FR_OK) break;
1566:sdc/ff.c      **** 		dir = dp->dir;					/* Ptr to the directory entry of current index */
1567:sdc/ff.c      **** 		c = dir[DIR_Name];
1568:sdc/ff.c      **** 		if (c == 0) { res = FR_NO_FILE; break; }	/* Reached to end of table */
1569:sdc/ff.c      **** 		a = dir[DIR_Attr] & AM_MASK;
1570:sdc/ff.c      **** #if _USE_LFN	/* LFN configuration */
1571:sdc/ff.c      **** 		if (c == DDE || (!_FS_RPATH && c == '.') || (int)(a == AM_VOL) != vol) {	/* An entry without vali
1572:sdc/ff.c      **** 			ord = 0xFF;
1573:sdc/ff.c      **** 		} else {
1574:sdc/ff.c      **** 			if (a == AM_LFN) {			/* An LFN entry is found */
1575:sdc/ff.c      **** 				if (c & LLE) {			/* Is it start of LFN sequence? */
1576:sdc/ff.c      **** 					sum = dir[LDIR_Chksum];
1577:sdc/ff.c      **** 					c &= ~LLE; ord = c;
1578:sdc/ff.c      **** 					dp->lfn_idx = dp->index;
1579:sdc/ff.c      **** 				}
1580:sdc/ff.c      **** 				/* Check LFN validity and capture it */
1581:sdc/ff.c      **** 				ord = (c == ord && sum == dir[LDIR_Chksum] && pick_lfn(dp->lfn, dir)) ? ord - 1 : 0xFF;
1582:sdc/ff.c      **** 			} else {					/* An SFN entry is found */
1583:sdc/ff.c      **** 				if (ord || sum != sum_sfn(dir))	/* Is there a valid LFN? */
1584:sdc/ff.c      **** 					dp->lfn_idx = 0xFFFF;		/* It has no LFN. */
1585:sdc/ff.c      **** 				break;
1586:sdc/ff.c      **** 			}
1587:sdc/ff.c      **** 		}
1588:sdc/ff.c      **** #else		/* Non LFN configuration */
1589:sdc/ff.c      **** 		if (c != DDE && (_FS_RPATH || c != '.') && a != AM_LFN && (int)(a == AM_VOL) == vol)	/* Is it a v
1590:sdc/ff.c      **** 			break;
1591:sdc/ff.c      **** #endif
1592:sdc/ff.c      **** 		res = dir_next(dp, 0);				/* Next entry */
1593:sdc/ff.c      **** 		if (res != FR_OK) break;
1594:sdc/ff.c      **** 	}
1595:sdc/ff.c      **** 
1596:sdc/ff.c      **** 	if (res != FR_OK) dp->sect = 0;
1597:sdc/ff.c      **** 
1598:sdc/ff.c      **** 	return res;
1599:sdc/ff.c      **** }
1600:sdc/ff.c      **** #endif	/* _FS_MINIMIZE <= 1 || _USE_LABEL || _FS_RPATH >= 2 */
1601:sdc/ff.c      **** 
1602:sdc/ff.c      **** 
1603:sdc/ff.c      **** 
1604:sdc/ff.c      **** 
1605:sdc/ff.c      **** /*-----------------------------------------------------------------------*/
1606:sdc/ff.c      **** /* Register an object to the directory                                   */
1607:sdc/ff.c      **** /*-----------------------------------------------------------------------*/
1608:sdc/ff.c      **** #if !_FS_READONLY
1609:sdc/ff.c      **** static
1610:sdc/ff.c      **** FRESULT dir_register (	/* FR_OK:Successful, FR_DENIED:No free entry or too many SFN collision, FR_D
1611:sdc/ff.c      **** 	DIR* dp				/* Target directory with object name to be created */
1612:sdc/ff.c      **** )
1613:sdc/ff.c      **** {
1614:sdc/ff.c      **** 	FRESULT res;
1615:sdc/ff.c      **** #if _USE_LFN	/* LFN configuration */
1616:sdc/ff.c      **** 	UINT n, nent;
1617:sdc/ff.c      **** 	BYTE sn[12], *fn, sum;
1618:sdc/ff.c      **** 	WCHAR *lfn;
1619:sdc/ff.c      **** 
1620:sdc/ff.c      **** 
1621:sdc/ff.c      **** 	fn = dp->fn; lfn = dp->lfn;
ARM GAS  C:\Users\cronos\AppData\Local\Temp\ccinF6bS.s 			page 34


1622:sdc/ff.c      **** 	mem_cpy(sn, fn, 12);
1623:sdc/ff.c      **** 
1624:sdc/ff.c      **** 	if (_FS_RPATH && (sn[NS] & NS_DOT))		/* Cannot create dot entry */
1625:sdc/ff.c      **** 		return FR_INVALID_NAME;
1626:sdc/ff.c      **** 
1627:sdc/ff.c      **** 	if (sn[NS] & NS_LOSS) {			/* When LFN is out of 8.3 format, generate a numbered name */
1628:sdc/ff.c      **** 		fn[NS] = 0; dp->lfn = 0;			/* Find only SFN */
1629:sdc/ff.c      **** 		for (n = 1; n < 100; n++) {
1630:sdc/ff.c      **** 			gen_numname(fn, sn, lfn, n);	/* Generate a numbered name */
1631:sdc/ff.c      **** 			res = dir_find(dp);				/* Check if the name collides with existing SFN */
1632:sdc/ff.c      **** 			if (res != FR_OK) break;
1633:sdc/ff.c      **** 		}
1634:sdc/ff.c      **** 		if (n == 100) return FR_DENIED;		/* Abort if too many collisions */
1635:sdc/ff.c      **** 		if (res != FR_NO_FILE) return res;	/* Abort if the result is other than 'not collided' */
1636:sdc/ff.c      **** 		fn[NS] = sn[NS]; dp->lfn = lfn;
1637:sdc/ff.c      **** 	}
1638:sdc/ff.c      **** 
1639:sdc/ff.c      **** 	if (sn[NS] & NS_LFN) {			/* When LFN is to be created, allocate entries for an SFN + LFNs. */
1640:sdc/ff.c      **** 		for (n = 0; lfn[n]; n++) ;
1641:sdc/ff.c      **** 		nent = (n + 25) / 13;
1642:sdc/ff.c      **** 	} else {						/* Otherwise allocate an entry for an SFN  */
1643:sdc/ff.c      **** 		nent = 1;
1644:sdc/ff.c      **** 	}
1645:sdc/ff.c      **** 	res = dir_alloc(dp, nent);		/* Allocate entries */
1646:sdc/ff.c      **** 
1647:sdc/ff.c      **** 	if (res == FR_OK && --nent) {	/* Set LFN entry if needed */
1648:sdc/ff.c      **** 		res = dir_sdi(dp, dp->index - nent);
1649:sdc/ff.c      **** 		if (res == FR_OK) {
1650:sdc/ff.c      **** 			sum = sum_sfn(dp->fn);	/* Sum value of the SFN tied to the LFN */
1651:sdc/ff.c      **** 			do {					/* Store LFN entries in bottom first */
1652:sdc/ff.c      **** 				res = move_window(dp->fs, dp->sect);
1653:sdc/ff.c      **** 				if (res != FR_OK) break;
1654:sdc/ff.c      **** 				fit_lfn(dp->lfn, dp->dir, (BYTE)nent, sum);
1655:sdc/ff.c      **** 				dp->fs->wflag = 1;
1656:sdc/ff.c      **** 				res = dir_next(dp, 0);	/* Next entry */
1657:sdc/ff.c      **** 			} while (res == FR_OK && --nent);
1658:sdc/ff.c      **** 		}
1659:sdc/ff.c      **** 	}
1660:sdc/ff.c      **** #else	/* Non LFN configuration */
1661:sdc/ff.c      **** 	res = dir_alloc(dp, 1);		/* Allocate an entry for SFN */
1662:sdc/ff.c      **** #endif
1663:sdc/ff.c      **** 
1664:sdc/ff.c      **** 	if (res == FR_OK) {				/* Set SFN entry */
1665:sdc/ff.c      **** 		res = move_window(dp->fs, dp->sect);
1666:sdc/ff.c      **** 		if (res == FR_OK) {
1667:sdc/ff.c      **** 			mem_set(dp->dir, 0, SZ_DIR);	/* Clean the entry */
1668:sdc/ff.c      **** 			mem_cpy(dp->dir, dp->fn, 11);	/* Put SFN */
1669:sdc/ff.c      **** #if _USE_LFN
1670:sdc/ff.c      **** 			dp->dir[DIR_NTres] = dp->fn[NS] & (NS_BODY | NS_EXT);	/* Put NT flag */
1671:sdc/ff.c      **** #endif
1672:sdc/ff.c      **** 			dp->fs->wflag = 1;
1673:sdc/ff.c      **** 		}
1674:sdc/ff.c      **** 	}
1675:sdc/ff.c      **** 
1676:sdc/ff.c      **** 	return res;
1677:sdc/ff.c      **** }
1678:sdc/ff.c      **** #endif /* !_FS_READONLY */
ARM GAS  C:\Users\cronos\AppData\Local\Temp\ccinF6bS.s 			page 35


1679:sdc/ff.c      **** 
1680:sdc/ff.c      **** 
1681:sdc/ff.c      **** 
1682:sdc/ff.c      **** 
1683:sdc/ff.c      **** /*-----------------------------------------------------------------------*/
1684:sdc/ff.c      **** /* Remove an object from the directory                                   */
1685:sdc/ff.c      **** /*-----------------------------------------------------------------------*/
1686:sdc/ff.c      **** #if !_FS_READONLY && !_FS_MINIMIZE
1687:sdc/ff.c      **** static
1688:sdc/ff.c      **** FRESULT dir_remove (	/* FR_OK: Successful, FR_DISK_ERR: A disk error */
1689:sdc/ff.c      **** 	DIR* dp				/* Directory object pointing the entry to be removed */
1690:sdc/ff.c      **** )
1691:sdc/ff.c      **** {
1692:sdc/ff.c      **** 	FRESULT res;
1693:sdc/ff.c      **** #if _USE_LFN	/* LFN configuration */
1694:sdc/ff.c      **** 	UINT i;
1695:sdc/ff.c      **** 
1696:sdc/ff.c      **** 	i = dp->index;	/* SFN index */
1697:sdc/ff.c      **** 	res = dir_sdi(dp, (dp->lfn_idx == 0xFFFF) ? i : dp->lfn_idx);	/* Goto the SFN or top of the LFN en
1698:sdc/ff.c      **** 	if (res == FR_OK) {
1699:sdc/ff.c      **** 		do {
1700:sdc/ff.c      **** 			res = move_window(dp->fs, dp->sect);
1701:sdc/ff.c      **** 			if (res != FR_OK) break;
1702:sdc/ff.c      **** 			mem_set(dp->dir, 0, SZ_DIR);	/* Clear and mark the entry "deleted" */
1703:sdc/ff.c      **** 			*dp->dir = DDE;
1704:sdc/ff.c      **** 			dp->fs->wflag = 1;
1705:sdc/ff.c      **** 			if (dp->index >= i) break;	/* When reached SFN, all entries of the object has been deleted. */
1706:sdc/ff.c      **** 			res = dir_next(dp, 0);		/* Next entry */
1707:sdc/ff.c      **** 		} while (res == FR_OK);
1708:sdc/ff.c      **** 		if (res == FR_NO_FILE) res = FR_INT_ERR;
1709:sdc/ff.c      **** 	}
1710:sdc/ff.c      **** 
1711:sdc/ff.c      **** #else			/* Non LFN configuration */
1712:sdc/ff.c      **** 	res = dir_sdi(dp, dp->index);
1713:sdc/ff.c      **** 	if (res == FR_OK) {
1714:sdc/ff.c      **** 		res = move_window(dp->fs, dp->sect);
1715:sdc/ff.c      **** 		if (res == FR_OK) {
1716:sdc/ff.c      **** 			mem_set(dp->dir, 0, SZ_DIR);	/* Clear and mark the entry "deleted" */
1717:sdc/ff.c      **** 			*dp->dir = DDE;
1718:sdc/ff.c      **** 			dp->fs->wflag = 1;
1719:sdc/ff.c      **** 		}
1720:sdc/ff.c      **** 	}
1721:sdc/ff.c      **** #endif
1722:sdc/ff.c      **** 
1723:sdc/ff.c      **** 	return res;
1724:sdc/ff.c      **** }
1725:sdc/ff.c      **** #endif /* !_FS_READONLY */
1726:sdc/ff.c      **** 
1727:sdc/ff.c      **** 
1728:sdc/ff.c      **** 
1729:sdc/ff.c      **** 
1730:sdc/ff.c      **** /*-----------------------------------------------------------------------*/
1731:sdc/ff.c      **** /* Get file information from directory entry                             */
1732:sdc/ff.c      **** /*-----------------------------------------------------------------------*/
1733:sdc/ff.c      **** #if _FS_MINIMIZE <= 1 || _FS_RPATH >= 2
1734:sdc/ff.c      **** static
1735:sdc/ff.c      **** void get_fileinfo (		/* No return code */
ARM GAS  C:\Users\cronos\AppData\Local\Temp\ccinF6bS.s 			page 36


1736:sdc/ff.c      **** 	DIR* dp,			/* Pointer to the directory object */
1737:sdc/ff.c      **** 	FILINFO* fno	 	/* Pointer to the file information to be filled */
1738:sdc/ff.c      **** )
1739:sdc/ff.c      **** {
 257              		.loc 1 1739 0
 258              		.cfi_startproc
 259              		@ args = 0, pretend = 0, frame = 0
 260              		@ frame_needed = 0, uses_anonymous_args = 0
 261              		@ link register save eliminated.
 262              	.LVL30:
 263 0000 30B4     		push	{r4, r5}
 264              		.cfi_def_cfa_offset 8
 265              		.cfi_offset 4, -8
 266              		.cfi_offset 5, -4
1740:sdc/ff.c      **** 	UINT i;
1741:sdc/ff.c      **** 	TCHAR *p, c;
1742:sdc/ff.c      **** 
1743:sdc/ff.c      **** 
1744:sdc/ff.c      **** 	p = fno->fname;
 267              		.loc 1 1744 0
 268 0002 01F10904 		add	r4, r1, #9
 269              	.LVL31:
1745:sdc/ff.c      **** 	if (dp->sect) {		/* Get SFN */
 270              		.loc 1 1745 0
 271 0006 0369     		ldr	r3, [r0, #16]
 272 0008 53B3     		cbz	r3, .L20
 273              	.LBB2:
1746:sdc/ff.c      **** 		BYTE *dir = dp->dir;
 274              		.loc 1 1746 0
 275 000a 4069     		ldr	r0, [r0, #20]
 276              	.LVL32:
1747:sdc/ff.c      **** 
1748:sdc/ff.c      **** 		i = 0;
 277              		.loc 1 1748 0
 278 000c 0023     		movs	r3, #0
1749:sdc/ff.c      **** 		while (i < 11) {		/* Copy name body and extension */
 279              		.loc 1 1749 0
 280 000e 0EE0     		b	.L21
 281              	.LVL33:
 282              	.L25:
1750:sdc/ff.c      **** 			c = (TCHAR)dir[i++];
 283              		.loc 1 1750 0
 284 0010 5A1C     		adds	r2, r3, #1
 285              	.LVL34:
 286 0012 C35C     		ldrb	r3, [r0, r3]	@ zero_extendqisi2
 287              	.LVL35:
1751:sdc/ff.c      **** 			if (c == ' ') continue;			/* Skip padding spaces */
 288              		.loc 1 1751 0
 289 0014 202B     		cmp	r3, #32
 290 0016 09D0     		beq	.L22
1752:sdc/ff.c      **** 			if (c == NDDE) c = (TCHAR)DDE;	/* Restore replaced DDE character */
 291              		.loc 1 1752 0
 292 0018 052B     		cmp	r3, #5
 293 001a 00D1     		bne	.L23
 294 001c E523     		movs	r3, #229
 295              	.LVL36:
 296              	.L23:
ARM GAS  C:\Users\cronos\AppData\Local\Temp\ccinF6bS.s 			page 37


1753:sdc/ff.c      **** 			if (i == 9) *p++ = '.';			/* Insert a . if extension is exist */
 297              		.loc 1 1753 0
 298 001e 092A     		cmp	r2, #9
 299 0020 02D1     		bne	.L24
 300              	.LVL37:
 301              		.loc 1 1753 0 is_stmt 0 discriminator 1
 302 0022 2E25     		movs	r5, #46
 303 0024 2570     		strb	r5, [r4]
 304 0026 0134     		adds	r4, r4, #1
 305              	.LVL38:
 306              	.L24:
1754:sdc/ff.c      **** #if _USE_LFN
1755:sdc/ff.c      **** 			if (IsUpper(c) && (dir[DIR_NTres] & (i >= 9 ? NS_EXT : NS_BODY)))
1756:sdc/ff.c      **** 				c += 0x20;			/* To lower */
1757:sdc/ff.c      **** #if _LFN_UNICODE
1758:sdc/ff.c      **** 			if (IsDBCS1(c) && i != 8 && i != 11 && IsDBCS2(dir[i]))
1759:sdc/ff.c      **** 				c = c << 8 | dir[i++];
1760:sdc/ff.c      **** 			c = ff_convert(c, 1);	/* OEM -> Unicode */
1761:sdc/ff.c      **** 			if (!c) c = '?';
1762:sdc/ff.c      **** #endif
1763:sdc/ff.c      **** #endif
1764:sdc/ff.c      **** 			*p++ = c;
 307              		.loc 1 1764 0 is_stmt 1
 308 0028 2370     		strb	r3, [r4]
 309 002a 0134     		adds	r4, r4, #1
 310              	.LVL39:
 311              	.L22:
 312 002c 1346     		mov	r3, r2
 313              	.LVL40:
 314              	.L21:
1749:sdc/ff.c      **** 			c = (TCHAR)dir[i++];
 315              		.loc 1 1749 0
 316 002e 0A2B     		cmp	r3, #10
 317 0030 EED9     		bls	.L25
1765:sdc/ff.c      **** 		}
1766:sdc/ff.c      **** 		fno->fattrib = dir[DIR_Attr];				/* Attribute */
 318              		.loc 1 1766 0
 319 0032 C37A     		ldrb	r3, [r0, #11]	@ zero_extendqisi2
 320              	.LVL41:
 321 0034 0B72     		strb	r3, [r1, #8]
1767:sdc/ff.c      **** 		fno->fsize = LD_DWORD(dir+DIR_FileSize);	/* Size */
 322              		.loc 1 1767 0
 323 0036 C27F     		ldrb	r2, [r0, #31]	@ zero_extendqisi2
 324 0038 837F     		ldrb	r3, [r0, #30]	@ zero_extendqisi2
 325 003a 1B04     		lsls	r3, r3, #16
 326 003c 43EA0263 		orr	r3, r3, r2, lsl #24
 327 0040 427F     		ldrb	r2, [r0, #29]	@ zero_extendqisi2
 328 0042 43EA0223 		orr	r3, r3, r2, lsl #8
 329 0046 027F     		ldrb	r2, [r0, #28]	@ zero_extendqisi2
 330 0048 1343     		orrs	r3, r3, r2
 331 004a 0B60     		str	r3, [r1]
1768:sdc/ff.c      **** 		fno->fdate = LD_WORD(dir+DIR_WrtDate);		/* Date */
 332              		.loc 1 1768 0
 333 004c 427E     		ldrb	r2, [r0, #25]	@ zero_extendqisi2
 334 004e 037E     		ldrb	r3, [r0, #24]	@ zero_extendqisi2
 335 0050 43EA0223 		orr	r3, r3, r2, lsl #8
 336 0054 8B80     		strh	r3, [r1, #4]	@ movhi
ARM GAS  C:\Users\cronos\AppData\Local\Temp\ccinF6bS.s 			page 38


1769:sdc/ff.c      **** 		fno->ftime = LD_WORD(dir+DIR_WrtTime);		/* Time */
 337              		.loc 1 1769 0
 338 0056 C27D     		ldrb	r2, [r0, #23]	@ zero_extendqisi2
 339 0058 837D     		ldrb	r3, [r0, #22]	@ zero_extendqisi2
 340 005a 43EA0223 		orr	r3, r3, r2, lsl #8
 341 005e CB80     		strh	r3, [r1, #6]	@ movhi
 342              	.LVL42:
 343              	.L20:
 344              	.LBE2:
1770:sdc/ff.c      **** 	}
1771:sdc/ff.c      **** 	*p = 0;		/* Terminate SFN string by a \0 */
 345              		.loc 1 1771 0
 346 0060 0023     		movs	r3, #0
 347 0062 2370     		strb	r3, [r4]
1772:sdc/ff.c      **** 
1773:sdc/ff.c      **** #if _USE_LFN
1774:sdc/ff.c      **** 	if (fno->lfname) {
1775:sdc/ff.c      **** 		WCHAR w, *lfn;
1776:sdc/ff.c      **** 
1777:sdc/ff.c      **** 		i = 0; p = fno->lfname;
1778:sdc/ff.c      **** 		if (dp->sect && fno->lfsize && dp->lfn_idx != 0xFFFF) {	/* Get LFN if available */
1779:sdc/ff.c      **** 			lfn = dp->lfn;
1780:sdc/ff.c      **** 			while ((w = *lfn++) != 0) {		/* Get an LFN character */
1781:sdc/ff.c      **** #if !_LFN_UNICODE
1782:sdc/ff.c      **** 				w = ff_convert(w, 0);		/* Unicode -> OEM */
1783:sdc/ff.c      **** 				if (!w) { i = 0; break; }	/* No LFN if it could not be converted */
1784:sdc/ff.c      **** 				if (_DF1S && w >= 0x100)	/* Put 1st byte if it is a DBC (always false on SBCS cfg) */
1785:sdc/ff.c      **** 					p[i++] = (TCHAR)(w >> 8);
1786:sdc/ff.c      **** #endif
1787:sdc/ff.c      **** 				if (i >= fno->lfsize - 1) { i = 0; break; }	/* No LFN if buffer overflow */
1788:sdc/ff.c      **** 				p[i++] = (TCHAR)w;
1789:sdc/ff.c      **** 			}
1790:sdc/ff.c      **** 		}
1791:sdc/ff.c      **** 		p[i] = 0;	/* Terminate LFN string by a \0 */
1792:sdc/ff.c      **** 	}
1793:sdc/ff.c      **** #endif
1794:sdc/ff.c      **** }
 348              		.loc 1 1794 0
 349 0064 30BC     		pop	{r4, r5}
 350              		.cfi_restore 5
 351              		.cfi_restore 4
 352              		.cfi_def_cfa_offset 0
 353              	.LVL43:
 354 0066 7047     		bx	lr
 355              		.cfi_endproc
 356              	.LFE21:
 357              		.size	get_fileinfo, .-get_fileinfo
 358              		.section	.text.create_name,"ax",%progbits
 359              		.align	2
 360              		.thumb
 361              		.thumb_func
 362              		.type	create_name, %function
 363              	create_name:
 364              	.LFB22:
1795:sdc/ff.c      **** #endif /* _FS_MINIMIZE <= 1 || _FS_RPATH >= 2*/
1796:sdc/ff.c      **** 
1797:sdc/ff.c      **** 
ARM GAS  C:\Users\cronos\AppData\Local\Temp\ccinF6bS.s 			page 39


1798:sdc/ff.c      **** 
1799:sdc/ff.c      **** 
1800:sdc/ff.c      **** /*-----------------------------------------------------------------------*/
1801:sdc/ff.c      **** /* Pick a segment and create the object name in directory form           */
1802:sdc/ff.c      **** /*-----------------------------------------------------------------------*/
1803:sdc/ff.c      **** 
1804:sdc/ff.c      **** static
1805:sdc/ff.c      **** FRESULT create_name (
1806:sdc/ff.c      **** 	DIR* dp,			/* Pointer to the directory object */
1807:sdc/ff.c      **** 	const TCHAR** path	/* Pointer to pointer to the segment in the path string */
1808:sdc/ff.c      **** )
1809:sdc/ff.c      **** {
 365              		.loc 1 1809 0
 366              		.cfi_startproc
 367              		@ args = 0, pretend = 0, frame = 0
 368              		@ frame_needed = 0, uses_anonymous_args = 0
 369              	.LVL44:
 370 0000 2DE9F84F 		push	{r3, r4, r5, r6, r7, r8, r9, r10, fp, lr}
 371              		.cfi_def_cfa_offset 40
 372              		.cfi_offset 3, -40
 373              		.cfi_offset 4, -36
 374              		.cfi_offset 5, -32
 375              		.cfi_offset 6, -28
 376              		.cfi_offset 7, -24
 377              		.cfi_offset 8, -20
 378              		.cfi_offset 9, -16
 379              		.cfi_offset 10, -12
 380              		.cfi_offset 11, -8
 381              		.cfi_offset 14, -4
 382 0004 8A46     		mov	r10, r1
1810:sdc/ff.c      **** #if _USE_LFN	/* LFN configuration */
1811:sdc/ff.c      **** 	BYTE b, cf;
1812:sdc/ff.c      **** 	WCHAR w, *lfn;
1813:sdc/ff.c      **** 	UINT i, ni, si, di;
1814:sdc/ff.c      **** 	const TCHAR *p;
1815:sdc/ff.c      **** 
1816:sdc/ff.c      **** 	/* Create LFN in Unicode */
1817:sdc/ff.c      **** 	for (p = *path; *p == '/' || *p == '\\'; p++) ;	/* Strip duplicated separator */
1818:sdc/ff.c      **** 	lfn = dp->lfn;
1819:sdc/ff.c      **** 	si = di = 0;
1820:sdc/ff.c      **** 	for (;;) {
1821:sdc/ff.c      **** 		w = p[si++];					/* Get a character */
1822:sdc/ff.c      **** 		if (w < ' ' || w == '/' || w == '\\') break;	/* Break on end of segment */
1823:sdc/ff.c      **** 		if (di >= _MAX_LFN)				/* Reject too long name */
1824:sdc/ff.c      **** 			return FR_INVALID_NAME;
1825:sdc/ff.c      **** #if !_LFN_UNICODE
1826:sdc/ff.c      **** 		w &= 0xFF;
1827:sdc/ff.c      **** 		if (IsDBCS1(w)) {				/* Check if it is a DBC 1st byte (always false on SBCS cfg) */
1828:sdc/ff.c      **** 			b = (BYTE)p[si++];			/* Get 2nd byte */
1829:sdc/ff.c      **** 			if (!IsDBCS2(b))
1830:sdc/ff.c      **** 				return FR_INVALID_NAME;	/* Reject invalid sequence */
1831:sdc/ff.c      **** 			w = (w << 8) + b;			/* Create a DBC */
1832:sdc/ff.c      **** 		}
1833:sdc/ff.c      **** 		w = ff_convert(w, 1);			/* Convert ANSI/OEM to Unicode */
1834:sdc/ff.c      **** 		if (!w) return FR_INVALID_NAME;	/* Reject invalid code */
1835:sdc/ff.c      **** #endif
1836:sdc/ff.c      **** 		if (w < 0x80 && chk_chr("\"*:<>\?|\x7F", w)) /* Reject illegal characters for LFN */
ARM GAS  C:\Users\cronos\AppData\Local\Temp\ccinF6bS.s 			page 40


1837:sdc/ff.c      **** 			return FR_INVALID_NAME;
1838:sdc/ff.c      **** 		lfn[di++] = w;					/* Store the Unicode character */
1839:sdc/ff.c      **** 	}
1840:sdc/ff.c      **** 	*path = &p[si];						/* Return pointer to the next segment */
1841:sdc/ff.c      **** 	cf = (w < ' ') ? NS_LAST : 0;		/* Set last segment flag if end of path */
1842:sdc/ff.c      **** #if _FS_RPATH
1843:sdc/ff.c      **** 	if ((di == 1 && lfn[di-1] == '.') || /* Is this a dot entry? */
1844:sdc/ff.c      **** 		(di == 2 && lfn[di-1] == '.' && lfn[di-2] == '.')) {
1845:sdc/ff.c      **** 		lfn[di] = 0;
1846:sdc/ff.c      **** 		for (i = 0; i < 11; i++)
1847:sdc/ff.c      **** 			dp->fn[i] = (i < di) ? '.' : ' ';
1848:sdc/ff.c      **** 		dp->fn[i] = cf | NS_DOT;		/* This is a dot entry */
1849:sdc/ff.c      **** 		return FR_OK;
1850:sdc/ff.c      **** 	}
1851:sdc/ff.c      **** #endif
1852:sdc/ff.c      **** 	while (di) {						/* Strip trailing spaces and dots */
1853:sdc/ff.c      **** 		w = lfn[di-1];
1854:sdc/ff.c      **** 		if (w != ' ' && w != '.') break;
1855:sdc/ff.c      **** 		di--;
1856:sdc/ff.c      **** 	}
1857:sdc/ff.c      **** 	if (!di) return FR_INVALID_NAME;	/* Reject nul string */
1858:sdc/ff.c      **** 
1859:sdc/ff.c      **** 	lfn[di] = 0;						/* LFN is created */
1860:sdc/ff.c      **** 
1861:sdc/ff.c      **** 	/* Create SFN in directory form */
1862:sdc/ff.c      **** 	mem_set(dp->fn, ' ', 11);
1863:sdc/ff.c      **** 	for (si = 0; lfn[si] == ' ' || lfn[si] == '.'; si++) ;	/* Strip leading spaces and dots */
1864:sdc/ff.c      **** 	if (si) cf |= NS_LOSS | NS_LFN;
1865:sdc/ff.c      **** 	while (di && lfn[di - 1] != '.') di--;	/* Find extension (di<=si: no extension) */
1866:sdc/ff.c      **** 
1867:sdc/ff.c      **** 	b = i = 0; ni = 8;
1868:sdc/ff.c      **** 	for (;;) {
1869:sdc/ff.c      **** 		w = lfn[si++];					/* Get an LFN character */
1870:sdc/ff.c      **** 		if (!w) break;					/* Break on end of the LFN */
1871:sdc/ff.c      **** 		if (w == ' ' || (w == '.' && si != di)) {	/* Remove spaces and dots */
1872:sdc/ff.c      **** 			cf |= NS_LOSS | NS_LFN; continue;
1873:sdc/ff.c      **** 		}
1874:sdc/ff.c      **** 
1875:sdc/ff.c      **** 		if (i >= ni || si == di) {		/* Extension or end of SFN */
1876:sdc/ff.c      **** 			if (ni == 11) {				/* Long extension */
1877:sdc/ff.c      **** 				cf |= NS_LOSS | NS_LFN; break;
1878:sdc/ff.c      **** 			}
1879:sdc/ff.c      **** 			if (si != di) cf |= NS_LOSS | NS_LFN;	/* Out of 8.3 format */
1880:sdc/ff.c      **** 			if (si > di) break;			/* No extension */
1881:sdc/ff.c      **** 			si = di; i = 8; ni = 11;	/* Enter extension section */
1882:sdc/ff.c      **** 			b <<= 2; continue;
1883:sdc/ff.c      **** 		}
1884:sdc/ff.c      **** 
1885:sdc/ff.c      **** 		if (w >= 0x80) {				/* Non ASCII character */
1886:sdc/ff.c      **** #ifdef _EXCVT
1887:sdc/ff.c      **** 			w = ff_convert(w, 0);		/* Unicode -> OEM code */
1888:sdc/ff.c      **** 			if (w) w = ExCvt[w - 0x80];	/* Convert extended character to upper (SBCS) */
1889:sdc/ff.c      **** #else
1890:sdc/ff.c      **** 			w = ff_convert(ff_wtoupper(w), 0);	/* Upper converted Unicode -> OEM code */
1891:sdc/ff.c      **** #endif
1892:sdc/ff.c      **** 			cf |= NS_LFN;				/* Force create LFN entry */
1893:sdc/ff.c      **** 		}
ARM GAS  C:\Users\cronos\AppData\Local\Temp\ccinF6bS.s 			page 41


1894:sdc/ff.c      **** 
1895:sdc/ff.c      **** 		if (_DF1S && w >= 0x100) {		/* Double byte character (always false on SBCS cfg) */
1896:sdc/ff.c      **** 			if (i >= ni - 1) {
1897:sdc/ff.c      **** 				cf |= NS_LOSS | NS_LFN; i = ni; continue;
1898:sdc/ff.c      **** 			}
1899:sdc/ff.c      **** 			dp->fn[i++] = (BYTE)(w >> 8);
1900:sdc/ff.c      **** 		} else {						/* Single byte character */
1901:sdc/ff.c      **** 			if (!w || chk_chr("+,;=[]", w)) {	/* Replace illegal characters for SFN */
1902:sdc/ff.c      **** 				w = '_'; cf |= NS_LOSS | NS_LFN;/* Lossy conversion */
1903:sdc/ff.c      **** 			} else {
1904:sdc/ff.c      **** 				if (IsUpper(w)) {		/* ASCII large capital */
1905:sdc/ff.c      **** 					b |= 2;
1906:sdc/ff.c      **** 				} else {
1907:sdc/ff.c      **** 					if (IsLower(w)) {	/* ASCII small capital */
1908:sdc/ff.c      **** 						b |= 1; w -= 0x20;
1909:sdc/ff.c      **** 					}
1910:sdc/ff.c      **** 				}
1911:sdc/ff.c      **** 			}
1912:sdc/ff.c      **** 		}
1913:sdc/ff.c      **** 		dp->fn[i++] = (BYTE)w;
1914:sdc/ff.c      **** 	}
1915:sdc/ff.c      **** 
1916:sdc/ff.c      **** 	if (dp->fn[0] == DDE) dp->fn[0] = NDDE;	/* If the first character collides with deleted mark, repl
1917:sdc/ff.c      **** 
1918:sdc/ff.c      **** 	if (ni == 8) b <<= 2;
1919:sdc/ff.c      **** 	if ((b & 0x0C) == 0x0C || (b & 0x03) == 0x03)	/* Create LFN entry when there are composite capital
1920:sdc/ff.c      **** 		cf |= NS_LFN;
1921:sdc/ff.c      **** 	if (!(cf & NS_LFN)) {						/* When LFN is in 8.3 format without extended character, NT flags are c
1922:sdc/ff.c      **** 		if ((b & 0x03) == 0x01) cf |= NS_EXT;	/* NT flag (Extension has only small capital) */
1923:sdc/ff.c      **** 		if ((b & 0x0C) == 0x04) cf |= NS_BODY;	/* NT flag (Filename has only small capital) */
1924:sdc/ff.c      **** 	}
1925:sdc/ff.c      **** 
1926:sdc/ff.c      **** 	dp->fn[NS] = cf;	/* SFN is created */
1927:sdc/ff.c      **** 
1928:sdc/ff.c      **** 	return FR_OK;
1929:sdc/ff.c      **** 
1930:sdc/ff.c      **** 
1931:sdc/ff.c      **** #else	/* Non-LFN configuration */
1932:sdc/ff.c      **** 	BYTE b, c, d, *sfn;
1933:sdc/ff.c      **** 	UINT ni, si, i;
1934:sdc/ff.c      **** 	const char *p;
1935:sdc/ff.c      **** 
1936:sdc/ff.c      **** 	/* Create file name in directory form */
1937:sdc/ff.c      **** 	for (p = *path; *p == '/' || *p == '\\'; p++) ;	/* Strip duplicated separator */
 383              		.loc 1 1937 0
 384 0006 0C68     		ldr	r4, [r1]
 385              	.LVL45:
 386 0008 00E0     		b	.L29
 387              	.L30:
 388              		.loc 1 1937 0 is_stmt 0 discriminator 5
 389 000a 0134     		adds	r4, r4, #1
 390              	.LVL46:
 391              	.L29:
 392              		.loc 1 1937 0 discriminator 1
 393 000c 2378     		ldrb	r3, [r4]	@ zero_extendqisi2
 394 000e 2F2B     		cmp	r3, #47
 395 0010 FBD0     		beq	.L30
ARM GAS  C:\Users\cronos\AppData\Local\Temp\ccinF6bS.s 			page 42


 396              		.loc 1 1937 0 discriminator 4
 397 0012 5C2B     		cmp	r3, #92
 398 0014 F9D0     		beq	.L30
1938:sdc/ff.c      **** 	sfn = dp->fn;
 399              		.loc 1 1938 0 is_stmt 1
 400 0016 D0F81880 		ldr	r8, [r0, #24]
 401              	.LVL47:
1939:sdc/ff.c      **** 	mem_set(sfn, ' ', 11);
 402              		.loc 1 1939 0
 403 001a 0B22     		movs	r2, #11
 404 001c 2021     		movs	r1, #32
 405              	.LVL48:
 406 001e 4046     		mov	r0, r8
 407              	.LVL49:
 408 0020 FFF7FEFF 		bl	mem_set
 409              	.LVL50:
1940:sdc/ff.c      **** 	si = i = b = 0; ni = 8;
 410              		.loc 1 1940 0
 411 0024 0026     		movs	r6, #0
 412 0026 3346     		mov	r3, r6
 413 0028 0827     		movs	r7, #8
 414 002a B346     		mov	fp, r6
 415              	.LVL51:
 416              	.L31:
1941:sdc/ff.c      **** #if _FS_RPATH
1942:sdc/ff.c      **** 	if (p[si] == '.') { /* Is this a dot entry? */
1943:sdc/ff.c      **** 		for (;;) {
1944:sdc/ff.c      **** 			c = (BYTE)p[si++];
1945:sdc/ff.c      **** 			if (c != '.' || si >= 3) break;
1946:sdc/ff.c      **** 			sfn[i++] = c;
1947:sdc/ff.c      **** 		}
1948:sdc/ff.c      **** 		if (c != '/' && c != '\\' && c > ' ') return FR_INVALID_NAME;
1949:sdc/ff.c      **** 		*path = &p[si];									/* Return pointer to the next segment */
1950:sdc/ff.c      **** 		sfn[NS] = (c <= ' ') ? NS_LAST | NS_DOT : NS_DOT;	/* Set last segment flag if end of path */
1951:sdc/ff.c      **** 		return FR_OK;
1952:sdc/ff.c      **** 	}
1953:sdc/ff.c      **** #endif
1954:sdc/ff.c      **** 	for (;;) {
1955:sdc/ff.c      **** 		c = (BYTE)p[si++];
 417              		.loc 1 1955 0
 418 002c 03F10109 		add	r9, r3, #1
 419              	.LVL52:
 420 0030 E55C     		ldrb	r5, [r4, r3]	@ zero_extendqisi2
 421              	.LVL53:
1956:sdc/ff.c      **** 		if (c <= ' ' || c == '/' || c == '\\') break;	/* Break on end of segment */
 422              		.loc 1 1956 0
 423 0032 202D     		cmp	r5, #32
 424 0034 54D9     		bls	.L32
 425              		.loc 1 1956 0 is_stmt 0 discriminator 1
 426 0036 2F2D     		cmp	r5, #47
 427 0038 52D0     		beq	.L32
 428              		.loc 1 1956 0 discriminator 2
 429 003a 5C2D     		cmp	r5, #92
 430 003c 50D0     		beq	.L32
1957:sdc/ff.c      **** 		if (c == '.' || i >= ni) {
 431              		.loc 1 1957 0 is_stmt 1
 432 003e 2E2D     		cmp	r5, #46
ARM GAS  C:\Users\cronos\AppData\Local\Temp\ccinF6bS.s 			page 43


 433 0040 01D0     		beq	.L33
 434              		.loc 1 1957 0 is_stmt 0 discriminator 1
 435 0042 B742     		cmp	r7, r6
 436 0044 0BD8     		bhi	.L34
 437              	.L33:
1958:sdc/ff.c      **** 			if (ni != 8 || c != '.') return FR_INVALID_NAME;
 438              		.loc 1 1958 0 is_stmt 1
 439 0046 082F     		cmp	r7, #8
 440 0048 72D1     		bne	.L48
 441              		.loc 1 1958 0 is_stmt 0 discriminator 2
 442 004a 2E2D     		cmp	r5, #46
 443 004c 73D1     		bne	.L49
 444              	.LVL54:
1959:sdc/ff.c      **** 			i = 8; ni = 11;
1960:sdc/ff.c      **** 			b <<= 2; continue;
 445              		.loc 1 1960 0 is_stmt 1
 446 004e 4FEA8B0B 		lsl	fp, fp, #2
 447              	.LVL55:
 448 0052 5FFA8BFB 		uxtb	fp, fp
 449              	.LVL56:
1955:sdc/ff.c      **** 		if (c <= ' ' || c == '/' || c == '\\') break;	/* Break on end of segment */
 450              		.loc 1 1955 0
 451 0056 4B46     		mov	r3, r9
1959:sdc/ff.c      **** 			i = 8; ni = 11;
 452              		.loc 1 1959 0
 453 0058 0826     		movs	r6, #8
 454 005a 0B27     		movs	r7, #11
 455              		.loc 1 1960 0
 456 005c E6E7     		b	.L31
 457              	.LVL57:
 458              	.L34:
1961:sdc/ff.c      **** 		}
1962:sdc/ff.c      **** 		if (c >= 0x80) {				/* Extended character? */
 459              		.loc 1 1962 0
 460 005e 15F0800F 		tst	r5, #128
 461 0062 01D0     		beq	.L37
1963:sdc/ff.c      **** 			b |= 3;						/* Eliminate NT flag */
 462              		.loc 1 1963 0
 463 0064 4BF0030B 		orr	fp, fp, #3
 464              	.LVL58:
 465              	.L37:
1964:sdc/ff.c      **** #ifdef _EXCVT
1965:sdc/ff.c      **** 			c = ExCvt[c - 0x80];		/* To upper extended characters (SBCS cfg) */
1966:sdc/ff.c      **** #else
1967:sdc/ff.c      **** #if !_DF1S
1968:sdc/ff.c      **** 			return FR_INVALID_NAME;		/* Reject extended characters (ASCII cfg) */
1969:sdc/ff.c      **** #endif
1970:sdc/ff.c      **** #endif
1971:sdc/ff.c      **** 		}
1972:sdc/ff.c      **** 		if (IsDBCS1(c)) {				/* Check if it is a DBC 1st byte (always false on SBCS cfg) */
 466              		.loc 1 1972 0
 467 0068 05F17F02 		add	r2, r5, #127
 468 006c D2B2     		uxtb	r2, r2
 469 006e 1E2A     		cmp	r2, #30
 470 0070 04D9     		bls	.L38
 471              		.loc 1 1972 0 is_stmt 0 discriminator 1
 472 0072 05F12002 		add	r2, r5, #32
ARM GAS  C:\Users\cronos\AppData\Local\Temp\ccinF6bS.s 			page 44


 473 0076 D2B2     		uxtb	r2, r2
 474 0078 1C2A     		cmp	r2, #28
 475 007a 15D8     		bhi	.L39
 476              	.L38:
1973:sdc/ff.c      **** 			d = (BYTE)p[si++];			/* Get 2nd byte */
 477              		.loc 1 1973 0 is_stmt 1
 478 007c 0233     		adds	r3, r3, #2
 479              	.LVL59:
 480 007e 14F80910 		ldrb	r1, [r4, r9]	@ zero_extendqisi2
 481              	.LVL60:
1974:sdc/ff.c      **** 			if (!IsDBCS2(d) || i >= ni - 1)	/* Reject invalid DBC */
 482              		.loc 1 1974 0
 483 0082 A1F14002 		sub	r2, r1, #64
 484 0086 D2B2     		uxtb	r2, r2
 485 0088 3E2A     		cmp	r2, #62
 486 008a 03D9     		bls	.L40
 487              		.loc 1 1974 0 is_stmt 0 discriminator 1
 488 008c 81F08002 		eor	r2, r1, #128
 489 0090 7C2A     		cmp	r2, #124
 490 0092 53D8     		bhi	.L50
 491              	.L40:
 492              		.loc 1 1974 0 discriminator 3
 493 0094 7A1E     		subs	r2, r7, #1
 494 0096 9642     		cmp	r6, r2
 495 0098 53D2     		bcs	.L51
1975:sdc/ff.c      **** 				return FR_INVALID_NAME;
1976:sdc/ff.c      **** 			sfn[i++] = c;
 496              		.loc 1 1976 0 is_stmt 1
 497 009a 721C     		adds	r2, r6, #1
 498              	.LVL61:
 499 009c 08F80650 		strb	r5, [r8, r6]
 500              	.LVL62:
1977:sdc/ff.c      **** 			sfn[i++] = d;
 501              		.loc 1 1977 0
 502 00a0 08F80210 		strb	r1, [r8, r2]
 503 00a4 0236     		adds	r6, r6, #2
 504              	.LVL63:
 505 00a6 C1E7     		b	.L31
 506              	.LVL64:
 507              	.L39:
1978:sdc/ff.c      **** 		} else {						/* Single byte code */
1979:sdc/ff.c      **** 			if (chk_chr("\"*+,:;<=>\?[]|\x7F", c))	/* Reject illegal chrs for SFN */
 508              		.loc 1 1979 0
 509 00a8 2946     		mov	r1, r5
 510 00aa 2A48     		ldr	r0, .L56
 511 00ac FFF7FEFF 		bl	chk_chr
 512              	.LVL65:
 513 00b0 0028     		cmp	r0, #0
 514 00b2 49D1     		bne	.L52
1980:sdc/ff.c      **** 				return FR_INVALID_NAME;
1981:sdc/ff.c      **** 			if (IsUpper(c)) {			/* ASCII large capital? */
 515              		.loc 1 1981 0
 516 00b4 A5F14103 		sub	r3, r5, #65
 517 00b8 DBB2     		uxtb	r3, r3
 518 00ba 192B     		cmp	r3, #25
 519 00bc 02D8     		bhi	.L41
1982:sdc/ff.c      **** 				b |= 2;
ARM GAS  C:\Users\cronos\AppData\Local\Temp\ccinF6bS.s 			page 45


 520              		.loc 1 1982 0
 521 00be 4BF0020B 		orr	fp, fp, #2
 522              	.LVL66:
 523 00c2 08E0     		b	.L42
 524              	.L41:
1983:sdc/ff.c      **** 			} else {
1984:sdc/ff.c      **** 				if (IsLower(c)) {		/* ASCII small capital? */
 525              		.loc 1 1984 0
 526 00c4 A5F16103 		sub	r3, r5, #97
 527 00c8 DBB2     		uxtb	r3, r3
 528 00ca 192B     		cmp	r3, #25
 529 00cc 03D8     		bhi	.L42
1985:sdc/ff.c      **** 					b |= 1; c -= 0x20;
 530              		.loc 1 1985 0
 531 00ce 4BF0010B 		orr	fp, fp, #1
 532              	.LVL67:
 533 00d2 203D     		subs	r5, r5, #32
 534              	.LVL68:
 535 00d4 EDB2     		uxtb	r5, r5
 536              	.LVL69:
 537              	.L42:
1986:sdc/ff.c      **** 				}
1987:sdc/ff.c      **** 			}
1988:sdc/ff.c      **** 			sfn[i++] = c;
 538              		.loc 1 1988 0
 539 00d6 08F80650 		strb	r5, [r8, r6]
 540 00da 0136     		adds	r6, r6, #1
 541              	.LVL70:
1955:sdc/ff.c      **** 		if (c <= ' ' || c == '/' || c == '\\') break;	/* Break on end of segment */
 542              		.loc 1 1955 0
 543 00dc 4B46     		mov	r3, r9
 544 00de A5E7     		b	.L31
 545              	.L32:
1989:sdc/ff.c      **** 		}
1990:sdc/ff.c      **** 	}
1991:sdc/ff.c      **** 	*path = &p[si];						/* Return pointer to the next segment */
 546              		.loc 1 1991 0
 547 00e0 4C44     		add	r4, r4, r9
 548              	.LVL71:
 549 00e2 CAF80040 		str	r4, [r10]
1992:sdc/ff.c      **** 	c = (c <= ' ') ? NS_LAST : 0;		/* Set last segment flag if end of path */
 550              		.loc 1 1992 0
 551 00e6 202D     		cmp	r5, #32
 552 00e8 01D8     		bhi	.L53
 553 00ea 0423     		movs	r3, #4
 554 00ec 00E0     		b	.L43
 555              	.L53:
 556 00ee 0023     		movs	r3, #0
 557              	.L43:
 558              	.LVL72:
1993:sdc/ff.c      **** 
1994:sdc/ff.c      **** 	if (!i) return FR_INVALID_NAME;		/* Reject nul string */
 559              		.loc 1 1994 0 discriminator 4
 560 00f0 6EB3     		cbz	r6, .L54
1995:sdc/ff.c      **** 	if (sfn[0] == DDE) sfn[0] = NDDE;	/* When first character collides with DDE, replace it with 0x05 
 561              		.loc 1 1995 0
 562 00f2 98F80020 		ldrb	r2, [r8]	@ zero_extendqisi2
ARM GAS  C:\Users\cronos\AppData\Local\Temp\ccinF6bS.s 			page 46


 563 00f6 E52A     		cmp	r2, #229
 564 00f8 02D1     		bne	.L44
 565              		.loc 1 1995 0 is_stmt 0 discriminator 1
 566 00fa 0522     		movs	r2, #5
 567 00fc 88F80020 		strb	r2, [r8]
 568              	.L44:
1996:sdc/ff.c      **** 
1997:sdc/ff.c      **** 	if (ni == 8) b <<= 2;
 569              		.loc 1 1997 0 is_stmt 1
 570 0100 082F     		cmp	r7, #8
 571 0102 03D1     		bne	.L45
 572              		.loc 1 1997 0 is_stmt 0 discriminator 1
 573 0104 4FEA8B0B 		lsl	fp, fp, #2
 574              	.LVL73:
 575 0108 5FFA8BFB 		uxtb	fp, fp
 576              	.LVL74:
 577              	.L45:
1998:sdc/ff.c      **** 	if ((b & 0x03) == 0x01) c |= NS_EXT;	/* NT flag (Name extension has only small capital) */
 578              		.loc 1 1998 0 is_stmt 1
 579 010c 0BF00302 		and	r2, fp, #3
 580 0110 012A     		cmp	r2, #1
 581 0112 01D1     		bne	.L46
 582              		.loc 1 1998 0 is_stmt 0 discriminator 1
 583 0114 43F01003 		orr	r3, r3, #16
 584              	.LVL75:
 585              	.L46:
1999:sdc/ff.c      **** 	if ((b & 0x0C) == 0x04) c |= NS_BODY;	/* NT flag (Name body has only small capital) */
 586              		.loc 1 1999 0 is_stmt 1
 587 0118 0BF00C0B 		and	fp, fp, #12
 588              	.LVL76:
 589 011c BBF1040F 		cmp	fp, #4
 590 0120 01D1     		bne	.L47
 591              		.loc 1 1999 0 is_stmt 0 discriminator 1
 592 0122 43F00803 		orr	r3, r3, #8
 593              	.LVL77:
 594              	.L47:
2000:sdc/ff.c      **** 
2001:sdc/ff.c      **** 	sfn[NS] = c;		/* Store NT flag, File name is created */
 595              		.loc 1 2001 0 is_stmt 1
 596 0126 88F80B30 		strb	r3, [r8, #11]
2002:sdc/ff.c      **** 
2003:sdc/ff.c      **** 	return FR_OK;
 597              		.loc 1 2003 0
 598 012a 0020     		movs	r0, #0
 599 012c BDE8F88F 		pop	{r3, r4, r5, r6, r7, r8, r9, r10, fp, pc}
 600              	.LVL78:
 601              	.L48:
1958:sdc/ff.c      **** 			i = 8; ni = 11;
 602              		.loc 1 1958 0
 603 0130 0620     		movs	r0, #6
 604 0132 BDE8F88F 		pop	{r3, r4, r5, r6, r7, r8, r9, r10, fp, pc}
 605              	.LVL79:
 606              	.L49:
 607 0136 0620     		movs	r0, #6
 608 0138 BDE8F88F 		pop	{r3, r4, r5, r6, r7, r8, r9, r10, fp, pc}
 609              	.LVL80:
 610              	.L50:
ARM GAS  C:\Users\cronos\AppData\Local\Temp\ccinF6bS.s 			page 47


1975:sdc/ff.c      **** 			sfn[i++] = c;
 611              		.loc 1 1975 0
 612 013c 0620     		movs	r0, #6
 613 013e BDE8F88F 		pop	{r3, r4, r5, r6, r7, r8, r9, r10, fp, pc}
 614              	.LVL81:
 615              	.L51:
 616 0142 0620     		movs	r0, #6
 617 0144 BDE8F88F 		pop	{r3, r4, r5, r6, r7, r8, r9, r10, fp, pc}
 618              	.LVL82:
 619              	.L52:
1980:sdc/ff.c      **** 			if (IsUpper(c)) {			/* ASCII large capital? */
 620              		.loc 1 1980 0
 621 0148 0620     		movs	r0, #6
 622 014a BDE8F88F 		pop	{r3, r4, r5, r6, r7, r8, r9, r10, fp, pc}
 623              	.LVL83:
 624              	.L54:
1994:sdc/ff.c      **** 	if (sfn[0] == DDE) sfn[0] = NDDE;	/* When first character collides with DDE, replace it with 0x05 
 625              		.loc 1 1994 0
 626 014e 0620     		movs	r0, #6
2004:sdc/ff.c      **** #endif
2005:sdc/ff.c      **** }
 627              		.loc 1 2005 0
 628 0150 BDE8F88F 		pop	{r3, r4, r5, r6, r7, r8, r9, r10, fp, pc}
 629              	.LVL84:
 630              	.L57:
 631              		.align	2
 632              	.L56:
 633 0154 00000000 		.word	.LC0
 634              		.cfi_endproc
 635              	.LFE22:
 636              		.size	create_name, .-create_name
 637              		.section	.text.get_ldnumber,"ax",%progbits
 638              		.align	2
 639              		.thumb
 640              		.thumb_func
 641              		.type	get_ldnumber, %function
 642              	get_ldnumber:
 643              	.LFB24:
2006:sdc/ff.c      **** 
2007:sdc/ff.c      **** 
2008:sdc/ff.c      **** 
2009:sdc/ff.c      **** 
2010:sdc/ff.c      **** /*-----------------------------------------------------------------------*/
2011:sdc/ff.c      **** /* Follow a file path                                                    */
2012:sdc/ff.c      **** /*-----------------------------------------------------------------------*/
2013:sdc/ff.c      **** 
2014:sdc/ff.c      **** static
2015:sdc/ff.c      **** FRESULT follow_path (	/* FR_OK(0): successful, !=0: error code */
2016:sdc/ff.c      **** 	DIR* dp,			/* Directory object to return last directory and found object */
2017:sdc/ff.c      **** 	const TCHAR* path	/* Full-path string to find a file or directory */
2018:sdc/ff.c      **** )
2019:sdc/ff.c      **** {
2020:sdc/ff.c      **** 	FRESULT res;
2021:sdc/ff.c      **** 	BYTE *dir, ns;
2022:sdc/ff.c      **** 
2023:sdc/ff.c      **** 
2024:sdc/ff.c      **** #if _FS_RPATH
ARM GAS  C:\Users\cronos\AppData\Local\Temp\ccinF6bS.s 			page 48


2025:sdc/ff.c      **** 	if (*path == '/' || *path == '\\') {	/* There is a heading separator */
2026:sdc/ff.c      **** 		path++;	dp->sclust = 0;				/* Strip it and start from the root directory */
2027:sdc/ff.c      **** 	} else {								/* No heading separator */
2028:sdc/ff.c      **** 		dp->sclust = dp->fs->cdir;			/* Start from the current directory */
2029:sdc/ff.c      **** 	}
2030:sdc/ff.c      **** #else
2031:sdc/ff.c      **** 	if (*path == '/' || *path == '\\')		/* Strip heading separator if exist */
2032:sdc/ff.c      **** 		path++;
2033:sdc/ff.c      **** 	dp->sclust = 0;							/* Always start from the root directory */
2034:sdc/ff.c      **** #endif
2035:sdc/ff.c      **** 
2036:sdc/ff.c      **** 	if ((UINT)*path < ' ') {				/* Null path name is the origin directory itself */
2037:sdc/ff.c      **** 		res = dir_sdi(dp, 0);
2038:sdc/ff.c      **** 		dp->dir = 0;
2039:sdc/ff.c      **** 	} else {								/* Follow path */
2040:sdc/ff.c      **** 		for (;;) {
2041:sdc/ff.c      **** 			res = create_name(dp, &path);	/* Get a segment name of the path */
2042:sdc/ff.c      **** 			if (res != FR_OK) break;
2043:sdc/ff.c      **** 			res = dir_find(dp);				/* Find an object with the sagment name */
2044:sdc/ff.c      **** 			ns = dp->fn[NS];
2045:sdc/ff.c      **** 			if (res != FR_OK) {				/* Failed to find the object */
2046:sdc/ff.c      **** 				if (res == FR_NO_FILE) {	/* Object is not found */
2047:sdc/ff.c      **** 					if (_FS_RPATH && (ns & NS_DOT)) {	/* If dot entry is not exist, */
2048:sdc/ff.c      **** 						dp->sclust = 0; dp->dir = 0;	/* it is the root directory and stay there */
2049:sdc/ff.c      **** 						if (!(ns & NS_LAST)) continue;	/* Continue to follow if not last segment */
2050:sdc/ff.c      **** 						res = FR_OK;					/* Ended at the root directroy. Function completed. */
2051:sdc/ff.c      **** 					} else {							/* Could not find the object */
2052:sdc/ff.c      **** 						if (!(ns & NS_LAST)) res = FR_NO_PATH;	/* Adjust error code if not last segment */
2053:sdc/ff.c      **** 					}
2054:sdc/ff.c      **** 				}
2055:sdc/ff.c      **** 				break;
2056:sdc/ff.c      **** 			}
2057:sdc/ff.c      **** 			if (ns & NS_LAST) break;			/* Last segment matched. Function completed. */
2058:sdc/ff.c      **** 			dir = dp->dir;						/* Follow the sub-directory */
2059:sdc/ff.c      **** 			if (!(dir[DIR_Attr] & AM_DIR)) {	/* It is not a sub-directory and cannot follow */
2060:sdc/ff.c      **** 				res = FR_NO_PATH; break;
2061:sdc/ff.c      **** 			}
2062:sdc/ff.c      **** 			dp->sclust = ld_clust(dp->fs, dir);
2063:sdc/ff.c      **** 		}
2064:sdc/ff.c      **** 	}
2065:sdc/ff.c      **** 
2066:sdc/ff.c      **** 	return res;
2067:sdc/ff.c      **** }
2068:sdc/ff.c      **** 
2069:sdc/ff.c      **** 
2070:sdc/ff.c      **** 
2071:sdc/ff.c      **** 
2072:sdc/ff.c      **** /*-----------------------------------------------------------------------*/
2073:sdc/ff.c      **** /* Get logical drive number from path name                               */
2074:sdc/ff.c      **** /*-----------------------------------------------------------------------*/
2075:sdc/ff.c      **** 
2076:sdc/ff.c      **** static
2077:sdc/ff.c      **** int get_ldnumber (		/* Returns logical drive number (-1:invalid drive) */
2078:sdc/ff.c      **** 	const TCHAR** path	/* Pointer to pointer to the path name */
2079:sdc/ff.c      **** )
2080:sdc/ff.c      **** {
 644              		.loc 1 2080 0
ARM GAS  C:\Users\cronos\AppData\Local\Temp\ccinF6bS.s 			page 49


 645              		.cfi_startproc
 646              		@ args = 0, pretend = 0, frame = 0
 647              		@ frame_needed = 0, uses_anonymous_args = 0
 648              		@ link register save eliminated.
 649              	.LVL85:
2081:sdc/ff.c      **** 	const TCHAR *tp, *tt;
2082:sdc/ff.c      **** 	UINT i;
2083:sdc/ff.c      **** 	int vol = -1;
2084:sdc/ff.c      **** 
2085:sdc/ff.c      **** 
2086:sdc/ff.c      **** 	if (*path) {	/* If the pointer is not a null */
 650              		.loc 1 2086 0
 651 0000 0168     		ldr	r1, [r0]
 652 0002 21B9     		cbnz	r1, .L63
2083:sdc/ff.c      **** 
 653              		.loc 1 2083 0
 654 0004 4FF0FF33 		mov	r3, #-1
 655 0008 16E0     		b	.L69
 656              	.LVL86:
 657              	.L62:
2087:sdc/ff.c      **** 		for (tt = *path; (UINT)*tt >= (_USE_LFN ? ' ' : '!') && *tt != ':'; tt++) ;	/* Find ':' in the pa
 658              		.loc 1 2087 0 discriminator 4
 659 000a 0132     		adds	r2, r2, #1
 660              	.LVL87:
 661 000c 00E0     		b	.L59
 662              	.LVL88:
 663              	.L63:
 664 000e 0A46     		mov	r2, r1
 665              	.L59:
 666              	.LVL89:
 667              		.loc 1 2087 0 is_stmt 0 discriminator 1
 668 0010 1378     		ldrb	r3, [r2]	@ zero_extendqisi2
 669 0012 202B     		cmp	r3, #32
 670 0014 01D9     		bls	.L61
 671              		.loc 1 2087 0 discriminator 3
 672 0016 3A2B     		cmp	r3, #58
 673 0018 F7D1     		bne	.L62
 674              	.L61:
2088:sdc/ff.c      **** 		if (*tt == ':') {	/* If a ':' is exist in the path name */
 675              		.loc 1 2088 0 is_stmt 1
 676 001a 3A2B     		cmp	r3, #58
 677 001c 0BD1     		bne	.L64
2080:sdc/ff.c      **** 	const TCHAR *tp, *tt;
 678              		.loc 1 2080 0
 679 001e 10B4     		push	{r4}
 680              		.cfi_def_cfa_offset 4
 681              		.cfi_offset 4, -4
 682              	.LVL90:
2089:sdc/ff.c      **** 			tp = *path;
2090:sdc/ff.c      **** 			i = *tp++ - '0'; 
 683              		.loc 1 2090 0
 684 0020 4C1C     		adds	r4, r1, #1
 685              	.LVL91:
 686 0022 0B78     		ldrb	r3, [r1]	@ zero_extendqisi2
 687 0024 303B     		subs	r3, r3, #48
 688              	.LVL92:
2091:sdc/ff.c      **** 			if (i < 10 && tp == tt) {	/* Is there a numeric drive id? */
ARM GAS  C:\Users\cronos\AppData\Local\Temp\ccinF6bS.s 			page 50


 689              		.loc 1 2091 0
 690 0026 092B     		cmp	r3, #9
 691 0028 08D8     		bhi	.L65
 692              		.loc 1 2091 0 is_stmt 0 discriminator 1
 693 002a A242     		cmp	r2, r4
 694 002c 09D1     		bne	.L66
2092:sdc/ff.c      **** 				if (i < _VOLUMES) {	/* If a drive id is found, get the value and strip it */
 695              		.loc 1 2092 0 is_stmt 1
 696 002e 5BB9     		cbnz	r3, .L67
 697              	.LVL93:
2093:sdc/ff.c      **** 					vol = (int)i;
2094:sdc/ff.c      **** 					*path = ++tt;
 698              		.loc 1 2094 0
 699 0030 0132     		adds	r2, r2, #1
 700              	.LVL94:
 701 0032 0260     		str	r2, [r0]
 702 0034 0AE0     		b	.L60
 703              	.LVL95:
 704              	.L64:
 705              		.cfi_def_cfa_offset 0
 706              		.cfi_restore 4
2095:sdc/ff.c      **** 				}
2096:sdc/ff.c      **** 			} else {	/* No numeric drive number */
2097:sdc/ff.c      **** #if _STR_VOLUME_ID		/* Find string drive id */
2098:sdc/ff.c      **** 				static const char* const str[] = {_VOLUME_STRS};
2099:sdc/ff.c      **** 				const char *sp;
2100:sdc/ff.c      **** 				char c;
2101:sdc/ff.c      **** 				TCHAR tc;
2102:sdc/ff.c      **** 
2103:sdc/ff.c      **** 				i = 0; tt++;
2104:sdc/ff.c      **** 				do {
2105:sdc/ff.c      **** 					sp = str[i]; tp = *path;
2106:sdc/ff.c      **** 					do {	/* Compare a string drive id with path name */
2107:sdc/ff.c      **** 						c = *sp++; tc = *tp++;
2108:sdc/ff.c      **** 						if (IsLower(tc)) tc -= 0x20;
2109:sdc/ff.c      **** 					} while (c && (TCHAR)c == tc);
2110:sdc/ff.c      **** 				} while ((c || tp != tt) && ++i < _VOLUMES);	/* Repeat for each id until pattern match */
2111:sdc/ff.c      **** 				if (i < _VOLUMES) {	/* If a drive id is found, get the value and strip it */
2112:sdc/ff.c      **** 					vol = (int)i;
2113:sdc/ff.c      **** 					*path = tt;
2114:sdc/ff.c      **** 				}
2115:sdc/ff.c      **** #endif
2116:sdc/ff.c      **** 			}
2117:sdc/ff.c      **** 			return vol;
2118:sdc/ff.c      **** 		}
2119:sdc/ff.c      **** #if _FS_RPATH && _VOLUMES >= 2
2120:sdc/ff.c      **** 		vol = CurrVol;	/* Current drive */
2121:sdc/ff.c      **** #else
2122:sdc/ff.c      **** 		vol = 0;		/* Drive 0 */
 707              		.loc 1 2122 0
 708 0036 0023     		movs	r3, #0
 709              	.LVL96:
 710              	.L69:
2123:sdc/ff.c      **** #endif
2124:sdc/ff.c      **** 	}
2125:sdc/ff.c      **** 	return vol;
2126:sdc/ff.c      **** }
ARM GAS  C:\Users\cronos\AppData\Local\Temp\ccinF6bS.s 			page 51


 711              		.loc 1 2126 0
 712 0038 1846     		mov	r0, r3
 713              	.LVL97:
 714 003a 7047     		bx	lr
 715              	.LVL98:
 716              	.L65:
 717              		.cfi_def_cfa_offset 4
 718              		.cfi_offset 4, -4
2083:sdc/ff.c      **** 
 719              		.loc 1 2083 0
 720 003c 4FF0FF33 		mov	r3, #-1
 721              	.LVL99:
 722 0040 04E0     		b	.L60
 723              	.LVL100:
 724              	.L66:
 725 0042 4FF0FF33 		mov	r3, #-1
 726              	.LVL101:
 727 0046 01E0     		b	.L60
 728              	.LVL102:
 729              	.L67:
 730 0048 4FF0FF33 		mov	r3, #-1
 731              	.LVL103:
 732              	.L60:
 733              		.loc 1 2126 0
 734 004c 1846     		mov	r0, r3
 735              	.LVL104:
 736 004e 10BC     		pop	{r4}
 737              		.cfi_restore 4
 738              		.cfi_def_cfa_offset 0
 739              	.LVL105:
 740 0050 7047     		bx	lr
 741              		.cfi_endproc
 742              	.LFE24:
 743              		.size	get_ldnumber, .-get_ldnumber
 744 0052 00BF     		.section	.text.sync_window,"ax",%progbits
 745              		.align	2
 746              		.thumb
 747              		.thumb_func
 748              		.type	sync_window, %function
 749              	sync_window:
 750              	.LFB4:
 758:sdc/ff.c      **** 	DWORD wsect;
 751              		.loc 1 758 0
 752              		.cfi_startproc
 753              		@ args = 0, pretend = 0, frame = 0
 754              		@ frame_needed = 0, uses_anonymous_args = 0
 755              	.LVL106:
 756 0000 F8B5     		push	{r3, r4, r5, r6, r7, lr}
 757              		.cfi_def_cfa_offset 24
 758              		.cfi_offset 3, -24
 759              		.cfi_offset 4, -20
 760              		.cfi_offset 5, -16
 761              		.cfi_offset 6, -12
 762              		.cfi_offset 7, -8
 763              		.cfi_offset 14, -4
 763:sdc/ff.c      **** 		wsect = fs->winsect;	/* Current sector number */
 764              		.loc 1 763 0
ARM GAS  C:\Users\cronos\AppData\Local\Temp\ccinF6bS.s 			page 52


 765 0002 0379     		ldrb	r3, [r0, #4]	@ zero_extendqisi2
 766 0004 03B3     		cbz	r3, .L74
 767 0006 0446     		mov	r4, r0
 764:sdc/ff.c      **** 		if (disk_write(fs->drv, fs->win, wsect, 1))
 768              		.loc 1 764 0
 769 0008 C66A     		ldr	r6, [r0, #44]
 770              	.LVL107:
 765:sdc/ff.c      **** 			return FR_DISK_ERR;
 771              		.loc 1 765 0
 772 000a 00F13007 		add	r7, r0, #48
 773 000e 0123     		movs	r3, #1
 774 0010 3246     		mov	r2, r6
 775 0012 3946     		mov	r1, r7
 776 0014 4078     		ldrb	r0, [r0, #1]	@ zero_extendqisi2
 777              	.LVL108:
 778 0016 FFF7FEFF 		bl	disk_write
 779              	.LVL109:
 780 001a B8B9     		cbnz	r0, .L75
 767:sdc/ff.c      **** 		if (wsect - fs->fatbase < fs->fsize) {		/* Is it in the FAT area? */
 781              		.loc 1 767 0
 782 001c 0023     		movs	r3, #0
 783 001e 2371     		strb	r3, [r4, #4]
 768:sdc/ff.c      **** 			for (nf = fs->n_fats; nf >= 2; nf--) {	/* Reflect the change to all FAT copies */
 784              		.loc 1 768 0
 785 0020 236A     		ldr	r3, [r4, #32]
 786 0022 F31A     		subs	r3, r6, r3
 787 0024 A269     		ldr	r2, [r4, #24]
 788 0026 9342     		cmp	r3, r2
 789 0028 12D2     		bcs	.L76
 769:sdc/ff.c      **** 				wsect += fs->fsize;
 790              		.loc 1 769 0
 791 002a E578     		ldrb	r5, [r4, #3]	@ zero_extendqisi2
 792              	.LVL110:
 793 002c 08E0     		b	.L72
 794              	.L73:
 770:sdc/ff.c      **** 				disk_write(fs->drv, fs->win, wsect, 1);
 795              		.loc 1 770 0 discriminator 3
 796 002e A369     		ldr	r3, [r4, #24]
 797 0030 1E44     		add	r6, r6, r3
 798              	.LVL111:
 771:sdc/ff.c      **** 			}
 799              		.loc 1 771 0 discriminator 3
 800 0032 0123     		movs	r3, #1
 801 0034 3246     		mov	r2, r6
 802 0036 3946     		mov	r1, r7
 803 0038 6078     		ldrb	r0, [r4, #1]	@ zero_extendqisi2
 804 003a FFF7FEFF 		bl	disk_write
 805              	.LVL112:
 769:sdc/ff.c      **** 				wsect += fs->fsize;
 806              		.loc 1 769 0 discriminator 3
 807 003e 013D     		subs	r5, r5, #1
 808              	.LVL113:
 809              	.L72:
 769:sdc/ff.c      **** 				wsect += fs->fsize;
 810              		.loc 1 769 0 is_stmt 0 discriminator 1
 811 0040 012D     		cmp	r5, #1
 812 0042 F4D8     		bhi	.L73
ARM GAS  C:\Users\cronos\AppData\Local\Temp\ccinF6bS.s 			page 53


 775:sdc/ff.c      **** }
 813              		.loc 1 775 0 is_stmt 1
 814 0044 0020     		movs	r0, #0
 815 0046 F8BD     		pop	{r3, r4, r5, r6, r7, pc}
 816              	.LVL114:
 817              	.L74:
 818 0048 0020     		movs	r0, #0
 819              	.LVL115:
 820 004a F8BD     		pop	{r3, r4, r5, r6, r7, pc}
 821              	.LVL116:
 822              	.L75:
 766:sdc/ff.c      **** 		fs->wflag = 0;
 823              		.loc 1 766 0
 824 004c 0120     		movs	r0, #1
 825 004e F8BD     		pop	{r3, r4, r5, r6, r7, pc}
 826              	.LVL117:
 827              	.L76:
 775:sdc/ff.c      **** }
 828              		.loc 1 775 0
 829 0050 0020     		movs	r0, #0
 776:sdc/ff.c      **** #endif
 830              		.loc 1 776 0
 831 0052 F8BD     		pop	{r3, r4, r5, r6, r7, pc}
 832              		.cfi_endproc
 833              	.LFE4:
 834              		.size	sync_window, .-sync_window
 835              		.section	.text.move_window,"ax",%progbits
 836              		.align	2
 837              		.thumb
 838              		.thumb_func
 839              		.type	move_window, %function
 840              	move_window:
 841              	.LFB5:
 785:sdc/ff.c      **** 	if (sector != fs->winsect) {	/* Changed current window */
 842              		.loc 1 785 0
 843              		.cfi_startproc
 844              		@ args = 0, pretend = 0, frame = 0
 845              		@ frame_needed = 0, uses_anonymous_args = 0
 846              	.LVL118:
 847 0000 70B5     		push	{r4, r5, r6, lr}
 848              		.cfi_def_cfa_offset 16
 849              		.cfi_offset 4, -16
 850              		.cfi_offset 5, -12
 851              		.cfi_offset 6, -8
 852              		.cfi_offset 14, -4
 786:sdc/ff.c      **** #if !_FS_READONLY
 853              		.loc 1 786 0
 854 0002 C36A     		ldr	r3, [r0, #44]
 855 0004 8B42     		cmp	r3, r1
 856 0006 0FD0     		beq	.L80
 857 0008 0D46     		mov	r5, r1
 858 000a 0446     		mov	r4, r0
 788:sdc/ff.c      **** 			return FR_DISK_ERR;
 859              		.loc 1 788 0
 860 000c FFF7FEFF 		bl	sync_window
 861              	.LVL119:
 862 0010 0646     		mov	r6, r0
ARM GAS  C:\Users\cronos\AppData\Local\Temp\ccinF6bS.s 			page 54


 863 0012 58B9     		cbnz	r0, .L81
 791:sdc/ff.c      **** 			return FR_DISK_ERR;
 864              		.loc 1 791 0
 865 0014 0123     		movs	r3, #1
 866 0016 2A46     		mov	r2, r5
 867 0018 04F13001 		add	r1, r4, #48
 868 001c 6078     		ldrb	r0, [r4, #1]	@ zero_extendqisi2
 869 001e FFF7FEFF 		bl	disk_read
 870              	.LVL120:
 871 0022 28B9     		cbnz	r0, .L82
 793:sdc/ff.c      **** 	}
 872              		.loc 1 793 0
 873 0024 E562     		str	r5, [r4, #44]
 874 0026 04E0     		b	.L79
 875              	.LVL121:
 876              	.L80:
 796:sdc/ff.c      **** }
 877              		.loc 1 796 0
 878 0028 0026     		movs	r6, #0
 879 002a 02E0     		b	.L79
 880              	.LVL122:
 881              	.L81:
 789:sdc/ff.c      **** #endif
 882              		.loc 1 789 0
 883 002c 0126     		movs	r6, #1
 884 002e 00E0     		b	.L79
 885              	.L82:
 792:sdc/ff.c      **** 		fs->winsect = sector;
 886              		.loc 1 792 0
 887 0030 0126     		movs	r6, #1
 888              	.LVL123:
 889              	.L79:
 797:sdc/ff.c      **** 
 890              		.loc 1 797 0
 891 0032 3046     		mov	r0, r6
 892 0034 70BD     		pop	{r4, r5, r6, pc}
 893              		.cfi_endproc
 894              	.LFE5:
 895              		.size	move_window, .-move_window
 896 0036 00BF     		.section	.text.check_fs,"ax",%progbits
 897              		.align	2
 898              		.thumb
 899              		.thumb_func
 900              		.type	check_fs, %function
 901              	check_fs:
 902              	.LFB25:
2127:sdc/ff.c      **** 
2128:sdc/ff.c      **** 
2129:sdc/ff.c      **** 
2130:sdc/ff.c      **** 
2131:sdc/ff.c      **** /*-----------------------------------------------------------------------*/
2132:sdc/ff.c      **** /* Load a sector and check if it is an FAT boot sector                   */
2133:sdc/ff.c      **** /*-----------------------------------------------------------------------*/
2134:sdc/ff.c      **** 
2135:sdc/ff.c      **** static
2136:sdc/ff.c      **** BYTE check_fs (	/* 0:FAT boor sector, 1:Valid boor sector but not FAT, 2:Not a boot sector, 3:Disk 
2137:sdc/ff.c      **** 	FATFS* fs,	/* File system object */
ARM GAS  C:\Users\cronos\AppData\Local\Temp\ccinF6bS.s 			page 55


2138:sdc/ff.c      **** 	DWORD sect	/* Sector# (lba) to check if it is an FAT boot record or not */
2139:sdc/ff.c      **** )
2140:sdc/ff.c      **** {
 903              		.loc 1 2140 0
 904              		.cfi_startproc
 905              		@ args = 0, pretend = 0, frame = 0
 906              		@ frame_needed = 0, uses_anonymous_args = 0
 907              	.LVL124:
 908 0000 10B5     		push	{r4, lr}
 909              		.cfi_def_cfa_offset 8
 910              		.cfi_offset 4, -8
 911              		.cfi_offset 14, -4
 912 0002 0446     		mov	r4, r0
2141:sdc/ff.c      **** 	fs->wflag = 0; fs->winsect = 0xFFFFFFFF;	/* Invaidate window */
 913              		.loc 1 2141 0
 914 0004 0023     		movs	r3, #0
 915 0006 0371     		strb	r3, [r0, #4]
 916 0008 4FF0FF33 		mov	r3, #-1
 917 000c C362     		str	r3, [r0, #44]
2142:sdc/ff.c      **** 	if (move_window(fs, sect) != FR_OK)			/* Load boot record */
 918              		.loc 1 2142 0
 919 000e FFF7FEFF 		bl	move_window
 920              	.LVL125:
 921 0012 80BB     		cbnz	r0, .L86
2143:sdc/ff.c      **** 		return 3;
2144:sdc/ff.c      **** 
2145:sdc/ff.c      **** 	if (LD_WORD(&fs->win[BS_55AA]) != 0xAA55)	/* Check boot record signature (always placed at offset 
 922              		.loc 1 2145 0
 923 0014 94F82F22 		ldrb	r2, [r4, #559]	@ zero_extendqisi2
 924 0018 94F82E32 		ldrb	r3, [r4, #558]	@ zero_extendqisi2
 925 001c 43EA0223 		orr	r3, r3, r2, lsl #8
 926 0020 1BB2     		sxth	r3, r3
 927 0022 194A     		ldr	r2, .L91
 928 0024 9342     		cmp	r3, r2
 929 0026 28D1     		bne	.L87
2146:sdc/ff.c      **** 		return 2;
2147:sdc/ff.c      **** 
2148:sdc/ff.c      **** 	if ((LD_DWORD(&fs->win[BS_FilSysType]) & 0xFFFFFF) == 0x544146)		/* Check "FAT" string */
 930              		.loc 1 2148 0
 931 0028 94F86920 		ldrb	r2, [r4, #105]	@ zero_extendqisi2
 932 002c 94F86830 		ldrb	r3, [r4, #104]	@ zero_extendqisi2
 933 0030 1B04     		lsls	r3, r3, #16
 934 0032 43EA0263 		orr	r3, r3, r2, lsl #24
 935 0036 94F86720 		ldrb	r2, [r4, #103]	@ zero_extendqisi2
 936 003a 43EA0223 		orr	r3, r3, r2, lsl #8
 937 003e 94F86620 		ldrb	r2, [r4, #102]	@ zero_extendqisi2
 938 0042 1343     		orrs	r3, r3, r2
 939 0044 23F07F43 		bic	r3, r3, #-16777216
 940 0048 104A     		ldr	r2, .L91+4
 941 004a 9342     		cmp	r3, r2
 942 004c 17D0     		beq	.L88
2149:sdc/ff.c      **** 		return 0;
2150:sdc/ff.c      **** 	if ((LD_DWORD(&fs->win[BS_FilSysType32]) & 0xFFFFFF) == 0x544146)	/* Check "FAT" string */
 943              		.loc 1 2150 0
 944 004e 94F88520 		ldrb	r2, [r4, #133]	@ zero_extendqisi2
 945 0052 94F88430 		ldrb	r3, [r4, #132]	@ zero_extendqisi2
 946 0056 1B04     		lsls	r3, r3, #16
ARM GAS  C:\Users\cronos\AppData\Local\Temp\ccinF6bS.s 			page 56


 947 0058 43EA0263 		orr	r3, r3, r2, lsl #24
 948 005c 94F88320 		ldrb	r2, [r4, #131]	@ zero_extendqisi2
 949 0060 43EA0223 		orr	r3, r3, r2, lsl #8
 950 0064 94F88220 		ldrb	r2, [r4, #130]	@ zero_extendqisi2
 951 0068 1343     		orrs	r3, r3, r2
 952 006a 23F07F43 		bic	r3, r3, #-16777216
 953 006e 074A     		ldr	r2, .L91+4
 954 0070 9342     		cmp	r3, r2
 955 0072 06D1     		bne	.L89
 956 0074 10BD     		pop	{r4, pc}
 957              	.LVL126:
 958              	.L86:
2143:sdc/ff.c      **** 
 959              		.loc 1 2143 0
 960 0076 0320     		movs	r0, #3
 961 0078 10BD     		pop	{r4, pc}
 962              	.LVL127:
 963              	.L87:
2146:sdc/ff.c      **** 		return 2;
 964              		.loc 1 2146 0
 965 007a 0220     		movs	r0, #2
 966 007c 10BD     		pop	{r4, pc}
 967              	.LVL128:
 968              	.L88:
2149:sdc/ff.c      **** 		return 0;
 969              		.loc 1 2149 0
 970 007e 0020     		movs	r0, #0
 971 0080 10BD     		pop	{r4, pc}
 972              	.LVL129:
 973              	.L89:
2151:sdc/ff.c      **** 		return 0;
2152:sdc/ff.c      **** 
2153:sdc/ff.c      **** 	return 1;
 974              		.loc 1 2153 0
 975 0082 0120     		movs	r0, #1
2154:sdc/ff.c      **** }
 976              		.loc 1 2154 0
 977 0084 10BD     		pop	{r4, pc}
 978              	.LVL130:
 979              	.L92:
 980 0086 00BF     		.align	2
 981              	.L91:
 982 0088 55AAFFFF 		.word	-21931
 983 008c 46415400 		.word	5521734
 984              		.cfi_endproc
 985              	.LFE25:
 986              		.size	check_fs, .-check_fs
 987              		.section	.text.validate,"ax",%progbits
 988              		.align	2
 989              		.thumb
 990              		.thumb_func
 991              		.type	validate, %function
 992              	validate:
 993              	.LFB27:
2155:sdc/ff.c      **** 
2156:sdc/ff.c      **** 
2157:sdc/ff.c      **** 
ARM GAS  C:\Users\cronos\AppData\Local\Temp\ccinF6bS.s 			page 57


2158:sdc/ff.c      **** 
2159:sdc/ff.c      **** /*-----------------------------------------------------------------------*/
2160:sdc/ff.c      **** /* Find logical drive and check if the volume is mounted                 */
2161:sdc/ff.c      **** /*-----------------------------------------------------------------------*/
2162:sdc/ff.c      **** 
2163:sdc/ff.c      **** static
2164:sdc/ff.c      **** FRESULT find_volume (	/* FR_OK(0): successful, !=0: any error occurred */
2165:sdc/ff.c      **** 	FATFS** rfs,		/* Pointer to pointer to the found file system object */
2166:sdc/ff.c      **** 	const TCHAR** path,	/* Pointer to pointer to the path name (drive number) */
2167:sdc/ff.c      **** 	BYTE wmode			/* !=0: Check write protection for write access */
2168:sdc/ff.c      **** )
2169:sdc/ff.c      **** {
2170:sdc/ff.c      **** 	BYTE fmt;
2171:sdc/ff.c      **** 	int vol;
2172:sdc/ff.c      **** 	DSTATUS stat;
2173:sdc/ff.c      **** 	DWORD bsect, fasize, tsect, sysect, nclst, szbfat;
2174:sdc/ff.c      **** 	WORD nrsv;
2175:sdc/ff.c      **** 	FATFS *fs;
2176:sdc/ff.c      **** 
2177:sdc/ff.c      **** 
2178:sdc/ff.c      **** 	/* Get logical drive number from the path name */
2179:sdc/ff.c      **** 	*rfs = 0;
2180:sdc/ff.c      **** 	vol = get_ldnumber(path);
2181:sdc/ff.c      **** 	if (vol < 0) return FR_INVALID_DRIVE;
2182:sdc/ff.c      **** 
2183:sdc/ff.c      **** 	/* Check if the file system object is valid or not */
2184:sdc/ff.c      **** 	fs = FatFs[vol];					/* Get pointer to the file system object */
2185:sdc/ff.c      **** 	if (!fs) return FR_NOT_ENABLED;		/* Is the file system object available? */
2186:sdc/ff.c      **** 
2187:sdc/ff.c      **** 	ENTER_FF(fs);						/* Lock the volume */
2188:sdc/ff.c      **** 	*rfs = fs;							/* Return pointer to the file system object */
2189:sdc/ff.c      **** 
2190:sdc/ff.c      **** 	if (fs->fs_type) {					/* If the volume has been mounted */
2191:sdc/ff.c      **** 		stat = disk_status(fs->drv);
2192:sdc/ff.c      **** 		if (!(stat & STA_NOINIT)) {		/* and the physical drive is kept initialized */
2193:sdc/ff.c      **** 			if (!_FS_READONLY && wmode && (stat & STA_PROTECT))	/* Check write protection if needed */
2194:sdc/ff.c      **** 				return FR_WRITE_PROTECTED;
2195:sdc/ff.c      **** 			return FR_OK;				/* The file system object is valid */
2196:sdc/ff.c      **** 		}
2197:sdc/ff.c      **** 	}
2198:sdc/ff.c      **** 
2199:sdc/ff.c      **** 	/* The file system object is not valid. */
2200:sdc/ff.c      **** 	/* Following code attempts to mount the volume. (analyze BPB and initialize the fs object) */
2201:sdc/ff.c      **** 
2202:sdc/ff.c      **** 	fs->fs_type = 0;					/* Clear the file system object */
2203:sdc/ff.c      **** 	fs->drv = LD2PD(vol);				/* Bind the logical drive and a physical drive */
2204:sdc/ff.c      **** 	stat = disk_initialize(fs->drv);	/* Initialize the physical drive */
2205:sdc/ff.c      **** 	if (stat & STA_NOINIT)				/* Check if the initialization succeeded */
2206:sdc/ff.c      **** 		return FR_NOT_READY;			/* Failed to initialize due to no medium or hard error */
2207:sdc/ff.c      **** 	if (!_FS_READONLY && wmode && (stat & STA_PROTECT))	/* Check disk write protection if needed */
2208:sdc/ff.c      **** 		return FR_WRITE_PROTECTED;
2209:sdc/ff.c      **** #if _MAX_SS != _MIN_SS						/* Get sector size (multiple sector size cfg only) */
2210:sdc/ff.c      **** 	if (disk_ioctl(fs->drv, GET_SECTOR_SIZE, &SS(fs)) != RES_OK
2211:sdc/ff.c      **** 		|| SS(fs) < _MIN_SS || SS(fs) > _MAX_SS) return FR_DISK_ERR;
2212:sdc/ff.c      **** #endif
2213:sdc/ff.c      **** 	/* Find an FAT partition on the drive. Supports only generic partitioning, FDISK and SFD. */
2214:sdc/ff.c      **** 	bsect = 0;
ARM GAS  C:\Users\cronos\AppData\Local\Temp\ccinF6bS.s 			page 58


2215:sdc/ff.c      **** 	fmt = check_fs(fs, bsect);					/* Load sector 0 and check if it is an FAT boot sector as SFD */
2216:sdc/ff.c      **** 	if (fmt == 1 || (!fmt && (LD2PT(vol)))) {	/* Not an FAT boot sector or forced partition number */
2217:sdc/ff.c      **** 		UINT i;
2218:sdc/ff.c      **** 		DWORD br[4];
2219:sdc/ff.c      **** 
2220:sdc/ff.c      **** 		for (i = 0; i < 4; i++) {			/* Get partition offset */
2221:sdc/ff.c      **** 			BYTE *pt = fs->win+MBR_Table + i * SZ_PTE;
2222:sdc/ff.c      **** 			br[i] = pt[4] ? LD_DWORD(&pt[8]) : 0;
2223:sdc/ff.c      **** 		}
2224:sdc/ff.c      **** 		i = LD2PT(vol);						/* Partition number: 0:auto, 1-4:forced */
2225:sdc/ff.c      **** 		if (i) i--;
2226:sdc/ff.c      **** 		do {								/* Find an FAT volume */
2227:sdc/ff.c      **** 			bsect = br[i];
2228:sdc/ff.c      **** 			fmt = bsect ? check_fs(fs, bsect) : 2;	/* Check the partition */
2229:sdc/ff.c      **** 		} while (!LD2PT(vol) && fmt && ++i < 4);
2230:sdc/ff.c      **** 	}
2231:sdc/ff.c      **** 	if (fmt == 3) return FR_DISK_ERR;		/* An error occured in the disk I/O layer */
2232:sdc/ff.c      **** 	if (fmt) return FR_NO_FILESYSTEM;		/* No FAT volume is found */
2233:sdc/ff.c      **** 
2234:sdc/ff.c      **** 	/* An FAT volume is found. Following code initializes the file system object */
2235:sdc/ff.c      **** 
2236:sdc/ff.c      **** 	if (LD_WORD(fs->win+BPB_BytsPerSec) != SS(fs))		/* (BPB_BytsPerSec must be equal to the physical s
2237:sdc/ff.c      **** 		return FR_NO_FILESYSTEM;
2238:sdc/ff.c      **** 
2239:sdc/ff.c      **** 	fasize = LD_WORD(fs->win+BPB_FATSz16);				/* Number of sectors per FAT */
2240:sdc/ff.c      **** 	if (!fasize) fasize = LD_DWORD(fs->win+BPB_FATSz32);
2241:sdc/ff.c      **** 	fs->fsize = fasize;
2242:sdc/ff.c      **** 
2243:sdc/ff.c      **** 	fs->n_fats = fs->win[BPB_NumFATs];					/* Number of FAT copies */
2244:sdc/ff.c      **** 	if (fs->n_fats != 1 && fs->n_fats != 2)				/* (Must be 1 or 2) */
2245:sdc/ff.c      **** 		return FR_NO_FILESYSTEM;
2246:sdc/ff.c      **** 	fasize *= fs->n_fats;								/* Number of sectors for FAT area */
2247:sdc/ff.c      **** 
2248:sdc/ff.c      **** 	fs->csize = fs->win[BPB_SecPerClus];				/* Number of sectors per cluster */
2249:sdc/ff.c      **** 	if (!fs->csize || (fs->csize & (fs->csize - 1)))	/* (Must be power of 2) */
2250:sdc/ff.c      **** 		return FR_NO_FILESYSTEM;
2251:sdc/ff.c      **** 
2252:sdc/ff.c      **** 	fs->n_rootdir = LD_WORD(fs->win+BPB_RootEntCnt);	/* Number of root directory entries */
2253:sdc/ff.c      **** 	if (fs->n_rootdir % (SS(fs) / SZ_DIR))				/* (Must be sector aligned) */
2254:sdc/ff.c      **** 		return FR_NO_FILESYSTEM;
2255:sdc/ff.c      **** 
2256:sdc/ff.c      **** 	tsect = LD_WORD(fs->win+BPB_TotSec16);				/* Number of sectors on the volume */
2257:sdc/ff.c      **** 	if (!tsect) tsect = LD_DWORD(fs->win+BPB_TotSec32);
2258:sdc/ff.c      **** 
2259:sdc/ff.c      **** 	nrsv = LD_WORD(fs->win+BPB_RsvdSecCnt);				/* Number of reserved sectors */
2260:sdc/ff.c      **** 	if (!nrsv) return FR_NO_FILESYSTEM;					/* (Must not be 0) */
2261:sdc/ff.c      **** 
2262:sdc/ff.c      **** 	/* Determine the FAT sub type */
2263:sdc/ff.c      **** 	sysect = nrsv + fasize + fs->n_rootdir / (SS(fs) / SZ_DIR);	/* RSV+FAT+DIR */
2264:sdc/ff.c      **** 	if (tsect < sysect) return FR_NO_FILESYSTEM;		/* (Invalid volume size) */
2265:sdc/ff.c      **** 	nclst = (tsect - sysect) / fs->csize;				/* Number of clusters */
2266:sdc/ff.c      **** 	if (!nclst) return FR_NO_FILESYSTEM;				/* (Invalid volume size) */
2267:sdc/ff.c      **** 	fmt = FS_FAT12;
2268:sdc/ff.c      **** 	if (nclst >= MIN_FAT16) fmt = FS_FAT16;
2269:sdc/ff.c      **** 	if (nclst >= MIN_FAT32) fmt = FS_FAT32;
2270:sdc/ff.c      **** 
2271:sdc/ff.c      **** 	/* Boundaries and Limits */
ARM GAS  C:\Users\cronos\AppData\Local\Temp\ccinF6bS.s 			page 59


2272:sdc/ff.c      **** 	fs->n_fatent = nclst + 2;							/* Number of FAT entries */
2273:sdc/ff.c      **** 	fs->volbase = bsect;								/* Volume start sector */
2274:sdc/ff.c      **** 	fs->fatbase = bsect + nrsv; 						/* FAT start sector */
2275:sdc/ff.c      **** 	fs->database = bsect + sysect;						/* Data start sector */
2276:sdc/ff.c      **** 	if (fmt == FS_FAT32) {
2277:sdc/ff.c      **** 		if (fs->n_rootdir) return FR_NO_FILESYSTEM;		/* (BPB_RootEntCnt must be 0) */
2278:sdc/ff.c      **** 		fs->dirbase = LD_DWORD(fs->win+BPB_RootClus);	/* Root directory start cluster */
2279:sdc/ff.c      **** 		szbfat = fs->n_fatent * 4;						/* (Needed FAT size) */
2280:sdc/ff.c      **** 	} else {
2281:sdc/ff.c      **** 		if (!fs->n_rootdir)	return FR_NO_FILESYSTEM;	/* (BPB_RootEntCnt must not be 0) */
2282:sdc/ff.c      **** 		fs->dirbase = fs->fatbase + fasize;				/* Root directory start sector */
2283:sdc/ff.c      **** 		szbfat = (fmt == FS_FAT16) ?					/* (Needed FAT size) */
2284:sdc/ff.c      **** 			fs->n_fatent * 2 : fs->n_fatent * 3 / 2 + (fs->n_fatent & 1);
2285:sdc/ff.c      **** 	}
2286:sdc/ff.c      **** 	if (fs->fsize < (szbfat + (SS(fs) - 1)) / SS(fs))	/* (BPB_FATSz must not be less than needed) */
2287:sdc/ff.c      **** 		return FR_NO_FILESYSTEM;
2288:sdc/ff.c      **** 
2289:sdc/ff.c      **** #if !_FS_READONLY
2290:sdc/ff.c      **** 	/* Initialize cluster allocation information */
2291:sdc/ff.c      **** 	fs->last_clust = fs->free_clust = 0xFFFFFFFF;
2292:sdc/ff.c      **** 
2293:sdc/ff.c      **** 	/* Get fsinfo if available */
2294:sdc/ff.c      **** 	fs->fsi_flag = 0x80;
2295:sdc/ff.c      **** #if (_FS_NOFSINFO & 3) != 3
2296:sdc/ff.c      **** 	if (fmt == FS_FAT32				/* Enable FSINFO only if FAT32 and BPB_FSInfo is 1 */
2297:sdc/ff.c      **** 		&& LD_WORD(fs->win+BPB_FSInfo) == 1
2298:sdc/ff.c      **** 		&& move_window(fs, bsect + 1) == FR_OK)
2299:sdc/ff.c      **** 	{
2300:sdc/ff.c      **** 		fs->fsi_flag = 0;
2301:sdc/ff.c      **** 		if (LD_WORD(fs->win+BS_55AA) == 0xAA55	/* Load FSINFO data if available */
2302:sdc/ff.c      **** 			&& LD_DWORD(fs->win+FSI_LeadSig) == 0x41615252
2303:sdc/ff.c      **** 			&& LD_DWORD(fs->win+FSI_StrucSig) == 0x61417272)
2304:sdc/ff.c      **** 		{
2305:sdc/ff.c      **** #if (_FS_NOFSINFO & 1) == 0
2306:sdc/ff.c      **** 			fs->free_clust = LD_DWORD(fs->win+FSI_Free_Count);
2307:sdc/ff.c      **** #endif
2308:sdc/ff.c      **** #if (_FS_NOFSINFO & 2) == 0
2309:sdc/ff.c      **** 			fs->last_clust = LD_DWORD(fs->win+FSI_Nxt_Free);
2310:sdc/ff.c      **** #endif
2311:sdc/ff.c      **** 		}
2312:sdc/ff.c      **** 	}
2313:sdc/ff.c      **** #endif
2314:sdc/ff.c      **** #endif
2315:sdc/ff.c      **** 	fs->fs_type = fmt;	/* FAT sub-type */
2316:sdc/ff.c      **** 	fs->id = ++Fsid;	/* File system mount ID */
2317:sdc/ff.c      **** #if _FS_RPATH
2318:sdc/ff.c      **** 	fs->cdir = 0;		/* Set current directory to root */
2319:sdc/ff.c      **** #endif
2320:sdc/ff.c      **** #if _FS_LOCK			/* Clear file lock semaphores */
2321:sdc/ff.c      **** 	clear_lock(fs);
2322:sdc/ff.c      **** #endif
2323:sdc/ff.c      **** 
2324:sdc/ff.c      **** 	return FR_OK;
2325:sdc/ff.c      **** }
2326:sdc/ff.c      **** 
2327:sdc/ff.c      **** 
2328:sdc/ff.c      **** 
ARM GAS  C:\Users\cronos\AppData\Local\Temp\ccinF6bS.s 			page 60


2329:sdc/ff.c      **** 
2330:sdc/ff.c      **** /*-----------------------------------------------------------------------*/
2331:sdc/ff.c      **** /* Check if the file/directory object is valid or not                    */
2332:sdc/ff.c      **** /*-----------------------------------------------------------------------*/
2333:sdc/ff.c      **** 
2334:sdc/ff.c      **** static
2335:sdc/ff.c      **** FRESULT validate (	/* FR_OK(0): The object is valid, !=0: Invalid */
2336:sdc/ff.c      **** 	void* obj		/* Pointer to the object FIL/DIR to check validity */
2337:sdc/ff.c      **** )
2338:sdc/ff.c      **** {
 994              		.loc 1 2338 0
 995              		.cfi_startproc
 996              		@ args = 0, pretend = 0, frame = 0
 997              		@ frame_needed = 0, uses_anonymous_args = 0
 998              	.LVL131:
2339:sdc/ff.c      **** 	FIL *fil = (FIL*)obj;	/* Assuming offset of .fs and .id in the FIL/DIR structure is identical */
2340:sdc/ff.c      **** 
2341:sdc/ff.c      **** 
2342:sdc/ff.c      **** 	if (!fil || !fil->fs || !fil->fs->fs_type || fil->fs->id != fil->id)
 999              		.loc 1 2342 0
 1000 0000 80B1     		cbz	r0, .L95
2338:sdc/ff.c      **** 	FIL *fil = (FIL*)obj;	/* Assuming offset of .fs and .id in the FIL/DIR structure is identical */
 1001              		.loc 1 2338 0 discriminator 1
 1002 0002 08B5     		push	{r3, lr}
 1003              		.cfi_def_cfa_offset 8
 1004              		.cfi_offset 3, -8
 1005              		.cfi_offset 14, -4
 1006              		.loc 1 2342 0 discriminator 1
 1007 0004 0368     		ldr	r3, [r0]
 1008 0006 7BB1     		cbz	r3, .L96
 1009              		.loc 1 2342 0 is_stmt 0 discriminator 2
 1010 0008 1978     		ldrb	r1, [r3]	@ zero_extendqisi2
 1011 000a 79B1     		cbz	r1, .L97
 1012              		.loc 1 2342 0 discriminator 3
 1013 000c D988     		ldrh	r1, [r3, #6]
 1014 000e 8288     		ldrh	r2, [r0, #4]
 1015 0010 9142     		cmp	r1, r2
 1016 0012 0DD1     		bne	.L98
2343:sdc/ff.c      **** 		return FR_INVALID_OBJECT;
2344:sdc/ff.c      **** 
2345:sdc/ff.c      **** 	ENTER_FF(fil->fs);		/* Lock file system */
2346:sdc/ff.c      **** 
2347:sdc/ff.c      **** 	if (disk_status(fil->fs->drv) & STA_NOINIT)
 1017              		.loc 1 2347 0 is_stmt 1
 1018 0014 5878     		ldrb	r0, [r3, #1]	@ zero_extendqisi2
 1019              	.LVL132:
 1020 0016 FFF7FEFF 		bl	disk_status
 1021              	.LVL133:
 1022 001a 10F0010F 		tst	r0, #1
 1023 001e 09D0     		beq	.L99
2348:sdc/ff.c      **** 		return FR_NOT_READY;
 1024              		.loc 1 2348 0
 1025 0020 0320     		movs	r0, #3
 1026 0022 08BD     		pop	{r3, pc}
 1027              	.LVL134:
 1028              	.L95:
 1029              		.cfi_def_cfa_offset 0
ARM GAS  C:\Users\cronos\AppData\Local\Temp\ccinF6bS.s 			page 61


 1030              		.cfi_restore 3
 1031              		.cfi_restore 14
2343:sdc/ff.c      **** 		return FR_INVALID_OBJECT;
 1032              		.loc 1 2343 0
 1033 0024 0920     		movs	r0, #9
 1034              	.LVL135:
2349:sdc/ff.c      **** 
2350:sdc/ff.c      **** 	return FR_OK;
2351:sdc/ff.c      **** }
 1035              		.loc 1 2351 0
 1036 0026 7047     		bx	lr
 1037              	.LVL136:
 1038              	.L96:
 1039              		.cfi_def_cfa_offset 8
 1040              		.cfi_offset 3, -8
 1041              		.cfi_offset 14, -4
2343:sdc/ff.c      **** 
 1042              		.loc 1 2343 0
 1043 0028 0920     		movs	r0, #9
 1044              	.LVL137:
 1045 002a 08BD     		pop	{r3, pc}
 1046              	.LVL138:
 1047              	.L97:
 1048 002c 0920     		movs	r0, #9
 1049              	.LVL139:
 1050 002e 08BD     		pop	{r3, pc}
 1051              	.LVL140:
 1052              	.L98:
 1053 0030 0920     		movs	r0, #9
 1054              	.LVL141:
 1055 0032 08BD     		pop	{r3, pc}
 1056              	.L99:
2350:sdc/ff.c      **** }
 1057              		.loc 1 2350 0
 1058 0034 0020     		movs	r0, #0
 1059              		.loc 1 2351 0
 1060 0036 08BD     		pop	{r3, pc}
 1061              		.cfi_endproc
 1062              	.LFE27:
 1063              		.size	validate, .-validate
 1064              		.section	.text.find_volume,"ax",%progbits
 1065              		.align	2
 1066              		.thumb
 1067              		.thumb_func
 1068              		.type	find_volume, %function
 1069              	find_volume:
 1070              	.LFB26:
2169:sdc/ff.c      **** 	BYTE fmt;
 1071              		.loc 1 2169 0
 1072              		.cfi_startproc
 1073              		@ args = 0, pretend = 0, frame = 16
 1074              		@ frame_needed = 0, uses_anonymous_args = 0
 1075              	.LVL142:
 1076 0000 F0B5     		push	{r4, r5, r6, r7, lr}
 1077              		.cfi_def_cfa_offset 20
 1078              		.cfi_offset 4, -20
 1079              		.cfi_offset 5, -16
ARM GAS  C:\Users\cronos\AppData\Local\Temp\ccinF6bS.s 			page 62


 1080              		.cfi_offset 6, -12
 1081              		.cfi_offset 7, -8
 1082              		.cfi_offset 14, -4
 1083 0002 85B0     		sub	sp, sp, #20
 1084              		.cfi_def_cfa_offset 40
 1085 0004 0646     		mov	r6, r0
 1086 0006 1746     		mov	r7, r2
2179:sdc/ff.c      **** 	vol = get_ldnumber(path);
 1087              		.loc 1 2179 0
 1088 0008 0023     		movs	r3, #0
 1089 000a 0360     		str	r3, [r0]
2180:sdc/ff.c      **** 	if (vol < 0) return FR_INVALID_DRIVE;
 1090              		.loc 1 2180 0
 1091 000c 0846     		mov	r0, r1
 1092              	.LVL143:
 1093 000e FFF7FEFF 		bl	get_ldnumber
 1094              	.LVL144:
2181:sdc/ff.c      **** 
 1095              		.loc 1 2181 0
 1096 0012 051E     		subs	r5, r0, #0
 1097 0014 C0F27D81 		blt	.L120
2184:sdc/ff.c      **** 	if (!fs) return FR_NOT_ENABLED;		/* Is the file system object available? */
 1098              		.loc 1 2184 0
 1099 0018 CD4B     		ldr	r3, .L145
 1100 001a 53F82540 		ldr	r4, [r3, r5, lsl #2]
 1101              	.LVL145:
2185:sdc/ff.c      **** 
 1102              		.loc 1 2185 0
 1103 001e 002C     		cmp	r4, #0
 1104 0020 00F07981 		beq	.L121
2188:sdc/ff.c      **** 
 1105              		.loc 1 2188 0
 1106 0024 3460     		str	r4, [r6]
2190:sdc/ff.c      **** 		stat = disk_status(fs->drv);
 1107              		.loc 1 2190 0
 1108 0026 2378     		ldrb	r3, [r4]	@ zero_extendqisi2
 1109 0028 73B1     		cbz	r3, .L103
2191:sdc/ff.c      **** 		if (!(stat & STA_NOINIT)) {		/* and the physical drive is kept initialized */
 1110              		.loc 1 2191 0
 1111 002a 6078     		ldrb	r0, [r4, #1]	@ zero_extendqisi2
 1112              	.LVL146:
 1113 002c FFF7FEFF 		bl	disk_status
 1114              	.LVL147:
2192:sdc/ff.c      **** 			if (!_FS_READONLY && wmode && (stat & STA_PROTECT))	/* Check write protection if needed */
 1115              		.loc 1 2192 0
 1116 0030 10F0010F 		tst	r0, #1
 1117 0034 08D1     		bne	.L103
2193:sdc/ff.c      **** 				return FR_WRITE_PROTECTED;
 1118              		.loc 1 2193 0
 1119 0036 002F     		cmp	r7, #0
 1120 0038 00F06F81 		beq	.L122
2193:sdc/ff.c      **** 				return FR_WRITE_PROTECTED;
 1121              		.loc 1 2193 0 is_stmt 0 discriminator 1
 1122 003c 10F0040F 		tst	r0, #4
 1123 0040 40F06D81 		bne	.L123
2195:sdc/ff.c      **** 		}
 1124              		.loc 1 2195 0 is_stmt 1
ARM GAS  C:\Users\cronos\AppData\Local\Temp\ccinF6bS.s 			page 63


 1125 0044 0020     		movs	r0, #0
 1126              	.LVL148:
 1127 0046 92E1     		b	.L102
 1128              	.L103:
2202:sdc/ff.c      **** 	fs->drv = LD2PD(vol);				/* Bind the logical drive and a physical drive */
 1129              		.loc 1 2202 0
 1130 0048 0023     		movs	r3, #0
 1131 004a 2370     		strb	r3, [r4]
2203:sdc/ff.c      **** 	stat = disk_initialize(fs->drv);	/* Initialize the physical drive */
 1132              		.loc 1 2203 0
 1133 004c E8B2     		uxtb	r0, r5
 1134 004e 6070     		strb	r0, [r4, #1]
2204:sdc/ff.c      **** 	if (stat & STA_NOINIT)				/* Check if the initialization succeeded */
 1135              		.loc 1 2204 0
 1136 0050 FFF7FEFF 		bl	disk_initialize
 1137              	.LVL149:
2205:sdc/ff.c      **** 		return FR_NOT_READY;			/* Failed to initialize due to no medium or hard error */
 1138              		.loc 1 2205 0
 1139 0054 10F0010F 		tst	r0, #1
 1140 0058 40F06381 		bne	.L124
2207:sdc/ff.c      **** 		return FR_WRITE_PROTECTED;
 1141              		.loc 1 2207 0
 1142 005c 1FB1     		cbz	r7, .L104
2207:sdc/ff.c      **** 		return FR_WRITE_PROTECTED;
 1143              		.loc 1 2207 0 is_stmt 0 discriminator 1
 1144 005e 10F0040F 		tst	r0, #4
 1145 0062 40F06081 		bne	.L125
 1146              	.L104:
 1147              	.LVL150:
2215:sdc/ff.c      **** 	if (fmt == 1 || (!fmt && (LD2PT(vol)))) {	/* Not an FAT boot sector or forced partition number */
 1148              		.loc 1 2215 0 is_stmt 1
 1149 0066 0021     		movs	r1, #0
 1150 0068 2046     		mov	r0, r4
 1151              	.LVL151:
 1152 006a FFF7FEFF 		bl	check_fs
 1153              	.LVL152:
2216:sdc/ff.c      **** 		UINT i;
 1154              		.loc 1 2216 0
 1155 006e 0128     		cmp	r0, #1
 1156 0070 1CD0     		beq	.L126
2214:sdc/ff.c      **** 	fmt = check_fs(fs, bsect);					/* Load sector 0 and check if it is an FAT boot sector as SFD */
 1157              		.loc 1 2214 0
 1158 0072 0026     		movs	r6, #0
 1159              	.LVL153:
 1160 0074 2EE0     		b	.L106
 1161              	.LVL154:
 1162              	.L108:
 1163              	.LBB3:
 1164              	.LBB4:
2221:sdc/ff.c      **** 			br[i] = pt[4] ? LD_DWORD(&pt[8]) : 0;
 1165              		.loc 1 2221 0
 1166 0076 04F13003 		add	r3, r4, #48
 1167 007a 0A01     		lsls	r2, r1, #4
 1168 007c 02F5DF72 		add	r2, r2, #446
 1169 0080 1344     		add	r3, r3, r2
 1170              	.LVL155:
2222:sdc/ff.c      **** 		}
ARM GAS  C:\Users\cronos\AppData\Local\Temp\ccinF6bS.s 			page 64


 1171              		.loc 1 2222 0
 1172 0082 1A79     		ldrb	r2, [r3, #4]	@ zero_extendqisi2
 1173 0084 52B1     		cbz	r2, .L127
2222:sdc/ff.c      **** 		}
 1174              		.loc 1 2222 0 is_stmt 0 discriminator 1
 1175 0086 D87A     		ldrb	r0, [r3, #11]	@ zero_extendqisi2
 1176 0088 9A7A     		ldrb	r2, [r3, #10]	@ zero_extendqisi2
 1177 008a 1204     		lsls	r2, r2, #16
 1178 008c 42EA0062 		orr	r2, r2, r0, lsl #24
 1179 0090 587A     		ldrb	r0, [r3, #9]	@ zero_extendqisi2
 1180 0092 42EA0022 		orr	r2, r2, r0, lsl #8
 1181 0096 1B7A     		ldrb	r3, [r3, #8]	@ zero_extendqisi2
 1182              	.LVL156:
 1183 0098 1A43     		orrs	r2, r2, r3
 1184 009a 00E0     		b	.L107
 1185              	.LVL157:
 1186              	.L127:
2222:sdc/ff.c      **** 		}
 1187              		.loc 1 2222 0
 1188 009c 0022     		movs	r2, #0
 1189              	.LVL158:
 1190              	.L107:
2222:sdc/ff.c      **** 		}
 1191              		.loc 1 2222 0 discriminator 4
 1192 009e 04AB     		add	r3, sp, #16
 1193 00a0 03EB8103 		add	r3, r3, r1, lsl #2
 1194 00a4 43F8102C 		str	r2, [r3, #-16]
 1195              	.LBE4:
2220:sdc/ff.c      **** 			BYTE *pt = fs->win+MBR_Table + i * SZ_PTE;
 1196              		.loc 1 2220 0 is_stmt 1 discriminator 4
 1197 00a8 0131     		adds	r1, r1, #1
 1198              	.LVL159:
 1199 00aa 00E0     		b	.L105
 1200              	.LVL160:
 1201              	.L126:
 1202              	.LBE3:
 1203 00ac 0021     		movs	r1, #0
 1204              	.LVL161:
 1205              	.L105:
 1206              	.LBB5:
2220:sdc/ff.c      **** 			BYTE *pt = fs->win+MBR_Table + i * SZ_PTE;
 1207              		.loc 1 2220 0 is_stmt 0 discriminator 2
 1208 00ae 0329     		cmp	r1, #3
 1209 00b0 E1D9     		bls	.L108
 1210 00b2 0025     		movs	r5, #0
 1211              	.LVL162:
 1212              	.L111:
2227:sdc/ff.c      **** 			fmt = bsect ? check_fs(fs, bsect) : 2;	/* Check the partition */
 1213              		.loc 1 2227 0 is_stmt 1
 1214 00b4 04AB     		add	r3, sp, #16
 1215 00b6 03EB8503 		add	r3, r3, r5, lsl #2
 1216 00ba 53F8106C 		ldr	r6, [r3, #-16]
 1217              	.LVL163:
2228:sdc/ff.c      **** 		} while (!LD2PT(vol) && fmt && ++i < 4);
 1218              		.loc 1 2228 0
 1219 00be 26B1     		cbz	r6, .L128
2228:sdc/ff.c      **** 		} while (!LD2PT(vol) && fmt && ++i < 4);
ARM GAS  C:\Users\cronos\AppData\Local\Temp\ccinF6bS.s 			page 65


 1220              		.loc 1 2228 0 is_stmt 0 discriminator 1
 1221 00c0 3146     		mov	r1, r6
 1222 00c2 2046     		mov	r0, r4
 1223 00c4 FFF7FEFF 		bl	check_fs
 1224              	.LVL164:
 1225 00c8 00E0     		b	.L109
 1226              	.L128:
2228:sdc/ff.c      **** 		} while (!LD2PT(vol) && fmt && ++i < 4);
 1227              		.loc 1 2228 0
 1228 00ca 0220     		movs	r0, #2
 1229              	.L109:
 1230              	.LVL165:
2229:sdc/ff.c      **** 	}
 1231              		.loc 1 2229 0 is_stmt 1 discriminator 4
 1232 00cc 10B1     		cbz	r0, .L106
2229:sdc/ff.c      **** 	}
 1233              		.loc 1 2229 0 is_stmt 0 discriminator 1
 1234 00ce 0135     		adds	r5, r5, #1
 1235              	.LVL166:
 1236 00d0 032D     		cmp	r5, #3
 1237 00d2 EFD9     		bls	.L111
 1238              	.LVL167:
 1239              	.L106:
 1240              	.LBE5:
2231:sdc/ff.c      **** 	if (fmt) return FR_NO_FILESYSTEM;		/* No FAT volume is found */
 1241              		.loc 1 2231 0 is_stmt 1
 1242 00d4 0328     		cmp	r0, #3
 1243 00d6 00F02881 		beq	.L129
2232:sdc/ff.c      **** 
 1244              		.loc 1 2232 0
 1245 00da 0028     		cmp	r0, #0
 1246 00dc 40F02781 		bne	.L130
2236:sdc/ff.c      **** 		return FR_NO_FILESYSTEM;
 1247              		.loc 1 2236 0
 1248 00e0 94F83C20 		ldrb	r2, [r4, #60]	@ zero_extendqisi2
 1249 00e4 94F83B30 		ldrb	r3, [r4, #59]	@ zero_extendqisi2
 1250 00e8 43EA0223 		orr	r3, r3, r2, lsl #8
 1251 00ec 1BB2     		sxth	r3, r3
 1252 00ee B3F5007F 		cmp	r3, #512
 1253 00f2 40F01E81 		bne	.L131
2239:sdc/ff.c      **** 	if (!fasize) fasize = LD_DWORD(fs->win+BPB_FATSz32);
 1254              		.loc 1 2239 0
 1255 00f6 94F84710 		ldrb	r1, [r4, #71]	@ zero_extendqisi2
 1256 00fa 94F84630 		ldrb	r3, [r4, #70]	@ zero_extendqisi2
 1257              	.LVL168:
2240:sdc/ff.c      **** 	fs->fsize = fasize;
 1258              		.loc 1 2240 0
 1259 00fe 53EA0121 		orrs	r1, r3, r1, lsl #8
 1260              	.LVL169:
 1261 0102 0DD1     		bne	.L112
2240:sdc/ff.c      **** 	fs->fsize = fasize;
 1262              		.loc 1 2240 0 is_stmt 0 discriminator 1
 1263 0104 94F85720 		ldrb	r2, [r4, #87]	@ zero_extendqisi2
 1264 0108 94F85630 		ldrb	r3, [r4, #86]	@ zero_extendqisi2
 1265 010c 1B04     		lsls	r3, r3, #16
 1266 010e 43EA0263 		orr	r3, r3, r2, lsl #24
 1267 0112 94F85510 		ldrb	r1, [r4, #85]	@ zero_extendqisi2
ARM GAS  C:\Users\cronos\AppData\Local\Temp\ccinF6bS.s 			page 66


 1268              	.LVL170:
 1269 0116 43EA0123 		orr	r3, r3, r1, lsl #8
 1270 011a 94F85410 		ldrb	r1, [r4, #84]	@ zero_extendqisi2
 1271 011e 1943     		orrs	r1, r1, r3
 1272              	.LVL171:
 1273              	.L112:
2241:sdc/ff.c      **** 
 1274              		.loc 1 2241 0 is_stmt 1
 1275 0120 A161     		str	r1, [r4, #24]
2243:sdc/ff.c      **** 	if (fs->n_fats != 1 && fs->n_fats != 2)				/* (Must be 1 or 2) */
 1276              		.loc 1 2243 0
 1277 0122 94F84020 		ldrb	r2, [r4, #64]	@ zero_extendqisi2
 1278 0126 E270     		strb	r2, [r4, #3]
2244:sdc/ff.c      **** 		return FR_NO_FILESYSTEM;
 1279              		.loc 1 2244 0
 1280 0128 531E     		subs	r3, r2, #1
 1281 012a DBB2     		uxtb	r3, r3
 1282 012c 012B     		cmp	r3, #1
 1283 012e 00F20281 		bhi	.L132
2246:sdc/ff.c      **** 
 1284              		.loc 1 2246 0
 1285 0132 01FB02F7 		mul	r7, r1, r2
 1286              	.LVL172:
2248:sdc/ff.c      **** 	if (!fs->csize || (fs->csize & (fs->csize - 1)))	/* (Must be power of 2) */
 1287              		.loc 1 2248 0
 1288 0136 94F83D30 		ldrb	r3, [r4, #61]	@ zero_extendqisi2
 1289 013a A370     		strb	r3, [r4, #2]
2249:sdc/ff.c      **** 		return FR_NO_FILESYSTEM;
 1290              		.loc 1 2249 0
 1291 013c 002B     		cmp	r3, #0
 1292 013e 00F0FC80 		beq	.L133
2249:sdc/ff.c      **** 		return FR_NO_FILESYSTEM;
 1293              		.loc 1 2249 0 is_stmt 0 discriminator 1
 1294 0142 5A1E     		subs	r2, r3, #1
 1295 0144 1342     		tst	r3, r2
 1296 0146 40F0FA80 		bne	.L134
2252:sdc/ff.c      **** 	if (fs->n_rootdir % (SS(fs) / SZ_DIR))				/* (Must be sector aligned) */
 1297              		.loc 1 2252 0 is_stmt 1
 1298 014a 94F842E0 		ldrb	lr, [r4, #66]	@ zero_extendqisi2
 1299 014e 94F84120 		ldrb	r2, [r4, #65]	@ zero_extendqisi2
 1300 0152 42EA0E2E 		orr	lr, r2, lr, lsl #8
 1301 0156 A4F808E0 		strh	lr, [r4, #8]	@ movhi
2253:sdc/ff.c      **** 		return FR_NO_FILESYSTEM;
 1302              		.loc 1 2253 0
 1303 015a 1EF00F0F 		tst	lr, #15
 1304 015e 40F0F080 		bne	.L135
2256:sdc/ff.c      **** 	if (!tsect) tsect = LD_DWORD(fs->win+BPB_TotSec32);
 1305              		.loc 1 2256 0
 1306 0162 94F84400 		ldrb	r0, [r4, #68]	@ zero_extendqisi2
 1307              	.LVL173:
 1308 0166 94F84320 		ldrb	r2, [r4, #67]	@ zero_extendqisi2
 1309              	.LVL174:
2257:sdc/ff.c      **** 
 1310              		.loc 1 2257 0
 1311 016a 52EA0022 		orrs	r2, r2, r0, lsl #8
 1312              	.LVL175:
 1313 016e 0DD1     		bne	.L113
ARM GAS  C:\Users\cronos\AppData\Local\Temp\ccinF6bS.s 			page 67


2257:sdc/ff.c      **** 
 1314              		.loc 1 2257 0 is_stmt 0 discriminator 1
 1315 0170 94F85300 		ldrb	r0, [r4, #83]	@ zero_extendqisi2
 1316 0174 94F85220 		ldrb	r2, [r4, #82]	@ zero_extendqisi2
 1317              	.LVL176:
 1318 0178 1204     		lsls	r2, r2, #16
 1319 017a 42EA0062 		orr	r2, r2, r0, lsl #24
 1320 017e 94F85100 		ldrb	r0, [r4, #81]	@ zero_extendqisi2
 1321 0182 42EA0020 		orr	r0, r2, r0, lsl #8
 1322 0186 94F85020 		ldrb	r2, [r4, #80]	@ zero_extendqisi2
 1323 018a 0243     		orrs	r2, r2, r0
 1324              	.LVL177:
 1325              	.L113:
2259:sdc/ff.c      **** 	if (!nrsv) return FR_NO_FILESYSTEM;					/* (Must not be 0) */
 1326              		.loc 1 2259 0 is_stmt 1
 1327 018c 94F83F50 		ldrb	r5, [r4, #63]	@ zero_extendqisi2
 1328 0190 94F83E00 		ldrb	r0, [r4, #62]	@ zero_extendqisi2
 1329              	.LVL178:
2260:sdc/ff.c      **** 
 1330              		.loc 1 2260 0
 1331 0194 50EA0520 		orrs	r0, r0, r5, lsl #8
 1332              	.LVL179:
 1333 0198 00F0D580 		beq	.L136
2263:sdc/ff.c      **** 	if (tsect < sysect) return FR_NO_FILESYSTEM;		/* (Invalid volume size) */
 1334              		.loc 1 2263 0
 1335 019c 07EB000C 		add	ip, r7, r0
 1336 01a0 0CEB1E1C 		add	ip, ip, lr, lsr #4
 1337              	.LVL180:
2264:sdc/ff.c      **** 	nclst = (tsect - sysect) / fs->csize;				/* Number of clusters */
 1338              		.loc 1 2264 0
 1339 01a4 6245     		cmp	r2, ip
 1340 01a6 C0F0D080 		bcc	.L137
2265:sdc/ff.c      **** 	if (!nclst) return FR_NO_FILESYSTEM;				/* (Invalid volume size) */
 1341              		.loc 1 2265 0
 1342 01aa CCEB0202 		rsb	r2, ip, r2
 1343              	.LVL181:
 1344 01ae B2FBF3F3 		udiv	r3, r2, r3
 1345              	.LVL182:
2266:sdc/ff.c      **** 	fmt = FS_FAT12;
 1346              		.loc 1 2266 0
 1347 01b2 002B     		cmp	r3, #0
 1348 01b4 00F0D480 		beq	.L138
 1349              	.LVL183:
2268:sdc/ff.c      **** 	if (nclst >= MIN_FAT32) fmt = FS_FAT32;
 1350              		.loc 1 2268 0
 1351 01b8 40F6F572 		movw	r2, #4085
 1352 01bc 9342     		cmp	r3, r2
 1353 01be 01D8     		bhi	.L139
2267:sdc/ff.c      **** 	if (nclst >= MIN_FAT16) fmt = FS_FAT16;
 1354              		.loc 1 2267 0
 1355 01c0 0125     		movs	r5, #1
 1356              	.LVL184:
 1357 01c2 00E0     		b	.L114
 1358              	.LVL185:
 1359              	.L139:
2268:sdc/ff.c      **** 	if (nclst >= MIN_FAT32) fmt = FS_FAT32;
 1360              		.loc 1 2268 0
ARM GAS  C:\Users\cronos\AppData\Local\Temp\ccinF6bS.s 			page 68


 1361 01c4 0225     		movs	r5, #2
 1362              	.LVL186:
 1363              	.L114:
2269:sdc/ff.c      **** 
 1364              		.loc 1 2269 0
 1365 01c6 4FF6F572 		movw	r2, #65525
 1366 01ca 9342     		cmp	r3, r2
 1367 01cc 00D9     		bls	.L115
 1368 01ce 0325     		movs	r5, #3
 1369              	.LVL187:
 1370              	.L115:
2272:sdc/ff.c      **** 	fs->volbase = bsect;								/* Volume start sector */
 1371              		.loc 1 2272 0
 1372 01d0 0233     		adds	r3, r3, #2
 1373              	.LVL188:
 1374 01d2 6361     		str	r3, [r4, #20]
2273:sdc/ff.c      **** 	fs->fatbase = bsect + nrsv; 						/* FAT start sector */
 1375              		.loc 1 2273 0
 1376 01d4 E661     		str	r6, [r4, #28]
2274:sdc/ff.c      **** 	fs->database = bsect + sysect;						/* Data start sector */
 1377              		.loc 1 2274 0
 1378 01d6 3218     		adds	r2, r6, r0
 1379 01d8 2262     		str	r2, [r4, #32]
2275:sdc/ff.c      **** 	if (fmt == FS_FAT32) {
 1380              		.loc 1 2275 0
 1381 01da 06EB0C00 		add	r0, r6, ip
 1382 01de A062     		str	r0, [r4, #40]
2276:sdc/ff.c      **** 		if (fs->n_rootdir) return FR_NO_FILESYSTEM;		/* (BPB_RootEntCnt must be 0) */
 1383              		.loc 1 2276 0
 1384 01e0 032D     		cmp	r5, #3
 1385 01e2 14D1     		bne	.L116
2277:sdc/ff.c      **** 		fs->dirbase = LD_DWORD(fs->win+BPB_RootClus);	/* Root directory start cluster */
 1386              		.loc 1 2277 0
 1387 01e4 BEF1000F 		cmp	lr, #0
 1388 01e8 40F0BC80 		bne	.L141
2278:sdc/ff.c      **** 		szbfat = fs->n_fatent * 4;						/* (Needed FAT size) */
 1389              		.loc 1 2278 0
 1390 01ec 94F85F00 		ldrb	r0, [r4, #95]	@ zero_extendqisi2
 1391 01f0 94F85E20 		ldrb	r2, [r4, #94]	@ zero_extendqisi2
 1392 01f4 1204     		lsls	r2, r2, #16
 1393 01f6 42EA0062 		orr	r2, r2, r0, lsl #24
 1394 01fa 94F85D00 		ldrb	r0, [r4, #93]	@ zero_extendqisi2
 1395 01fe 42EA0022 		orr	r2, r2, r0, lsl #8
 1396 0202 94F85C00 		ldrb	r0, [r4, #92]	@ zero_extendqisi2
 1397 0206 0243     		orrs	r2, r2, r0
 1398 0208 6262     		str	r2, [r4, #36]
2279:sdc/ff.c      **** 	} else {
 1399              		.loc 1 2279 0
 1400 020a 9B00     		lsls	r3, r3, #2
 1401              	.LVL189:
 1402 020c 0FE0     		b	.L117
 1403              	.LVL190:
 1404              	.L116:
2281:sdc/ff.c      **** 		fs->dirbase = fs->fatbase + fasize;				/* Root directory start sector */
 1405              		.loc 1 2281 0
 1406 020e BEF1000F 		cmp	lr, #0
 1407 0212 00F0A980 		beq	.L142
ARM GAS  C:\Users\cronos\AppData\Local\Temp\ccinF6bS.s 			page 69


2282:sdc/ff.c      **** 		szbfat = (fmt == FS_FAT16) ?					/* (Needed FAT size) */
 1408              		.loc 1 2282 0
 1409 0216 3A44     		add	r2, r2, r7
 1410 0218 6262     		str	r2, [r4, #36]
2284:sdc/ff.c      **** 	}
 1411              		.loc 1 2284 0
 1412 021a 022D     		cmp	r5, #2
 1413 021c 01D1     		bne	.L118
2284:sdc/ff.c      **** 	}
 1414              		.loc 1 2284 0 is_stmt 0 discriminator 1
 1415 021e 5B00     		lsls	r3, r3, #1
 1416              	.LVL191:
 1417 0220 05E0     		b	.L117
 1418              	.LVL192:
 1419              	.L118:
2284:sdc/ff.c      **** 	}
 1420              		.loc 1 2284 0 discriminator 2
 1421 0222 03EB4302 		add	r2, r3, r3, lsl #1
 1422 0226 03F00103 		and	r3, r3, #1
 1423              	.LVL193:
 1424 022a 03EB5203 		add	r3, r3, r2, lsr #1
 1425              	.L117:
 1426              	.LVL194:
2286:sdc/ff.c      **** 		return FR_NO_FILESYSTEM;
 1427              		.loc 1 2286 0 is_stmt 1
 1428 022e 03F2FF13 		addw	r3, r3, #511
 1429              	.LVL195:
 1430 0232 B1EB532F 		cmp	r1, r3, lsr #9
 1431 0236 C0F09980 		bcc	.L143
2291:sdc/ff.c      **** 
 1432              		.loc 1 2291 0
 1433 023a 4FF0FF33 		mov	r3, #-1
 1434              	.LVL196:
 1435 023e 2361     		str	r3, [r4, #16]
 1436 0240 E360     		str	r3, [r4, #12]
2294:sdc/ff.c      **** #if (_FS_NOFSINFO & 3) != 3
 1437              		.loc 1 2294 0
 1438 0242 8023     		movs	r3, #128
 1439 0244 6371     		strb	r3, [r4, #5]
2296:sdc/ff.c      **** 		&& LD_WORD(fs->win+BPB_FSInfo) == 1
 1440              		.loc 1 2296 0
 1441 0246 032D     		cmp	r5, #3
 1442 0248 5AD1     		bne	.L119
2297:sdc/ff.c      **** 		&& move_window(fs, bsect + 1) == FR_OK)
 1443              		.loc 1 2297 0
 1444 024a 94F86120 		ldrb	r2, [r4, #97]	@ zero_extendqisi2
 1445 024e 94F86030 		ldrb	r3, [r4, #96]	@ zero_extendqisi2
 1446 0252 43EA0223 		orr	r3, r3, r2, lsl #8
 1447 0256 1BB2     		sxth	r3, r3
 1448 0258 012B     		cmp	r3, #1
 1449 025a 51D1     		bne	.L119
2298:sdc/ff.c      **** 	{
 1450              		.loc 1 2298 0
 1451 025c 711C     		adds	r1, r6, #1
 1452 025e 2046     		mov	r0, r4
 1453 0260 FFF7FEFF 		bl	move_window
 1454              	.LVL197:
ARM GAS  C:\Users\cronos\AppData\Local\Temp\ccinF6bS.s 			page 70


 1455 0264 0028     		cmp	r0, #0
 1456 0266 4BD1     		bne	.L119
2300:sdc/ff.c      **** 		if (LD_WORD(fs->win+BS_55AA) == 0xAA55	/* Load FSINFO data if available */
 1457              		.loc 1 2300 0
 1458 0268 0023     		movs	r3, #0
 1459 026a 6371     		strb	r3, [r4, #5]
2301:sdc/ff.c      **** 			&& LD_DWORD(fs->win+FSI_LeadSig) == 0x41615252
 1460              		.loc 1 2301 0
 1461 026c 94F82F22 		ldrb	r2, [r4, #559]	@ zero_extendqisi2
 1462 0270 94F82E32 		ldrb	r3, [r4, #558]	@ zero_extendqisi2
 1463 0274 43EA0223 		orr	r3, r3, r2, lsl #8
 1464 0278 1BB2     		sxth	r3, r3
 1465 027a 364A     		ldr	r2, .L145+4
 1466 027c 9342     		cmp	r3, r2
 1467 027e 3FD1     		bne	.L119
2302:sdc/ff.c      **** 			&& LD_DWORD(fs->win+FSI_StrucSig) == 0x61417272)
 1468              		.loc 1 2302 0
 1469 0280 94F83320 		ldrb	r2, [r4, #51]	@ zero_extendqisi2
 1470 0284 94F83230 		ldrb	r3, [r4, #50]	@ zero_extendqisi2
 1471 0288 1B04     		lsls	r3, r3, #16
 1472 028a 43EA0263 		orr	r3, r3, r2, lsl #24
 1473 028e 94F83120 		ldrb	r2, [r4, #49]	@ zero_extendqisi2
 1474 0292 43EA0223 		orr	r3, r3, r2, lsl #8
 1475 0296 94F83020 		ldrb	r2, [r4, #48]	@ zero_extendqisi2
 1476 029a 1343     		orrs	r3, r3, r2
 1477 029c 2E4A     		ldr	r2, .L145+8
 1478 029e 9342     		cmp	r3, r2
 1479 02a0 2ED1     		bne	.L119
2303:sdc/ff.c      **** 		{
 1480              		.loc 1 2303 0
 1481 02a2 94F81722 		ldrb	r2, [r4, #535]	@ zero_extendqisi2
 1482 02a6 94F81632 		ldrb	r3, [r4, #534]	@ zero_extendqisi2
 1483 02aa 1B04     		lsls	r3, r3, #16
 1484 02ac 43EA0263 		orr	r3, r3, r2, lsl #24
 1485 02b0 94F81522 		ldrb	r2, [r4, #533]	@ zero_extendqisi2
 1486 02b4 43EA0223 		orr	r3, r3, r2, lsl #8
 1487 02b8 94F81422 		ldrb	r2, [r4, #532]	@ zero_extendqisi2
 1488 02bc 1343     		orrs	r3, r3, r2
 1489 02be 274A     		ldr	r2, .L145+12
 1490 02c0 9342     		cmp	r3, r2
 1491 02c2 1DD1     		bne	.L119
2306:sdc/ff.c      **** #endif
 1492              		.loc 1 2306 0
 1493 02c4 94F81B22 		ldrb	r2, [r4, #539]	@ zero_extendqisi2
 1494 02c8 94F81A32 		ldrb	r3, [r4, #538]	@ zero_extendqisi2
 1495 02cc 1B04     		lsls	r3, r3, #16
 1496 02ce 43EA0263 		orr	r3, r3, r2, lsl #24
 1497 02d2 94F81922 		ldrb	r2, [r4, #537]	@ zero_extendqisi2
 1498 02d6 43EA0223 		orr	r3, r3, r2, lsl #8
 1499 02da 94F81822 		ldrb	r2, [r4, #536]	@ zero_extendqisi2
 1500 02de 1343     		orrs	r3, r3, r2
 1501 02e0 2361     		str	r3, [r4, #16]
2309:sdc/ff.c      **** #endif
 1502              		.loc 1 2309 0
 1503 02e2 94F81F22 		ldrb	r2, [r4, #543]	@ zero_extendqisi2
 1504 02e6 94F81E32 		ldrb	r3, [r4, #542]	@ zero_extendqisi2
 1505 02ea 1B04     		lsls	r3, r3, #16
ARM GAS  C:\Users\cronos\AppData\Local\Temp\ccinF6bS.s 			page 71


 1506 02ec 43EA0263 		orr	r3, r3, r2, lsl #24
 1507 02f0 94F81D22 		ldrb	r2, [r4, #541]	@ zero_extendqisi2
 1508 02f4 43EA0223 		orr	r3, r3, r2, lsl #8
 1509 02f8 94F81C22 		ldrb	r2, [r4, #540]	@ zero_extendqisi2
 1510 02fc 1343     		orrs	r3, r3, r2
 1511 02fe E360     		str	r3, [r4, #12]
 1512              	.L119:
2315:sdc/ff.c      **** 	fs->id = ++Fsid;	/* File system mount ID */
 1513              		.loc 1 2315 0
 1514 0300 2570     		strb	r5, [r4]
2316:sdc/ff.c      **** #if _FS_RPATH
 1515              		.loc 1 2316 0
 1516 0302 134A     		ldr	r2, .L145
 1517 0304 9388     		ldrh	r3, [r2, #4]
 1518 0306 0133     		adds	r3, r3, #1
 1519 0308 9BB2     		uxth	r3, r3
 1520 030a 9380     		strh	r3, [r2, #4]	@ movhi
 1521 030c E380     		strh	r3, [r4, #6]	@ movhi
2324:sdc/ff.c      **** }
 1522              		.loc 1 2324 0
 1523 030e 0020     		movs	r0, #0
 1524 0310 2DE0     		b	.L102
 1525              	.LVL198:
 1526              	.L120:
2181:sdc/ff.c      **** 
 1527              		.loc 1 2181 0
 1528 0312 0B20     		movs	r0, #11
 1529              	.LVL199:
 1530 0314 2BE0     		b	.L102
 1531              	.LVL200:
 1532              	.L121:
2185:sdc/ff.c      **** 
 1533              		.loc 1 2185 0
 1534 0316 0C20     		movs	r0, #12
 1535              	.LVL201:
 1536 0318 29E0     		b	.L102
 1537              	.LVL202:
 1538              	.L122:
2195:sdc/ff.c      **** 		}
 1539              		.loc 1 2195 0
 1540 031a 0020     		movs	r0, #0
 1541              	.LVL203:
 1542 031c 27E0     		b	.L102
 1543              	.LVL204:
 1544              	.L123:
2194:sdc/ff.c      **** 			return FR_OK;				/* The file system object is valid */
 1545              		.loc 1 2194 0
 1546 031e 0A20     		movs	r0, #10
 1547              	.LVL205:
 1548 0320 25E0     		b	.L102
 1549              	.LVL206:
 1550              	.L124:
2206:sdc/ff.c      **** 	if (!_FS_READONLY && wmode && (stat & STA_PROTECT))	/* Check disk write protection if needed */
 1551              		.loc 1 2206 0
 1552 0322 0320     		movs	r0, #3
 1553              	.LVL207:
 1554 0324 23E0     		b	.L102
ARM GAS  C:\Users\cronos\AppData\Local\Temp\ccinF6bS.s 			page 72


 1555              	.LVL208:
 1556              	.L125:
2208:sdc/ff.c      **** #if _MAX_SS != _MIN_SS						/* Get sector size (multiple sector size cfg only) */
 1557              		.loc 1 2208 0
 1558 0326 0A20     		movs	r0, #10
 1559              	.LVL209:
 1560 0328 21E0     		b	.L102
 1561              	.LVL210:
 1562              	.L129:
2231:sdc/ff.c      **** 	if (fmt) return FR_NO_FILESYSTEM;		/* No FAT volume is found */
 1563              		.loc 1 2231 0
 1564 032a 0120     		movs	r0, #1
 1565              	.LVL211:
 1566 032c 1FE0     		b	.L102
 1567              	.LVL212:
 1568              	.L130:
2232:sdc/ff.c      **** 
 1569              		.loc 1 2232 0
 1570 032e 0D20     		movs	r0, #13
 1571              	.LVL213:
 1572 0330 1DE0     		b	.L102
 1573              	.LVL214:
 1574              	.L131:
2237:sdc/ff.c      **** 
 1575              		.loc 1 2237 0
 1576 0332 0D20     		movs	r0, #13
 1577              	.LVL215:
 1578 0334 1BE0     		b	.L102
 1579              	.LVL216:
 1580              	.L132:
2245:sdc/ff.c      **** 	fasize *= fs->n_fats;								/* Number of sectors for FAT area */
 1581              		.loc 1 2245 0
 1582 0336 0D20     		movs	r0, #13
 1583              	.LVL217:
 1584 0338 19E0     		b	.L102
 1585              	.LVL218:
 1586              	.L133:
2250:sdc/ff.c      **** 
 1587              		.loc 1 2250 0
 1588 033a 0D20     		movs	r0, #13
 1589              	.LVL219:
 1590 033c 17E0     		b	.L102
 1591              	.LVL220:
 1592              	.L134:
 1593 033e 0D20     		movs	r0, #13
 1594              	.LVL221:
 1595 0340 15E0     		b	.L102
 1596              	.LVL222:
 1597              	.L135:
2254:sdc/ff.c      **** 
 1598              		.loc 1 2254 0
 1599 0342 0D20     		movs	r0, #13
 1600              	.LVL223:
 1601 0344 13E0     		b	.L102
 1602              	.LVL224:
 1603              	.L136:
2260:sdc/ff.c      **** 
ARM GAS  C:\Users\cronos\AppData\Local\Temp\ccinF6bS.s 			page 73


 1604              		.loc 1 2260 0
 1605 0346 0D20     		movs	r0, #13
 1606 0348 11E0     		b	.L102
 1607              	.LVL225:
 1608              	.L137:
2264:sdc/ff.c      **** 	nclst = (tsect - sysect) / fs->csize;				/* Number of clusters */
 1609              		.loc 1 2264 0
 1610 034a 0D20     		movs	r0, #13
 1611 034c 0FE0     		b	.L102
 1612              	.L146:
 1613 034e 00BF     		.align	2
 1614              	.L145:
 1615 0350 00000000 		.word	.LANCHOR0
 1616 0354 55AAFFFF 		.word	-21931
 1617 0358 52526141 		.word	1096897106
 1618 035c 72724161 		.word	1631679090
 1619              	.LVL226:
 1620              	.L138:
2266:sdc/ff.c      **** 	fmt = FS_FAT12;
 1621              		.loc 1 2266 0
 1622 0360 0D20     		movs	r0, #13
 1623 0362 04E0     		b	.L102
 1624              	.LVL227:
 1625              	.L141:
2277:sdc/ff.c      **** 		fs->dirbase = LD_DWORD(fs->win+BPB_RootClus);	/* Root directory start cluster */
 1626              		.loc 1 2277 0
 1627 0364 0D20     		movs	r0, #13
 1628 0366 02E0     		b	.L102
 1629              	.L142:
2281:sdc/ff.c      **** 		fs->dirbase = fs->fatbase + fasize;				/* Root directory start sector */
 1630              		.loc 1 2281 0
 1631 0368 0D20     		movs	r0, #13
 1632 036a 00E0     		b	.L102
 1633              	.LVL228:
 1634              	.L143:
2287:sdc/ff.c      **** 
 1635              		.loc 1 2287 0
 1636 036c 0D20     		movs	r0, #13
 1637              	.LVL229:
 1638              	.L102:
2325:sdc/ff.c      **** 
 1639              		.loc 1 2325 0
 1640 036e 05B0     		add	sp, sp, #20
 1641              		.cfi_def_cfa_offset 20
 1642              		@ sp needed
 1643 0370 F0BD     		pop	{r4, r5, r6, r7, pc}
 1644              		.cfi_endproc
 1645              	.LFE26:
 1646              		.size	find_volume, .-find_volume
 1647 0372 00BF     		.section	.text.sync_fs,"ax",%progbits
 1648              		.align	2
 1649              		.thumb
 1650              		.thumb_func
 1651              		.type	sync_fs, %function
 1652              	sync_fs:
 1653              	.LFB6:
 810:sdc/ff.c      **** 	FRESULT res;
ARM GAS  C:\Users\cronos\AppData\Local\Temp\ccinF6bS.s 			page 74


 1654              		.loc 1 810 0
 1655              		.cfi_startproc
 1656              		@ args = 0, pretend = 0, frame = 0
 1657              		@ frame_needed = 0, uses_anonymous_args = 0
 1658              	.LVL230:
 1659 0000 70B5     		push	{r4, r5, r6, lr}
 1660              		.cfi_def_cfa_offset 16
 1661              		.cfi_offset 4, -16
 1662              		.cfi_offset 5, -12
 1663              		.cfi_offset 6, -8
 1664              		.cfi_offset 14, -4
 1665 0002 0446     		mov	r4, r0
 814:sdc/ff.c      **** 	if (res == FR_OK) {
 1666              		.loc 1 814 0
 1667 0004 FFF7FEFF 		bl	sync_window
 1668              	.LVL231:
 815:sdc/ff.c      **** 		/* Update FSINFO sector if needed */
 1669              		.loc 1 815 0
 1670 0008 0546     		mov	r5, r0
 1671 000a 0028     		cmp	r0, #0
 1672 000c 54D1     		bne	.L148
 817:sdc/ff.c      **** 			/* Create FSINFO structure */
 1673              		.loc 1 817 0
 1674 000e 2378     		ldrb	r3, [r4]	@ zero_extendqisi2
 1675 0010 032B     		cmp	r3, #3
 1676 0012 4AD1     		bne	.L149
 817:sdc/ff.c      **** 			/* Create FSINFO structure */
 1677              		.loc 1 817 0 is_stmt 0 discriminator 1
 1678 0014 6379     		ldrb	r3, [r4, #5]	@ zero_extendqisi2
 1679 0016 012B     		cmp	r3, #1
 1680 0018 47D1     		bne	.L149
 819:sdc/ff.c      **** 			ST_WORD(fs->win+BS_55AA, 0xAA55);
 1681              		.loc 1 819 0 is_stmt 1
 1682 001a 04F13006 		add	r6, r4, #48
 1683 001e 4FF40072 		mov	r2, #512
 1684 0022 0021     		movs	r1, #0
 1685 0024 3046     		mov	r0, r6
 1686              	.LVL232:
 1687 0026 FFF7FEFF 		bl	mem_set
 1688              	.LVL233:
 820:sdc/ff.c      **** 			ST_DWORD(fs->win+FSI_LeadSig, 0x41615252);
 1689              		.loc 1 820 0
 1690 002a 5523     		movs	r3, #85
 1691 002c 84F82E32 		strb	r3, [r4, #558]
 1692 0030 AA23     		movs	r3, #170
 1693 0032 84F82F32 		strb	r3, [r4, #559]
 821:sdc/ff.c      **** 			ST_DWORD(fs->win+FSI_StrucSig, 0x61417272);
 1694              		.loc 1 821 0
 1695 0036 5223     		movs	r3, #82
 1696 0038 84F83030 		strb	r3, [r4, #48]
 1697 003c 84F83130 		strb	r3, [r4, #49]
 1698 0040 6123     		movs	r3, #97
 1699 0042 84F83230 		strb	r3, [r4, #50]
 1700 0046 4122     		movs	r2, #65
 1701 0048 84F83320 		strb	r2, [r4, #51]
 822:sdc/ff.c      **** 			ST_DWORD(fs->win+FSI_Free_Count, fs->free_clust);
 1702              		.loc 1 822 0
ARM GAS  C:\Users\cronos\AppData\Local\Temp\ccinF6bS.s 			page 75


 1703 004c 7221     		movs	r1, #114
 1704 004e 84F81412 		strb	r1, [r4, #532]
 1705 0052 84F81512 		strb	r1, [r4, #533]
 1706 0056 84F81622 		strb	r2, [r4, #534]
 1707 005a 84F81732 		strb	r3, [r4, #535]
 823:sdc/ff.c      **** 			ST_DWORD(fs->win+FSI_Nxt_Free, fs->last_clust);
 1708              		.loc 1 823 0
 1709 005e 2369     		ldr	r3, [r4, #16]
 1710 0060 84F81832 		strb	r3, [r4, #536]
 1711 0064 C3F30722 		ubfx	r2, r3, #8, #8
 1712 0068 84F81922 		strb	r2, [r4, #537]
 1713 006c C3F30742 		ubfx	r2, r3, #16, #8
 1714 0070 84F81A22 		strb	r2, [r4, #538]
 1715 0074 1B0E     		lsrs	r3, r3, #24
 1716 0076 84F81B32 		strb	r3, [r4, #539]
 824:sdc/ff.c      **** 			/* Write it into the FSINFO sector */
 1717              		.loc 1 824 0
 1718 007a E368     		ldr	r3, [r4, #12]
 1719 007c 84F81C32 		strb	r3, [r4, #540]
 1720 0080 C3F30722 		ubfx	r2, r3, #8, #8
 1721 0084 84F81D22 		strb	r2, [r4, #541]
 1722 0088 C3F30742 		ubfx	r2, r3, #16, #8
 1723 008c 84F81E22 		strb	r2, [r4, #542]
 1724 0090 1B0E     		lsrs	r3, r3, #24
 1725 0092 84F81F32 		strb	r3, [r4, #543]
 826:sdc/ff.c      **** 			disk_write(fs->drv, fs->win, fs->winsect, 1);
 1726              		.loc 1 826 0
 1727 0096 E269     		ldr	r2, [r4, #28]
 1728 0098 0132     		adds	r2, r2, #1
 1729 009a E262     		str	r2, [r4, #44]
 827:sdc/ff.c      **** 			fs->fsi_flag = 0;
 1730              		.loc 1 827 0
 1731 009c 0123     		movs	r3, #1
 1732 009e 3146     		mov	r1, r6
 1733 00a0 6078     		ldrb	r0, [r4, #1]	@ zero_extendqisi2
 1734 00a2 FFF7FEFF 		bl	disk_write
 1735              	.LVL234:
 828:sdc/ff.c      **** 		}
 1736              		.loc 1 828 0
 1737 00a6 0023     		movs	r3, #0
 1738 00a8 6371     		strb	r3, [r4, #5]
 1739              	.L149:
 831:sdc/ff.c      **** 			res = FR_DISK_ERR;
 1740              		.loc 1 831 0
 1741 00aa 0022     		movs	r2, #0
 1742 00ac 1146     		mov	r1, r2
 1743 00ae 6078     		ldrb	r0, [r4, #1]	@ zero_extendqisi2
 1744 00b0 FFF7FEFF 		bl	disk_ioctl
 1745              	.LVL235:
 1746 00b4 00B1     		cbz	r0, .L148
 832:sdc/ff.c      **** 	}
 1747              		.loc 1 832 0
 1748 00b6 0125     		movs	r5, #1
 1749              	.L148:
 1750              	.LVL236:
 836:sdc/ff.c      **** #endif
 1751              		.loc 1 836 0
ARM GAS  C:\Users\cronos\AppData\Local\Temp\ccinF6bS.s 			page 76


 1752 00b8 2846     		mov	r0, r5
 1753 00ba 70BD     		pop	{r4, r5, r6, pc}
 1754              		.cfi_endproc
 1755              	.LFE6:
 1756              		.size	sync_fs, .-sync_fs
 1757              		.section	.text.clust2sect,"ax",%progbits
 1758              		.align	2
 1759              		.global	clust2sect
 1760              		.thumb
 1761              		.thumb_func
 1762              		.type	clust2sect, %function
 1763              	clust2sect:
 1764              	.LFB7:
 851:sdc/ff.c      **** 	clst -= 2;
 1765              		.loc 1 851 0
 1766              		.cfi_startproc
 1767              		@ args = 0, pretend = 0, frame = 0
 1768              		@ frame_needed = 0, uses_anonymous_args = 0
 1769              		@ link register save eliminated.
 1770              	.LVL237:
 852:sdc/ff.c      **** 	if (clst >= (fs->n_fatent - 2)) return 0;		/* Invalid cluster# */
 1771              		.loc 1 852 0
 1772 0000 0239     		subs	r1, r1, #2
 1773              	.LVL238:
 853:sdc/ff.c      **** 	return clst * fs->csize + fs->database;
 1774              		.loc 1 853 0
 1775 0002 4369     		ldr	r3, [r0, #20]
 1776 0004 023B     		subs	r3, r3, #2
 1777 0006 9942     		cmp	r1, r3
 1778 0008 04D2     		bcs	.L154
 854:sdc/ff.c      **** }
 1779              		.loc 1 854 0
 1780 000a 8378     		ldrb	r3, [r0, #2]	@ zero_extendqisi2
 1781 000c 806A     		ldr	r0, [r0, #40]
 1782              	.LVL239:
 1783 000e 01FB0300 		mla	r0, r1, r3, r0
 1784 0012 7047     		bx	lr
 1785              	.LVL240:
 1786              	.L154:
 853:sdc/ff.c      **** 	return clst * fs->csize + fs->database;
 1787              		.loc 1 853 0
 1788 0014 0020     		movs	r0, #0
 1789              	.LVL241:
 855:sdc/ff.c      **** 
 1790              		.loc 1 855 0
 1791 0016 7047     		bx	lr
 1792              		.cfi_endproc
 1793              	.LFE7:
 1794              		.size	clust2sect, .-clust2sect
 1795              		.section	.text.get_fat,"ax",%progbits
 1796              		.align	2
 1797              		.global	get_fat
 1798              		.thumb
 1799              		.thumb_func
 1800              		.type	get_fat, %function
 1801              	get_fat:
 1802              	.LFB8:
ARM GAS  C:\Users\cronos\AppData\Local\Temp\ccinF6bS.s 			page 77


 869:sdc/ff.c      **** 	UINT wc, bc;
 1803              		.loc 1 869 0
 1804              		.cfi_startproc
 1805              		@ args = 0, pretend = 0, frame = 0
 1806              		@ frame_needed = 0, uses_anonymous_args = 0
 1807              	.LVL242:
 874:sdc/ff.c      **** 		return 1;
 1808              		.loc 1 874 0
 1809 0000 0129     		cmp	r1, #1
 1810 0002 60D9     		bls	.L161
 869:sdc/ff.c      **** 	UINT wc, bc;
 1811              		.loc 1 869 0 discriminator 1
 1812 0004 F8B5     		push	{r3, r4, r5, r6, r7, lr}
 1813              		.cfi_def_cfa_offset 24
 1814              		.cfi_offset 3, -24
 1815              		.cfi_offset 4, -20
 1816              		.cfi_offset 5, -16
 1817              		.cfi_offset 6, -12
 1818              		.cfi_offset 7, -8
 1819              		.cfi_offset 14, -4
 874:sdc/ff.c      **** 		return 1;
 1820              		.loc 1 874 0 discriminator 1
 1821 0006 4369     		ldr	r3, [r0, #20]
 1822 0008 9942     		cmp	r1, r3
 1823 000a 5ED2     		bcs	.L162
 1824 000c 0C46     		mov	r4, r1
 1825 000e 0546     		mov	r5, r0
 877:sdc/ff.c      **** 	case FS_FAT12 :
 1826              		.loc 1 877 0
 1827 0010 0378     		ldrb	r3, [r0]	@ zero_extendqisi2
 1828 0012 022B     		cmp	r3, #2
 1829 0014 29D0     		beq	.L157
 1830 0016 032B     		cmp	r3, #3
 1831 0018 3AD0     		beq	.L158
 1832 001a 012B     		cmp	r3, #1
 1833 001c 57D1     		bne	.L168
 1834              	.LVL243:
 879:sdc/ff.c      **** 		if (move_window(fs, fs->fatbase + (bc / SS(fs)))) break;
 1835              		.loc 1 879 0
 1836 001e 01EB5107 		add	r7, r1, r1, lsr #1
 1837              	.LVL244:
 880:sdc/ff.c      **** 		wc = fs->win[bc % SS(fs)]; bc++;
 1838              		.loc 1 880 0
 1839 0022 016A     		ldr	r1, [r0, #32]
 1840              	.LVL245:
 1841 0024 01EB5721 		add	r1, r1, r7, lsr #9
 1842 0028 FFF7FEFF 		bl	move_window
 1843              	.LVL246:
 1844 002c 0028     		cmp	r0, #0
 1845 002e 50D1     		bne	.L164
 881:sdc/ff.c      **** 		if (move_window(fs, fs->fatbase + (bc / SS(fs)))) break;
 1846              		.loc 1 881 0
 1847 0030 C7F30803 		ubfx	r3, r7, #0, #9
 1848 0034 2B44     		add	r3, r3, r5
 1849 0036 93F83060 		ldrb	r6, [r3, #48]	@ zero_extendqisi2
 1850              	.LVL247:
 1851 003a 0137     		adds	r7, r7, #1
ARM GAS  C:\Users\cronos\AppData\Local\Temp\ccinF6bS.s 			page 78


 1852              	.LVL248:
 882:sdc/ff.c      **** 		wc |= fs->win[bc % SS(fs)] << 8;
 1853              		.loc 1 882 0
 1854 003c 296A     		ldr	r1, [r5, #32]
 1855 003e 01EB5721 		add	r1, r1, r7, lsr #9
 1856 0042 2846     		mov	r0, r5
 1857 0044 FFF7FEFF 		bl	move_window
 1858              	.LVL249:
 1859 0048 0028     		cmp	r0, #0
 1860 004a 45D1     		bne	.L165
 883:sdc/ff.c      **** 		return clst & 1 ? wc >> 4 : (wc & 0xFFF);
 1861              		.loc 1 883 0
 1862 004c C7F30807 		ubfx	r7, r7, #0, #9
 1863              	.LVL250:
 1864 0050 E819     		adds	r0, r5, r7
 1865 0052 90F83000 		ldrb	r0, [r0, #48]	@ zero_extendqisi2
 1866 0056 46EA0020 		orr	r0, r6, r0, lsl #8
 1867              	.LVL251:
 884:sdc/ff.c      **** 
 1868              		.loc 1 884 0
 1869 005a 14F0010F 		tst	r4, #1
 1870 005e 01D0     		beq	.L160
 884:sdc/ff.c      **** 
 1871              		.loc 1 884 0 is_stmt 0 discriminator 1
 1872 0060 0009     		lsrs	r0, r0, #4
 1873              	.LVL252:
 1874 0062 F8BD     		pop	{r3, r4, r5, r6, r7, pc}
 1875              	.LVL253:
 1876              	.L160:
 884:sdc/ff.c      **** 
 1877              		.loc 1 884 0 discriminator 2
 1878 0064 C0F30B00 		ubfx	r0, r0, #0, #12
 1879              	.LVL254:
 1880 0068 F8BD     		pop	{r3, r4, r5, r6, r7, pc}
 1881              	.LVL255:
 1882              	.L157:
 887:sdc/ff.c      **** 		p = &fs->win[clst * 2 % SS(fs)];
 1883              		.loc 1 887 0 is_stmt 1
 1884 006a 016A     		ldr	r1, [r0, #32]
 1885              	.LVL256:
 1886 006c 01EB1421 		add	r1, r1, r4, lsr #8
 1887 0070 FFF7FEFF 		bl	move_window
 1888              	.LVL257:
 1889 0074 98BB     		cbnz	r0, .L166
 888:sdc/ff.c      **** 		return LD_WORD(p);
 1890              		.loc 1 888 0
 1891 0076 6100     		lsls	r1, r4, #1
 1892 0078 01F4FF71 		and	r1, r1, #510
 1893 007c 01F13003 		add	r3, r1, #48
 1894 0080 2B44     		add	r3, r3, r5
 1895              	.LVL258:
 889:sdc/ff.c      **** 
 1896              		.loc 1 889 0
 1897 0082 5878     		ldrb	r0, [r3, #1]	@ zero_extendqisi2
 1898 0084 0D44     		add	r5, r5, r1
 1899              	.LVL259:
 1900 0086 95F83030 		ldrb	r3, [r5, #48]	@ zero_extendqisi2
ARM GAS  C:\Users\cronos\AppData\Local\Temp\ccinF6bS.s 			page 79


 1901              	.LVL260:
 1902 008a 43EA0020 		orr	r0, r3, r0, lsl #8
 1903 008e F8BD     		pop	{r3, r4, r5, r6, r7, pc}
 1904              	.LVL261:
 1905              	.L158:
 892:sdc/ff.c      **** 		p = &fs->win[clst * 4 % SS(fs)];
 1906              		.loc 1 892 0
 1907 0090 016A     		ldr	r1, [r0, #32]
 1908              	.LVL262:
 1909 0092 01EBD411 		add	r1, r1, r4, lsr #7
 1910 0096 FFF7FEFF 		bl	move_window
 1911              	.LVL263:
 1912 009a 18BB     		cbnz	r0, .L167
 893:sdc/ff.c      **** 		return LD_DWORD(p) & 0x0FFFFFFF;
 1913              		.loc 1 893 0
 1914 009c A100     		lsls	r1, r4, #2
 1915 009e 01F4FE71 		and	r1, r1, #508
 1916 00a2 01F13002 		add	r2, r1, #48
 1917 00a6 2A44     		add	r2, r2, r5
 1918              	.LVL264:
 894:sdc/ff.c      **** 
 1919              		.loc 1 894 0
 1920 00a8 D078     		ldrb	r0, [r2, #3]	@ zero_extendqisi2
 1921 00aa 9378     		ldrb	r3, [r2, #2]	@ zero_extendqisi2
 1922 00ac 1B04     		lsls	r3, r3, #16
 1923 00ae 43EA0063 		orr	r3, r3, r0, lsl #24
 1924 00b2 5078     		ldrb	r0, [r2, #1]	@ zero_extendqisi2
 1925 00b4 43EA0020 		orr	r0, r3, r0, lsl #8
 1926 00b8 0D44     		add	r5, r5, r1
 1927              	.LVL265:
 1928 00ba 95F83030 		ldrb	r3, [r5, #48]	@ zero_extendqisi2
 1929 00be 1843     		orrs	r0, r0, r3
 1930 00c0 20F07040 		bic	r0, r0, #-268435456
 1931 00c4 F8BD     		pop	{r3, r4, r5, r6, r7, pc}
 1932              	.LVL266:
 1933              	.L161:
 1934              		.cfi_def_cfa_offset 0
 1935              		.cfi_restore 3
 1936              		.cfi_restore 4
 1937              		.cfi_restore 5
 1938              		.cfi_restore 6
 1939              		.cfi_restore 7
 1940              		.cfi_restore 14
 875:sdc/ff.c      **** 
 1941              		.loc 1 875 0
 1942 00c6 0120     		movs	r0, #1
 1943              	.LVL267:
 901:sdc/ff.c      **** 
 1944              		.loc 1 901 0
 1945 00c8 7047     		bx	lr
 1946              	.LVL268:
 1947              	.L162:
 1948              		.cfi_def_cfa_offset 24
 1949              		.cfi_offset 3, -24
 1950              		.cfi_offset 4, -20
 1951              		.cfi_offset 5, -16
 1952              		.cfi_offset 6, -12
ARM GAS  C:\Users\cronos\AppData\Local\Temp\ccinF6bS.s 			page 80


 1953              		.cfi_offset 7, -8
 1954              		.cfi_offset 14, -4
 875:sdc/ff.c      **** 
 1955              		.loc 1 875 0
 1956 00ca 0120     		movs	r0, #1
 1957              	.LVL269:
 1958 00cc F8BD     		pop	{r3, r4, r5, r6, r7, pc}
 1959              	.LVL270:
 1960              	.L168:
 897:sdc/ff.c      **** 	}
 1961              		.loc 1 897 0
 1962 00ce 0120     		movs	r0, #1
 1963              	.LVL271:
 1964 00d0 F8BD     		pop	{r3, r4, r5, r6, r7, pc}
 1965              	.LVL272:
 1966              	.L164:
 900:sdc/ff.c      **** }
 1967              		.loc 1 900 0
 1968 00d2 4FF0FF30 		mov	r0, #-1
 1969 00d6 F8BD     		pop	{r3, r4, r5, r6, r7, pc}
 1970              	.LVL273:
 1971              	.L165:
 1972 00d8 4FF0FF30 		mov	r0, #-1
 1973 00dc F8BD     		pop	{r3, r4, r5, r6, r7, pc}
 1974              	.LVL274:
 1975              	.L166:
 1976 00de 4FF0FF30 		mov	r0, #-1
 1977 00e2 F8BD     		pop	{r3, r4, r5, r6, r7, pc}
 1978              	.LVL275:
 1979              	.L167:
 1980 00e4 4FF0FF30 		mov	r0, #-1
 901:sdc/ff.c      **** 
 1981              		.loc 1 901 0
 1982 00e8 F8BD     		pop	{r3, r4, r5, r6, r7, pc}
 1983              		.cfi_endproc
 1984              	.LFE8:
 1985              		.size	get_fat, .-get_fat
 1986 00ea 00BF     		.section	.text.dir_sdi,"ax",%progbits
 1987              		.align	2
 1988              		.thumb
 1989              		.thumb_func
 1990              		.type	dir_sdi, %function
 1991              	dir_sdi:
 1992              	.LFB12:
1121:sdc/ff.c      **** 	DWORD clst, sect;
 1993              		.loc 1 1121 0
 1994              		.cfi_startproc
 1995              		@ args = 0, pretend = 0, frame = 0
 1996              		@ frame_needed = 0, uses_anonymous_args = 0
 1997              	.LVL276:
 1998 0000 F8B5     		push	{r3, r4, r5, r6, r7, lr}
 1999              		.cfi_def_cfa_offset 24
 2000              		.cfi_offset 3, -24
 2001              		.cfi_offset 4, -20
 2002              		.cfi_offset 5, -16
 2003              		.cfi_offset 6, -12
 2004              		.cfi_offset 7, -8
ARM GAS  C:\Users\cronos\AppData\Local\Temp\ccinF6bS.s 			page 81


 2005              		.cfi_offset 14, -4
 2006 0002 0546     		mov	r5, r0
1126:sdc/ff.c      **** 	clst = dp->sclust;		/* Table start cluster (0:root) */
 2007              		.loc 1 1126 0
 2008 0004 C180     		strh	r1, [r0, #6]	@ movhi
1127:sdc/ff.c      **** 	if (clst == 1 || clst >= dp->fs->n_fatent)	/* Check start cluster range */
 2009              		.loc 1 1127 0
 2010 0006 8468     		ldr	r4, [r0, #8]
 2011              	.LVL277:
1128:sdc/ff.c      **** 		return FR_INT_ERR;
 2012              		.loc 1 1128 0
 2013 0008 012C     		cmp	r4, #1
 2014 000a 35D0     		beq	.L177
 2015 000c 0E46     		mov	r6, r1
1128:sdc/ff.c      **** 		return FR_INT_ERR;
 2016              		.loc 1 1128 0 is_stmt 0 discriminator 1
 2017 000e 0368     		ldr	r3, [r0]
 2018 0010 5A69     		ldr	r2, [r3, #20]
 2019 0012 9442     		cmp	r4, r2
 2020 0014 32D2     		bcs	.L178
1130:sdc/ff.c      **** 		clst = dp->fs->dirbase;
 2021              		.loc 1 1130 0 is_stmt 1
 2022 0016 1CB9     		cbnz	r4, .L172
1130:sdc/ff.c      **** 		clst = dp->fs->dirbase;
 2023              		.loc 1 1130 0 is_stmt 0 discriminator 1
 2024 0018 1A78     		ldrb	r2, [r3]	@ zero_extendqisi2
 2025 001a 032A     		cmp	r2, #3
 2026 001c 00D1     		bne	.L172
1131:sdc/ff.c      **** 
 2027              		.loc 1 1131 0 is_stmt 1
 2028 001e 5C6A     		ldr	r4, [r3, #36]
 2029              	.LVL278:
 2030              	.L172:
1133:sdc/ff.c      **** 		if (idx >= dp->fs->n_rootdir)	/* Is index out of range? */
 2031              		.loc 1 1133 0
 2032 0020 24B9     		cbnz	r4, .L173
1134:sdc/ff.c      **** 			return FR_INT_ERR;
 2033              		.loc 1 1134 0
 2034 0022 1A89     		ldrh	r2, [r3, #8]
 2035 0024 9642     		cmp	r6, r2
 2036 0026 2BD2     		bcs	.L179
1136:sdc/ff.c      **** 	}
 2037              		.loc 1 1136 0
 2038 0028 586A     		ldr	r0, [r3, #36]
 2039              	.LVL279:
 2040 002a 17E0     		b	.L174
 2041              	.LVL280:
 2042              	.L173:
1139:sdc/ff.c      **** 		while (idx >= ic) {	/* Follow cluster chain */
 2043              		.loc 1 1139 0
 2044 002c 9F78     		ldrb	r7, [r3, #2]	@ zero_extendqisi2
 2045 002e 3F01     		lsls	r7, r7, #4
 2046              	.LVL281:
1140:sdc/ff.c      **** 			clst = get_fat(dp->fs, clst);				/* Get next cluster */
 2047              		.loc 1 1140 0
 2048 0030 0EE0     		b	.L175
 2049              	.LVL282:
ARM GAS  C:\Users\cronos\AppData\Local\Temp\ccinF6bS.s 			page 82


 2050              	.L176:
1141:sdc/ff.c      **** 			if (clst == 0xFFFFFFFF) return FR_DISK_ERR;	/* Disk error */
 2051              		.loc 1 1141 0
 2052 0032 2146     		mov	r1, r4
 2053 0034 2868     		ldr	r0, [r5]
 2054 0036 FFF7FEFF 		bl	get_fat
 2055              	.LVL283:
 2056 003a 0446     		mov	r4, r0
 2057              	.LVL284:
1142:sdc/ff.c      **** 			if (clst < 2 || clst >= dp->fs->n_fatent)	/* Reached to end of table or internal error */
 2058              		.loc 1 1142 0
 2059 003c B0F1FF3F 		cmp	r0, #-1
 2060 0040 20D0     		beq	.L180
1143:sdc/ff.c      **** 				return FR_INT_ERR;
 2061              		.loc 1 1143 0
 2062 0042 0128     		cmp	r0, #1
 2063 0044 20D9     		bls	.L181
1143:sdc/ff.c      **** 				return FR_INT_ERR;
 2064              		.loc 1 1143 0 is_stmt 0 discriminator 1
 2065 0046 2B68     		ldr	r3, [r5]
 2066 0048 5B69     		ldr	r3, [r3, #20]
 2067 004a 9842     		cmp	r0, r3
 2068 004c 1ED2     		bcs	.L182
1145:sdc/ff.c      **** 		}
 2069              		.loc 1 1145 0 is_stmt 1
 2070 004e F61B     		subs	r6, r6, r7
 2071              	.LVL285:
 2072              	.L175:
1140:sdc/ff.c      **** 			clst = get_fat(dp->fs, clst);				/* Get next cluster */
 2073              		.loc 1 1140 0
 2074 0050 BE42     		cmp	r6, r7
 2075 0052 EED2     		bcs	.L176
1147:sdc/ff.c      **** 	}
 2076              		.loc 1 1147 0
 2077 0054 2146     		mov	r1, r4
 2078 0056 2868     		ldr	r0, [r5]
 2079 0058 FFF7FEFF 		bl	clust2sect
 2080              	.LVL286:
 2081              	.L174:
1149:sdc/ff.c      **** 	if (!sect) return FR_INT_ERR;
 2082              		.loc 1 1149 0
 2083 005c EC60     		str	r4, [r5, #12]
1150:sdc/ff.c      **** 	dp->sect = sect + idx / (SS(dp->fs) / SZ_DIR);					/* Sector# of the directory entry */
 2084              		.loc 1 1150 0
 2085 005e B8B1     		cbz	r0, .L183
1151:sdc/ff.c      **** 	dp->dir = dp->fs->win + (idx % (SS(dp->fs) / SZ_DIR)) * SZ_DIR;	/* Ptr to the entry in the sector 
 2086              		.loc 1 1151 0
 2087 0060 00EB1610 		add	r0, r0, r6, lsr #4
 2088              	.LVL287:
 2089 0064 2861     		str	r0, [r5, #16]
1152:sdc/ff.c      **** 
 2090              		.loc 1 1152 0
 2091 0066 2B68     		ldr	r3, [r5]
 2092 0068 3033     		adds	r3, r3, #48
 2093 006a 06F00F06 		and	r6, r6, #15
 2094              	.LVL288:
 2095 006e 03EB4616 		add	r6, r3, r6, lsl #5
ARM GAS  C:\Users\cronos\AppData\Local\Temp\ccinF6bS.s 			page 83


 2096 0072 6E61     		str	r6, [r5, #20]
1154:sdc/ff.c      **** }
 2097              		.loc 1 1154 0
 2098 0074 0020     		movs	r0, #0
 2099 0076 F8BD     		pop	{r3, r4, r5, r6, r7, pc}
 2100              	.LVL289:
 2101              	.L177:
1129:sdc/ff.c      **** 	if (!clst && dp->fs->fs_type == FS_FAT32)	/* Replace cluster# 0 with root cluster# if in FAT32 */
 2102              		.loc 1 1129 0
 2103 0078 0220     		movs	r0, #2
 2104              	.LVL290:
 2105 007a F8BD     		pop	{r3, r4, r5, r6, r7, pc}
 2106              	.LVL291:
 2107              	.L178:
 2108 007c 0220     		movs	r0, #2
 2109              	.LVL292:
 2110 007e F8BD     		pop	{r3, r4, r5, r6, r7, pc}
 2111              	.LVL293:
 2112              	.L179:
1135:sdc/ff.c      **** 		sect = dp->fs->dirbase;
 2113              		.loc 1 1135 0
 2114 0080 0220     		movs	r0, #2
 2115              	.LVL294:
 2116 0082 F8BD     		pop	{r3, r4, r5, r6, r7, pc}
 2117              	.LVL295:
 2118              	.L180:
1142:sdc/ff.c      **** 			if (clst < 2 || clst >= dp->fs->n_fatent)	/* Reached to end of table or internal error */
 2119              		.loc 1 1142 0
 2120 0084 0120     		movs	r0, #1
 2121              	.LVL296:
 2122 0086 F8BD     		pop	{r3, r4, r5, r6, r7, pc}
 2123              	.LVL297:
 2124              	.L181:
1144:sdc/ff.c      **** 			idx -= ic;
 2125              		.loc 1 1144 0
 2126 0088 0220     		movs	r0, #2
 2127              	.LVL298:
 2128 008a F8BD     		pop	{r3, r4, r5, r6, r7, pc}
 2129              	.LVL299:
 2130              	.L182:
 2131 008c 0220     		movs	r0, #2
 2132              	.LVL300:
 2133 008e F8BD     		pop	{r3, r4, r5, r6, r7, pc}
 2134              	.LVL301:
 2135              	.L183:
1150:sdc/ff.c      **** 	dp->sect = sect + idx / (SS(dp->fs) / SZ_DIR);					/* Sector# of the directory entry */
 2136              		.loc 1 1150 0
 2137 0090 0220     		movs	r0, #2
 2138              	.LVL302:
1155:sdc/ff.c      **** 
 2139              		.loc 1 1155 0
 2140 0092 F8BD     		pop	{r3, r4, r5, r6, r7, pc}
 2141              		.cfi_endproc
 2142              	.LFE12:
 2143              		.size	dir_sdi, .-dir_sdi
 2144              		.section	.text.dir_remove,"ax",%progbits
 2145              		.align	2
ARM GAS  C:\Users\cronos\AppData\Local\Temp\ccinF6bS.s 			page 84


 2146              		.thumb
 2147              		.thumb_func
 2148              		.type	dir_remove, %function
 2149              	dir_remove:
 2150              	.LFB20:
1691:sdc/ff.c      **** 	FRESULT res;
 2151              		.loc 1 1691 0
 2152              		.cfi_startproc
 2153              		@ args = 0, pretend = 0, frame = 0
 2154              		@ frame_needed = 0, uses_anonymous_args = 0
 2155              	.LVL303:
 2156 0000 38B5     		push	{r3, r4, r5, lr}
 2157              		.cfi_def_cfa_offset 16
 2158              		.cfi_offset 3, -16
 2159              		.cfi_offset 4, -12
 2160              		.cfi_offset 5, -8
 2161              		.cfi_offset 14, -4
 2162 0002 0446     		mov	r4, r0
1712:sdc/ff.c      **** 	if (res == FR_OK) {
 2163              		.loc 1 1712 0
 2164 0004 C188     		ldrh	r1, [r0, #6]
 2165 0006 FFF7FEFF 		bl	dir_sdi
 2166              	.LVL304:
1713:sdc/ff.c      **** 		res = move_window(dp->fs, dp->sect);
 2167              		.loc 1 1713 0
 2168 000a 0546     		mov	r5, r0
 2169 000c 80B9     		cbnz	r0, .L186
1714:sdc/ff.c      **** 		if (res == FR_OK) {
 2170              		.loc 1 1714 0
 2171 000e 2169     		ldr	r1, [r4, #16]
 2172 0010 2068     		ldr	r0, [r4]
 2173              	.LVL305:
 2174 0012 FFF7FEFF 		bl	move_window
 2175              	.LVL306:
1715:sdc/ff.c      **** 			mem_set(dp->dir, 0, SZ_DIR);	/* Clear and mark the entry "deleted" */
 2176              		.loc 1 1715 0
 2177 0016 0546     		mov	r5, r0
 2178 0018 50B9     		cbnz	r0, .L186
1716:sdc/ff.c      **** 			*dp->dir = DDE;
 2179              		.loc 1 1716 0
 2180 001a 2022     		movs	r2, #32
 2181 001c 0021     		movs	r1, #0
 2182 001e 6069     		ldr	r0, [r4, #20]
 2183              	.LVL307:
 2184 0020 FFF7FEFF 		bl	mem_set
 2185              	.LVL308:
1717:sdc/ff.c      **** 			dp->fs->wflag = 1;
 2186              		.loc 1 1717 0
 2187 0024 6369     		ldr	r3, [r4, #20]
 2188 0026 E522     		movs	r2, #229
 2189 0028 1A70     		strb	r2, [r3]
1718:sdc/ff.c      **** 		}
 2190              		.loc 1 1718 0
 2191 002a 2368     		ldr	r3, [r4]
 2192 002c 0122     		movs	r2, #1
 2193 002e 1A71     		strb	r2, [r3, #4]
 2194              	.L186:
ARM GAS  C:\Users\cronos\AppData\Local\Temp\ccinF6bS.s 			page 85


 2195              	.LVL309:
1724:sdc/ff.c      **** #endif /* !_FS_READONLY */
 2196              		.loc 1 1724 0
 2197 0030 2846     		mov	r0, r5
 2198 0032 38BD     		pop	{r3, r4, r5, pc}
 2199              		.cfi_endproc
 2200              	.LFE20:
 2201              		.size	dir_remove, .-dir_remove
 2202              		.section	.text.put_fat,"ax",%progbits
 2203              		.align	2
 2204              		.global	put_fat
 2205              		.thumb
 2206              		.thumb_func
 2207              		.type	put_fat, %function
 2208              	put_fat:
 2209              	.LFB9:
 916:sdc/ff.c      **** 	UINT bc;
 2210              		.loc 1 916 0
 2211              		.cfi_startproc
 2212              		@ args = 0, pretend = 0, frame = 0
 2213              		@ frame_needed = 0, uses_anonymous_args = 0
 2214              	.LVL310:
 2215 0000 F8B5     		push	{r3, r4, r5, r6, r7, lr}
 2216              		.cfi_def_cfa_offset 24
 2217              		.cfi_offset 3, -24
 2218              		.cfi_offset 4, -20
 2219              		.cfi_offset 5, -16
 2220              		.cfi_offset 6, -12
 2221              		.cfi_offset 7, -8
 2222              		.cfi_offset 14, -4
 922:sdc/ff.c      **** 		res = FR_INT_ERR;
 2223              		.loc 1 922 0
 2224 0002 0129     		cmp	r1, #1
 2225 0004 7FD9     		bls	.L198
 922:sdc/ff.c      **** 		res = FR_INT_ERR;
 2226              		.loc 1 922 0 is_stmt 0 discriminator 1
 2227 0006 4369     		ldr	r3, [r0, #20]
 2228 0008 9942     		cmp	r1, r3
 2229 000a 7ED2     		bcs	.L199
 2230 000c 1646     		mov	r6, r2
 2231 000e 0C46     		mov	r4, r1
 2232 0010 0546     		mov	r5, r0
 926:sdc/ff.c      **** 		case FS_FAT12 :
 2233              		.loc 1 926 0 is_stmt 1
 2234 0012 0378     		ldrb	r3, [r0]	@ zero_extendqisi2
 2235 0014 022B     		cmp	r3, #2
 2236 0016 3DD0     		beq	.L191
 2237 0018 032B     		cmp	r3, #3
 2238 001a 4FD0     		beq	.L192
 2239 001c 012B     		cmp	r3, #1
 2240 001e 6ED1     		bne	.L201
 2241              	.LVL311:
 928:sdc/ff.c      **** 			res = move_window(fs, fs->fatbase + (bc / SS(fs)));
 2242              		.loc 1 928 0
 2243 0020 01EB5107 		add	r7, r1, r1, lsr #1
 2244              	.LVL312:
 929:sdc/ff.c      **** 			if (res != FR_OK) break;
ARM GAS  C:\Users\cronos\AppData\Local\Temp\ccinF6bS.s 			page 86


 2245              		.loc 1 929 0
 2246 0024 016A     		ldr	r1, [r0, #32]
 2247              	.LVL313:
 2248 0026 01EB5721 		add	r1, r1, r7, lsr #9
 2249 002a FFF7FEFF 		bl	move_window
 2250              	.LVL314:
 930:sdc/ff.c      **** 			p = &fs->win[bc % SS(fs)];
 2251              		.loc 1 930 0
 2252 002e 0346     		mov	r3, r0
 2253 0030 0028     		cmp	r0, #0
 2254 0032 65D1     		bne	.L190
 931:sdc/ff.c      **** 			*p = (clst & 1) ? ((*p & 0x0F) | ((BYTE)val << 4)) : (BYTE)val;
 2255              		.loc 1 931 0
 2256 0034 C7F30802 		ubfx	r2, r7, #0, #9
 2257              	.LVL315:
 932:sdc/ff.c      **** 			bc++;
 2258              		.loc 1 932 0
 2259 0038 14F00104 		ands	r4, r4, #1
 2260              	.LVL316:
 2261 003c 08D0     		beq	.L194
 932:sdc/ff.c      **** 			bc++;
 2262              		.loc 1 932 0 is_stmt 0 discriminator 1
 2263 003e AB18     		adds	r3, r5, r2
 2264 0040 93F83030 		ldrb	r3, [r3, #48]	@ zero_extendqisi2
 2265 0044 03F00F03 		and	r3, r3, #15
 2266 0048 43EA0613 		orr	r3, r3, r6, lsl #4
 2267 004c DBB2     		uxtb	r3, r3
 2268 004e 00E0     		b	.L195
 2269              	.L194:
 932:sdc/ff.c      **** 			bc++;
 2270              		.loc 1 932 0 discriminator 2
 2271 0050 F3B2     		uxtb	r3, r6
 2272              	.L195:
 932:sdc/ff.c      **** 			bc++;
 2273              		.loc 1 932 0 discriminator 4
 2274 0052 2A44     		add	r2, r2, r5
 2275              	.LVL317:
 2276 0054 82F83030 		strb	r3, [r2, #48]
 933:sdc/ff.c      **** 			fs->wflag = 1;
 2277              		.loc 1 933 0 is_stmt 1 discriminator 4
 2278 0058 0137     		adds	r7, r7, #1
 2279              	.LVL318:
 934:sdc/ff.c      **** 			res = move_window(fs, fs->fatbase + (bc / SS(fs)));
 2280              		.loc 1 934 0 discriminator 4
 2281 005a 0123     		movs	r3, #1
 2282 005c 2B71     		strb	r3, [r5, #4]
 935:sdc/ff.c      **** 			if (res != FR_OK) break;
 2283              		.loc 1 935 0 discriminator 4
 2284 005e 296A     		ldr	r1, [r5, #32]
 2285 0060 01EB5721 		add	r1, r1, r7, lsr #9
 2286 0064 2846     		mov	r0, r5
 2287              	.LVL319:
 2288 0066 FFF7FEFF 		bl	move_window
 2289              	.LVL320:
 936:sdc/ff.c      **** 			p = &fs->win[bc % SS(fs)];
 2290              		.loc 1 936 0 discriminator 4
 2291 006a 0346     		mov	r3, r0
ARM GAS  C:\Users\cronos\AppData\Local\Temp\ccinF6bS.s 			page 87


 2292 006c 0028     		cmp	r0, #0
 2293 006e 47D1     		bne	.L190
 937:sdc/ff.c      **** 			*p = (clst & 1) ? (BYTE)(val >> 4) : ((*p & 0xF0) | ((BYTE)(val >> 8) & 0x0F));
 2294              		.loc 1 937 0
 2295 0070 C7F30807 		ubfx	r7, r7, #0, #9
 2296              	.LVL321:
 938:sdc/ff.c      **** 			break;
 2297              		.loc 1 938 0
 2298 0074 14B1     		cbz	r4, .L196
 938:sdc/ff.c      **** 			break;
 2299              		.loc 1 938 0 is_stmt 0 discriminator 1
 2300 0076 C6F30712 		ubfx	r2, r6, #4, #8
 2301 007a 07E0     		b	.L197
 2302              	.L196:
 938:sdc/ff.c      **** 			break;
 2303              		.loc 1 938 0 discriminator 2
 2304 007c EA19     		adds	r2, r5, r7
 2305 007e 92F83020 		ldrb	r2, [r2, #48]	@ zero_extendqisi2
 2306 0082 22F00F01 		bic	r1, r2, #15
 2307 0086 C6F30322 		ubfx	r2, r6, #8, #4
 2308 008a 0A43     		orrs	r2, r2, r1
 2309              	.L197:
 938:sdc/ff.c      **** 			break;
 2310              		.loc 1 938 0 discriminator 4
 2311 008c 2F44     		add	r7, r7, r5
 2312              	.LVL322:
 2313 008e 87F83020 		strb	r2, [r7, #48]
 939:sdc/ff.c      **** 
 2314              		.loc 1 939 0 is_stmt 1 discriminator 4
 2315 0092 35E0     		b	.L190
 2316              	.LVL323:
 2317              	.L191:
 942:sdc/ff.c      **** 			if (res != FR_OK) break;
 2318              		.loc 1 942 0
 2319 0094 016A     		ldr	r1, [r0, #32]
 2320              	.LVL324:
 2321 0096 01EB1421 		add	r1, r1, r4, lsr #8
 2322 009a FFF7FEFF 		bl	move_window
 2323              	.LVL325:
 943:sdc/ff.c      **** 			p = &fs->win[clst * 2 % SS(fs)];
 2324              		.loc 1 943 0
 2325 009e 0346     		mov	r3, r0
 2326 00a0 70BB     		cbnz	r0, .L190
 944:sdc/ff.c      **** 			ST_WORD(p, (WORD)val);
 2327              		.loc 1 944 0
 2328 00a2 6100     		lsls	r1, r4, #1
 2329 00a4 01F4FF71 		and	r1, r1, #510
 2330 00a8 01F13000 		add	r0, r1, #48
 2331              	.LVL326:
 2332 00ac 2844     		add	r0, r0, r5
 2333              	.LVL327:
 945:sdc/ff.c      **** 			break;
 2334              		.loc 1 945 0
 2335 00ae 2944     		add	r1, r1, r5
 2336 00b0 81F83060 		strb	r6, [r1, #48]
 2337 00b4 C6F30722 		ubfx	r2, r6, #8, #8
 2338 00b8 4270     		strb	r2, [r0, #1]
ARM GAS  C:\Users\cronos\AppData\Local\Temp\ccinF6bS.s 			page 88


 946:sdc/ff.c      **** 
 2339              		.loc 1 946 0
 2340 00ba 21E0     		b	.L190
 2341              	.LVL328:
 2342              	.L192:
 949:sdc/ff.c      **** 			if (res != FR_OK) break;
 2343              		.loc 1 949 0
 2344 00bc 016A     		ldr	r1, [r0, #32]
 2345              	.LVL329:
 2346 00be 01EBD411 		add	r1, r1, r4, lsr #7
 2347 00c2 FFF7FEFF 		bl	move_window
 2348              	.LVL330:
 950:sdc/ff.c      **** 			p = &fs->win[clst * 4 % SS(fs)];
 2349              		.loc 1 950 0
 2350 00c6 0346     		mov	r3, r0
 2351 00c8 D0B9     		cbnz	r0, .L190
 951:sdc/ff.c      **** 			val |= LD_DWORD(p) & 0xF0000000;
 2352              		.loc 1 951 0
 2353 00ca A100     		lsls	r1, r4, #2
 2354 00cc 01F4FE71 		and	r1, r1, #508
 2355 00d0 01F13000 		add	r0, r1, #48
 2356              	.LVL331:
 2357 00d4 2844     		add	r0, r0, r5
 2358              	.LVL332:
 952:sdc/ff.c      **** 			ST_DWORD(p, val);
 2359              		.loc 1 952 0
 2360 00d6 C478     		ldrb	r4, [r0, #3]	@ zero_extendqisi2
 2361              	.LVL333:
 2362 00d8 8278     		ldrb	r2, [r0, #2]	@ zero_extendqisi2
 2363 00da 1204     		lsls	r2, r2, #16
 2364 00dc 42EA0462 		orr	r2, r2, r4, lsl #24
 2365 00e0 2944     		add	r1, r1, r5
 2366 00e2 02F07042 		and	r2, r2, #-268435456
 2367 00e6 3243     		orrs	r2, r2, r6
 2368              	.LVL334:
 953:sdc/ff.c      **** 			break;
 2369              		.loc 1 953 0
 2370 00e8 81F83020 		strb	r2, [r1, #48]
 2371 00ec C2F30721 		ubfx	r1, r2, #8, #8
 2372 00f0 4170     		strb	r1, [r0, #1]
 2373 00f2 C2F30741 		ubfx	r1, r2, #16, #8
 2374 00f6 8170     		strb	r1, [r0, #2]
 2375 00f8 120E     		lsrs	r2, r2, #24
 2376              	.LVL335:
 2377 00fa C270     		strb	r2, [r0, #3]
 954:sdc/ff.c      **** 
 2378              		.loc 1 954 0
 2379 00fc 00E0     		b	.L190
 2380              	.LVL336:
 2381              	.L201:
 957:sdc/ff.c      **** 		}
 2382              		.loc 1 957 0
 2383 00fe 0223     		movs	r3, #2
 2384              	.LVL337:
 2385              	.L190:
 959:sdc/ff.c      **** 	}
 2386              		.loc 1 959 0
ARM GAS  C:\Users\cronos\AppData\Local\Temp\ccinF6bS.s 			page 89


 2387 0100 0122     		movs	r2, #1
 2388 0102 2A71     		strb	r2, [r5, #4]
 2389 0104 02E0     		b	.L189
 2390              	.LVL338:
 2391              	.L198:
 923:sdc/ff.c      **** 
 2392              		.loc 1 923 0
 2393 0106 0223     		movs	r3, #2
 2394 0108 00E0     		b	.L189
 2395              	.L199:
 2396 010a 0223     		movs	r3, #2
 2397              	.LVL339:
 2398              	.L189:
 963:sdc/ff.c      **** #endif /* !_FS_READONLY */
 2399              		.loc 1 963 0
 2400 010c 1846     		mov	r0, r3
 2401 010e F8BD     		pop	{r3, r4, r5, r6, r7, pc}
 2402              		.cfi_endproc
 2403              	.LFE9:
 2404              		.size	put_fat, .-put_fat
 2405              		.section	.text.create_chain,"ax",%progbits
 2406              		.align	2
 2407              		.thumb
 2408              		.thumb_func
 2409              		.type	create_chain, %function
 2410              	create_chain:
 2411              	.LFB11:
1031:sdc/ff.c      **** 	DWORD cs, ncl, scl;
 2412              		.loc 1 1031 0
 2413              		.cfi_startproc
 2414              		@ args = 0, pretend = 0, frame = 0
 2415              		@ frame_needed = 0, uses_anonymous_args = 0
 2416              	.LVL340:
 2417 0000 F8B5     		push	{r3, r4, r5, r6, r7, lr}
 2418              		.cfi_def_cfa_offset 24
 2419              		.cfi_offset 3, -24
 2420              		.cfi_offset 4, -20
 2421              		.cfi_offset 5, -16
 2422              		.cfi_offset 6, -12
 2423              		.cfi_offset 7, -8
 2424              		.cfi_offset 14, -4
 2425 0002 0546     		mov	r5, r0
1036:sdc/ff.c      **** 		scl = fs->last_clust;			/* Get suggested start point */
 2426              		.loc 1 1036 0
 2427 0004 0F46     		mov	r7, r1
 2428 0006 29B9     		cbnz	r1, .L204
1037:sdc/ff.c      **** 		if (!scl || scl >= fs->n_fatent) scl = 1;
 2429              		.loc 1 1037 0
 2430 0008 C668     		ldr	r6, [r0, #12]
 2431              	.LVL341:
1038:sdc/ff.c      **** 	}
 2432              		.loc 1 1038 0
 2433 000a 7EB1     		cbz	r6, .L212
1038:sdc/ff.c      **** 	}
 2434              		.loc 1 1038 0 is_stmt 0 discriminator 2
 2435 000c 4369     		ldr	r3, [r0, #20]
 2436 000e 9E42     		cmp	r6, r3
ARM GAS  C:\Users\cronos\AppData\Local\Temp\ccinF6bS.s 			page 90


 2437 0010 0ED2     		bcs	.L213
 2438 0012 0EE0     		b	.L205
 2439              	.LVL342:
 2440              	.L204:
1041:sdc/ff.c      **** 		if (cs < 2) return 1;			/* Invalid value */
 2441              		.loc 1 1041 0 is_stmt 1
 2442 0014 FFF7FEFF 		bl	get_fat
 2443              	.LVL343:
1042:sdc/ff.c      **** 		if (cs == 0xFFFFFFFF) return cs;	/* A disk error occurred */
 2444              		.loc 1 1042 0
 2445 0018 0128     		cmp	r0, #1
 2446 001a 41D9     		bls	.L214
1043:sdc/ff.c      **** 		if (cs < fs->n_fatent) return cs;	/* It is already followed by next cluster */
 2447              		.loc 1 1043 0
 2448 001c B0F1FF3F 		cmp	r0, #-1
 2449 0020 49D0     		beq	.L206
1044:sdc/ff.c      **** 		scl = clst;
 2450              		.loc 1 1044 0
 2451 0022 6B69     		ldr	r3, [r5, #20]
 2452 0024 9842     		cmp	r0, r3
 2453 0026 46D3     		bcc	.L206
1045:sdc/ff.c      **** 	}
 2454              		.loc 1 1045 0
 2455 0028 3E46     		mov	r6, r7
 2456 002a 02E0     		b	.L205
 2457              	.LVL344:
 2458              	.L212:
1038:sdc/ff.c      **** 	}
 2459              		.loc 1 1038 0
 2460 002c 0126     		movs	r6, #1
 2461              	.LVL345:
 2462 002e 00E0     		b	.L205
 2463              	.LVL346:
 2464              	.L213:
 2465 0030 0126     		movs	r6, #1
 2466              	.LVL347:
 2467              	.L205:
1048:sdc/ff.c      **** 	for (;;) {
 2468              		.loc 1 1048 0
 2469 0032 3446     		mov	r4, r6
 2470              	.LVL348:
 2471              	.L209:
1050:sdc/ff.c      **** 		if (ncl >= fs->n_fatent) {		/* Check wrap around */
 2472              		.loc 1 1050 0
 2473 0034 0134     		adds	r4, r4, #1
 2474              	.LVL349:
1051:sdc/ff.c      **** 			ncl = 2;
 2475              		.loc 1 1051 0
 2476 0036 6B69     		ldr	r3, [r5, #20]
 2477 0038 9C42     		cmp	r4, r3
 2478 003a 02D3     		bcc	.L207
 2479              	.LVL350:
1053:sdc/ff.c      **** 		}
 2480              		.loc 1 1053 0
 2481 003c 012E     		cmp	r6, #1
 2482 003e 31D9     		bls	.L217
1052:sdc/ff.c      **** 			if (ncl > scl) return 0;	/* No free cluster */
ARM GAS  C:\Users\cronos\AppData\Local\Temp\ccinF6bS.s 			page 91


 2483              		.loc 1 1052 0
 2484 0040 0224     		movs	r4, #2
 2485              	.LVL351:
 2486              	.L207:
1055:sdc/ff.c      **** 		if (cs == 0) break;				/* Found a free cluster */
 2487              		.loc 1 1055 0
 2488 0042 2146     		mov	r1, r4
 2489 0044 2846     		mov	r0, r5
 2490 0046 FFF7FEFF 		bl	get_fat
 2491              	.LVL352:
