ARM GAS  C:\Users\crono\AppData\Local\Temp\ccd4dy0n.s 			page 1


   1              		.syntax unified
   2              		.cpu cortex-m3
   3              		.fpu softvfp
   4              		.eabi_attribute 20, 1
   5              		.eabi_attribute 21, 1
   6              		.eabi_attribute 23, 3
   7              		.eabi_attribute 24, 1
   8              		.eabi_attribute 25, 1
   9              		.eabi_attribute 26, 1
  10              		.eabi_attribute 30, 1
  11              		.eabi_attribute 34, 1
  12              		.eabi_attribute 18, 4
  13              		.thumb
  14              		.syntax unified
  15              		.file	"minmea.c"
  16              		.text
  17              	.Ltext0:
  18              		.cfi_sections	.debug_frame
  19              		.section	.text.hex2int,"ax",%progbits
  20              		.align	2
  21              		.thumb
  22              		.thumb_func
  23              		.type	hex2int, %function
  24              	hex2int:
  25              	.LFB4:
  26              		.file 1 "minmea\\minmea.c"
   1:minmea/minmea.c **** /*
   2:minmea/minmea.c ****  * Copyright © 2014 Kosma Moczek <kosma@cloudyourcar.com>
   3:minmea/minmea.c ****  * This program is free software. It comes without any warranty, to the extent
   4:minmea/minmea.c ****  * permitted by applicable law. You can redistribute it and/or modify it under
   5:minmea/minmea.c ****  * the terms of the Do What The Fuck You Want To Public License, Version 2, as
   6:minmea/minmea.c ****  * published by Sam Hocevar. See the COPYING file for more details.
   7:minmea/minmea.c ****  */
   8:minmea/minmea.c **** 
   9:minmea/minmea.c **** #include "minmea.h"
  10:minmea/minmea.c **** 
  11:minmea/minmea.c **** #include <stdlib.h>
  12:minmea/minmea.c **** #include <string.h>
  13:minmea/minmea.c **** #include <ctype.h>
  14:minmea/minmea.c **** #include <stdarg.h>
  15:minmea/minmea.c **** #include <time.h>
  16:minmea/minmea.c **** 
  17:minmea/minmea.c **** #define boolstr(s) ((s) ? "true" : "false")
  18:minmea/minmea.c **** 
  19:minmea/minmea.c **** static int hex2int(char c)
  20:minmea/minmea.c **** {
  27              		.loc 1 20 0
  28              		.cfi_startproc
  29              		@ args = 0, pretend = 0, frame = 0
  30              		@ frame_needed = 0, uses_anonymous_args = 0
  31              		@ link register save eliminated.
  32              	.LVL0:
  21:minmea/minmea.c ****     if (c >= '0' && c <= '9')
  33              		.loc 1 21 0
  34 0000 A0F13003 		sub	r3, r0, #48
  35 0004 DBB2     		uxtb	r3, r3
  36 0006 092B     		cmp	r3, #9
ARM GAS  C:\Users\crono\AppData\Local\Temp\ccd4dy0n.s 			page 2


  37 0008 01D8     		bhi	.L2
  22:minmea/minmea.c ****         return c - '0';
  38              		.loc 1 22 0
  39 000a 3038     		subs	r0, r0, #48
  40              	.LVL1:
  41 000c 7047     		bx	lr
  42              	.LVL2:
  43              	.L2:
  23:minmea/minmea.c ****     if (c >= 'A' && c <= 'F')
  44              		.loc 1 23 0
  45 000e A0F14103 		sub	r3, r0, #65
  46 0012 DBB2     		uxtb	r3, r3
  47 0014 052B     		cmp	r3, #5
  48 0016 01D8     		bhi	.L4
  24:minmea/minmea.c ****         return c - 'A' + 10;
  49              		.loc 1 24 0
  50 0018 3738     		subs	r0, r0, #55
  51              	.LVL3:
  52 001a 7047     		bx	lr
  53              	.LVL4:
  54              	.L4:
  25:minmea/minmea.c ****     if (c >= 'a' && c <= 'f')
  55              		.loc 1 25 0
  56 001c A0F16103 		sub	r3, r0, #97
  57 0020 DBB2     		uxtb	r3, r3
  58 0022 052B     		cmp	r3, #5
  59 0024 01D8     		bhi	.L5
  26:minmea/minmea.c ****         return c - 'a' + 10;
  60              		.loc 1 26 0
  61 0026 5738     		subs	r0, r0, #87
  62              	.LVL5:
  63 0028 7047     		bx	lr
  64              	.LVL6:
  65              	.L5:
  27:minmea/minmea.c ****     return -1;
  66              		.loc 1 27 0
  67 002a 4FF0FF30 		mov	r0, #-1
  68              	.LVL7:
  28:minmea/minmea.c **** }
  69              		.loc 1 28 0
  70 002e 7047     		bx	lr
  71              		.cfi_endproc
  72              	.LFE4:
  73              		.size	hex2int, .-hex2int
  74              		.section	.text.minmea_checksum,"ax",%progbits
  75              		.align	2
  76              		.global	minmea_checksum
  77              		.thumb
  78              		.thumb_func
  79              		.type	minmea_checksum, %function
  80              	minmea_checksum:
  81              	.LFB5:
  29:minmea/minmea.c **** 
  30:minmea/minmea.c **** uint8_t minmea_checksum(const char *sentence)
  31:minmea/minmea.c **** {
  82              		.loc 1 31 0
  83              		.cfi_startproc
ARM GAS  C:\Users\crono\AppData\Local\Temp\ccd4dy0n.s 			page 3


  84              		@ args = 0, pretend = 0, frame = 0
  85              		@ frame_needed = 0, uses_anonymous_args = 0
  86              		@ link register save eliminated.
  87              	.LVL8:
  88 0000 0246     		mov	r2, r0
  32:minmea/minmea.c ****     // Support senteces with or without the starting dollar sign.
  33:minmea/minmea.c ****     if (*sentence == '$')
  89              		.loc 1 33 0
  90 0002 0378     		ldrb	r3, [r0]	@ zero_extendqisi2
  91 0004 242B     		cmp	r3, #36
  92 0006 00D1     		bne	.L7
  34:minmea/minmea.c ****         sentence++;
  93              		.loc 1 34 0
  94 0008 0132     		adds	r2, r2, #1
  95              	.LVL9:
  96              	.L7:
  31:minmea/minmea.c ****     // Support senteces with or without the starting dollar sign.
  97              		.loc 1 31 0
  98 000a 0020     		movs	r0, #0
  99 000c 01E0     		b	.L8
 100              	.LVL10:
 101              	.L10:
  35:minmea/minmea.c **** 
  36:minmea/minmea.c ****     uint8_t checksum = 0x00;
  37:minmea/minmea.c **** 
  38:minmea/minmea.c ****     // The optional checksum is an XOR of all bytes between "$" and "*".
  39:minmea/minmea.c ****     while (*sentence && *sentence != '*')
  40:minmea/minmea.c ****         checksum ^= *sentence++;
 102              		.loc 1 40 0
 103 000e 0132     		adds	r2, r2, #1
 104              	.LVL11:
 105 0010 5840     		eors	r0, r0, r3
 106              	.LVL12:
 107              	.L8:
  39:minmea/minmea.c ****         checksum ^= *sentence++;
 108              		.loc 1 39 0
 109 0012 1378     		ldrb	r3, [r2]	@ zero_extendqisi2
 110 0014 0BB1     		cbz	r3, .L9
  39:minmea/minmea.c ****         checksum ^= *sentence++;
 111              		.loc 1 39 0 is_stmt 0 discriminator 1
 112 0016 2A2B     		cmp	r3, #42
 113 0018 F9D1     		bne	.L10
 114              	.L9:
  41:minmea/minmea.c **** 
  42:minmea/minmea.c ****     return checksum;
  43:minmea/minmea.c **** }
 115              		.loc 1 43 0 is_stmt 1
 116 001a 7047     		bx	lr
 117              		.cfi_endproc
 118              	.LFE5:
 119              		.size	minmea_checksum, .-minmea_checksum
 120              		.section	.text.minmea_check,"ax",%progbits
 121              		.align	2
 122              		.global	minmea_check
 123              		.thumb
 124              		.thumb_func
 125              		.type	minmea_check, %function
ARM GAS  C:\Users\crono\AppData\Local\Temp\ccd4dy0n.s 			page 4


 126              	minmea_check:
 127              	.LFB6:
  44:minmea/minmea.c **** 
  45:minmea/minmea.c **** bool minmea_check(const char *sentence, bool strict)
  46:minmea/minmea.c **** {
 128              		.loc 1 46 0
 129              		.cfi_startproc
 130              		@ args = 0, pretend = 0, frame = 0
 131              		@ frame_needed = 0, uses_anonymous_args = 0
 132              	.LVL13:
 133 0000 F8B5     		push	{r3, r4, r5, r6, r7, lr}
 134              		.cfi_def_cfa_offset 24
 135              		.cfi_offset 3, -24
 136              		.cfi_offset 4, -20
 137              		.cfi_offset 5, -16
 138              		.cfi_offset 6, -12
 139              		.cfi_offset 7, -8
 140              		.cfi_offset 14, -4
 141 0002 0546     		mov	r5, r0
 142 0004 0E46     		mov	r6, r1
 143              	.LVL14:
  47:minmea/minmea.c ****     uint8_t checksum = 0x00;
  48:minmea/minmea.c **** 
  49:minmea/minmea.c ****     // Sequence length is limited.
  50:minmea/minmea.c ****     if (strlen(sentence) > MINMEA_MAX_LENGTH + 3)
 144              		.loc 1 50 0
 145 0006 FFF7FEFF 		bl	strlen
 146              	.LVL15:
 147 000a 5328     		cmp	r0, #83
 148 000c 37D8     		bhi	.L18
  51:minmea/minmea.c ****         return false;
  52:minmea/minmea.c **** 
  53:minmea/minmea.c ****     // A valid sentence starts with "$".
  54:minmea/minmea.c ****     if (*sentence++ != '$')
 149              		.loc 1 54 0
 150 000e 6C1C     		adds	r4, r5, #1
 151              	.LVL16:
 152 0010 2B78     		ldrb	r3, [r5]	@ zero_extendqisi2
 153 0012 242B     		cmp	r3, #36
 154 0014 35D1     		bne	.L19
 155 0016 0025     		movs	r5, #0
 156 0018 01E0     		b	.L13
 157              	.LVL17:
 158              	.L15:
  55:minmea/minmea.c ****         return false;
  56:minmea/minmea.c **** 
  57:minmea/minmea.c ****     // The optional checksum is an XOR of all bytes between "$" and "*".
  58:minmea/minmea.c ****     while (*sentence && *sentence != '*' && isprint((unsigned char) *sentence))
  59:minmea/minmea.c ****         checksum ^= *sentence++;
 159              		.loc 1 59 0
 160 001a 0134     		adds	r4, r4, #1
 161              	.LVL18:
 162 001c 5D40     		eors	r5, r5, r3
 163              	.LVL19:
 164              	.L13:
  58:minmea/minmea.c ****         checksum ^= *sentence++;
 165              		.loc 1 58 0
ARM GAS  C:\Users\crono\AppData\Local\Temp\ccd4dy0n.s 			page 5


 166 001e 2378     		ldrb	r3, [r4]	@ zero_extendqisi2
 167 0020 43B1     		cbz	r3, .L14
  58:minmea/minmea.c ****         checksum ^= *sentence++;
 168              		.loc 1 58 0 is_stmt 0 discriminator 1
 169 0022 2A2B     		cmp	r3, #42
 170 0024 06D0     		beq	.L14
  58:minmea/minmea.c ****         checksum ^= *sentence++;
 171              		.loc 1 58 0 discriminator 2
 172 0026 1F4A     		ldr	r2, .L28
 173 0028 1268     		ldr	r2, [r2]
 174 002a 1A44     		add	r2, r2, r3
 175 002c 5278     		ldrb	r2, [r2, #1]	@ zero_extendqisi2
 176 002e 12F0970F 		tst	r2, #151
 177 0032 F2D1     		bne	.L15
 178              	.L14:
  60:minmea/minmea.c **** 
  61:minmea/minmea.c ****     // If checksum is present...
  62:minmea/minmea.c ****     if (*sentence == '*') {
 179              		.loc 1 62 0 is_stmt 1
 180 0034 2A2B     		cmp	r3, #42
 181 0036 13D1     		bne	.L16
 182              	.LVL20:
 183              	.LBB37:
  63:minmea/minmea.c ****         // Extract checksum.
  64:minmea/minmea.c ****         sentence++;
  65:minmea/minmea.c ****         int upper = hex2int(*sentence++);
 184              		.loc 1 65 0
 185 0038 6078     		ldrb	r0, [r4, #1]	@ zero_extendqisi2
 186 003a FFF7FEFF 		bl	hex2int
 187              	.LVL21:
 188 003e 0646     		mov	r6, r0
 189              	.LVL22:
  66:minmea/minmea.c ****         if (upper == -1)
 190              		.loc 1 66 0
 191 0040 B0F1FF3F 		cmp	r0, #-1
 192 0044 1FD0     		beq	.L20
  67:minmea/minmea.c ****             return false;
  68:minmea/minmea.c ****         int lower = hex2int(*sentence++);
 193              		.loc 1 68 0
 194 0046 E71C     		adds	r7, r4, #3
 195              	.LVL23:
 196 0048 A078     		ldrb	r0, [r4, #2]	@ zero_extendqisi2
 197              	.LVL24:
 198 004a FFF7FEFF 		bl	hex2int
 199              	.LVL25:
  69:minmea/minmea.c ****         if (lower == -1)
 200              		.loc 1 69 0
 201 004e B0F1FF3F 		cmp	r0, #-1
 202 0052 1AD0     		beq	.L21
  70:minmea/minmea.c ****             return false;
  71:minmea/minmea.c ****         int expected = upper << 4 | lower;
 203              		.loc 1 71 0
 204 0054 40EA0610 		orr	r0, r0, r6, lsl #4
 205              	.LVL26:
  72:minmea/minmea.c **** 
  73:minmea/minmea.c ****         // Check for checksum mismatch.
  74:minmea/minmea.c ****         if (checksum != expected)
ARM GAS  C:\Users\crono\AppData\Local\Temp\ccd4dy0n.s 			page 6


 206              		.loc 1 74 0
 207 0058 A842     		cmp	r0, r5
 208 005a 18D1     		bne	.L22
  68:minmea/minmea.c ****         if (lower == -1)
 209              		.loc 1 68 0
 210 005c 3C46     		mov	r4, r7
 211 005e 00E0     		b	.L17
 212              	.LVL27:
 213              	.L16:
 214              	.LBE37:
  75:minmea/minmea.c ****             return false;
  76:minmea/minmea.c ****     } else if (strict) {
 215              		.loc 1 76 0
 216 0060 BEB9     		cbnz	r6, .L23
 217              	.L17:
  77:minmea/minmea.c ****         // Discard non-checksummed frames in strict mode.
  78:minmea/minmea.c ****         return false;
  79:minmea/minmea.c ****     }
  80:minmea/minmea.c **** 
  81:minmea/minmea.c ****     // The only stuff allowed at this point is a newline.
  82:minmea/minmea.c ****     if (*sentence && strcmp(sentence, "\n") && strcmp(sentence, "\r\n"))
 218              		.loc 1 82 0
 219 0062 2378     		ldrb	r3, [r4]	@ zero_extendqisi2
 220 0064 BBB1     		cbz	r3, .L24
 221              		.loc 1 82 0 is_stmt 0 discriminator 1
 222 0066 1049     		ldr	r1, .L28+4
 223 0068 2046     		mov	r0, r4
 224 006a FFF7FEFF 		bl	strcmp
 225              	.LVL28:
 226 006e A0B1     		cbz	r0, .L25
 227              		.loc 1 82 0 discriminator 2
 228 0070 0E49     		ldr	r1, .L28+8
 229 0072 2046     		mov	r0, r4
 230 0074 FFF7FEFF 		bl	strcmp
 231              	.LVL29:
 232 0078 88B9     		cbnz	r0, .L26
  83:minmea/minmea.c ****         return false;
  84:minmea/minmea.c **** 
  85:minmea/minmea.c ****     return true;
 233              		.loc 1 85 0 is_stmt 1
 234 007a 0120     		movs	r0, #1
 235 007c F8BD     		pop	{r3, r4, r5, r6, r7, pc}
 236              	.LVL30:
 237              	.L18:
  51:minmea/minmea.c **** 
 238              		.loc 1 51 0
 239 007e 0020     		movs	r0, #0
 240 0080 F8BD     		pop	{r3, r4, r5, r6, r7, pc}
 241              	.LVL31:
 242              	.L19:
  55:minmea/minmea.c **** 
 243              		.loc 1 55 0
 244 0082 0020     		movs	r0, #0
 245 0084 F8BD     		pop	{r3, r4, r5, r6, r7, pc}
 246              	.LVL32:
 247              	.L20:
 248              	.LBB38:
ARM GAS  C:\Users\crono\AppData\Local\Temp\ccd4dy0n.s 			page 7


  67:minmea/minmea.c ****         int lower = hex2int(*sentence++);
 249              		.loc 1 67 0
 250 0086 0020     		movs	r0, #0
 251              	.LVL33:
 252 0088 F8BD     		pop	{r3, r4, r5, r6, r7, pc}
 253              	.LVL34:
 254              	.L21:
  70:minmea/minmea.c ****         int expected = upper << 4 | lower;
 255              		.loc 1 70 0
 256 008a 0020     		movs	r0, #0
 257              	.LVL35:
 258 008c F8BD     		pop	{r3, r4, r5, r6, r7, pc}
 259              	.LVL36:
 260              	.L22:
  75:minmea/minmea.c ****     } else if (strict) {
 261              		.loc 1 75 0
 262 008e 0020     		movs	r0, #0
 263              	.LVL37:
 264 0090 F8BD     		pop	{r3, r4, r5, r6, r7, pc}
 265              	.LVL38:
 266              	.L23:
 267              	.LBE38:
  78:minmea/minmea.c ****     }
 268              		.loc 1 78 0
 269 0092 0020     		movs	r0, #0
 270 0094 F8BD     		pop	{r3, r4, r5, r6, r7, pc}
 271              	.LVL39:
 272              	.L24:
 273              		.loc 1 85 0
 274 0096 0120     		movs	r0, #1
 275 0098 F8BD     		pop	{r3, r4, r5, r6, r7, pc}
 276              	.LVL40:
 277              	.L25:
 278 009a 0120     		movs	r0, #1
 279 009c F8BD     		pop	{r3, r4, r5, r6, r7, pc}
 280              	.LVL41:
 281              	.L26:
  83:minmea/minmea.c **** 
 282              		.loc 1 83 0
 283 009e 0020     		movs	r0, #0
  86:minmea/minmea.c **** }
 284              		.loc 1 86 0
 285 00a0 F8BD     		pop	{r3, r4, r5, r6, r7, pc}
 286              	.LVL42:
 287              	.L29:
 288 00a2 00BF     		.align	2
 289              	.L28:
 290 00a4 00000000 		.word	__ctype_ptr__
 291 00a8 00000000 		.word	.LC0
 292 00ac 04000000 		.word	.LC1
 293              		.cfi_endproc
 294              	.LFE6:
 295              		.size	minmea_check, .-minmea_check
 296              		.section	.text.minmea_scan,"ax",%progbits
 297              		.align	2
 298              		.global	minmea_scan
 299              		.thumb
ARM GAS  C:\Users\crono\AppData\Local\Temp\ccd4dy0n.s 			page 8


 300              		.thumb_func
 301              		.type	minmea_scan, %function
 302              	minmea_scan:
 303              	.LFB8:
  87:minmea/minmea.c **** 
  88:minmea/minmea.c **** static inline bool minmea_isfield(char c) {
  89:minmea/minmea.c ****     return isprint((unsigned char) c) && c != ',' && c != '*';
  90:minmea/minmea.c **** }
  91:minmea/minmea.c **** 
  92:minmea/minmea.c **** bool minmea_scan(const char *sentence, const char *format, ...)
  93:minmea/minmea.c **** {
 304              		.loc 1 93 0
 305              		.cfi_startproc
 306              		@ args = 4, pretend = 12, frame = 16
 307              		@ frame_needed = 0, uses_anonymous_args = 1
 308              	.LVL43:
 309 0000 0EB4     		push	{r1, r2, r3}
 310              		.cfi_def_cfa_offset 12
 311              		.cfi_offset 1, -12
 312              		.cfi_offset 2, -8
 313              		.cfi_offset 3, -4
 314 0002 2DE9F04F 		push	{r4, r5, r6, r7, r8, r9, r10, fp, lr}
 315              		.cfi_def_cfa_offset 48
 316              		.cfi_offset 4, -48
 317              		.cfi_offset 5, -44
 318              		.cfi_offset 6, -40
 319              		.cfi_offset 7, -36
 320              		.cfi_offset 8, -32
 321              		.cfi_offset 9, -28
 322              		.cfi_offset 10, -24
 323              		.cfi_offset 11, -20
 324              		.cfi_offset 14, -16
 325 0006 84B0     		sub	sp, sp, #16
 326              		.cfi_def_cfa_offset 64
 327 0008 0446     		mov	r4, r0
 328 000a 0DAB     		add	r3, sp, #52
 329 000c 53F8045B 		ldr	r5, [r3], #4
 330              	.LVL44:
  94:minmea/minmea.c ****     bool result = false;
  95:minmea/minmea.c ****     bool optional = false;
  96:minmea/minmea.c ****     va_list ap;
  97:minmea/minmea.c ****     va_start(ap, format);
 331              		.loc 1 97 0
 332 0010 0393     		str	r3, [sp, #12]
 333              	.LVL45:
  98:minmea/minmea.c **** 
  99:minmea/minmea.c ****     const char *field = sentence;
 334              		.loc 1 99 0
 335 0012 0746     		mov	r7, r0
  95:minmea/minmea.c ****     va_list ap;
 336              		.loc 1 95 0
 337 0014 0026     		movs	r6, #0
 100:minmea/minmea.c **** #define next_field() \
 101:minmea/minmea.c ****     do { \
 102:minmea/minmea.c ****         /* Progress to the next field. */ \
 103:minmea/minmea.c ****         while (minmea_isfield(*sentence)) \
 104:minmea/minmea.c ****             sentence++; \
ARM GAS  C:\Users\crono\AppData\Local\Temp\ccd4dy0n.s 			page 9


 105:minmea/minmea.c ****         /* Make sure there is a field there. */ \
 106:minmea/minmea.c ****         if (*sentence == ',') { \
 107:minmea/minmea.c ****             sentence++; \
 108:minmea/minmea.c ****             field = sentence; \
 109:minmea/minmea.c ****         } else { \
 110:minmea/minmea.c ****             field = NULL; \
 111:minmea/minmea.c ****         } \
 112:minmea/minmea.c ****     } while (0)
 113:minmea/minmea.c **** 
 114:minmea/minmea.c ****     while (*format) {
 338              		.loc 1 114 0
 339 0016 A9E2     		b	.L31
 340              	.LVL46:
 341              	.L93:
 342              	.LBB39:
 115:minmea/minmea.c ****         char type = *format++;
 343              		.loc 1 115 0
 344 0018 0135     		adds	r5, r5, #1
 345              	.LVL47:
 116:minmea/minmea.c **** 
 117:minmea/minmea.c ****         if (type == ';') {
 346              		.loc 1 117 0
 347 001a 3B2B     		cmp	r3, #59
 348 001c 00F0A382 		beq	.L94
 118:minmea/minmea.c ****             // All further fields are optional.
 119:minmea/minmea.c ****             optional = true;
 120:minmea/minmea.c ****             continue;
 121:minmea/minmea.c ****         }
 122:minmea/minmea.c **** 
 123:minmea/minmea.c ****         if (!field && !optional) {
 349              		.loc 1 123 0
 350 0020 17B9     		cbnz	r7, .L33
 351              		.loc 1 123 0 is_stmt 0 discriminator 1
 352 0022 002E     		cmp	r6, #0
 353 0024 00F0A882 		beq	.L95
 354              	.L33:
 124:minmea/minmea.c ****             // Field requested but we ran out if input. Bail out.
 125:minmea/minmea.c ****             goto parse_error;
 126:minmea/minmea.c ****         }
 127:minmea/minmea.c **** 
 128:minmea/minmea.c ****         switch (type) {
 355              		.loc 1 128 0 is_stmt 1
 356 0028 443B     		subs	r3, r3, #68
 357              	.LVL48:
 358 002a 302B     		cmp	r3, #48
 359 002c 00F2A682 		bhi	.L96
 360 0030 DFE813F0 		tbh	[pc, r3, lsl #1]
 361              	.L36:
 362 0034 8E01     		.2byte	(.L35-.L36)/2
 363 0036 A402     		.2byte	(.L96-.L36)/2
 364 0038 A402     		.2byte	(.L96-.L36)/2
 365 003a A402     		.2byte	(.L96-.L36)/2
 366 003c A402     		.2byte	(.L96-.L36)/2
 367 003e A402     		.2byte	(.L96-.L36)/2
 368 0040 A402     		.2byte	(.L96-.L36)/2
 369 0042 A402     		.2byte	(.L96-.L36)/2
 370 0044 A402     		.2byte	(.L96-.L36)/2
ARM GAS  C:\Users\crono\AppData\Local\Temp\ccd4dy0n.s 			page 10


 371 0046 A402     		.2byte	(.L96-.L36)/2
 372 0048 A402     		.2byte	(.L96-.L36)/2
 373 004a A402     		.2byte	(.L96-.L36)/2
 374 004c A402     		.2byte	(.L96-.L36)/2
 375 004e A402     		.2byte	(.L96-.L36)/2
 376 0050 A402     		.2byte	(.L96-.L36)/2
 377 0052 A402     		.2byte	(.L96-.L36)/2
 378 0054 F101     		.2byte	(.L37-.L36)/2
 379 0056 A402     		.2byte	(.L96-.L36)/2
 380 0058 A402     		.2byte	(.L96-.L36)/2
 381 005a A402     		.2byte	(.L96-.L36)/2
 382 005c A402     		.2byte	(.L96-.L36)/2
 383 005e A402     		.2byte	(.L96-.L36)/2
 384 0060 A402     		.2byte	(.L96-.L36)/2
 385 0062 A402     		.2byte	(.L96-.L36)/2
 386 0064 A402     		.2byte	(.L96-.L36)/2
 387 0066 A402     		.2byte	(.L96-.L36)/2
 388 0068 A402     		.2byte	(.L96-.L36)/2
 389 006a 7F02     		.2byte	(.L66-.L36)/2
 390 006c A402     		.2byte	(.L96-.L36)/2
 391 006e A402     		.2byte	(.L96-.L36)/2
 392 0070 A402     		.2byte	(.L96-.L36)/2
 393 0072 3100     		.2byte	(.L39-.L36)/2
 394 0074 4F00     		.2byte	(.L40-.L36)/2
 395 0076 A402     		.2byte	(.L96-.L36)/2
 396 0078 8B00     		.2byte	(.L41-.L36)/2
 397 007a A402     		.2byte	(.L96-.L36)/2
 398 007c A402     		.2byte	(.L96-.L36)/2
 399 007e 1601     		.2byte	(.L42-.L36)/2
 400 0080 A402     		.2byte	(.L96-.L36)/2
 401 0082 A402     		.2byte	(.L96-.L36)/2
 402 0084 A402     		.2byte	(.L96-.L36)/2
 403 0086 A402     		.2byte	(.L96-.L36)/2
 404 0088 A402     		.2byte	(.L96-.L36)/2
 405 008a A402     		.2byte	(.L96-.L36)/2
 406 008c A402     		.2byte	(.L96-.L36)/2
 407 008e A402     		.2byte	(.L96-.L36)/2
 408 0090 A402     		.2byte	(.L96-.L36)/2
 409 0092 3A01     		.2byte	(.L43-.L36)/2
 410 0094 5B01     		.2byte	(.L44-.L36)/2
 411              		.p2align 1
 412              	.L39:
 413              	.LVL49:
 414              	.LBB40:
 129:minmea/minmea.c ****             case 'c': { // Single character field (char).
 130:minmea/minmea.c ****                 char value = '\0';
 131:minmea/minmea.c **** 
 132:minmea/minmea.c ****                 if (field && minmea_isfield(*field))
 415              		.loc 1 132 0
 416 0096 AFB1     		cbz	r7, .L97
 417              		.loc 1 132 0 is_stmt 0 discriminator 1
 418 0098 3B78     		ldrb	r3, [r7]	@ zero_extendqisi2
 419              	.LVL50:
 420              	.LBB41:
 421              	.LBB42:
  89:minmea/minmea.c **** }
 422              		.loc 1 89 0 is_stmt 1 discriminator 1
ARM GAS  C:\Users\crono\AppData\Local\Temp\ccd4dy0n.s 			page 11


 423 009a A24A     		ldr	r2, .L152
 424 009c 1268     		ldr	r2, [r2]
 425 009e 1A44     		add	r2, r2, r3
 426 00a0 5278     		ldrb	r2, [r2, #1]	@ zero_extendqisi2
 427 00a2 12F0970F 		tst	r2, #151
 428 00a6 05D0     		beq	.L98
  89:minmea/minmea.c **** }
 429              		.loc 1 89 0 is_stmt 0
 430 00a8 2C2B     		cmp	r3, #44
 431 00aa 05D0     		beq	.L99
 432 00ac 2A2B     		cmp	r3, #42
 433 00ae 05D1     		bne	.L100
 434 00b0 0022     		movs	r2, #0
 435 00b2 04E0     		b	.L46
 436              	.L98:
 437 00b4 0022     		movs	r2, #0
 438 00b6 02E0     		b	.L46
 439              	.L99:
 440 00b8 0022     		movs	r2, #0
 441 00ba 00E0     		b	.L46
 442              	.L100:
 443 00bc 0122     		movs	r2, #1
 444              	.L46:
 445              	.LVL51:
 446              	.LBE42:
 447              	.LBE41:
 448              		.loc 1 132 0 is_stmt 1
 449 00be 12B9     		cbnz	r2, .L45
 130:minmea/minmea.c **** 
 450              		.loc 1 130 0
 451 00c0 0023     		movs	r3, #0
 452 00c2 00E0     		b	.L45
 453              	.L97:
 454 00c4 0023     		movs	r3, #0
 455              	.L45:
 456              	.LVL52:
 133:minmea/minmea.c ****                     value = *field;
 134:minmea/minmea.c **** 
 135:minmea/minmea.c ****                 *va_arg(ap, char *) = value;
 457              		.loc 1 135 0
 458 00c6 039A     		ldr	r2, [sp, #12]
 459 00c8 111D     		adds	r1, r2, #4
 460 00ca 0391     		str	r1, [sp, #12]
 461 00cc 1268     		ldr	r2, [r2]
 462 00ce 1370     		strb	r3, [r2]
 463              	.LBE40:
 136:minmea/minmea.c ****             } break;
 464              		.loc 1 136 0
 465 00d0 2FE2     		b	.L66
 466              	.LVL53:
 467              	.L40:
 468              	.LBB43:
 137:minmea/minmea.c **** 
 138:minmea/minmea.c ****             case 'd': { // Single character direction field (int).
 139:minmea/minmea.c ****                 int value = 0;
 140:minmea/minmea.c **** 
 141:minmea/minmea.c ****                 if (field && minmea_isfield(*field)) {
ARM GAS  C:\Users\crono\AppData\Local\Temp\ccd4dy0n.s 			page 12


 469              		.loc 1 141 0
 470 00d2 77B3     		cbz	r7, .L101
 471              		.loc 1 141 0 is_stmt 0 discriminator 1
 472 00d4 3B78     		ldrb	r3, [r7]	@ zero_extendqisi2
 473              	.LVL54:
 474              	.LBB44:
 475              	.LBB45:
  89:minmea/minmea.c **** }
 476              		.loc 1 89 0 is_stmt 1 discriminator 1
 477 00d6 934A     		ldr	r2, .L152
 478 00d8 1268     		ldr	r2, [r2]
 479 00da 1A44     		add	r2, r2, r3
 480 00dc 5278     		ldrb	r2, [r2, #1]	@ zero_extendqisi2
 481 00de 12F0970F 		tst	r2, #151
 482 00e2 05D0     		beq	.L102
  89:minmea/minmea.c **** }
 483              		.loc 1 89 0 is_stmt 0
 484 00e4 2C2B     		cmp	r3, #44
 485 00e6 05D0     		beq	.L103
 486 00e8 2A2B     		cmp	r3, #42
 487 00ea 05D1     		bne	.L104
 488 00ec 0022     		movs	r2, #0
 489 00ee 04E0     		b	.L48
 490              	.L102:
 491 00f0 0022     		movs	r2, #0
 492 00f2 02E0     		b	.L48
 493              	.L103:
 494 00f4 0022     		movs	r2, #0
 495 00f6 00E0     		b	.L48
 496              	.L104:
 497 00f8 0122     		movs	r2, #1
 498              	.L48:
 499              	.LVL55:
 500              	.LBE45:
 501              	.LBE44:
 502              		.loc 1 141 0 is_stmt 1
 503 00fa E2B1     		cbz	r2, .L105
 142:minmea/minmea.c ****                     switch (*field) {
 504              		.loc 1 142 0
 505 00fc 453B     		subs	r3, r3, #69
 506 00fe 122B     		cmp	r3, #18
 507 0100 00F23E82 		bhi	.L106
 508 0104 DFE813F0 		tbh	[pc, r3, lsl #1]
 509              	.L50:
 510 0108 1300     		.2byte	(.L49-.L50)/2
 511 010a 3C02     		.2byte	(.L106-.L50)/2
 512 010c 3C02     		.2byte	(.L106-.L50)/2
 513 010e 3C02     		.2byte	(.L106-.L50)/2
 514 0110 3C02     		.2byte	(.L106-.L50)/2
 515 0112 3C02     		.2byte	(.L106-.L50)/2
 516 0114 3C02     		.2byte	(.L106-.L50)/2
 517 0116 3C02     		.2byte	(.L106-.L50)/2
 518 0118 3C02     		.2byte	(.L106-.L50)/2
 519 011a 1300     		.2byte	(.L49-.L50)/2
 520 011c 3C02     		.2byte	(.L106-.L50)/2
 521 011e 3C02     		.2byte	(.L106-.L50)/2
 522 0120 3C02     		.2byte	(.L106-.L50)/2
ARM GAS  C:\Users\crono\AppData\Local\Temp\ccd4dy0n.s 			page 13


 523 0122 3C02     		.2byte	(.L106-.L50)/2
 524 0124 1900     		.2byte	(.L107-.L50)/2
 525 0126 3C02     		.2byte	(.L106-.L50)/2
 526 0128 3C02     		.2byte	(.L106-.L50)/2
 527 012a 3C02     		.2byte	(.L106-.L50)/2
 528 012c 1900     		.2byte	(.L107-.L50)/2
 529              		.p2align 1
 530              	.L49:
 143:minmea/minmea.c ****                         case 'N':
 144:minmea/minmea.c ****                         case 'E':
 145:minmea/minmea.c ****                             value = 1;
 531              		.loc 1 145 0
 532 012e 0121     		movs	r1, #1
 533 0130 05E0     		b	.L47
 534              	.L101:
 139:minmea/minmea.c **** 
 535              		.loc 1 139 0
 536 0132 0021     		movs	r1, #0
 537 0134 03E0     		b	.L47
 538              	.L105:
 539 0136 0021     		movs	r1, #0
 540 0138 01E0     		b	.L47
 541              	.L107:
 146:minmea/minmea.c ****                             break;
 147:minmea/minmea.c ****                         case 'S':
 148:minmea/minmea.c ****                         case 'W':
 149:minmea/minmea.c ****                             value = -1;
 542              		.loc 1 149 0
 543 013a 4FF0FF31 		mov	r1, #-1
 544              	.L47:
 545              	.LVL56:
 150:minmea/minmea.c ****                             break;
 151:minmea/minmea.c ****                         default:
 152:minmea/minmea.c ****                             goto parse_error;
 153:minmea/minmea.c ****                     }
 154:minmea/minmea.c ****                 }
 155:minmea/minmea.c **** 
 156:minmea/minmea.c ****                 *va_arg(ap, int *) = value;
 546              		.loc 1 156 0
 547 013e 039B     		ldr	r3, [sp, #12]
 548 0140 1A1D     		adds	r2, r3, #4
 549 0142 0392     		str	r2, [sp, #12]
 550 0144 1B68     		ldr	r3, [r3]
 551 0146 1960     		str	r1, [r3]
 552              	.LBE43:
 157:minmea/minmea.c ****             } break;
 553              		.loc 1 157 0
 554 0148 F3E1     		b	.L66
 555              	.LVL57:
 556              	.L41:
 557              	.LBB46:
 158:minmea/minmea.c **** 
 159:minmea/minmea.c ****             case 'f': { // Fractional value with scale (struct minmea_float).
 160:minmea/minmea.c ****                 int sign = 0;
 161:minmea/minmea.c ****                 int_least32_t value = -1;
 162:minmea/minmea.c ****                 int_least32_t scale = 0;
 163:minmea/minmea.c **** 
ARM GAS  C:\Users\crono\AppData\Local\Temp\ccd4dy0n.s 			page 14


 164:minmea/minmea.c ****                 if (field) {
 558              		.loc 1 164 0
 559 014a 002F     		cmp	r7, #0
 560 014c 4DD1     		bne	.L108
 162:minmea/minmea.c **** 
 561              		.loc 1 162 0
 562 014e 0020     		movs	r0, #0
 161:minmea/minmea.c ****                 int_least32_t scale = 0;
 563              		.loc 1 161 0
 564 0150 4FF0FF32 		mov	r2, #-1
 160:minmea/minmea.c ****                 int_least32_t value = -1;
 565              		.loc 1 160 0
 566 0154 8646     		mov	lr, r0
 567 0156 66E0     		b	.L52
 568              	.LVL58:
 569              	.L61:
 165:minmea/minmea.c ****                     while (minmea_isfield(*field)) {
 166:minmea/minmea.c ****                         if (*field == '+' && !sign && value == -1) {
 570              		.loc 1 166 0
 571 0158 2B2B     		cmp	r3, #43
 572 015a 05D1     		bne	.L53
 573              		.loc 1 166 0 is_stmt 0 discriminator 1
 574 015c BEF1000F 		cmp	lr, #0
 575 0160 02D1     		bne	.L53
 576              		.loc 1 166 0 discriminator 2
 577 0162 B2F1FF3F 		cmp	r2, #-1
 578 0166 37D0     		beq	.L109
 579              	.L53:
 167:minmea/minmea.c ****                             sign = 1;
 168:minmea/minmea.c ****                         } else if (*field == '-' && !sign && value == -1) {
 580              		.loc 1 168 0 is_stmt 1
 581 0168 2D2B     		cmp	r3, #45
 582 016a 05D1     		bne	.L55
 583              		.loc 1 168 0 is_stmt 0 discriminator 1
 584 016c BEF1000F 		cmp	lr, #0
 585 0170 02D1     		bne	.L55
 586              		.loc 1 168 0 discriminator 2
 587 0172 B2F1FF3F 		cmp	r2, #-1
 588 0176 32D0     		beq	.L110
 589              	.L55:
 169:minmea/minmea.c ****                             sign = -1;
 170:minmea/minmea.c ****                         } else if (isdigit((unsigned char) *field)) {
 590              		.loc 1 170 0 is_stmt 1
 591 0178 11F0040F 		tst	r1, #4
 592 017c 1CD0     		beq	.L56
 593              	.LBB47:
 171:minmea/minmea.c ****                             int digit = *field - '0';
 594              		.loc 1 171 0
 595 017e 303B     		subs	r3, r3, #48
 596              	.LVL59:
 172:minmea/minmea.c ****                             if (value == -1)
 597              		.loc 1 172 0
 598 0180 B2F1FF3F 		cmp	r2, #-1
 599 0184 00D1     		bne	.L57
 173:minmea/minmea.c ****                                 value = 0;
 600              		.loc 1 173 0
 601 0186 0022     		movs	r2, #0
ARM GAS  C:\Users\crono\AppData\Local\Temp\ccd4dy0n.s 			page 15


 602              	.LVL60:
 603              	.L57:
 174:minmea/minmea.c ****                             if (value > (INT_LEAST32_MAX-digit) / 10) {
 604              		.loc 1 174 0
 605 0188 6FF00041 		mvn	r1, #-2147483648
 606 018c C91A     		subs	r1, r1, r3
 607 018e DFF898C1 		ldr	ip, .L152+4
 608 0192 8CFB018C 		smull	r8, ip, ip, r1
 609 0196 C917     		asrs	r1, r1, #31
 610 0198 C1EBAC01 		rsb	r1, r1, ip, asr #2
 611 019c 8A42     		cmp	r2, r1
 612 019e 02DD     		ble	.L58
 175:minmea/minmea.c ****                                 /* we ran out of bits, what do we do? */
 176:minmea/minmea.c ****                                 if (scale) {
 613              		.loc 1 176 0
 614 01a0 0028     		cmp	r0, #0
 615 01a2 40D1     		bne	.L52
 616 01a4 FDE1     		b	.L34
 617              	.L58:
 177:minmea/minmea.c ****                                     /* truncate extra precision */
 178:minmea/minmea.c ****                                     break;
 179:minmea/minmea.c ****                                 } else {
 180:minmea/minmea.c ****                                     /* integer overflow. bail out. */
 181:minmea/minmea.c ****                                     goto parse_error;
 182:minmea/minmea.c ****                                 }
 183:minmea/minmea.c ****                             }
 184:minmea/minmea.c ****                             value = (10 * value) + digit;
 618              		.loc 1 184 0
 619 01a6 02EB8202 		add	r2, r2, r2, lsl #2
 620              	.LVL61:
 621 01aa 5100     		lsls	r1, r2, #1
 622 01ac 5A18     		adds	r2, r3, r1
 623              	.LVL62:
 185:minmea/minmea.c ****                             if (scale)
 624              		.loc 1 185 0
 625 01ae D0B1     		cbz	r0, .L54
 186:minmea/minmea.c ****                                 scale *= 10;
 626              		.loc 1 186 0
 627 01b0 00EB8003 		add	r3, r0, r0, lsl #2
 628              	.LVL63:
 629 01b4 5800     		lsls	r0, r3, #1
 630              	.LVL64:
 631 01b6 16E0     		b	.L54
 632              	.LVL65:
 633              	.L56:
 634              	.LBE47:
 187:minmea/minmea.c ****                         } else if (*field == '.' && scale == 0) {
 635              		.loc 1 187 0
 636 01b8 2E2B     		cmp	r3, #46
 637 01ba 00D1     		bne	.L59
 638              		.loc 1 187 0 is_stmt 0 discriminator 1
 639 01bc 90B1     		cbz	r0, .L112
 640              	.L59:
 188:minmea/minmea.c ****                             scale = 1;
 189:minmea/minmea.c ****                         } else if (*field == ' ') {
 641              		.loc 1 189 0 is_stmt 1
 642 01be 202B     		cmp	r3, #32
ARM GAS  C:\Users\crono\AppData\Local\Temp\ccd4dy0n.s 			page 16


 643 01c0 40F0E081 		bne	.L113
 190:minmea/minmea.c ****                             /* Allow spaces at the start of the field. Not NMEA
 191:minmea/minmea.c ****                              * conformant, but some modules do this. */
 192:minmea/minmea.c ****                             if (sign != 0 || value != -1 || scale != 0)
 644              		.loc 1 192 0
 645 01c4 BEF1000F 		cmp	lr, #0
 646 01c8 40F0DE81 		bne	.L114
 647              		.loc 1 192 0 is_stmt 0 discriminator 1
 648 01cc B2F1FF3F 		cmp	r2, #-1
 649 01d0 40F0DC81 		bne	.L115
 650              		.loc 1 192 0 discriminator 2
 651 01d4 38B1     		cbz	r0, .L54
 652              	.LBE46:
 653              	.LBE39:
 654 01d6 DBE1     		b	.L116
 655              	.L109:
 656              	.LBB83:
 657              	.LBB50:
 167:minmea/minmea.c ****                         } else if (*field == '-' && !sign && value == -1) {
 658              		.loc 1 167 0 is_stmt 1
 659 01d8 4FF0010E 		mov	lr, #1
 660              	.LVL66:
 661 01dc 03E0     		b	.L54
 662              	.LVL67:
 663              	.L110:
 169:minmea/minmea.c ****                         } else if (isdigit((unsigned char) *field)) {
 664              		.loc 1 169 0
 665 01de 4FF0FF3E 		mov	lr, #-1
 666              	.LVL68:
 667 01e2 00E0     		b	.L54
 668              	.LVL69:
 669              	.L112:
 188:minmea/minmea.c ****                         } else if (*field == ' ') {
 670              		.loc 1 188 0
 671 01e4 0120     		movs	r0, #1
 672              	.LVL70:
 673              	.L54:
 193:minmea/minmea.c ****                                 goto parse_error;
 194:minmea/minmea.c ****                         } else {
 195:minmea/minmea.c ****                             goto parse_error;
 196:minmea/minmea.c ****                         }
 197:minmea/minmea.c ****                         field++;
 674              		.loc 1 197 0
 675 01e6 0137     		adds	r7, r7, #1
 676              	.LVL71:
 677 01e8 03E0     		b	.L51
 678              	.LVL72:
 679              	.L108:
 680 01ea 0020     		movs	r0, #0
 681 01ec 4FF0FF32 		mov	r2, #-1
 682 01f0 8646     		mov	lr, r0
 683              	.LVL73:
 684              	.L51:
 165:minmea/minmea.c ****                         if (*field == '+' && !sign && value == -1) {
 685              		.loc 1 165 0
 686 01f2 3B78     		ldrb	r3, [r7]	@ zero_extendqisi2
 687              	.LVL74:
ARM GAS  C:\Users\crono\AppData\Local\Temp\ccd4dy0n.s 			page 17


 688              	.LBB48:
 689              	.LBB49:
  89:minmea/minmea.c **** }
 690              		.loc 1 89 0
 691 01f4 4B49     		ldr	r1, .L152
 692 01f6 0968     		ldr	r1, [r1]
 693 01f8 1944     		add	r1, r1, r3
 694 01fa 4978     		ldrb	r1, [r1, #1]	@ zero_extendqisi2
 695 01fc 11F0970F 		tst	r1, #151
 696 0200 06D0     		beq	.L117
 697 0202 2C2B     		cmp	r3, #44
 698 0204 07D0     		beq	.L118
 699 0206 2A2B     		cmp	r3, #42
 700 0208 08D1     		bne	.L119
 701 020a 4FF0000C 		mov	ip, #0
 702 020e 07E0     		b	.L60
 703              	.L117:
 704 0210 4FF0000C 		mov	ip, #0
 705 0214 04E0     		b	.L60
 706              	.L118:
 707 0216 4FF0000C 		mov	ip, #0
 708 021a 01E0     		b	.L60
 709              	.L119:
 710 021c 4FF0010C 		mov	ip, #1
 711              	.L60:
 712              	.LVL75:
 713              	.LBE49:
 714              	.LBE48:
 165:minmea/minmea.c ****                         if (*field == '+' && !sign && value == -1) {
 715              		.loc 1 165 0
 716 0220 BCF1000F 		cmp	ip, #0
 717 0224 98D1     		bne	.L61
 718              	.LVL76:
 719              	.L52:
 198:minmea/minmea.c ****                     }
 199:minmea/minmea.c ****                 }
 200:minmea/minmea.c **** 
 201:minmea/minmea.c ****                 if ((sign || scale) && value == -1)
 720              		.loc 1 201 0
 721 0226 BEF1000F 		cmp	lr, #0
 722 022a 00D1     		bne	.L62
 723              		.loc 1 201 0 is_stmt 0 discriminator 2
 724 022c 18B1     		cbz	r0, .L63
 725              	.L62:
 726              		.loc 1 201 0 discriminator 3
 727 022e B2F1FF3F 		cmp	r2, #-1
 728 0232 00F0AF81 		beq	.L120
 729              	.L63:
 202:minmea/minmea.c ****                     goto parse_error;
 203:minmea/minmea.c **** 
 204:minmea/minmea.c ****                 if (value == -1) {
 730              		.loc 1 204 0 is_stmt 1
 731 0236 B2F1FF3F 		cmp	r2, #-1
 732 023a 01D0     		beq	.L121
 205:minmea/minmea.c ****                     /* No digits were scanned. */
 206:minmea/minmea.c ****                     value = 0;
 207:minmea/minmea.c ****                     scale = 0;
ARM GAS  C:\Users\crono\AppData\Local\Temp\ccd4dy0n.s 			page 18


 208:minmea/minmea.c ****                 } else if (scale == 0) {
 733              		.loc 1 208 0
 734 023c 18B1     		cbz	r0, .L122
 735 023e 03E0     		b	.L64
 736              	.L121:
 207:minmea/minmea.c ****                 } else if (scale == 0) {
 737              		.loc 1 207 0
 738 0240 0020     		movs	r0, #0
 739              	.LVL77:
 206:minmea/minmea.c ****                     scale = 0;
 740              		.loc 1 206 0
 741 0242 0246     		mov	r2, r0
 742              	.LVL78:
 743 0244 00E0     		b	.L64
 744              	.LVL79:
 745              	.L122:
 209:minmea/minmea.c ****                     /* No decimal point. */
 210:minmea/minmea.c ****                     scale = 1;
 746              		.loc 1 210 0
 747 0246 0120     		movs	r0, #1
 748              	.LVL80:
 749              	.L64:
 211:minmea/minmea.c ****                 }
 212:minmea/minmea.c ****                 if (sign)
 750              		.loc 1 212 0
 751 0248 BEF1000F 		cmp	lr, #0
 752 024c 01D0     		beq	.L65
 213:minmea/minmea.c ****                     value *= sign;
 753              		.loc 1 213 0
 754 024e 0EFB02F2 		mul	r2, lr, r2
 755              	.LVL81:
 756              	.L65:
 214:minmea/minmea.c **** 
 215:minmea/minmea.c ****                 *va_arg(ap, struct minmea_float *) = (struct minmea_float) {value, scale};
 757              		.loc 1 215 0
 758 0252 039B     		ldr	r3, [sp, #12]
 759 0254 191D     		adds	r1, r3, #4
 760 0256 0391     		str	r1, [sp, #12]
 761 0258 1B68     		ldr	r3, [r3]
 762 025a 1A60     		str	r2, [r3]
 763 025c 5860     		str	r0, [r3, #4]
 764              	.LBE50:
 216:minmea/minmea.c ****             } break;
 765              		.loc 1 216 0
 766 025e 68E1     		b	.L66
 767              	.LVL82:
 768              	.L42:
 769              	.LBB51:
 217:minmea/minmea.c **** 
 218:minmea/minmea.c ****             case 'i': { // Integer value, default 0 (int).
 219:minmea/minmea.c ****                 int value = 0;
 220:minmea/minmea.c **** 
 221:minmea/minmea.c ****                 if (field) {
 770              		.loc 1 221 0
 771 0260 DFB1     		cbz	r7, .L123
 772              	.LBB52:
 222:minmea/minmea.c ****                     char *endptr;
ARM GAS  C:\Users\crono\AppData\Local\Temp\ccd4dy0n.s 			page 19


 223:minmea/minmea.c ****                     value = strtol(field, &endptr, 10);
 773              		.loc 1 223 0
 774 0262 0A22     		movs	r2, #10
 775 0264 02A9     		add	r1, sp, #8
 776 0266 3846     		mov	r0, r7
 777 0268 FFF7FEFF 		bl	strtol
 778              	.LVL83:
 224:minmea/minmea.c ****                     if (minmea_isfield(*endptr))
 779              		.loc 1 224 0
 780 026c 029B     		ldr	r3, [sp, #8]
 781 026e 1A78     		ldrb	r2, [r3]	@ zero_extendqisi2
 782              	.LVL84:
 783              	.LBB53:
 784              	.LBB54:
  89:minmea/minmea.c **** }
 785              		.loc 1 89 0
 786 0270 2C4B     		ldr	r3, .L152
 787 0272 1B68     		ldr	r3, [r3]
 788 0274 1344     		add	r3, r3, r2
 789 0276 5B78     		ldrb	r3, [r3, #1]	@ zero_extendqisi2
 790 0278 13F0970F 		tst	r3, #151
 791 027c 05D0     		beq	.L124
 792 027e 2C2A     		cmp	r2, #44
 793 0280 05D0     		beq	.L125
 794 0282 2A2A     		cmp	r2, #42
 795 0284 05D1     		bne	.L126
 796 0286 0023     		movs	r3, #0
 797 0288 04E0     		b	.L68
 798              	.L124:
 799 028a 0023     		movs	r3, #0
 800 028c 02E0     		b	.L68
 801              	.L125:
 802 028e 0023     		movs	r3, #0
 803 0290 00E0     		b	.L68
 804              	.L126:
 805 0292 0123     		movs	r3, #1
 806              	.L68:
 807              	.LVL85:
 808              	.LBE54:
 809              	.LBE53:
 810              		.loc 1 224 0
 811 0294 13B1     		cbz	r3, .L67
 812              	.LBE52:
 813              	.LBE51:
 814              	.LBE83:
  94:minmea/minmea.c ****     bool optional = false;
 815              		.loc 1 94 0
 816 0296 0020     		movs	r0, #0
 817              	.LVL86:
 818 0298 83E1     		b	.L34
 819              	.LVL87:
 820              	.L123:
 821              	.LBB84:
 822              	.LBB55:
 219:minmea/minmea.c **** 
 823              		.loc 1 219 0
 824 029a 0020     		movs	r0, #0
ARM GAS  C:\Users\crono\AppData\Local\Temp\ccd4dy0n.s 			page 20


 825              	.LVL88:
 826              	.L67:
 225:minmea/minmea.c ****                         goto parse_error;
 226:minmea/minmea.c ****                 }
 227:minmea/minmea.c **** 
 228:minmea/minmea.c ****                 *va_arg(ap, int *) = value;
 827              		.loc 1 228 0
 828 029c 039B     		ldr	r3, [sp, #12]
 829 029e 1A1D     		adds	r2, r3, #4
 830 02a0 0392     		str	r2, [sp, #12]
 831 02a2 1B68     		ldr	r3, [r3]
 832 02a4 1860     		str	r0, [r3]
 833              	.LBE55:
 229:minmea/minmea.c ****             } break;
 834              		.loc 1 229 0
 835 02a6 44E1     		b	.L66
 836              	.LVL89:
 837              	.L43:
 838              	.LBB56:
 230:minmea/minmea.c **** 
 231:minmea/minmea.c ****             case 's': { // String value (char *).
 232:minmea/minmea.c ****                 char *buf = va_arg(ap, char *);
 839              		.loc 1 232 0
 840 02a8 039B     		ldr	r3, [sp, #12]
 841 02aa 1A1D     		adds	r2, r3, #4
 842 02ac 0392     		str	r2, [sp, #12]
 843 02ae 1968     		ldr	r1, [r3]
 844              	.LVL90:
 233:minmea/minmea.c **** 
 234:minmea/minmea.c ****                 if (field) {
 845              		.loc 1 234 0
 846 02b0 1FB9     		cbnz	r7, .L70
 847 02b2 17E0     		b	.L71
 848              	.L73:
 849              	.LVL91:
 235:minmea/minmea.c ****                     while (minmea_isfield(*field))
 236:minmea/minmea.c ****                         *buf++ = *field++;
 850              		.loc 1 236 0
 851 02b4 0137     		adds	r7, r7, #1
 852              	.LVL92:
 853 02b6 0A70     		strb	r2, [r1]
 854 02b8 0131     		adds	r1, r1, #1
 855              	.LVL93:
 856              	.L70:
 235:minmea/minmea.c ****                     while (minmea_isfield(*field))
 857              		.loc 1 235 0
 858 02ba 3A78     		ldrb	r2, [r7]	@ zero_extendqisi2
 859              	.LVL94:
 860              	.LBB57:
 861              	.LBB58:
  89:minmea/minmea.c **** }
 862              		.loc 1 89 0
 863 02bc 194B     		ldr	r3, .L152
 864 02be 1B68     		ldr	r3, [r3]
 865 02c0 1344     		add	r3, r3, r2
 866 02c2 5B78     		ldrb	r3, [r3, #1]	@ zero_extendqisi2
 867 02c4 13F0970F 		tst	r3, #151
ARM GAS  C:\Users\crono\AppData\Local\Temp\ccd4dy0n.s 			page 21


 868 02c8 05D0     		beq	.L127
 869 02ca 2C2A     		cmp	r2, #44
 870 02cc 05D0     		beq	.L128
 871 02ce 2A2A     		cmp	r2, #42
 872 02d0 05D1     		bne	.L129
 873 02d2 0023     		movs	r3, #0
 874 02d4 04E0     		b	.L72
 875              	.L127:
 876 02d6 0023     		movs	r3, #0
 877 02d8 02E0     		b	.L72
 878              	.L128:
 879 02da 0023     		movs	r3, #0
 880 02dc 00E0     		b	.L72
 881              	.L129:
 882 02de 0123     		movs	r3, #1
 883              	.L72:
 884              	.LVL95:
 885              	.LBE58:
 886              	.LBE57:
 235:minmea/minmea.c ****                     while (minmea_isfield(*field))
 887              		.loc 1 235 0
 888 02e0 002B     		cmp	r3, #0
 889 02e2 E7D1     		bne	.L73
 890              	.L71:
 237:minmea/minmea.c ****                 }
 238:minmea/minmea.c **** 
 239:minmea/minmea.c ****                 *buf = '\0';
 891              		.loc 1 239 0
 892 02e4 0023     		movs	r3, #0
 893 02e6 0B70     		strb	r3, [r1]
 894              	.LBE56:
 240:minmea/minmea.c ****             } break;
 895              		.loc 1 240 0
 896 02e8 23E1     		b	.L66
 897              	.LVL96:
 898              	.L44:
 899              	.LBB59:
 241:minmea/minmea.c **** 
 242:minmea/minmea.c ****             case 't': { // NMEA talker+sentence identifier (char *).
 243:minmea/minmea.c ****                 // This field is always mandatory.
 244:minmea/minmea.c ****                 if (!field)
 900              		.loc 1 244 0
 901 02ea 002F     		cmp	r7, #0
 902 02ec 00F05481 		beq	.L130
 245:minmea/minmea.c ****                     goto parse_error;
 246:minmea/minmea.c **** 
 247:minmea/minmea.c ****                 if (field[0] != '$')
 903              		.loc 1 247 0
 904 02f0 3B78     		ldrb	r3, [r7]	@ zero_extendqisi2
 905 02f2 242B     		cmp	r3, #36
 906 02f4 40F05281 		bne	.L131
 907 02f8 0023     		movs	r3, #0
 908 02fa 1BE0     		b	.L74
 909              	.LVL97:
 910              	.L76:
 911              	.LBB60:
 248:minmea/minmea.c ****                     goto parse_error;
ARM GAS  C:\Users\crono\AppData\Local\Temp\ccd4dy0n.s 			page 22


 249:minmea/minmea.c ****                 for (int f=0; f<5; f++)
 250:minmea/minmea.c ****                     if (!minmea_isfield(field[1+f]))
 912              		.loc 1 250 0
 913 02fc 0133     		adds	r3, r3, #1
 914              	.LVL98:
 915 02fe F95C     		ldrb	r1, [r7, r3]	@ zero_extendqisi2
 916              	.LVL99:
 917              	.LBB61:
 918              	.LBB62:
  89:minmea/minmea.c **** }
 919              		.loc 1 89 0
 920 0300 084A     		ldr	r2, .L152
 921 0302 1268     		ldr	r2, [r2]
 922 0304 0A44     		add	r2, r2, r1
 923 0306 5278     		ldrb	r2, [r2, #1]	@ zero_extendqisi2
 924 0308 12F0970F 		tst	r2, #151
 925 030c 05D0     		beq	.L132
 926 030e 2C29     		cmp	r1, #44
 927 0310 05D0     		beq	.L133
 928 0312 2A29     		cmp	r1, #42
 929 0314 0AD1     		bne	.L134
 930 0316 0022     		movs	r2, #0
 931 0318 09E0     		b	.L75
 932              	.L132:
 933 031a 0022     		movs	r2, #0
 934 031c 07E0     		b	.L75
 935              	.L133:
 936 031e 0022     		movs	r2, #0
 937 0320 05E0     		b	.L75
 938              	.L153:
 939 0322 00BF     		.align	2
 940              	.L152:
 941 0324 00000000 		.word	__ctype_ptr__
 942 0328 67666666 		.word	1717986919
 943              	.L134:
 944 032c 0122     		movs	r2, #1
 945              	.L75:
 946              	.LVL100:
 947              	.LBE62:
 948              	.LBE61:
 949              		.loc 1 250 0
 950 032e 002A     		cmp	r2, #0
 951 0330 00F03681 		beq	.L135
 952              	.LVL101:
 953              	.L74:
 249:minmea/minmea.c ****                     if (!minmea_isfield(field[1+f]))
 954              		.loc 1 249 0 discriminator 1
 955 0334 042B     		cmp	r3, #4
 956 0336 E1DD     		ble	.L76
 957              	.LBE60:
 251:minmea/minmea.c ****                         goto parse_error;
 252:minmea/minmea.c **** 
 253:minmea/minmea.c ****                 char *buf = va_arg(ap, char *);
 958              		.loc 1 253 0
 959 0338 039B     		ldr	r3, [sp, #12]
 960              	.LVL102:
 961 033a 1A1D     		adds	r2, r3, #4
ARM GAS  C:\Users\crono\AppData\Local\Temp\ccd4dy0n.s 			page 23


 962 033c 0392     		str	r2, [sp, #12]
 963 033e 1B68     		ldr	r3, [r3]
 964              	.LVL103:
 254:minmea/minmea.c ****                 memcpy(buf, field+1, 5);
 965              		.loc 1 254 0
 966 0340 57F8012F 		ldr	r2, [r7, #1]!	@ unaligned
 967              	.LVL104:
 968 0344 1A60     		str	r2, [r3]	@ unaligned
 969 0346 3A79     		ldrb	r2, [r7, #4]	@ zero_extendqisi2
 970 0348 1A71     		strb	r2, [r3, #4]
 255:minmea/minmea.c ****                 buf[5] = '\0';
 971              		.loc 1 255 0
 972 034a 0022     		movs	r2, #0
 973 034c 5A71     		strb	r2, [r3, #5]
 974              	.LBE59:
 256:minmea/minmea.c ****             } break;
 975              		.loc 1 256 0
 976 034e F0E0     		b	.L66
 977              	.LVL105:
 978              	.L35:
 979              	.LBB63:
 257:minmea/minmea.c **** 
 258:minmea/minmea.c ****             case 'D': { // Date (int, int, int), -1 if empty.
 259:minmea/minmea.c ****                 struct minmea_date *date = va_arg(ap, struct minmea_date *);
 980              		.loc 1 259 0
 981 0350 039B     		ldr	r3, [sp, #12]
 982 0352 1A1D     		adds	r2, r3, #4
 983 0354 0392     		str	r2, [sp, #12]
 984 0356 D3F80080 		ldr	r8, [r3]
 985              	.LVL106:
 260:minmea/minmea.c **** 
 261:minmea/minmea.c ****                 int d = -1, m = -1, y = -1;
 262:minmea/minmea.c **** 
 263:minmea/minmea.c ****                 if (field && minmea_isfield(*field)) {
 986              		.loc 1 263 0
 987 035a 002F     		cmp	r7, #0
 988 035c 50D0     		beq	.L136
 989              		.loc 1 263 0 is_stmt 0 discriminator 1
 990 035e 3878     		ldrb	r0, [r7]	@ zero_extendqisi2
 991              	.LVL107:
 992              	.LBB64:
 993              	.LBB65:
  89:minmea/minmea.c **** }
 994              		.loc 1 89 0 is_stmt 1 discriminator 1
 995 0360 924B     		ldr	r3, .L154
 996 0362 1968     		ldr	r1, [r3]
 997 0364 0B18     		adds	r3, r1, r0
 998 0366 5B78     		ldrb	r3, [r3, #1]	@ zero_extendqisi2
 999 0368 13F0970F 		tst	r3, #151
 1000 036c 05D0     		beq	.L137
  89:minmea/minmea.c **** }
 1001              		.loc 1 89 0 is_stmt 0
 1002 036e 2C28     		cmp	r0, #44
 1003 0370 05D0     		beq	.L138
 1004 0372 2A28     		cmp	r0, #42
 1005 0374 05D1     		bne	.L139
 1006 0376 0023     		movs	r3, #0
ARM GAS  C:\Users\crono\AppData\Local\Temp\ccd4dy0n.s 			page 24


 1007 0378 04E0     		b	.L78
 1008              	.L137:
 1009 037a 0023     		movs	r3, #0
 1010 037c 02E0     		b	.L78
 1011              	.L138:
 1012 037e 0023     		movs	r3, #0
 1013 0380 00E0     		b	.L78
 1014              	.L139:
 1015 0382 0123     		movs	r3, #1
 1016              	.L78:
 1017              	.LVL108:
 1018              	.LBE65:
 1019              	.LBE64:
 1020              		.loc 1 263 0 is_stmt 1
 1021 0384 63B9     		cbnz	r3, .L140
 261:minmea/minmea.c **** 
 1022              		.loc 1 261 0
 1023 0386 4FF0FF30 		mov	r0, #-1
 1024 038a 0746     		mov	r7, r0
 1025              	.LVL109:
 1026 038c 8246     		mov	r10, r0
 1027 038e 3BE0     		b	.L77
 1028              	.LVL110:
 1029              	.L81:
 1030              	.LBB66:
 1031              	.LBB67:
 264:minmea/minmea.c ****                     // Always six digits.
 265:minmea/minmea.c ****                     for (int f=0; f<6; f++)
 266:minmea/minmea.c ****                         if (!isdigit((unsigned char) field[f]))
 1032              		.loc 1 266 0
 1033 0390 FA5C     		ldrb	r2, [r7, r3]	@ zero_extendqisi2
 1034 0392 0A44     		add	r2, r2, r1
 1035 0394 5278     		ldrb	r2, [r2, #1]	@ zero_extendqisi2
 1036 0396 12F0040F 		tst	r2, #4
 1037 039a 2FD0     		beq	.L80
 265:minmea/minmea.c ****                         if (!isdigit((unsigned char) field[f]))
 1038              		.loc 1 265 0 discriminator 2
 1039 039c 0133     		adds	r3, r3, #1
 1040              	.LVL111:
 1041 039e 00E0     		b	.L79
 1042              	.LVL112:
 1043              	.L140:
 1044              	.LBE67:
 1045              	.LBE66:
 1046 03a0 0023     		movs	r3, #0
 1047              	.L79:
 1048              	.LVL113:
 1049              	.LBB69:
 1050              	.LBB68:
 265:minmea/minmea.c ****                         if (!isdigit((unsigned char) field[f]))
 1051              		.loc 1 265 0 is_stmt 0 discriminator 1
 1052 03a2 052B     		cmp	r3, #5
 1053 03a4 F4DD     		ble	.L81
 1054              	.LBE68:
 267:minmea/minmea.c ****                             goto parse_error;
 268:minmea/minmea.c **** 
 269:minmea/minmea.c ****                     char dArr[] = {field[0], field[1], '\0'};
ARM GAS  C:\Users\crono\AppData\Local\Temp\ccd4dy0n.s 			page 25


 1055              		.loc 1 269 0 is_stmt 1
 1056 03a6 8DF80000 		strb	r0, [sp]
 1057 03aa 7B78     		ldrb	r3, [r7, #1]	@ zero_extendqisi2
 1058              	.LVL114:
 1059 03ac 8DF80130 		strb	r3, [sp, #1]
 1060 03b0 4FF00009 		mov	r9, #0
 1061 03b4 8DF80290 		strb	r9, [sp, #2]
 270:minmea/minmea.c ****                     char mArr[] = {field[2], field[3], '\0'};
 1062              		.loc 1 270 0
 1063 03b8 BB78     		ldrb	r3, [r7, #2]	@ zero_extendqisi2
 1064 03ba 8DF80430 		strb	r3, [sp, #4]
 1065 03be FB78     		ldrb	r3, [r7, #3]	@ zero_extendqisi2
 1066 03c0 8DF80530 		strb	r3, [sp, #5]
 1067 03c4 8DF80690 		strb	r9, [sp, #6]
 271:minmea/minmea.c ****                     char yArr[] = {field[4], field[5], '\0'};
 1068              		.loc 1 271 0
 1069 03c8 3B79     		ldrb	r3, [r7, #4]	@ zero_extendqisi2
 1070 03ca 8DF80830 		strb	r3, [sp, #8]
 1071 03ce 7B79     		ldrb	r3, [r7, #5]	@ zero_extendqisi2
 1072 03d0 8DF80930 		strb	r3, [sp, #9]
 1073 03d4 8DF80A90 		strb	r9, [sp, #10]
 272:minmea/minmea.c ****                     d = strtol(dArr, NULL, 10);
 1074              		.loc 1 272 0
 1075 03d8 0A22     		movs	r2, #10
 1076 03da 4946     		mov	r1, r9
 1077 03dc 6846     		mov	r0, sp
 1078 03de FFF7FEFF 		bl	strtol
 1079              	.LVL115:
 1080 03e2 8246     		mov	r10, r0
 1081              	.LVL116:
 273:minmea/minmea.c ****                     m = strtol(mArr, NULL, 10);
 1082              		.loc 1 273 0
 1083 03e4 0A22     		movs	r2, #10
 1084 03e6 4946     		mov	r1, r9
 1085 03e8 01A8     		add	r0, sp, #4
 1086              	.LVL117:
 1087 03ea FFF7FEFF 		bl	strtol
 1088              	.LVL118:
 1089 03ee 0746     		mov	r7, r0
 1090              	.LVL119:
 274:minmea/minmea.c ****                     y = strtol(yArr, NULL, 10);
 1091              		.loc 1 274 0
 1092 03f0 0A22     		movs	r2, #10
 1093 03f2 4946     		mov	r1, r9
 1094 03f4 02A8     		add	r0, sp, #8
 1095              	.LVL120:
 1096 03f6 FFF7FEFF 		bl	strtol
 1097              	.LVL121:
 1098 03fa 05E0     		b	.L77
 1099              	.LVL122:
 1100              	.L80:
 1101              	.LBE69:
 1102              	.LBE63:
 1103              	.LBE84:
  94:minmea/minmea.c ****     bool optional = false;
 1104              		.loc 1 94 0
 1105 03fc 0020     		movs	r0, #0
ARM GAS  C:\Users\crono\AppData\Local\Temp\ccd4dy0n.s 			page 26


 1106 03fe D0E0     		b	.L34
 1107              	.LVL123:
 1108              	.L136:
 1109              	.LBB85:
 1110              	.LBB70:
 261:minmea/minmea.c **** 
 1111              		.loc 1 261 0
 1112 0400 4FF0FF30 		mov	r0, #-1
 1113 0404 0746     		mov	r7, r0
 1114              	.LVL124:
 1115 0406 8246     		mov	r10, r0
 1116              	.LVL125:
 1117              	.L77:
 275:minmea/minmea.c ****                 }
 276:minmea/minmea.c **** 
 277:minmea/minmea.c ****                 date->day = d;
 1118              		.loc 1 277 0
 1119 0408 C8F800A0 		str	r10, [r8]
 278:minmea/minmea.c ****                 date->month = m;
 1120              		.loc 1 278 0
 1121 040c C8F80470 		str	r7, [r8, #4]
 279:minmea/minmea.c ****                 date->year = y;
 1122              		.loc 1 279 0
 1123 0410 C8F80800 		str	r0, [r8, #8]
 1124              	.LBE70:
 280:minmea/minmea.c ****             } break;
 1125              		.loc 1 280 0
 1126 0414 8DE0     		b	.L66
 1127              	.LVL126:
 1128              	.L37:
 1129              	.LBB71:
 281:minmea/minmea.c **** 
 282:minmea/minmea.c ****             case 'T': { // Time (int, int, int, int), -1 if empty.
 283:minmea/minmea.c ****                 struct minmea_time *time_ = va_arg(ap, struct minmea_time *);
 1130              		.loc 1 283 0
 1131 0416 039B     		ldr	r3, [sp, #12]
 1132 0418 1A1D     		adds	r2, r3, #4
 1133 041a 0392     		str	r2, [sp, #12]
 1134 041c D3F80080 		ldr	r8, [r3]
 1135              	.LVL127:
 284:minmea/minmea.c **** 
 285:minmea/minmea.c ****                 int h = -1, i = -1, s = -1, u = -1;
 286:minmea/minmea.c **** 
 287:minmea/minmea.c ****                 if (field && minmea_isfield(*field)) {
 1136              		.loc 1 287 0
 1137 0420 002F     		cmp	r7, #0
 1138 0422 77D0     		beq	.L141
 1139              		.loc 1 287 0 is_stmt 0 discriminator 1
 1140 0424 3878     		ldrb	r0, [r7]	@ zero_extendqisi2
 1141              	.LVL128:
 1142              	.LBB72:
 1143              	.LBB73:
  89:minmea/minmea.c **** }
 1144              		.loc 1 89 0 is_stmt 1 discriminator 1
 1145 0426 614B     		ldr	r3, .L154
 1146 0428 1968     		ldr	r1, [r3]
 1147 042a 0B18     		adds	r3, r1, r0
ARM GAS  C:\Users\crono\AppData\Local\Temp\ccd4dy0n.s 			page 27


 1148 042c 5B78     		ldrb	r3, [r3, #1]	@ zero_extendqisi2
 1149 042e 13F0970F 		tst	r3, #151
 1150 0432 05D0     		beq	.L142
  89:minmea/minmea.c **** }
 1151              		.loc 1 89 0 is_stmt 0
 1152 0434 2C28     		cmp	r0, #44
 1153 0436 05D0     		beq	.L143
 1154 0438 2A28     		cmp	r0, #42
 1155 043a 05D1     		bne	.L144
 1156 043c 0023     		movs	r3, #0
 1157 043e 04E0     		b	.L83
 1158              	.L142:
 1159 0440 0023     		movs	r3, #0
 1160 0442 02E0     		b	.L83
 1161              	.L143:
 1162 0444 0023     		movs	r3, #0
 1163 0446 00E0     		b	.L83
 1164              	.L144:
 1165 0448 0123     		movs	r3, #1
 1166              	.L83:
 1167              	.LVL129:
 1168              	.LBE73:
 1169              	.LBE72:
 1170              		.loc 1 287 0 is_stmt 1
 1171 044a 6BB9     		cbnz	r3, .L145
 285:minmea/minmea.c **** 
 1172              		.loc 1 285 0
 1173 044c 4FF0FF33 		mov	r3, #-1
 1174 0450 1846     		mov	r0, r3
 1175 0452 9946     		mov	r9, r3
 1176 0454 9A46     		mov	r10, r3
 1177 0456 62E0     		b	.L82
 1178              	.LVL130:
 1179              	.L86:
 1180              	.LBB74:
 1181              	.LBB75:
 288:minmea/minmea.c ****                     // Minimum required: integer time.
 289:minmea/minmea.c ****                     for (int f=0; f<6; f++)
 290:minmea/minmea.c ****                         if (!isdigit((unsigned char) field[f]))
 1182              		.loc 1 290 0
 1183 0458 FA5C     		ldrb	r2, [r7, r3]	@ zero_extendqisi2
 1184 045a 0A44     		add	r2, r2, r1
 1185 045c 5278     		ldrb	r2, [r2, #1]	@ zero_extendqisi2
 1186 045e 12F0040F 		tst	r2, #4
 1187 0462 55D0     		beq	.L85
 289:minmea/minmea.c ****                         if (!isdigit((unsigned char) field[f]))
 1188              		.loc 1 289 0 discriminator 2
 1189 0464 0133     		adds	r3, r3, #1
 1190              	.LVL131:
 1191 0466 00E0     		b	.L84
 1192              	.LVL132:
 1193              	.L145:
 1194              	.LBE75:
 1195              	.LBE74:
 1196 0468 0023     		movs	r3, #0
 1197              	.L84:
 1198              	.LVL133:
ARM GAS  C:\Users\crono\AppData\Local\Temp\ccd4dy0n.s 			page 28


 1199              	.LBB79:
 1200              	.LBB76:
 289:minmea/minmea.c ****                         if (!isdigit((unsigned char) field[f]))
 1201              		.loc 1 289 0 is_stmt 0 discriminator 1
 1202 046a 052B     		cmp	r3, #5
 1203 046c F4DD     		ble	.L86
 1204              	.LBE76:
 291:minmea/minmea.c ****                             goto parse_error;
 292:minmea/minmea.c **** 
 293:minmea/minmea.c ****                     char hArr[] = {field[0], field[1], '\0'};
 1205              		.loc 1 293 0 is_stmt 1
 1206 046e 8DF80000 		strb	r0, [sp]
 1207 0472 7B78     		ldrb	r3, [r7, #1]	@ zero_extendqisi2
 1208              	.LVL134:
 1209 0474 8DF80130 		strb	r3, [sp, #1]
 1210 0478 4FF0000B 		mov	fp, #0
 1211 047c 8DF802B0 		strb	fp, [sp, #2]
 294:minmea/minmea.c ****                     char iArr[] = {field[2], field[3], '\0'};
 1212              		.loc 1 294 0
 1213 0480 BB78     		ldrb	r3, [r7, #2]	@ zero_extendqisi2
 1214 0482 8DF80430 		strb	r3, [sp, #4]
 1215 0486 FB78     		ldrb	r3, [r7, #3]	@ zero_extendqisi2
 1216 0488 8DF80530 		strb	r3, [sp, #5]
 1217 048c 8DF806B0 		strb	fp, [sp, #6]
 295:minmea/minmea.c ****                     char sArr[] = {field[4], field[5], '\0'};
 1218              		.loc 1 295 0
 1219 0490 3B79     		ldrb	r3, [r7, #4]	@ zero_extendqisi2
 1220 0492 8DF80830 		strb	r3, [sp, #8]
 1221 0496 7B79     		ldrb	r3, [r7, #5]	@ zero_extendqisi2
 1222 0498 8DF80930 		strb	r3, [sp, #9]
 1223 049c 8DF80AB0 		strb	fp, [sp, #10]
 296:minmea/minmea.c ****                     h = strtol(hArr, NULL, 10);
 1224              		.loc 1 296 0
 1225 04a0 0A22     		movs	r2, #10
 1226 04a2 5946     		mov	r1, fp
 1227 04a4 6846     		mov	r0, sp
 1228 04a6 FFF7FEFF 		bl	strtol
 1229              	.LVL135:
 1230 04aa 8246     		mov	r10, r0
 1231              	.LVL136:
 297:minmea/minmea.c ****                     i = strtol(iArr, NULL, 10);
 1232              		.loc 1 297 0
 1233 04ac 0A22     		movs	r2, #10
 1234 04ae 5946     		mov	r1, fp
 1235 04b0 01A8     		add	r0, sp, #4
 1236              	.LVL137:
 1237 04b2 FFF7FEFF 		bl	strtol
 1238              	.LVL138:
 1239 04b6 8146     		mov	r9, r0
 1240              	.LVL139:
 298:minmea/minmea.c ****                     s = strtol(sArr, NULL, 10);
 1241              		.loc 1 298 0
 1242 04b8 0A22     		movs	r2, #10
 1243 04ba 5946     		mov	r1, fp
 1244 04bc 02A8     		add	r0, sp, #8
 1245              	.LVL140:
 1246 04be FFF7FEFF 		bl	strtol
ARM GAS  C:\Users\crono\AppData\Local\Temp\ccd4dy0n.s 			page 29


 1247              	.LVL141:
 299:minmea/minmea.c ****                     field += 6;
 300:minmea/minmea.c **** 
 301:minmea/minmea.c ****                     // Extra: fractional time. Saved as microseconds.
 302:minmea/minmea.c ****                     if (*field++ == '.') {
 1248              		.loc 1 302 0
 1249 04c2 07F1070C 		add	ip, r7, #7
 1250              	.LVL142:
 1251 04c6 BB79     		ldrb	r3, [r7, #6]	@ zero_extendqisi2
 1252 04c8 2E2B     		cmp	r3, #46
 1253 04ca 0FD0     		beq	.L146
 303:minmea/minmea.c ****                         uint32_t value = 0;
 304:minmea/minmea.c ****                         uint32_t scale = 1000000LU;
 305:minmea/minmea.c ****                         while (isdigit((unsigned char) *field) && scale > 1) {
 306:minmea/minmea.c ****                             value = (value * 10) + (*field++ - '0');
 307:minmea/minmea.c ****                             scale /= 10;
 308:minmea/minmea.c ****                         }
 309:minmea/minmea.c ****                         u = value * scale;
 310:minmea/minmea.c ****                     } else {
 311:minmea/minmea.c ****                         u = 0;
 1254              		.loc 1 311 0
 1255 04cc 5B46     		mov	r3, fp
 1256 04ce 26E0     		b	.L82
 1257              	.LVL143:
 1258              	.L90:
 1259              	.LBB77:
 306:minmea/minmea.c ****                             scale /= 10;
 1260              		.loc 1 306 0
 1261 04d0 01EB8103 		add	r3, r1, r1, lsl #2
 1262 04d4 5F00     		lsls	r7, r3, #1
 1263 04d6 0CF1010C 		add	ip, ip, #1
 1264              	.LVL144:
 1265 04da 0BEB0703 		add	r3, fp, r7
 1266 04de A3F13001 		sub	r1, r3, #48
 1267              	.LVL145:
 307:minmea/minmea.c ****                         }
 1268              		.loc 1 307 0
 1269 04e2 334B     		ldr	r3, .L154+4
 1270 04e4 A3FB0223 		umull	r2, r3, r3, r2
 1271              	.LVL146:
 1272 04e8 DA08     		lsrs	r2, r3, #3
 1273              	.LVL147:
 1274 04ea 01E0     		b	.L87
 1275              	.LVL148:
 1276              	.L146:
 1277              	.LBE77:
 1278 04ec 314A     		ldr	r2, .L154+8
 1279 04ee 0021     		movs	r1, #0
 1280              	.L87:
 1281              	.LVL149:
 1282              	.LBB78:
 305:minmea/minmea.c ****                             value = (value * 10) + (*field++ - '0');
 1283              		.loc 1 305 0
 1284 04f0 9CF800B0 		ldrb	fp, [ip]	@ zero_extendqisi2
 1285 04f4 2D4B     		ldr	r3, .L154
 1286 04f6 1B68     		ldr	r3, [r3]
 1287 04f8 03EB0B0E 		add	lr, r3, fp
ARM GAS  C:\Users\crono\AppData\Local\Temp\ccd4dy0n.s 			page 30


 1288 04fc 9EF80130 		ldrb	r3, [lr, #1]	@ zero_extendqisi2
 1289 0500 13F0040F 		tst	r3, #4
 1290 0504 01D0     		beq	.L89
 305:minmea/minmea.c ****                             value = (value * 10) + (*field++ - '0');
 1291              		.loc 1 305 0 is_stmt 0 discriminator 1
 1292 0506 012A     		cmp	r2, #1
 1293 0508 E2D8     		bhi	.L90
 1294              	.L89:
 309:minmea/minmea.c ****                     } else {
 1295              		.loc 1 309 0 is_stmt 1
 1296 050a 02FB01F3 		mul	r3, r2, r1
 1297              	.LVL150:
 1298              	.LBE78:
 1299 050e 06E0     		b	.L82
 1300              	.LVL151:
 1301              	.L85:
 1302              	.LBE79:
 1303              	.LBE71:
 1304              	.LBE85:
  94:minmea/minmea.c ****     bool optional = false;
 1305              		.loc 1 94 0
 1306 0510 0020     		movs	r0, #0
 1307 0512 46E0     		b	.L34
 1308              	.LVL152:
 1309              	.L141:
 1310              	.LBB86:
 1311              	.LBB80:
 285:minmea/minmea.c **** 
 1312              		.loc 1 285 0
 1313 0514 4FF0FF33 		mov	r3, #-1
 1314 0518 1846     		mov	r0, r3
 1315 051a 9946     		mov	r9, r3
 1316 051c 9A46     		mov	r10, r3
 1317              	.LVL153:
 1318              	.L82:
 312:minmea/minmea.c ****                     }
 313:minmea/minmea.c ****                 }
 314:minmea/minmea.c **** 
 315:minmea/minmea.c ****                 time_->hours = h;
 1319              		.loc 1 315 0
 1320 051e C8F800A0 		str	r10, [r8]
 316:minmea/minmea.c ****                 time_->minutes = i;
 1321              		.loc 1 316 0
 1322 0522 C8F80490 		str	r9, [r8, #4]
 317:minmea/minmea.c ****                 time_->seconds = s;
 1323              		.loc 1 317 0
 1324 0526 C8F80800 		str	r0, [r8, #8]
 318:minmea/minmea.c ****                 time_->microseconds = u;
 1325              		.loc 1 318 0
 1326 052a C8F80C30 		str	r3, [r8, #12]
 1327              	.LBE80:
 319:minmea/minmea.c ****             } break;
 1328              		.loc 1 319 0
 1329 052e 00E0     		b	.L66
 1330              	.LVL154:
 1331              	.L92:
 320:minmea/minmea.c **** 
ARM GAS  C:\Users\crono\AppData\Local\Temp\ccd4dy0n.s 			page 31


 321:minmea/minmea.c ****             case '_': { // Ignore the field.
 322:minmea/minmea.c ****             } break;
 323:minmea/minmea.c **** 
 324:minmea/minmea.c ****             default: { // Unknown.
 325:minmea/minmea.c ****                 goto parse_error;
 326:minmea/minmea.c ****             }
 327:minmea/minmea.c ****         }
 328:minmea/minmea.c **** 
 329:minmea/minmea.c ****         next_field();
 1332              		.loc 1 329 0 discriminator 2
 1333 0530 0134     		adds	r4, r4, #1
 1334              	.LVL155:
 1335              	.L66:
 1336              		.loc 1 329 0 is_stmt 0 discriminator 1
 1337 0532 2278     		ldrb	r2, [r4]	@ zero_extendqisi2
 1338              	.LVL156:
 1339              	.LBB81:
 1340              	.LBB82:
  89:minmea/minmea.c **** }
 1341              		.loc 1 89 0 is_stmt 1 discriminator 1
 1342 0534 1D4B     		ldr	r3, .L154
 1343 0536 1B68     		ldr	r3, [r3]
 1344 0538 1344     		add	r3, r3, r2
 1345 053a 5B78     		ldrb	r3, [r3, #1]	@ zero_extendqisi2
 1346 053c 13F0970F 		tst	r3, #151
 1347 0540 05D0     		beq	.L147
  89:minmea/minmea.c **** }
 1348              		.loc 1 89 0 is_stmt 0
 1349 0542 2C2A     		cmp	r2, #44
 1350 0544 05D0     		beq	.L148
 1351 0546 2A2A     		cmp	r2, #42
 1352 0548 05D1     		bne	.L149
 1353 054a 0023     		movs	r3, #0
 1354 054c 04E0     		b	.L91
 1355              	.L147:
 1356 054e 0023     		movs	r3, #0
 1357 0550 02E0     		b	.L91
 1358              	.L148:
 1359 0552 0023     		movs	r3, #0
 1360 0554 00E0     		b	.L91
 1361              	.L149:
 1362 0556 0123     		movs	r3, #1
 1363              	.L91:
 1364              	.LVL157:
 1365              	.LBE82:
 1366              	.LBE81:
 1367              		.loc 1 329 0 is_stmt 1
 1368 0558 002B     		cmp	r3, #0
 1369 055a E9D1     		bne	.L92
 1370              		.loc 1 329 0 is_stmt 0 discriminator 3
 1371 055c 2C2A     		cmp	r2, #44
 1372 055e 04D1     		bne	.L150
 1373              		.loc 1 329 0 discriminator 4
 1374 0560 0134     		adds	r4, r4, #1
 1375              	.LVL158:
 1376 0562 2746     		mov	r7, r4
 1377 0564 02E0     		b	.L31
ARM GAS  C:\Users\crono\AppData\Local\Temp\ccd4dy0n.s 			page 32


 1378              	.LVL159:
 1379              	.L94:
 119:minmea/minmea.c ****             continue;
 1380              		.loc 1 119 0 is_stmt 1
 1381 0566 0126     		movs	r6, #1
 1382              	.LVL160:
 1383 0568 00E0     		b	.L31
 1384              	.LVL161:
 1385              	.L150:
 1386              		.loc 1 329 0
 1387 056a 0027     		movs	r7, #0
 1388              	.LVL162:
 1389              	.L31:
 1390              	.LBE86:
 114:minmea/minmea.c ****         char type = *format++;
 1391              		.loc 1 114 0
 1392 056c 2B78     		ldrb	r3, [r5]	@ zero_extendqisi2
 1393 056e 002B     		cmp	r3, #0
 1394 0570 7FF452AD 		bne	.L93
 330:minmea/minmea.c ****     }
 331:minmea/minmea.c **** 
 332:minmea/minmea.c ****     result = true;
 1395              		.loc 1 332 0
 1396 0574 0120     		movs	r0, #1
 1397 0576 14E0     		b	.L34
 1398              	.LVL163:
 1399              	.L95:
  94:minmea/minmea.c ****     bool optional = false;
 1400              		.loc 1 94 0
 1401 0578 0020     		movs	r0, #0
 1402 057a 12E0     		b	.L34
 1403              	.LVL164:
 1404              	.L96:
 1405 057c 0020     		movs	r0, #0
 1406 057e 10E0     		b	.L34
 1407              	.LVL165:
 1408              	.L106:
 1409 0580 0020     		movs	r0, #0
 1410 0582 0EE0     		b	.L34
 1411              	.LVL166:
 1412              	.L113:
 1413 0584 0020     		movs	r0, #0
 1414              	.LVL167:
 1415 0586 0CE0     		b	.L34
 1416              	.LVL168:
 1417              	.L114:
 1418 0588 0020     		movs	r0, #0
 1419              	.LVL169:
 1420 058a 0AE0     		b	.L34
 1421              	.LVL170:
 1422              	.L115:
 1423 058c 0020     		movs	r0, #0
 1424              	.LVL171:
 1425 058e 08E0     		b	.L34
 1426              	.LVL172:
 1427              	.L116:
 1428 0590 0020     		movs	r0, #0
ARM GAS  C:\Users\crono\AppData\Local\Temp\ccd4dy0n.s 			page 33


 1429              	.LVL173:
 1430 0592 06E0     		b	.L34
 1431              	.LVL174:
 1432              	.L120:
 1433 0594 0020     		movs	r0, #0
 1434              	.LVL175:
 1435 0596 04E0     		b	.L34
 1436              	.LVL176:
 1437              	.L130:
 1438 0598 0020     		movs	r0, #0
 1439 059a 02E0     		b	.L34
 1440              	.L131:
 1441 059c 0020     		movs	r0, #0
 1442 059e 00E0     		b	.L34
 1443              	.LVL177:
 1444              	.L135:
 1445 05a0 0020     		movs	r0, #0
 1446              	.LVL178:
 1447              	.L34:
 333:minmea/minmea.c **** 
 334:minmea/minmea.c **** parse_error:
 335:minmea/minmea.c ****     va_end(ap);
 336:minmea/minmea.c ****     return result;
 337:minmea/minmea.c **** }
 1448              		.loc 1 337 0
 1449 05a2 04B0     		add	sp, sp, #16
 1450              		.cfi_def_cfa_offset 48
 1451              		@ sp needed
 1452 05a4 BDE8F04F 		pop	{r4, r5, r6, r7, r8, r9, r10, fp, lr}
 1453              		.cfi_restore 14
 1454              		.cfi_restore 11
 1455              		.cfi_restore 10
 1456              		.cfi_restore 9
 1457              		.cfi_restore 8
 1458              		.cfi_restore 7
 1459              		.cfi_restore 6
 1460              		.cfi_restore 5
 1461              		.cfi_restore 4
 1462              		.cfi_def_cfa_offset 12
 1463              	.LVL179:
 1464 05a8 03B0     		add	sp, sp, #12
 1465              		.cfi_restore 3
 1466              		.cfi_restore 2
 1467              		.cfi_restore 1
 1468              		.cfi_def_cfa_offset 0
 1469 05aa 7047     		bx	lr
 1470              	.L155:
 1471              		.align	2
 1472              	.L154:
 1473 05ac 00000000 		.word	__ctype_ptr__
 1474 05b0 CDCCCCCC 		.word	-858993459
 1475 05b4 40420F00 		.word	1000000
 1476              		.cfi_endproc
 1477              	.LFE8:
 1478              		.size	minmea_scan, .-minmea_scan
 1479              		.section	.text.minmea_talker_id,"ax",%progbits
 1480              		.align	2
ARM GAS  C:\Users\crono\AppData\Local\Temp\ccd4dy0n.s 			page 34


 1481              		.global	minmea_talker_id
 1482              		.thumb
 1483              		.thumb_func
 1484              		.type	minmea_talker_id, %function
 1485              	minmea_talker_id:
 1486              	.LFB9:
 338:minmea/minmea.c **** 
 339:minmea/minmea.c **** bool minmea_talker_id(char talker[3], const char *sentence)
 340:minmea/minmea.c **** {
 1487              		.loc 1 340 0
 1488              		.cfi_startproc
 1489              		@ args = 0, pretend = 0, frame = 8
 1490              		@ frame_needed = 0, uses_anonymous_args = 0
 1491              	.LVL180:
 1492 0000 10B5     		push	{r4, lr}
 1493              		.cfi_def_cfa_offset 8
 1494              		.cfi_offset 4, -8
 1495              		.cfi_offset 14, -4
 1496 0002 82B0     		sub	sp, sp, #8
 1497              		.cfi_def_cfa_offset 16
 1498 0004 0446     		mov	r4, r0
 1499 0006 0846     		mov	r0, r1
 1500              	.LVL181:
 341:minmea/minmea.c ****     char type[6];
 342:minmea/minmea.c ****     if (!minmea_scan(sentence, "t", type))
 1501              		.loc 1 342 0
 1502 0008 6A46     		mov	r2, sp
 1503 000a 0849     		ldr	r1, .L159
 1504              	.LVL182:
 1505 000c FFF7FEFF 		bl	minmea_scan
 1506              	.LVL183:
 1507 0010 0346     		mov	r3, r0
 1508 0012 38B1     		cbz	r0, .L157
 343:minmea/minmea.c ****         return false;
 344:minmea/minmea.c **** 
 345:minmea/minmea.c ****     talker[0] = type[0];
 1509              		.loc 1 345 0
 1510 0014 9DF80020 		ldrb	r2, [sp]	@ zero_extendqisi2
 1511 0018 2270     		strb	r2, [r4]
 346:minmea/minmea.c ****     talker[1] = type[1];
 1512              		.loc 1 346 0
 1513 001a 9DF80120 		ldrb	r2, [sp, #1]	@ zero_extendqisi2
 1514 001e 6270     		strb	r2, [r4, #1]
 347:minmea/minmea.c ****     talker[2] = '\0';
 1515              		.loc 1 347 0
 1516 0020 0022     		movs	r2, #0
 1517 0022 A270     		strb	r2, [r4, #2]
 1518              	.L157:
 348:minmea/minmea.c **** 
 349:minmea/minmea.c ****     return true;
 350:minmea/minmea.c **** }
 1519              		.loc 1 350 0
 1520 0024 1846     		mov	r0, r3
 1521 0026 02B0     		add	sp, sp, #8
 1522              		.cfi_def_cfa_offset 8
 1523              		@ sp needed
 1524 0028 10BD     		pop	{r4, pc}
ARM GAS  C:\Users\crono\AppData\Local\Temp\ccd4dy0n.s 			page 35


 1525              	.LVL184:
 1526              	.L160:
 1527 002a 00BF     		.align	2
 1528              	.L159:
 1529 002c 08000000 		.word	.LC2
 1530              		.cfi_endproc
 1531              	.LFE9:
 1532              		.size	minmea_talker_id, .-minmea_talker_id
 1533              		.section	.text.minmea_sentence_id,"ax",%progbits
 1534              		.align	2
 1535              		.global	minmea_sentence_id
 1536              		.thumb
 1537              		.thumb_func
 1538              		.type	minmea_sentence_id, %function
 1539              	minmea_sentence_id:
 1540              	.LFB10:
 351:minmea/minmea.c **** 
 352:minmea/minmea.c **** enum minmea_sentence_id minmea_sentence_id(const char *sentence, bool strict)
 353:minmea/minmea.c **** {
 1541              		.loc 1 353 0
 1542              		.cfi_startproc
 1543              		@ args = 0, pretend = 0, frame = 8
 1544              		@ frame_needed = 0, uses_anonymous_args = 0
 1545              	.LVL185:
 1546 0000 10B5     		push	{r4, lr}
 1547              		.cfi_def_cfa_offset 8
 1548              		.cfi_offset 4, -8
 1549              		.cfi_offset 14, -4
 1550 0002 82B0     		sub	sp, sp, #8
 1551              		.cfi_def_cfa_offset 16
 1552 0004 0446     		mov	r4, r0
 354:minmea/minmea.c ****     if (!minmea_check(sentence, strict))
 1553              		.loc 1 354 0
 1554 0006 FFF7FEFF 		bl	minmea_check
 1555              	.LVL186:
 1556 000a 0028     		cmp	r0, #0
 1557 000c 37D0     		beq	.L163
 355:minmea/minmea.c ****         return MINMEA_INVALID;
 356:minmea/minmea.c **** 
 357:minmea/minmea.c ****     char type[6];
 358:minmea/minmea.c ****     if (!minmea_scan(sentence, "t", type))
 1558              		.loc 1 358 0
 1559 000e 6A46     		mov	r2, sp
 1560 0010 2649     		ldr	r1, .L174
 1561 0012 2046     		mov	r0, r4
 1562 0014 FFF7FEFF 		bl	minmea_scan
 1563              	.LVL187:
 1564 0018 A0B3     		cbz	r0, .L164
 359:minmea/minmea.c ****         return MINMEA_INVALID;
 360:minmea/minmea.c **** 
 361:minmea/minmea.c ****     if (!strcmp(type+2, "RMC"))
 1565              		.loc 1 361 0
 1566 001a 2549     		ldr	r1, .L174+4
 1567 001c 0DF10200 		add	r0, sp, #2
 1568 0020 FFF7FEFF 		bl	strcmp
 1569              	.LVL188:
 1570 0024 88B3     		cbz	r0, .L165
ARM GAS  C:\Users\crono\AppData\Local\Temp\ccd4dy0n.s 			page 36


 362:minmea/minmea.c ****         return MINMEA_SENTENCE_RMC;
 363:minmea/minmea.c ****     if (!strcmp(type+2, "GGA"))
 1571              		.loc 1 363 0
 1572 0026 2349     		ldr	r1, .L174+8
 1573 0028 0DF10200 		add	r0, sp, #2
 1574 002c FFF7FEFF 		bl	strcmp
 1575              	.LVL189:
 1576 0030 68B3     		cbz	r0, .L166
 364:minmea/minmea.c ****         return MINMEA_SENTENCE_GGA;
 365:minmea/minmea.c ****     if (!strcmp(type+2, "GSA"))
 1577              		.loc 1 365 0
 1578 0032 2149     		ldr	r1, .L174+12
 1579 0034 0DF10200 		add	r0, sp, #2
 1580 0038 FFF7FEFF 		bl	strcmp
 1581              	.LVL190:
 1582 003c 48B3     		cbz	r0, .L167
 366:minmea/minmea.c ****         return MINMEA_SENTENCE_GSA;
 367:minmea/minmea.c ****     if (!strcmp(type+2, "GLL"))
 1583              		.loc 1 367 0
 1584 003e 1F49     		ldr	r1, .L174+16
 1585 0040 0DF10200 		add	r0, sp, #2
 1586 0044 FFF7FEFF 		bl	strcmp
 1587              	.LVL191:
 1588 0048 28B3     		cbz	r0, .L168
 368:minmea/minmea.c ****         return MINMEA_SENTENCE_GLL;
 369:minmea/minmea.c ****     if (!strcmp(type+2, "GST"))
 1589              		.loc 1 369 0
 1590 004a 1D49     		ldr	r1, .L174+20
 1591 004c 0DF10200 		add	r0, sp, #2
 1592 0050 FFF7FEFF 		bl	strcmp
 1593              	.LVL192:
 1594 0054 08B3     		cbz	r0, .L169
 370:minmea/minmea.c ****         return MINMEA_SENTENCE_GST;
 371:minmea/minmea.c ****     if (!strcmp(type+2, "GSV"))
 1595              		.loc 1 371 0
 1596 0056 1B49     		ldr	r1, .L174+24
 1597 0058 0DF10200 		add	r0, sp, #2
 1598 005c FFF7FEFF 		bl	strcmp
 1599              	.LVL193:
 1600 0060 E8B1     		cbz	r0, .L170
 372:minmea/minmea.c ****         return MINMEA_SENTENCE_GSV;
 373:minmea/minmea.c ****     if (!strcmp(type+2, "VTG"))
 1601              		.loc 1 373 0
 1602 0062 1949     		ldr	r1, .L174+28
 1603 0064 0DF10200 		add	r0, sp, #2
 1604 0068 FFF7FEFF 		bl	strcmp
 1605              	.LVL194:
 1606 006c C8B1     		cbz	r0, .L171
 374:minmea/minmea.c ****         return MINMEA_SENTENCE_VTG;
 375:minmea/minmea.c ****     if (!strcmp(type+2, "ZDA"))
 1607              		.loc 1 375 0
 1608 006e 1749     		ldr	r1, .L174+32
 1609 0070 0DF10200 		add	r0, sp, #2
 1610 0074 FFF7FEFF 		bl	strcmp
 1611              	.LVL195:
 1612 0078 A8B9     		cbnz	r0, .L172
 376:minmea/minmea.c ****         return MINMEA_SENTENCE_ZDA;
ARM GAS  C:\Users\crono\AppData\Local\Temp\ccd4dy0n.s 			page 37


 1613              		.loc 1 376 0
 1614 007a 0820     		movs	r0, #8
 1615 007c 14E0     		b	.L162
 1616              	.L163:
 355:minmea/minmea.c **** 
 1617              		.loc 1 355 0
 1618 007e 4FF0FF30 		mov	r0, #-1
 1619 0082 11E0     		b	.L162
 1620              	.L164:
 359:minmea/minmea.c **** 
 1621              		.loc 1 359 0
 1622 0084 4FF0FF30 		mov	r0, #-1
 1623 0088 0EE0     		b	.L162
 1624              	.L165:
 362:minmea/minmea.c ****     if (!strcmp(type+2, "GGA"))
 1625              		.loc 1 362 0
 1626 008a 0120     		movs	r0, #1
 1627 008c 0CE0     		b	.L162
 1628              	.L166:
 364:minmea/minmea.c ****     if (!strcmp(type+2, "GSA"))
 1629              		.loc 1 364 0
 1630 008e 0220     		movs	r0, #2
 1631 0090 0AE0     		b	.L162
 1632              	.L167:
 366:minmea/minmea.c ****     if (!strcmp(type+2, "GLL"))
 1633              		.loc 1 366 0
 1634 0092 0320     		movs	r0, #3
 1635 0094 08E0     		b	.L162
 1636              	.L168:
 368:minmea/minmea.c ****     if (!strcmp(type+2, "GST"))
 1637              		.loc 1 368 0
 1638 0096 0420     		movs	r0, #4
 1639 0098 06E0     		b	.L162
 1640              	.L169:
 370:minmea/minmea.c ****     if (!strcmp(type+2, "GSV"))
 1641              		.loc 1 370 0
 1642 009a 0520     		movs	r0, #5
 1643 009c 04E0     		b	.L162
 1644              	.L170:
 372:minmea/minmea.c ****     if (!strcmp(type+2, "VTG"))
 1645              		.loc 1 372 0
 1646 009e 0620     		movs	r0, #6
 1647 00a0 02E0     		b	.L162
 1648              	.L171:
 374:minmea/minmea.c ****     if (!strcmp(type+2, "ZDA"))
 1649              		.loc 1 374 0
 1650 00a2 0720     		movs	r0, #7
 1651 00a4 00E0     		b	.L162
 1652              	.L172:
 377:minmea/minmea.c **** 
 378:minmea/minmea.c ****     return MINMEA_UNKNOWN;
 1653              		.loc 1 378 0
 1654 00a6 0020     		movs	r0, #0
 1655              	.L162:
 379:minmea/minmea.c **** }
 1656              		.loc 1 379 0
 1657 00a8 02B0     		add	sp, sp, #8
ARM GAS  C:\Users\crono\AppData\Local\Temp\ccd4dy0n.s 			page 38


 1658              		.cfi_def_cfa_offset 8
 1659              		@ sp needed
 1660 00aa 10BD     		pop	{r4, pc}
 1661              	.LVL196:
 1662              	.L175:
 1663              		.align	2
 1664              	.L174:
 1665 00ac 08000000 		.word	.LC2
 1666 00b0 0C000000 		.word	.LC3
 1667 00b4 10000000 		.word	.LC4
 1668 00b8 14000000 		.word	.LC5
 1669 00bc 18000000 		.word	.LC6
 1670 00c0 1C000000 		.word	.LC7
 1671 00c4 20000000 		.word	.LC8
 1672 00c8 24000000 		.word	.LC9
 1673 00cc 28000000 		.word	.LC10
 1674              		.cfi_endproc
 1675              	.LFE10:
 1676              		.size	minmea_sentence_id, .-minmea_sentence_id
 1677              		.section	.text.minmea_parse_rmc,"ax",%progbits
 1678              		.align	2
 1679              		.global	minmea_parse_rmc
 1680              		.thumb
 1681              		.thumb_func
 1682              		.type	minmea_parse_rmc, %function
 1683              	minmea_parse_rmc:
 1684              	.LFB11:
 380:minmea/minmea.c **** 
 381:minmea/minmea.c **** bool minmea_parse_rmc(struct minmea_sentence_rmc *frame, const char *sentence)
 382:minmea/minmea.c **** {
 1685              		.loc 1 382 0
 1686              		.cfi_startproc
 1687              		@ args = 0, pretend = 0, frame = 24
 1688              		@ frame_needed = 0, uses_anonymous_args = 0
 1689              	.LVL197:
 1690 0000 30B5     		push	{r4, r5, lr}
 1691              		.cfi_def_cfa_offset 12
 1692              		.cfi_offset 4, -12
 1693              		.cfi_offset 5, -8
 1694              		.cfi_offset 14, -4
 1695 0002 91B0     		sub	sp, sp, #68
 1696              		.cfi_def_cfa_offset 80
 1697 0004 0446     		mov	r4, r0
 1698 0006 0846     		mov	r0, r1
 1699              	.LVL198:
 383:minmea/minmea.c ****     // $GPRMC,081836,A,3751.65,S,14507.36,E,000.0,360.0,130998,011.3,E*62
 384:minmea/minmea.c ****     char type[6];
 385:minmea/minmea.c ****     char validity;
 386:minmea/minmea.c ****     int latitude_direction;
 387:minmea/minmea.c ****     int longitude_direction;
 388:minmea/minmea.c ****     int variation_direction;
 389:minmea/minmea.c ****     if (!minmea_scan(sentence, "tTcfdfdffDfd",
 1700              		.loc 1 389 0
 1701 0008 0AAB     		add	r3, sp, #40
 1702 000a 0993     		str	r3, [sp, #36]
 1703 000c 04F14003 		add	r3, r4, #64
 1704 0010 0893     		str	r3, [sp, #32]
ARM GAS  C:\Users\crono\AppData\Local\Temp\ccd4dy0n.s 			page 39


 1705 0012 04F13403 		add	r3, r4, #52
 1706 0016 0793     		str	r3, [sp, #28]
 1707 0018 04F12C03 		add	r3, r4, #44
 1708 001c 0693     		str	r3, [sp, #24]
 1709 001e 04F12403 		add	r3, r4, #36
 1710 0022 0593     		str	r3, [sp, #20]
 1711 0024 0BAB     		add	r3, sp, #44
 1712 0026 0493     		str	r3, [sp, #16]
 1713 0028 04F11C03 		add	r3, r4, #28
 1714 002c 0393     		str	r3, [sp, #12]
 1715 002e 0CAB     		add	r3, sp, #48
 1716 0030 0293     		str	r3, [sp, #8]
 1717 0032 04F11403 		add	r3, r4, #20
 1718 0036 0193     		str	r3, [sp, #4]
 1719 0038 0DF13703 		add	r3, sp, #55
 1720 003c 0093     		str	r3, [sp]
 1721 003e 2346     		mov	r3, r4
 1722 0040 0EAA     		add	r2, sp, #56
 1723 0042 1349     		ldr	r1, .L180
 1724              	.LVL199:
 1725 0044 FFF7FEFF 		bl	minmea_scan
 1726              	.LVL200:
 1727 0048 0546     		mov	r5, r0
 1728 004a E8B1     		cbz	r0, .L177
 390:minmea/minmea.c ****             type,
 391:minmea/minmea.c ****             &frame->time,
 392:minmea/minmea.c ****             &validity,
 393:minmea/minmea.c ****             &frame->latitude, &latitude_direction,
 394:minmea/minmea.c ****             &frame->longitude, &longitude_direction,
 395:minmea/minmea.c ****             &frame->speed,
 396:minmea/minmea.c ****             &frame->course,
 397:minmea/minmea.c ****             &frame->date,
 398:minmea/minmea.c ****             &frame->variation, &variation_direction))
 399:minmea/minmea.c ****         return false;
 400:minmea/minmea.c ****     if (strcmp(type+2, "RMC"))
 1729              		.loc 1 400 0
 1730 004c 1149     		ldr	r1, .L180+4
 1731 004e 0DF13A00 		add	r0, sp, #58
 1732 0052 FFF7FEFF 		bl	strcmp
 1733              	.LVL201:
 1734 0056 B0B9     		cbnz	r0, .L178
 401:minmea/minmea.c ****         return false;
 402:minmea/minmea.c **** 
 403:minmea/minmea.c ****     frame->valid = (validity == 'A');
 1735              		.loc 1 403 0
 1736 0058 9DF83730 		ldrb	r3, [sp, #55]	@ zero_extendqisi2
 1737 005c 412B     		cmp	r3, #65
 1738 005e 14BF     		ite	ne
 1739 0060 0023     		movne	r3, #0
 1740 0062 0123     		moveq	r3, #1
 1741 0064 2374     		strb	r3, [r4, #16]
 404:minmea/minmea.c ****     frame->latitude.value *= latitude_direction;
 1742              		.loc 1 404 0
 1743 0066 6269     		ldr	r2, [r4, #20]
 1744 0068 0C9B     		ldr	r3, [sp, #48]
 1745 006a 03FB02F3 		mul	r3, r3, r2
 1746 006e 6361     		str	r3, [r4, #20]
ARM GAS  C:\Users\crono\AppData\Local\Temp\ccd4dy0n.s 			page 40


 405:minmea/minmea.c ****     frame->longitude.value *= longitude_direction;
 1747              		.loc 1 405 0
 1748 0070 E269     		ldr	r2, [r4, #28]
 1749 0072 0B9B     		ldr	r3, [sp, #44]
 1750 0074 03FB02F3 		mul	r3, r3, r2
 1751 0078 E361     		str	r3, [r4, #28]
 406:minmea/minmea.c ****     frame->variation.value *= variation_direction;
 1752              		.loc 1 406 0
 1753 007a 226C     		ldr	r2, [r4, #64]
 1754 007c 0A9B     		ldr	r3, [sp, #40]
 1755 007e 03FB02F3 		mul	r3, r3, r2
 1756 0082 2364     		str	r3, [r4, #64]
 407:minmea/minmea.c **** 
 408:minmea/minmea.c ****     return true;
 1757              		.loc 1 408 0
 1758 0084 00E0     		b	.L177
 1759              	.L178:
 401:minmea/minmea.c **** 
 1760              		.loc 1 401 0
 1761 0086 0025     		movs	r5, #0
 1762              	.L177:
 409:minmea/minmea.c **** }
 1763              		.loc 1 409 0
 1764 0088 2846     		mov	r0, r5
 1765 008a 11B0     		add	sp, sp, #68
 1766              		.cfi_def_cfa_offset 12
 1767              		@ sp needed
 1768 008c 30BD     		pop	{r4, r5, pc}
 1769              	.LVL202:
 1770              	.L181:
 1771 008e 00BF     		.align	2
 1772              	.L180:
 1773 0090 2C000000 		.word	.LC11
 1774 0094 0C000000 		.word	.LC3
 1775              		.cfi_endproc
 1776              	.LFE11:
 1777              		.size	minmea_parse_rmc, .-minmea_parse_rmc
 1778              		.section	.text.minmea_parse_gga,"ax",%progbits
 1779              		.align	2
 1780              		.global	minmea_parse_gga
 1781              		.thumb
 1782              		.thumb_func
 1783              		.type	minmea_parse_gga, %function
 1784              	minmea_parse_gga:
 1785              	.LFB12:
 410:minmea/minmea.c **** 
 411:minmea/minmea.c **** bool minmea_parse_gga(struct minmea_sentence_gga *frame, const char *sentence)
 412:minmea/minmea.c **** {
 1786              		.loc 1 412 0
 1787              		.cfi_startproc
 1788              		@ args = 0, pretend = 0, frame = 16
 1789              		@ frame_needed = 0, uses_anonymous_args = 0
 1790              	.LVL203:
 1791 0000 30B5     		push	{r4, r5, lr}
 1792              		.cfi_def_cfa_offset 12
 1793              		.cfi_offset 4, -12
 1794              		.cfi_offset 5, -8
ARM GAS  C:\Users\crono\AppData\Local\Temp\ccd4dy0n.s 			page 41


 1795              		.cfi_offset 14, -4
 1796 0002 91B0     		sub	sp, sp, #68
 1797              		.cfi_def_cfa_offset 80
 1798 0004 0446     		mov	r4, r0
 1799 0006 0846     		mov	r0, r1
 1800              	.LVL204:
 413:minmea/minmea.c ****     // $GPGGA,123519,4807.038,N,01131.000,E,1,08,0.9,545.4,M,46.9,M,,*47
 414:minmea/minmea.c ****     char type[6];
 415:minmea/minmea.c ****     int latitude_direction;
 416:minmea/minmea.c ****     int longitude_direction;
 417:minmea/minmea.c **** 
 418:minmea/minmea.c ****     if (!minmea_scan(sentence, "tTfdfdiiffcfci_",
 1801              		.loc 1 418 0
 1802 0008 04F14803 		add	r3, r4, #72
 1803 000c 0B93     		str	r3, [sp, #44]
 1804 000e 04F14403 		add	r3, r4, #68
 1805 0012 0A93     		str	r3, [sp, #40]
 1806 0014 04F13C03 		add	r3, r4, #60
 1807 0018 0993     		str	r3, [sp, #36]
 1808 001a 04F13803 		add	r3, r4, #56
 1809 001e 0893     		str	r3, [sp, #32]
 1810 0020 04F13003 		add	r3, r4, #48
 1811 0024 0793     		str	r3, [sp, #28]
 1812 0026 04F12803 		add	r3, r4, #40
 1813 002a 0693     		str	r3, [sp, #24]
 1814 002c 04F12403 		add	r3, r4, #36
 1815 0030 0593     		str	r3, [sp, #20]
 1816 0032 04F12003 		add	r3, r4, #32
 1817 0036 0493     		str	r3, [sp, #16]
 1818 0038 0CAB     		add	r3, sp, #48
 1819 003a 0393     		str	r3, [sp, #12]
 1820 003c 04F11803 		add	r3, r4, #24
 1821 0040 0293     		str	r3, [sp, #8]
 1822 0042 0DAB     		add	r3, sp, #52
 1823 0044 0193     		str	r3, [sp, #4]
 1824 0046 04F11003 		add	r3, r4, #16
 1825 004a 0093     		str	r3, [sp]
 1826 004c 2346     		mov	r3, r4
 1827 004e 0EAA     		add	r2, sp, #56
 1828 0050 0C49     		ldr	r1, .L186
 1829              	.LVL205:
 1830 0052 FFF7FEFF 		bl	minmea_scan
 1831              	.LVL206:
 1832 0056 0546     		mov	r5, r0
 1833 0058 88B1     		cbz	r0, .L183
 419:minmea/minmea.c ****             type,
 420:minmea/minmea.c ****             &frame->time,
 421:minmea/minmea.c ****             &frame->latitude, &latitude_direction,
 422:minmea/minmea.c ****             &frame->longitude, &longitude_direction,
 423:minmea/minmea.c ****             &frame->fix_quality,
 424:minmea/minmea.c ****             &frame->satellites_tracked,
 425:minmea/minmea.c ****             &frame->hdop,
 426:minmea/minmea.c ****             &frame->altitude, &frame->altitude_units,
 427:minmea/minmea.c ****             &frame->height, &frame->height_units,
 428:minmea/minmea.c ****             &frame->dgps_age))
 429:minmea/minmea.c ****         return false;
 430:minmea/minmea.c ****     if (strcmp(type+2, "GGA"))
ARM GAS  C:\Users\crono\AppData\Local\Temp\ccd4dy0n.s 			page 42


 1834              		.loc 1 430 0
 1835 005a 0B49     		ldr	r1, .L186+4
 1836 005c 0DF13A00 		add	r0, sp, #58
 1837 0060 FFF7FEFF 		bl	strcmp
 1838              	.LVL207:
 1839 0064 50B9     		cbnz	r0, .L184
 431:minmea/minmea.c ****         return false;
 432:minmea/minmea.c **** 
 433:minmea/minmea.c ****     frame->latitude.value *= latitude_direction;
 1840              		.loc 1 433 0
 1841 0066 2269     		ldr	r2, [r4, #16]
 1842 0068 0D9B     		ldr	r3, [sp, #52]
 1843 006a 03FB02F3 		mul	r3, r3, r2
 1844 006e 2361     		str	r3, [r4, #16]
 434:minmea/minmea.c ****     frame->longitude.value *= longitude_direction;
 1845              		.loc 1 434 0
 1846 0070 A269     		ldr	r2, [r4, #24]
 1847 0072 0C9B     		ldr	r3, [sp, #48]
 1848 0074 03FB02F3 		mul	r3, r3, r2
 1849 0078 A361     		str	r3, [r4, #24]
 435:minmea/minmea.c **** 
 436:minmea/minmea.c ****     return true;
 1850              		.loc 1 436 0
 1851 007a 00E0     		b	.L183
 1852              	.L184:
 431:minmea/minmea.c **** 
 1853              		.loc 1 431 0
 1854 007c 0025     		movs	r5, #0
 1855              	.L183:
 437:minmea/minmea.c **** }
 1856              		.loc 1 437 0
 1857 007e 2846     		mov	r0, r5
 1858 0080 11B0     		add	sp, sp, #68
 1859              		.cfi_def_cfa_offset 12
 1860              		@ sp needed
 1861 0082 30BD     		pop	{r4, r5, pc}
 1862              	.LVL208:
 1863              	.L187:
 1864              		.align	2
 1865              	.L186:
 1866 0084 3C000000 		.word	.LC12
 1867 0088 10000000 		.word	.LC4
 1868              		.cfi_endproc
 1869              	.LFE12:
 1870              		.size	minmea_parse_gga, .-minmea_parse_gga
 1871              		.section	.text.minmea_parse_gsa,"ax",%progbits
 1872              		.align	2
 1873              		.global	minmea_parse_gsa
 1874              		.thumb
 1875              		.thumb_func
 1876              		.type	minmea_parse_gsa, %function
 1877              	minmea_parse_gsa:
 1878              	.LFB13:
 438:minmea/minmea.c **** 
 439:minmea/minmea.c **** bool minmea_parse_gsa(struct minmea_sentence_gsa *frame, const char *sentence)
 440:minmea/minmea.c **** {
 1879              		.loc 1 440 0
ARM GAS  C:\Users\crono\AppData\Local\Temp\ccd4dy0n.s 			page 43


 1880              		.cfi_startproc
 1881              		@ args = 0, pretend = 0, frame = 8
 1882              		@ frame_needed = 0, uses_anonymous_args = 0
 1883              	.LVL209:
 1884 0000 10B5     		push	{r4, lr}
 1885              		.cfi_def_cfa_offset 8
 1886              		.cfi_offset 4, -8
 1887              		.cfi_offset 14, -4
 1888 0002 92B0     		sub	sp, sp, #72
 1889              		.cfi_def_cfa_offset 80
 1890 0004 0346     		mov	r3, r0
 1891 0006 0846     		mov	r0, r1
 1892              	.LVL210:
 441:minmea/minmea.c ****     // $GPGSA,A,3,04,05,,09,12,,,24,,,,,2.5,1.3,2.1*39
 442:minmea/minmea.c ****     char type[6];
 443:minmea/minmea.c **** 
 444:minmea/minmea.c ****     if (!minmea_scan(sentence, "tciiiiiiiiiiiiifff",
 1893              		.loc 1 444 0
 1894 0008 03F14802 		add	r2, r3, #72
 1895 000c 0F92     		str	r2, [sp, #60]
 1896 000e 03F14002 		add	r2, r3, #64
 1897 0012 0E92     		str	r2, [sp, #56]
 1898 0014 03F13802 		add	r2, r3, #56
 1899 0018 0D92     		str	r2, [sp, #52]
 1900 001a 03F13402 		add	r2, r3, #52
 1901 001e 0C92     		str	r2, [sp, #48]
 1902 0020 03F13002 		add	r2, r3, #48
 1903 0024 0B92     		str	r2, [sp, #44]
 1904 0026 03F12C02 		add	r2, r3, #44
 1905 002a 0A92     		str	r2, [sp, #40]
 1906 002c 03F12802 		add	r2, r3, #40
 1907 0030 0992     		str	r2, [sp, #36]
 1908 0032 03F12402 		add	r2, r3, #36
 1909 0036 0892     		str	r2, [sp, #32]
 1910 0038 03F12002 		add	r2, r3, #32
 1911 003c 0792     		str	r2, [sp, #28]
 1912 003e 03F11C02 		add	r2, r3, #28
 1913 0042 0692     		str	r2, [sp, #24]
 1914 0044 03F11802 		add	r2, r3, #24
 1915 0048 0592     		str	r2, [sp, #20]
 1916 004a 03F11402 		add	r2, r3, #20
 1917 004e 0492     		str	r2, [sp, #16]
 1918 0050 03F11002 		add	r2, r3, #16
 1919 0054 0392     		str	r2, [sp, #12]
 1920 0056 03F10C02 		add	r2, r3, #12
 1921 005a 0292     		str	r2, [sp, #8]
 1922 005c 03F10802 		add	r2, r3, #8
 1923 0060 0192     		str	r2, [sp, #4]
 1924 0062 1A1D     		adds	r2, r3, #4
 1925 0064 0092     		str	r2, [sp]
 1926 0066 10AA     		add	r2, sp, #64
 1927 0068 0749     		ldr	r1, .L191
 1928              	.LVL211:
 1929 006a FFF7FEFF 		bl	minmea_scan
 1930              	.LVL212:
 1931 006e 0446     		mov	r4, r0
 1932 0070 30B1     		cbz	r0, .L189
ARM GAS  C:\Users\crono\AppData\Local\Temp\ccd4dy0n.s 			page 44


 445:minmea/minmea.c ****             type,
 446:minmea/minmea.c ****             &frame->mode,
 447:minmea/minmea.c ****             &frame->fix_type,
 448:minmea/minmea.c ****             &frame->sats[0],
 449:minmea/minmea.c ****             &frame->sats[1],
 450:minmea/minmea.c ****             &frame->sats[2],
 451:minmea/minmea.c ****             &frame->sats[3],
 452:minmea/minmea.c ****             &frame->sats[4],
 453:minmea/minmea.c ****             &frame->sats[5],
 454:minmea/minmea.c ****             &frame->sats[6],
 455:minmea/minmea.c ****             &frame->sats[7],
 456:minmea/minmea.c ****             &frame->sats[8],
 457:minmea/minmea.c ****             &frame->sats[9],
 458:minmea/minmea.c ****             &frame->sats[10],
 459:minmea/minmea.c ****             &frame->sats[11],
 460:minmea/minmea.c ****             &frame->pdop,
 461:minmea/minmea.c ****             &frame->hdop,
 462:minmea/minmea.c ****             &frame->vdop))
 463:minmea/minmea.c ****         return false;
 464:minmea/minmea.c ****     if (strcmp(type+2, "GSA"))
 1933              		.loc 1 464 0
 1934 0072 0649     		ldr	r1, .L191+4
 1935 0074 0DF14200 		add	r0, sp, #66
 1936 0078 FFF7FEFF 		bl	strcmp
 1937              	.LVL213:
 1938 007c 00B1     		cbz	r0, .L189
 465:minmea/minmea.c ****         return false;
 1939              		.loc 1 465 0
 1940 007e 0024     		movs	r4, #0
 1941              	.L189:
 466:minmea/minmea.c **** 
 467:minmea/minmea.c ****     return true;
 468:minmea/minmea.c **** }
 1942              		.loc 1 468 0
 1943 0080 2046     		mov	r0, r4
 1944 0082 12B0     		add	sp, sp, #72
 1945              		.cfi_def_cfa_offset 8
 1946              		@ sp needed
 1947 0084 10BD     		pop	{r4, pc}
 1948              	.L192:
 1949 0086 00BF     		.align	2
 1950              	.L191:
 1951 0088 4C000000 		.word	.LC13
 1952 008c 14000000 		.word	.LC5
 1953              		.cfi_endproc
 1954              	.LFE13:
 1955              		.size	minmea_parse_gsa, .-minmea_parse_gsa
 1956              		.section	.text.minmea_parse_gll,"ax",%progbits
 1957              		.align	2
 1958              		.global	minmea_parse_gll
 1959              		.thumb
 1960              		.thumb_func
 1961              		.type	minmea_parse_gll, %function
 1962              	minmea_parse_gll:
 1963              	.LFB14:
 469:minmea/minmea.c **** 
 470:minmea/minmea.c **** bool minmea_parse_gll(struct minmea_sentence_gll *frame, const char *sentence)
ARM GAS  C:\Users\crono\AppData\Local\Temp\ccd4dy0n.s 			page 45


 471:minmea/minmea.c **** {
 1964              		.loc 1 471 0
 1965              		.cfi_startproc
 1966              		@ args = 0, pretend = 0, frame = 16
 1967              		@ frame_needed = 0, uses_anonymous_args = 0
 1968              	.LVL214:
 1969 0000 30B5     		push	{r4, r5, lr}
 1970              		.cfi_def_cfa_offset 12
 1971              		.cfi_offset 4, -12
 1972              		.cfi_offset 5, -8
 1973              		.cfi_offset 14, -4
 1974 0002 8BB0     		sub	sp, sp, #44
 1975              		.cfi_def_cfa_offset 56
 1976 0004 0446     		mov	r4, r0
 1977 0006 0846     		mov	r0, r1
 1978              	.LVL215:
 472:minmea/minmea.c ****     // $GPGLL,3723.2475,N,12158.3416,W,161229.487,A,A*41$;
 473:minmea/minmea.c ****     char type[6];
 474:minmea/minmea.c ****     int latitude_direction;
 475:minmea/minmea.c ****     int longitude_direction;
 476:minmea/minmea.c **** 
 477:minmea/minmea.c ****     if (!minmea_scan(sentence, "tfdfdTc;c",
 1979              		.loc 1 477 0
 1980 0008 04F12103 		add	r3, r4, #33
 1981 000c 0593     		str	r3, [sp, #20]
 1982 000e 04F12003 		add	r3, r4, #32
 1983 0012 0493     		str	r3, [sp, #16]
 1984 0014 04F11003 		add	r3, r4, #16
 1985 0018 0393     		str	r3, [sp, #12]
 1986 001a 06AB     		add	r3, sp, #24
 1987 001c 0293     		str	r3, [sp, #8]
 1988 001e 04F10803 		add	r3, r4, #8
 1989 0022 0193     		str	r3, [sp, #4]
 1990 0024 07AB     		add	r3, sp, #28
 1991 0026 0093     		str	r3, [sp]
 1992 0028 2346     		mov	r3, r4
 1993 002a 08AA     		add	r2, sp, #32
 1994 002c 0C49     		ldr	r1, .L197
 1995              	.LVL216:
 1996 002e FFF7FEFF 		bl	minmea_scan
 1997              	.LVL217:
 1998 0032 0546     		mov	r5, r0
 1999 0034 88B1     		cbz	r0, .L194
 478:minmea/minmea.c ****             type,
 479:minmea/minmea.c ****             &frame->latitude, &latitude_direction,
 480:minmea/minmea.c ****             &frame->longitude, &longitude_direction,
 481:minmea/minmea.c ****             &frame->time,
 482:minmea/minmea.c ****             &frame->status,
 483:minmea/minmea.c ****             &frame->mode))
 484:minmea/minmea.c ****         return false;
 485:minmea/minmea.c ****     if (strcmp(type+2, "GLL"))
 2000              		.loc 1 485 0
 2001 0036 0B49     		ldr	r1, .L197+4
 2002 0038 0DF12200 		add	r0, sp, #34
 2003 003c FFF7FEFF 		bl	strcmp
 2004              	.LVL218:
 2005 0040 50B9     		cbnz	r0, .L195
ARM GAS  C:\Users\crono\AppData\Local\Temp\ccd4dy0n.s 			page 46


 486:minmea/minmea.c ****         return false;
 487:minmea/minmea.c **** 
 488:minmea/minmea.c ****     frame->latitude.value *= latitude_direction;
 2006              		.loc 1 488 0
 2007 0042 2268     		ldr	r2, [r4]
 2008 0044 079B     		ldr	r3, [sp, #28]
 2009 0046 03FB02F3 		mul	r3, r3, r2
 2010 004a 2360     		str	r3, [r4]
 489:minmea/minmea.c ****     frame->longitude.value *= longitude_direction;
 2011              		.loc 1 489 0
 2012 004c A268     		ldr	r2, [r4, #8]
 2013 004e 069B     		ldr	r3, [sp, #24]
 2014 0050 03FB02F3 		mul	r3, r3, r2
 2015 0054 A360     		str	r3, [r4, #8]
 490:minmea/minmea.c **** 
 491:minmea/minmea.c ****     return true;
 2016              		.loc 1 491 0
 2017 0056 00E0     		b	.L194
 2018              	.L195:
 486:minmea/minmea.c **** 
 2019              		.loc 1 486 0
 2020 0058 0025     		movs	r5, #0
 2021              	.L194:
 492:minmea/minmea.c **** }
 2022              		.loc 1 492 0
 2023 005a 2846     		mov	r0, r5
 2024 005c 0BB0     		add	sp, sp, #44
 2025              		.cfi_def_cfa_offset 12
 2026              		@ sp needed
 2027 005e 30BD     		pop	{r4, r5, pc}
 2028              	.LVL219:
 2029              	.L198:
 2030              		.align	2
 2031              	.L197:
 2032 0060 60000000 		.word	.LC14
 2033 0064 18000000 		.word	.LC6
 2034              		.cfi_endproc
 2035              	.LFE14:
 2036              		.size	minmea_parse_gll, .-minmea_parse_gll
 2037              		.section	.text.minmea_parse_gst,"ax",%progbits
 2038              		.align	2
 2039              		.global	minmea_parse_gst
 2040              		.thumb
 2041              		.thumb_func
 2042              		.type	minmea_parse_gst, %function
 2043              	minmea_parse_gst:
 2044              	.LFB15:
 493:minmea/minmea.c **** 
 494:minmea/minmea.c **** bool minmea_parse_gst(struct minmea_sentence_gst *frame, const char *sentence)
 495:minmea/minmea.c **** {
 2045              		.loc 1 495 0
 2046              		.cfi_startproc
 2047              		@ args = 0, pretend = 0, frame = 8
 2048              		@ frame_needed = 0, uses_anonymous_args = 0
 2049              	.LVL220:
 2050 0000 10B5     		push	{r4, lr}
 2051              		.cfi_def_cfa_offset 8
ARM GAS  C:\Users\crono\AppData\Local\Temp\ccd4dy0n.s 			page 47


 2052              		.cfi_offset 4, -8
 2053              		.cfi_offset 14, -4
 2054 0002 8AB0     		sub	sp, sp, #40
 2055              		.cfi_def_cfa_offset 48
 2056 0004 0346     		mov	r3, r0
 2057 0006 0846     		mov	r0, r1
 2058              	.LVL221:
 496:minmea/minmea.c ****     // $GPGST,024603.00,3.2,6.6,4.7,47.3,5.8,5.6,22.0*58
 497:minmea/minmea.c ****     char type[6];
 498:minmea/minmea.c **** 
 499:minmea/minmea.c ****     if (!minmea_scan(sentence, "tTfffffff",
 2059              		.loc 1 499 0
 2060 0008 03F14002 		add	r2, r3, #64
 2061 000c 0692     		str	r2, [sp, #24]
 2062 000e 03F13802 		add	r2, r3, #56
 2063 0012 0592     		str	r2, [sp, #20]
 2064 0014 03F13002 		add	r2, r3, #48
 2065 0018 0492     		str	r2, [sp, #16]
 2066 001a 03F12802 		add	r2, r3, #40
 2067 001e 0392     		str	r2, [sp, #12]
 2068 0020 03F12002 		add	r2, r3, #32
 2069 0024 0292     		str	r2, [sp, #8]
 2070 0026 03F11802 		add	r2, r3, #24
 2071 002a 0192     		str	r2, [sp, #4]
 2072 002c 03F11002 		add	r2, r3, #16
 2073 0030 0092     		str	r2, [sp]
 2074 0032 08AA     		add	r2, sp, #32
 2075 0034 0749     		ldr	r1, .L202
 2076              	.LVL222:
 2077 0036 FFF7FEFF 		bl	minmea_scan
 2078              	.LVL223:
 2079 003a 0446     		mov	r4, r0
 2080 003c 30B1     		cbz	r0, .L200
 500:minmea/minmea.c ****             type,
 501:minmea/minmea.c ****             &frame->time,
 502:minmea/minmea.c ****             &frame->rms_deviation,
 503:minmea/minmea.c ****             &frame->semi_major_deviation,
 504:minmea/minmea.c ****             &frame->semi_minor_deviation,
 505:minmea/minmea.c ****             &frame->semi_major_orientation,
 506:minmea/minmea.c ****             &frame->latitude_error_deviation,
 507:minmea/minmea.c ****             &frame->longitude_error_deviation,
 508:minmea/minmea.c ****             &frame->altitude_error_deviation))
 509:minmea/minmea.c ****         return false;
 510:minmea/minmea.c ****     if (strcmp(type+2, "GST"))
 2081              		.loc 1 510 0
 2082 003e 0649     		ldr	r1, .L202+4
 2083 0040 0DF12200 		add	r0, sp, #34
 2084 0044 FFF7FEFF 		bl	strcmp
 2085              	.LVL224:
 2086 0048 00B1     		cbz	r0, .L200
 511:minmea/minmea.c ****         return false;
 2087              		.loc 1 511 0
 2088 004a 0024     		movs	r4, #0
 2089              	.L200:
 512:minmea/minmea.c **** 
 513:minmea/minmea.c ****     return true;
 514:minmea/minmea.c **** }
ARM GAS  C:\Users\crono\AppData\Local\Temp\ccd4dy0n.s 			page 48


 2090              		.loc 1 514 0
 2091 004c 2046     		mov	r0, r4
 2092 004e 0AB0     		add	sp, sp, #40
 2093              		.cfi_def_cfa_offset 8
 2094              		@ sp needed
 2095 0050 10BD     		pop	{r4, pc}
 2096              	.L203:
 2097 0052 00BF     		.align	2
 2098              	.L202:
 2099 0054 6C000000 		.word	.LC15
 2100 0058 1C000000 		.word	.LC7
 2101              		.cfi_endproc
 2102              	.LFE15:
 2103              		.size	minmea_parse_gst, .-minmea_parse_gst
 2104              		.section	.text.minmea_parse_gsv,"ax",%progbits
 2105              		.align	2
 2106              		.global	minmea_parse_gsv
 2107              		.thumb
 2108              		.thumb_func
 2109              		.type	minmea_parse_gsv, %function
 2110              	minmea_parse_gsv:
 2111              	.LFB16:
 515:minmea/minmea.c **** 
 516:minmea/minmea.c **** bool minmea_parse_gsv(struct minmea_sentence_gsv *frame, const char *sentence)
 517:minmea/minmea.c **** {
 2112              		.loc 1 517 0
 2113              		.cfi_startproc
 2114              		@ args = 0, pretend = 0, frame = 8
 2115              		@ frame_needed = 0, uses_anonymous_args = 0
 2116              	.LVL225:
 2117 0000 10B5     		push	{r4, lr}
 2118              		.cfi_def_cfa_offset 8
 2119              		.cfi_offset 4, -8
 2120              		.cfi_offset 14, -4
 2121 0002 94B0     		sub	sp, sp, #80
 2122              		.cfi_def_cfa_offset 88
 2123 0004 0346     		mov	r3, r0
 2124 0006 0846     		mov	r0, r1
 2125              	.LVL226:
 518:minmea/minmea.c ****     // $GPGSV,3,1,11,03,03,111,00,04,15,270,00,06,01,010,00,13,06,292,00*74
 519:minmea/minmea.c ****     // $GPGSV,3,3,11,22,42,067,42,24,14,311,43,27,05,244,00,,,,*4D
 520:minmea/minmea.c ****     // $GPGSV,4,2,11,08,51,203,30,09,45,215,28*75
 521:minmea/minmea.c ****     // $GPGSV,4,4,13,39,31,170,27*40
 522:minmea/minmea.c ****     // $GPGSV,4,4,13*7B
 523:minmea/minmea.c ****     char type[6];
 524:minmea/minmea.c **** 
 525:minmea/minmea.c ****     if (!minmea_scan(sentence, "tiii;iiiiiiiiiiiiiiii",
 2126              		.loc 1 525 0
 2127 0008 03F14802 		add	r2, r3, #72
 2128 000c 1192     		str	r2, [sp, #68]
 2129 000e 03F14402 		add	r2, r3, #68
 2130 0012 1092     		str	r2, [sp, #64]
 2131 0014 03F14002 		add	r2, r3, #64
 2132 0018 0F92     		str	r2, [sp, #60]
 2133 001a 03F13C02 		add	r2, r3, #60
 2134 001e 0E92     		str	r2, [sp, #56]
 2135 0020 03F13802 		add	r2, r3, #56
ARM GAS  C:\Users\crono\AppData\Local\Temp\ccd4dy0n.s 			page 49


 2136 0024 0D92     		str	r2, [sp, #52]
 2137 0026 03F13402 		add	r2, r3, #52
 2138 002a 0C92     		str	r2, [sp, #48]
 2139 002c 03F13002 		add	r2, r3, #48
 2140 0030 0B92     		str	r2, [sp, #44]
 2141 0032 03F12C02 		add	r2, r3, #44
 2142 0036 0A92     		str	r2, [sp, #40]
 2143 0038 03F12802 		add	r2, r3, #40
 2144 003c 0992     		str	r2, [sp, #36]
 2145 003e 03F12402 		add	r2, r3, #36
 2146 0042 0892     		str	r2, [sp, #32]
 2147 0044 03F12002 		add	r2, r3, #32
 2148 0048 0792     		str	r2, [sp, #28]
 2149 004a 03F11C02 		add	r2, r3, #28
 2150 004e 0692     		str	r2, [sp, #24]
 2151 0050 03F11802 		add	r2, r3, #24
 2152 0054 0592     		str	r2, [sp, #20]
 2153 0056 03F11402 		add	r2, r3, #20
 2154 005a 0492     		str	r2, [sp, #16]
 2155 005c 03F11002 		add	r2, r3, #16
 2156 0060 0392     		str	r2, [sp, #12]
 2157 0062 03F10C02 		add	r2, r3, #12
 2158 0066 0292     		str	r2, [sp, #8]
 2159 0068 03F10802 		add	r2, r3, #8
 2160 006c 0192     		str	r2, [sp, #4]
 2161 006e 1A1D     		adds	r2, r3, #4
 2162 0070 0092     		str	r2, [sp]
 2163 0072 12AA     		add	r2, sp, #72
 2164 0074 0749     		ldr	r1, .L207
 2165              	.LVL227:
 2166 0076 FFF7FEFF 		bl	minmea_scan
 2167              	.LVL228:
 2168 007a 0446     		mov	r4, r0
 2169 007c 30B1     		cbz	r0, .L205
 526:minmea/minmea.c ****             type,
 527:minmea/minmea.c ****             &frame->total_msgs,
 528:minmea/minmea.c ****             &frame->msg_nr,
 529:minmea/minmea.c ****             &frame->total_sats,
 530:minmea/minmea.c ****             &frame->sats[0].nr,
 531:minmea/minmea.c ****             &frame->sats[0].elevation,
 532:minmea/minmea.c ****             &frame->sats[0].azimuth,
 533:minmea/minmea.c ****             &frame->sats[0].snr,
 534:minmea/minmea.c ****             &frame->sats[1].nr,
 535:minmea/minmea.c ****             &frame->sats[1].elevation,
 536:minmea/minmea.c ****             &frame->sats[1].azimuth,
 537:minmea/minmea.c ****             &frame->sats[1].snr,
 538:minmea/minmea.c ****             &frame->sats[2].nr,
 539:minmea/minmea.c ****             &frame->sats[2].elevation,
 540:minmea/minmea.c ****             &frame->sats[2].azimuth,
 541:minmea/minmea.c ****             &frame->sats[2].snr,
 542:minmea/minmea.c ****             &frame->sats[3].nr,
 543:minmea/minmea.c ****             &frame->sats[3].elevation,
 544:minmea/minmea.c ****             &frame->sats[3].azimuth,
 545:minmea/minmea.c ****             &frame->sats[3].snr
 546:minmea/minmea.c ****             )) {
 547:minmea/minmea.c ****         return false;
 548:minmea/minmea.c ****     }
ARM GAS  C:\Users\crono\AppData\Local\Temp\ccd4dy0n.s 			page 50


 549:minmea/minmea.c ****     if (strcmp(type+2, "GSV"))
 2170              		.loc 1 549 0
 2171 007e 0649     		ldr	r1, .L207+4
 2172 0080 0DF14A00 		add	r0, sp, #74
 2173 0084 FFF7FEFF 		bl	strcmp
 2174              	.LVL229:
 2175 0088 00B1     		cbz	r0, .L205
 550:minmea/minmea.c ****         return false;
 2176              		.loc 1 550 0
 2177 008a 0024     		movs	r4, #0
 2178              	.L205:
 551:minmea/minmea.c **** 
 552:minmea/minmea.c ****     return true;
 553:minmea/minmea.c **** }
 2179              		.loc 1 553 0
 2180 008c 2046     		mov	r0, r4
 2181 008e 14B0     		add	sp, sp, #80
 2182              		.cfi_def_cfa_offset 8
 2183              		@ sp needed
 2184 0090 10BD     		pop	{r4, pc}
 2185              	.L208:
 2186 0092 00BF     		.align	2
 2187              	.L207:
 2188 0094 78000000 		.word	.LC16
 2189 0098 20000000 		.word	.LC8
 2190              		.cfi_endproc
 2191              	.LFE16:
 2192              		.size	minmea_parse_gsv, .-minmea_parse_gsv
 2193              		.section	.text.minmea_parse_vtg,"ax",%progbits
 2194              		.align	2
 2195              		.global	minmea_parse_vtg
 2196              		.thumb
 2197              		.thumb_func
 2198              		.type	minmea_parse_vtg, %function
 2199              	minmea_parse_vtg:
 2200              	.LFB17:
 554:minmea/minmea.c **** 
 555:minmea/minmea.c **** bool minmea_parse_vtg(struct minmea_sentence_vtg *frame, const char *sentence)
 556:minmea/minmea.c **** {
 2201              		.loc 1 556 0
 2202              		.cfi_startproc
 2203              		@ args = 0, pretend = 0, frame = 16
 2204              		@ frame_needed = 0, uses_anonymous_args = 0
 2205              	.LVL230:
 2206 0000 30B5     		push	{r4, r5, lr}
 2207              		.cfi_def_cfa_offset 12
 2208              		.cfi_offset 4, -12
 2209              		.cfi_offset 5, -8
 2210              		.cfi_offset 14, -4
 2211 0002 8DB0     		sub	sp, sp, #52
 2212              		.cfi_def_cfa_offset 64
 2213 0004 0446     		mov	r4, r0
 2214 0006 0846     		mov	r0, r1
 2215              	.LVL231:
 557:minmea/minmea.c ****     // $GPVTG,054.7,T,034.4,M,005.5,N,010.2,K*48
 558:minmea/minmea.c ****     // $GPVTG,156.1,T,140.9,M,0.0,N,0.0,K*41
 559:minmea/minmea.c ****     // $GPVTG,096.5,T,083.5,M,0.0,N,0.0,K,D*22
ARM GAS  C:\Users\crono\AppData\Local\Temp\ccd4dy0n.s 			page 51


 560:minmea/minmea.c ****     // $GPVTG,188.36,T,,M,0.820,N,1.519,K,A*3F
 561:minmea/minmea.c ****     char type[6];
 562:minmea/minmea.c ****     char c_true, c_magnetic, c_knots, c_kph, c_faa_mode;
 563:minmea/minmea.c **** 
 564:minmea/minmea.c ****     if (!minmea_scan(sentence, "tfcfcfcfc;c",
 2216              		.loc 1 564 0
 2217 0008 0DF12303 		add	r3, sp, #35
 2218 000c 0793     		str	r3, [sp, #28]
 2219 000e 09AB     		add	r3, sp, #36
 2220 0010 0693     		str	r3, [sp, #24]
 2221 0012 04F11803 		add	r3, r4, #24
 2222 0016 0593     		str	r3, [sp, #20]
 2223 0018 0DF12503 		add	r3, sp, #37
 2224 001c 0493     		str	r3, [sp, #16]
 2225 001e 04F11003 		add	r3, r4, #16
 2226 0022 0393     		str	r3, [sp, #12]
 2227 0024 0DF12603 		add	r3, sp, #38
 2228 0028 0293     		str	r3, [sp, #8]
 2229 002a 04F10803 		add	r3, r4, #8
 2230 002e 0193     		str	r3, [sp, #4]
 2231 0030 0DF12703 		add	r3, sp, #39
 2232 0034 0093     		str	r3, [sp]
 2233 0036 2346     		mov	r3, r4
 2234 0038 0AAA     		add	r2, sp, #40
 2235 003a 1649     		ldr	r1, .L217
 2236              	.LVL232:
 2237 003c FFF7FEFF 		bl	minmea_scan
 2238              	.LVL233:
 2239 0040 0546     		mov	r5, r0
 2240 0042 18B3     		cbz	r0, .L210
 565:minmea/minmea.c ****             type,
 566:minmea/minmea.c ****             &frame->true_track_degrees,
 567:minmea/minmea.c ****             &c_true,
 568:minmea/minmea.c ****             &frame->magnetic_track_degrees,
 569:minmea/minmea.c ****             &c_magnetic,
 570:minmea/minmea.c ****             &frame->speed_knots,
 571:minmea/minmea.c ****             &c_knots,
 572:minmea/minmea.c ****             &frame->speed_kph,
 573:minmea/minmea.c ****             &c_kph,
 574:minmea/minmea.c ****             &c_faa_mode))
 575:minmea/minmea.c ****         return false;
 576:minmea/minmea.c ****     if (strcmp(type+2, "VTG"))
 2241              		.loc 1 576 0
 2242 0044 1449     		ldr	r1, .L217+4
 2243 0046 0DF12A00 		add	r0, sp, #42
 2244 004a FFF7FEFF 		bl	strcmp
 2245              	.LVL234:
 2246 004e A0B9     		cbnz	r0, .L211
 577:minmea/minmea.c ****         return false;
 578:minmea/minmea.c ****     // check chars
 579:minmea/minmea.c ****     if (c_true != 'T' ||
 2247              		.loc 1 579 0
 2248 0050 9DF82730 		ldrb	r3, [sp, #39]	@ zero_extendqisi2
 2249 0054 542B     		cmp	r3, #84
 2250 0056 12D1     		bne	.L212
 580:minmea/minmea.c ****         c_magnetic != 'M' ||
 2251              		.loc 1 580 0 discriminator 1
ARM GAS  C:\Users\crono\AppData\Local\Temp\ccd4dy0n.s 			page 52


 2252 0058 9DF82630 		ldrb	r3, [sp, #38]	@ zero_extendqisi2
 579:minmea/minmea.c ****         c_magnetic != 'M' ||
 2253              		.loc 1 579 0 discriminator 1
 2254 005c 4D2B     		cmp	r3, #77
 2255 005e 10D1     		bne	.L213
 581:minmea/minmea.c ****         c_knots != 'N' ||
 2256              		.loc 1 581 0
 2257 0060 9DF82530 		ldrb	r3, [sp, #37]	@ zero_extendqisi2
 580:minmea/minmea.c ****         c_magnetic != 'M' ||
 2258              		.loc 1 580 0
 2259 0064 4E2B     		cmp	r3, #78
 2260 0066 0ED1     		bne	.L214
 582:minmea/minmea.c ****         c_kph != 'K')
 2261              		.loc 1 582 0
 2262 0068 9DF82430 		ldrb	r3, [sp, #36]	@ zero_extendqisi2
 581:minmea/minmea.c ****         c_knots != 'N' ||
 2263              		.loc 1 581 0
 2264 006c 4B2B     		cmp	r3, #75
 2265 006e 0CD1     		bne	.L215
 583:minmea/minmea.c ****         return false;
 584:minmea/minmea.c ****     frame->faa_mode = (enum minmea_faa_mode)c_faa_mode;
 2266              		.loc 1 584 0
 2267 0070 9DF82330 		ldrb	r3, [sp, #35]	@ zero_extendqisi2
 2268 0074 84F82030 		strb	r3, [r4, #32]
 585:minmea/minmea.c **** 
 586:minmea/minmea.c ****     return true;
 2269              		.loc 1 586 0
 2270 0078 08E0     		b	.L210
 2271              	.L211:
 577:minmea/minmea.c ****     // check chars
 2272              		.loc 1 577 0
 2273 007a 0025     		movs	r5, #0
 2274 007c 06E0     		b	.L210
 2275              	.L212:
 583:minmea/minmea.c ****         return false;
 2276              		.loc 1 583 0
 2277 007e 0025     		movs	r5, #0
 2278 0080 04E0     		b	.L210
 2279              	.L213:
 2280 0082 0025     		movs	r5, #0
 2281 0084 02E0     		b	.L210
 2282              	.L214:
 2283 0086 0025     		movs	r5, #0
 2284 0088 00E0     		b	.L210
 2285              	.L215:
 2286 008a 0025     		movs	r5, #0
 2287              	.L210:
 587:minmea/minmea.c **** }
 2288              		.loc 1 587 0
 2289 008c 2846     		mov	r0, r5
 2290 008e 0DB0     		add	sp, sp, #52
 2291              		.cfi_def_cfa_offset 12
 2292              		@ sp needed
 2293 0090 30BD     		pop	{r4, r5, pc}
 2294              	.LVL235:
 2295              	.L218:
 2296 0092 00BF     		.align	2
ARM GAS  C:\Users\crono\AppData\Local\Temp\ccd4dy0n.s 			page 53


 2297              	.L217:
 2298 0094 90000000 		.word	.LC17
 2299 0098 24000000 		.word	.LC9
 2300              		.cfi_endproc
 2301              	.LFE17:
 2302              		.size	minmea_parse_vtg, .-minmea_parse_vtg
 2303              		.section	.text.minmea_parse_zda,"ax",%progbits
 2304              		.align	2
 2305              		.global	minmea_parse_zda
 2306              		.thumb
 2307              		.thumb_func
 2308              		.type	minmea_parse_zda, %function
 2309              	minmea_parse_zda:
 2310              	.LFB18:
 588:minmea/minmea.c **** 
 589:minmea/minmea.c **** bool minmea_parse_zda(struct minmea_sentence_zda *frame, const char *sentence)
 590:minmea/minmea.c **** {
 2311              		.loc 1 590 0
 2312              		.cfi_startproc
 2313              		@ args = 0, pretend = 0, frame = 8
 2314              		@ frame_needed = 0, uses_anonymous_args = 0
 2315              	.LVL236:
 2316 0000 30B5     		push	{r4, r5, lr}
 2317              		.cfi_def_cfa_offset 12
 2318              		.cfi_offset 4, -12
 2319              		.cfi_offset 5, -8
 2320              		.cfi_offset 14, -4
 2321 0002 89B0     		sub	sp, sp, #36
 2322              		.cfi_def_cfa_offset 48
 2323 0004 0446     		mov	r4, r0
 2324 0006 0846     		mov	r0, r1
 2325              	.LVL237:
 591:minmea/minmea.c ****   // $GPZDA,201530.00,04,07,2002,00,00*60
 592:minmea/minmea.c ****   char type[6];
 593:minmea/minmea.c **** 
 594:minmea/minmea.c ****   if(!minmea_scan(sentence, "tTiiiii",
 2326              		.loc 1 594 0
 2327 0008 04F12003 		add	r3, r4, #32
 2328 000c 0493     		str	r3, [sp, #16]
 2329 000e 04F11C03 		add	r3, r4, #28
 2330 0012 0393     		str	r3, [sp, #12]
 2331 0014 04F11803 		add	r3, r4, #24
 2332 0018 0293     		str	r3, [sp, #8]
 2333 001a 04F11403 		add	r3, r4, #20
 2334 001e 0193     		str	r3, [sp, #4]
 2335 0020 04F11003 		add	r3, r4, #16
 2336 0024 0093     		str	r3, [sp]
 2337 0026 2346     		mov	r3, r4
 2338 0028 06AA     		add	r2, sp, #24
 2339 002a 1049     		ldr	r1, .L225
 2340              	.LVL238:
 2341 002c FFF7FEFF 		bl	minmea_scan
 2342              	.LVL239:
 2343 0030 0546     		mov	r5, r0
 2344 0032 B8B1     		cbz	r0, .L220
 595:minmea/minmea.c ****           type,
 596:minmea/minmea.c ****           &frame->time,
ARM GAS  C:\Users\crono\AppData\Local\Temp\ccd4dy0n.s 			page 54


 597:minmea/minmea.c ****           &frame->date.day,
 598:minmea/minmea.c ****           &frame->date.month,
 599:minmea/minmea.c ****           &frame->date.year,
 600:minmea/minmea.c ****           &frame->hour_offset,
 601:minmea/minmea.c ****           &frame->minute_offset))
 602:minmea/minmea.c ****       return false;
 603:minmea/minmea.c ****   if (strcmp(type+2, "ZDA"))
 2345              		.loc 1 603 0
 2346 0034 0E49     		ldr	r1, .L225+4
 2347 0036 0DF11A00 		add	r0, sp, #26
 2348 003a FFF7FEFF 		bl	strcmp
 2349              	.LVL240:
 2350 003e 60B9     		cbnz	r0, .L221
 604:minmea/minmea.c ****       return false;
 605:minmea/minmea.c **** 
 606:minmea/minmea.c ****   // check offsets
 607:minmea/minmea.c ****   if (abs(frame->hour_offset) > 13 ||
 2351              		.loc 1 607 0
 2352 0040 E369     		ldr	r3, [r4, #28]
 2353 0042 002B     		cmp	r3, #0
 2354 0044 B8BF     		it	lt
 2355 0046 5B42     		rsblt	r3, r3, #0
 2356 0048 0D2B     		cmp	r3, #13
 2357 004a 08DC     		bgt	.L222
 608:minmea/minmea.c ****       frame->minute_offset > 59 ||
 2358              		.loc 1 608 0 discriminator 1
 2359 004c 236A     		ldr	r3, [r4, #32]
 607:minmea/minmea.c ****       frame->minute_offset > 59 ||
 2360              		.loc 1 607 0 discriminator 1
 2361 004e 3B2B     		cmp	r3, #59
 2362 0050 07DC     		bgt	.L223
 2363              		.loc 1 608 0
 2364 0052 002B     		cmp	r3, #0
 2365 0054 06DA     		bge	.L220
 609:minmea/minmea.c ****       frame->minute_offset < 0)
 610:minmea/minmea.c ****       return false;
 2366              		.loc 1 610 0
 2367 0056 0025     		movs	r5, #0
 2368 0058 04E0     		b	.L220
 2369              	.L221:
 604:minmea/minmea.c **** 
 2370              		.loc 1 604 0
 2371 005a 0025     		movs	r5, #0
 2372 005c 02E0     		b	.L220
 2373              	.L222:
 2374              		.loc 1 610 0
 2375 005e 0025     		movs	r5, #0
 2376 0060 00E0     		b	.L220
 2377              	.L223:
 2378 0062 0025     		movs	r5, #0
 2379              	.L220:
 611:minmea/minmea.c **** 
 612:minmea/minmea.c ****   return true;
 613:minmea/minmea.c **** }
 2380              		.loc 1 613 0
 2381 0064 2846     		mov	r0, r5
 2382 0066 09B0     		add	sp, sp, #36
ARM GAS  C:\Users\crono\AppData\Local\Temp\ccd4dy0n.s 			page 55


 2383              		.cfi_def_cfa_offset 12
 2384              		@ sp needed
 2385 0068 30BD     		pop	{r4, r5, pc}
 2386              	.LVL241:
 2387              	.L226:
 2388 006a 00BF     		.align	2
 2389              	.L225:
 2390 006c 9C000000 		.word	.LC18
 2391 0070 28000000 		.word	.LC10
 2392              		.cfi_endproc
 2393              	.LFE18:
 2394              		.size	minmea_parse_zda, .-minmea_parse_zda
 2395              		.section	.text.minmea_gettime,"ax",%progbits
 2396              		.align	2
 2397              		.global	minmea_gettime
 2398              		.thumb
 2399              		.thumb_func
 2400              		.type	minmea_gettime, %function
 2401              	minmea_gettime:
 2402              	.LFB19:
 614:minmea/minmea.c **** 
 615:minmea/minmea.c **** int minmea_gettime(struct timespec *ts, const struct minmea_date *date, const struct minmea_time *t
 616:minmea/minmea.c **** {
 2403              		.loc 1 616 0
 2404              		.cfi_startproc
 2405              		@ args = 0, pretend = 0, frame = 40
 2406              		@ frame_needed = 0, uses_anonymous_args = 0
 2407              	.LVL242:
 617:minmea/minmea.c ****     if (date->year == -1 || time_->hours == -1)
 2408              		.loc 1 617 0
 2409 0000 8B68     		ldr	r3, [r1, #8]
 2410 0002 B3F1FF3F 		cmp	r3, #-1
 2411 0006 3CD0     		beq	.L234
 2412              		.loc 1 617 0 is_stmt 0 discriminator 1
 2413 0008 1368     		ldr	r3, [r2]
 2414 000a B3F1FF3F 		cmp	r3, #-1
 2415 000e 38D0     		beq	.L234
 616:minmea/minmea.c ****     if (date->year == -1 || time_->hours == -1)
 2416              		.loc 1 616 0 is_stmt 1
 2417 0010 70B5     		push	{r4, r5, r6, lr}
 2418              		.cfi_def_cfa_offset 16
 2419              		.cfi_offset 4, -16
 2420              		.cfi_offset 5, -12
 2421              		.cfi_offset 6, -8
 2422              		.cfi_offset 14, -4
 2423 0012 8AB0     		sub	sp, sp, #40
 2424              		.cfi_def_cfa_offset 56
 2425 0014 1446     		mov	r4, r2
 2426 0016 0D46     		mov	r5, r1
 2427 0018 0646     		mov	r6, r0
 618:minmea/minmea.c ****         return -1;
 619:minmea/minmea.c **** 
 620:minmea/minmea.c ****     struct tm tm;
 621:minmea/minmea.c ****     memset(&tm, 0, sizeof(tm));
 2428              		.loc 1 621 0
 2429 001a 2422     		movs	r2, #36
 2430              	.LVL243:
ARM GAS  C:\Users\crono\AppData\Local\Temp\ccd4dy0n.s 			page 56


 2431 001c 0021     		movs	r1, #0
 2432              	.LVL244:
 2433 001e 01A8     		add	r0, sp, #4
 2434              	.LVL245:
 2435 0020 FFF7FEFF 		bl	memset
 2436              	.LVL246:
 622:minmea/minmea.c ****     if (date->year < 80) {
 2437              		.loc 1 622 0
 2438 0024 AB68     		ldr	r3, [r5, #8]
 2439 0026 4F2B     		cmp	r3, #79
 2440 0028 02DC     		bgt	.L229
 623:minmea/minmea.c ****         tm.tm_year = 2000 + date->year - 1900;  // 2000-2079
 2441              		.loc 1 623 0
 2442 002a 6433     		adds	r3, r3, #100
 2443 002c 0693     		str	r3, [sp, #24]
 2444 002e 08E0     		b	.L230
 2445              	.L229:
 624:minmea/minmea.c ****     } else if (date->year >= 1900) {
 2446              		.loc 1 624 0
 2447 0030 40F26B72 		movw	r2, #1899
 2448 0034 9342     		cmp	r3, r2
 2449 0036 03DD     		ble	.L231
 625:minmea/minmea.c ****         tm.tm_year = date->year - 1900; // 4 digit year, use directly
 2450              		.loc 1 625 0
 2451 0038 A3F26C73 		subw	r3, r3, #1900
 2452 003c 0693     		str	r3, [sp, #24]
 2453 003e 00E0     		b	.L230
 2454              	.L231:
 626:minmea/minmea.c ****     } else {
 627:minmea/minmea.c ****         tm.tm_year = date->year;    // 1980-1999
 2455              		.loc 1 627 0
 2456 0040 0693     		str	r3, [sp, #24]
 2457              	.L230:
 628:minmea/minmea.c ****     }
 629:minmea/minmea.c ****     tm.tm_mon = date->month - 1;
 2458              		.loc 1 629 0
 2459 0042 6B68     		ldr	r3, [r5, #4]
 2460 0044 013B     		subs	r3, r3, #1
 2461 0046 0593     		str	r3, [sp, #20]
 630:minmea/minmea.c ****     tm.tm_mday = date->day;
 2462              		.loc 1 630 0
 2463 0048 2B68     		ldr	r3, [r5]
 2464 004a 0493     		str	r3, [sp, #16]
 631:minmea/minmea.c ****     tm.tm_hour = time_->hours;
 2465              		.loc 1 631 0
 2466 004c 2368     		ldr	r3, [r4]
 2467 004e 0393     		str	r3, [sp, #12]
 632:minmea/minmea.c ****     tm.tm_min = time_->minutes;
 2468              		.loc 1 632 0
 2469 0050 6368     		ldr	r3, [r4, #4]
 2470 0052 0293     		str	r3, [sp, #8]
 633:minmea/minmea.c ****     tm.tm_sec = time_->seconds;
 2471              		.loc 1 633 0
 2472 0054 A368     		ldr	r3, [r4, #8]
 2473 0056 0AA8     		add	r0, sp, #40
 2474 0058 40F8243D 		str	r3, [r0, #-36]!
 634:minmea/minmea.c **** 
ARM GAS  C:\Users\crono\AppData\Local\Temp\ccd4dy0n.s 			page 57


 635:minmea/minmea.c ****     time_t timestamp = timegm(&tm); /* See README.md if your system lacks timegm(). */
 2475              		.loc 1 635 0
 2476 005c FFF7FEFF 		bl	timegm
 2477              	.LVL247:
 636:minmea/minmea.c ****     if (timestamp != (time_t)-1) {
 2478              		.loc 1 636 0
 2479 0060 B0F1FF3F 		cmp	r0, #-1
 2480 0064 08D0     		beq	.L232
 637:minmea/minmea.c ****         ts->tv_sec = timestamp;
 2481              		.loc 1 637 0
 2482 0066 3060     		str	r0, [r6]
 638:minmea/minmea.c ****         ts->tv_nsec = time_->microseconds * 1000;
 2483              		.loc 1 638 0
 2484 0068 E268     		ldr	r2, [r4, #12]
 2485 006a 4FF47A73 		mov	r3, #1000
 2486 006e 03FB02F3 		mul	r3, r3, r2
 2487 0072 7360     		str	r3, [r6, #4]
 639:minmea/minmea.c ****         return 0;
 2488              		.loc 1 639 0
 2489 0074 0023     		movs	r3, #0
 2490 0076 01E0     		b	.L228
 2491              	.L232:
 640:minmea/minmea.c ****     } else {
 641:minmea/minmea.c ****         return -1;
 2492              		.loc 1 641 0
 2493 0078 4FF0FF33 		mov	r3, #-1
 2494              	.L228:
 642:minmea/minmea.c ****     }
 643:minmea/minmea.c **** }
 2495              		.loc 1 643 0
 2496 007c 1846     		mov	r0, r3
 2497              	.LVL248:
 2498 007e 0AB0     		add	sp, sp, #40
 2499              		.cfi_def_cfa_offset 16
 2500              		@ sp needed
 2501 0080 70BD     		pop	{r4, r5, r6, pc}
 2502              	.LVL249:
 2503              	.L234:
 2504              		.cfi_def_cfa_offset 0
 2505              		.cfi_restore 4
 2506              		.cfi_restore 5
 2507              		.cfi_restore 6
 2508              		.cfi_restore 14
 2509 0082 1846     		mov	r0, r3
 2510              	.LVL250:
 2511 0084 7047     		bx	lr
 2512              		.cfi_endproc
 2513              	.LFE19:
 2514              		.size	minmea_gettime, .-minmea_gettime
 2515 0086 00BF     		.section	.rodata.str1.4,"aMS",%progbits,1
 2516              		.align	2
 2517              	.LC0:
 2518 0000 0A00     		.ascii	"\012\000"
 2519 0002 0000     		.space	2
 2520              	.LC1:
 2521 0004 0D0A00   		.ascii	"\015\012\000"
 2522 0007 00       		.space	1
ARM GAS  C:\Users\crono\AppData\Local\Temp\ccd4dy0n.s 			page 58


 2523              	.LC2:
 2524 0008 7400     		.ascii	"t\000"
 2525 000a 0000     		.space	2
 2526              	.LC3:
 2527 000c 524D4300 		.ascii	"RMC\000"
 2528              	.LC4:
 2529 0010 47474100 		.ascii	"GGA\000"
 2530              	.LC5:
 2531 0014 47534100 		.ascii	"GSA\000"
 2532              	.LC6:
 2533 0018 474C4C00 		.ascii	"GLL\000"
 2534              	.LC7:
 2535 001c 47535400 		.ascii	"GST\000"
 2536              	.LC8:
 2537 0020 47535600 		.ascii	"GSV\000"
 2538              	.LC9:
 2539 0024 56544700 		.ascii	"VTG\000"
 2540              	.LC10:
 2541 0028 5A444100 		.ascii	"ZDA\000"
 2542              	.LC11:
 2543 002c 74546366 		.ascii	"tTcfdfdffDfd\000"
 2543      64666466 
 2543      66446664 
 2543      00
 2544 0039 000000   		.space	3
 2545              	.LC12:
 2546 003c 74546664 		.ascii	"tTfdfdiiffcfci_\000"
 2546      66646969 
 2546      66666366 
 2546      63695F00 
 2547              	.LC13:
 2548 004c 74636969 		.ascii	"tciiiiiiiiiiiiifff\000"
 2548      69696969 
 2548      69696969 
 2548      69696966 
 2548      666600
 2549 005f 00       		.space	1
 2550              	.LC14:
 2551 0060 74666466 		.ascii	"tfdfdTc;c\000"
 2551      6454633B 
 2551      6300
 2552 006a 0000     		.space	2
 2553              	.LC15:
 2554 006c 74546666 		.ascii	"tTfffffff\000"
 2554      66666666 
 2554      6600
 2555 0076 0000     		.space	2
 2556              	.LC16:
 2557 0078 74696969 		.ascii	"tiii;iiiiiiiiiiiiiiii\000"
 2557      3B696969 
 2557      69696969 
 2557      69696969 
 2557      69696969 
 2558 008e 0000     		.space	2
 2559              	.LC17:
 2560 0090 74666366 		.ascii	"tfcfcfcfc;c\000"
 2560      63666366 
ARM GAS  C:\Users\crono\AppData\Local\Temp\ccd4dy0n.s 			page 59


 2560      633B6300 
 2561              	.LC18:
 2562 009c 74546969 		.ascii	"tTiiiii\000"
 2562      69696900 
 2563              		.text
 2564              	.Letext0:
 2565              		.file 2 "c:\\program files (x86)\\cypress\\psoc creator\\4.2\\psoc creator\\import\\gnu\\arm\\5.4.
 2566              		.file 3 "c:\\program files (x86)\\cypress\\psoc creator\\4.2\\psoc creator\\import\\gnu\\arm\\5.4.
 2567              		.file 4 "c:\\program files (x86)\\cypress\\psoc creator\\4.2\\psoc creator\\import\\gnu\\arm\\5.4.
 2568              		.file 5 "c:\\program files (x86)\\cypress\\psoc creator\\4.2\\psoc creator\\import\\gnu\\arm\\5.4.
 2569              		.file 6 "<built-in>"
 2570              		.file 7 "c:\\program files (x86)\\cypress\\psoc creator\\4.2\\psoc creator\\import\\gnu\\arm\\5.4.
 2571              		.file 8 "c:\\program files (x86)\\cypress\\psoc creator\\4.2\\psoc creator\\import\\gnu\\arm\\5.4.
 2572              		.file 9 "c:\\program files (x86)\\cypress\\psoc creator\\4.2\\psoc creator\\import\\gnu\\arm\\5.4.
 2573              		.file 10 "minmea\\minmea.h"
 2574              		.file 11 "c:\\program files (x86)\\cypress\\psoc creator\\4.2\\psoc creator\\import\\gnu\\arm\\5.4
 2575              		.file 12 "c:\\program files (x86)\\cypress\\psoc creator\\4.2\\psoc creator\\import\\gnu\\arm\\5.4
 2576              		.file 13 "c:\\program files (x86)\\cypress\\psoc creator\\4.2\\psoc creator\\import\\gnu\\arm\\5.4
 2577              		.section	.debug_info,"",%progbits
 2578              	.Ldebug_info0:
 2579 0000 29170000 		.4byte	0x1729
 2580 0004 0400     		.2byte	0x4
 2581 0006 00000000 		.4byte	.Ldebug_abbrev0
 2582 000a 04       		.byte	0x4
 2583 000b 01       		.uleb128 0x1
 2584 000c 30020000 		.4byte	.LASF167
 2585 0010 0C       		.byte	0xc
 2586 0011 51070000 		.4byte	.LASF168
 2587 0015 31050000 		.4byte	.LASF169
 2588 0019 20010000 		.4byte	.Ldebug_ranges0+0x120
 2589 001d 00000000 		.4byte	0
 2590 0021 00000000 		.4byte	.Ldebug_line0
 2591 0025 02       		.uleb128 0x2
 2592 0026 01       		.byte	0x1
 2593 0027 06       		.byte	0x6
 2594 0028 26080000 		.4byte	.LASF0
 2595 002c 03       		.uleb128 0x3
 2596 002d D6060000 		.4byte	.LASF5
 2597 0031 02       		.byte	0x2
 2598 0032 1D       		.byte	0x1d
 2599 0033 37000000 		.4byte	0x37
 2600 0037 02       		.uleb128 0x2
 2601 0038 01       		.byte	0x1
 2602 0039 08       		.byte	0x8
 2603 003a 96070000 		.4byte	.LASF1
 2604 003e 02       		.uleb128 0x2
 2605 003f 02       		.byte	0x2
 2606 0040 05       		.byte	0x5
 2607 0041 5B060000 		.4byte	.LASF2
 2608 0045 02       		.uleb128 0x2
 2609 0046 02       		.byte	0x2
 2610 0047 07       		.byte	0x7
 2611 0048 32080000 		.4byte	.LASF3
 2612 004c 02       		.uleb128 0x2
 2613 004d 04       		.byte	0x4
 2614 004e 05       		.byte	0x5
 2615 004f 65060000 		.4byte	.LASF4
ARM GAS  C:\Users\crono\AppData\Local\Temp\ccd4dy0n.s 			page 60


 2616 0053 03       		.uleb128 0x3
 2617 0054 A4070000 		.4byte	.LASF6
 2618 0058 02       		.byte	0x2
 2619 0059 41       		.byte	0x41
 2620 005a 5E000000 		.4byte	0x5e
 2621 005e 02       		.uleb128 0x2
 2622 005f 04       		.byte	0x4
 2623 0060 07       		.byte	0x7
 2624 0061 74050000 		.4byte	.LASF7
 2625 0065 02       		.uleb128 0x2
 2626 0066 08       		.byte	0x8
 2627 0067 05       		.byte	0x5
 2628 0068 AA040000 		.4byte	.LASF8
 2629 006c 02       		.uleb128 0x2
 2630 006d 08       		.byte	0x8
 2631 006e 07       		.byte	0x7
 2632 006f D3010000 		.4byte	.LASF9
 2633 0073 03       		.uleb128 0x3
 2634 0074 B8000000 		.4byte	.LASF10
 2635 0078 02       		.byte	0x2
 2636 0079 A8       		.byte	0xa8
 2637 007a 4C000000 		.4byte	0x4c
 2638 007e 04       		.uleb128 0x4
 2639 007f 04       		.byte	0x4
 2640 0080 05       		.byte	0x5
 2641 0081 696E7400 		.ascii	"int\000"
 2642 0085 02       		.uleb128 0x2
 2643 0086 04       		.byte	0x4
 2644 0087 07       		.byte	0x7
 2645 0088 7D000000 		.4byte	.LASF11
 2646 008c 02       		.uleb128 0x2
 2647 008d 08       		.byte	0x8
 2648 008e 04       		.byte	0x4
 2649 008f FC050000 		.4byte	.LASF12
 2650 0093 03       		.uleb128 0x3
 2651 0094 BE020000 		.4byte	.LASF13
 2652 0098 03       		.byte	0x3
 2653 0099 28       		.byte	0x28
 2654 009a 9E000000 		.4byte	0x9e
 2655 009e 05       		.uleb128 0x5
 2656 009f 2E070000 		.4byte	.LASF19
 2657 00a3 04       		.byte	0x4
 2658 00a4 06       		.byte	0x6
 2659 00a5 00       		.byte	0
 2660 00a6 B5000000 		.4byte	0xb5
 2661 00aa 06       		.uleb128 0x6
 2662 00ab E3040000 		.4byte	.LASF170
 2663 00af B5000000 		.4byte	0xb5
 2664 00b3 00       		.byte	0
 2665 00b4 00       		.byte	0
 2666 00b5 07       		.uleb128 0x7
 2667 00b6 04       		.byte	0x4
 2668 00b7 02       		.uleb128 0x2
 2669 00b8 04       		.byte	0x4
 2670 00b9 07       		.byte	0x7
 2671 00ba 3F070000 		.4byte	.LASF14
 2672 00be 08       		.uleb128 0x8
ARM GAS  C:\Users\crono\AppData\Local\Temp\ccd4dy0n.s 			page 61


 2673 00bf 04       		.byte	0x4
 2674 00c0 C4000000 		.4byte	0xc4
 2675 00c4 02       		.uleb128 0x2
 2676 00c5 01       		.byte	0x1
 2677 00c6 08       		.byte	0x8
 2678 00c7 80030000 		.4byte	.LASF15
 2679 00cb 08       		.uleb128 0x8
 2680 00cc 04       		.byte	0x4
 2681 00cd D1000000 		.4byte	0xd1
 2682 00d1 09       		.uleb128 0x9
 2683 00d2 C4000000 		.4byte	0xc4
 2684 00d6 03       		.uleb128 0x3
 2685 00d7 13040000 		.4byte	.LASF16
 2686 00db 04       		.byte	0x4
 2687 00dc 18       		.byte	0x18
 2688 00dd 2C000000 		.4byte	0x2c
 2689 00e1 03       		.uleb128 0x3
 2690 00e2 6E010000 		.4byte	.LASF17
 2691 00e6 04       		.byte	0x4
 2692 00e7 30       		.byte	0x30
 2693 00e8 53000000 		.4byte	0x53
 2694 00ec 03       		.uleb128 0x3
 2695 00ed 22040000 		.4byte	.LASF18
 2696 00f1 05       		.byte	0x5
 2697 00f2 28       		.byte	0x28
 2698 00f3 4C000000 		.4byte	0x4c
 2699 00f7 05       		.uleb128 0x5
 2700 00f8 77030000 		.4byte	.LASF20
 2701 00fc 08       		.byte	0x8
 2702 00fd 07       		.byte	0x7
 2703 00fe 2D       		.byte	0x2d
 2704 00ff 1C010000 		.4byte	0x11c
 2705 0103 0A       		.uleb128 0xa
 2706 0104 38070000 		.4byte	.LASF21
 2707 0108 07       		.byte	0x7
 2708 0109 2E       		.byte	0x2e
 2709 010a EC000000 		.4byte	0xec
 2710 010e 00       		.byte	0
 2711 010f 0A       		.uleb128 0xa
 2712 0110 CD020000 		.4byte	.LASF22
 2713 0114 07       		.byte	0x7
 2714 0115 2F       		.byte	0x2f
 2715 0116 4C000000 		.4byte	0x4c
 2716 011a 04       		.byte	0x4
 2717 011b 00       		.byte	0
 2718 011c 03       		.uleb128 0x3
 2719 011d 61070000 		.4byte	.LASF23
 2720 0121 08       		.byte	0x8
 2721 0122 21       		.byte	0x21
 2722 0123 73000000 		.4byte	0x73
 2723 0127 0B       		.uleb128 0xb
 2724 0128 746D00   		.ascii	"tm\000"
 2725 012b 24       		.byte	0x24
 2726 012c 09       		.byte	0x9
 2727 012d 21       		.byte	0x21
 2728 012e 9F010000 		.4byte	0x19f
 2729 0132 0A       		.uleb128 0xa
ARM GAS  C:\Users\crono\AppData\Local\Temp\ccd4dy0n.s 			page 62


 2730 0133 45080000 		.4byte	.LASF24
 2731 0137 09       		.byte	0x9
 2732 0138 23       		.byte	0x23
 2733 0139 7E000000 		.4byte	0x7e
 2734 013d 00       		.byte	0
 2735 013e 0A       		.uleb128 0xa
 2736 013f 74070000 		.4byte	.LASF25
 2737 0143 09       		.byte	0x9
 2738 0144 24       		.byte	0x24
 2739 0145 7E000000 		.4byte	0x7e
 2740 0149 04       		.byte	0x4
 2741 014a 0A       		.uleb128 0xa
 2742 014b 1E080000 		.4byte	.LASF26
 2743 014f 09       		.byte	0x9
 2744 0150 25       		.byte	0x25
 2745 0151 7E000000 		.4byte	0x7e
 2746 0155 08       		.byte	0x8
 2747 0156 0A       		.uleb128 0xa
 2748 0157 AA000000 		.4byte	.LASF27
 2749 015b 09       		.byte	0x9
 2750 015c 26       		.byte	0x26
 2751 015d 7E000000 		.4byte	0x7e
 2752 0161 0C       		.byte	0xc
 2753 0162 0A       		.uleb128 0xa
 2754 0163 77010000 		.4byte	.LASF28
 2755 0167 09       		.byte	0x9
 2756 0168 27       		.byte	0x27
 2757 0169 7E000000 		.4byte	0x7e
 2758 016d 10       		.byte	0x10
 2759 016e 0A       		.uleb128 0xa
 2760 016f CA030000 		.4byte	.LASF29
 2761 0173 09       		.byte	0x9
 2762 0174 28       		.byte	0x28
 2763 0175 7E000000 		.4byte	0x7e
 2764 0179 14       		.byte	0x14
 2765 017a 0A       		.uleb128 0xa
 2766 017b F2070000 		.4byte	.LASF30
 2767 017f 09       		.byte	0x9
 2768 0180 29       		.byte	0x29
 2769 0181 7E000000 		.4byte	0x7e
 2770 0185 18       		.byte	0x18
 2771 0186 0A       		.uleb128 0xa
 2772 0187 5D000000 		.4byte	.LASF31
 2773 018b 09       		.byte	0x9
 2774 018c 2A       		.byte	0x2a
 2775 018d 7E000000 		.4byte	0x7e
 2776 0191 1C       		.byte	0x1c
 2777 0192 0A       		.uleb128 0xa
 2778 0193 60080000 		.4byte	.LASF32
 2779 0197 09       		.byte	0x9
 2780 0198 2B       		.byte	0x2b
 2781 0199 7E000000 		.4byte	0x7e
 2782 019d 20       		.byte	0x20
 2783 019e 00       		.byte	0
 2784 019f 02       		.uleb128 0x2
 2785 01a0 08       		.byte	0x8
 2786 01a1 04       		.byte	0x4
ARM GAS  C:\Users\crono\AppData\Local\Temp\ccd4dy0n.s 			page 63


 2787 01a2 89080000 		.4byte	.LASF33
 2788 01a6 02       		.uleb128 0x2
 2789 01a7 04       		.byte	0x4
 2790 01a8 04       		.byte	0x4
 2791 01a9 7E010000 		.4byte	.LASF34
 2792 01ad 0C       		.uleb128 0xc
 2793 01ae 1C010000 		.4byte	.LASF75
 2794 01b2 01       		.byte	0x1
 2795 01b3 25000000 		.4byte	0x25
 2796 01b7 0A       		.byte	0xa
 2797 01b8 1C       		.byte	0x1c
 2798 01b9 FA010000 		.4byte	0x1fa
 2799 01bd 0D       		.uleb128 0xd
 2800 01be 6E000000 		.4byte	.LASF35
 2801 01c2 7F       		.sleb128 -1
 2802 01c3 0E       		.uleb128 0xe
 2803 01c4 12020000 		.4byte	.LASF36
 2804 01c8 00       		.byte	0
 2805 01c9 0E       		.uleb128 0xe
 2806 01ca 8F030000 		.4byte	.LASF37
 2807 01ce 01       		.byte	0x1
 2808 01cf 0E       		.uleb128 0xe
 2809 01d0 47060000 		.4byte	.LASF38
 2810 01d4 02       		.byte	0x2
 2811 01d5 0E       		.uleb128 0xe
 2812 01d6 FF030000 		.4byte	.LASF39
 2813 01da 03       		.byte	0x3
 2814 01db 0E       		.uleb128 0xe
 2815 01dc 00000000 		.4byte	.LASF40
 2816 01e0 04       		.byte	0x4
 2817 01e1 0E       		.uleb128 0xe
 2818 01e2 29040000 		.4byte	.LASF41
 2819 01e6 05       		.byte	0x5
 2820 01e7 0E       		.uleb128 0xe
 2821 01e8 3D040000 		.4byte	.LASF42
 2822 01ec 06       		.byte	0x6
 2823 01ed 0E       		.uleb128 0xe
 2824 01ee 51040000 		.4byte	.LASF43
 2825 01f2 07       		.byte	0x7
 2826 01f3 0E       		.uleb128 0xe
 2827 01f4 14000000 		.4byte	.LASF44
 2828 01f8 08       		.byte	0x8
 2829 01f9 00       		.byte	0
 2830 01fa 05       		.uleb128 0x5
 2831 01fb C8000000 		.4byte	.LASF45
 2832 01ff 08       		.byte	0x8
 2833 0200 0A       		.byte	0xa
 2834 0201 29       		.byte	0x29
 2835 0202 1F020000 		.4byte	0x21f
 2836 0206 0A       		.uleb128 0xa
 2837 0207 0C020000 		.4byte	.LASF46
 2838 020b 0A       		.byte	0xa
 2839 020c 2A       		.byte	0x2a
 2840 020d 1C010000 		.4byte	0x11c
 2841 0211 00       		.byte	0
 2842 0212 0A       		.uleb128 0xa
 2843 0213 F6040000 		.4byte	.LASF47
ARM GAS  C:\Users\crono\AppData\Local\Temp\ccd4dy0n.s 			page 64


 2844 0217 0A       		.byte	0xa
 2845 0218 2B       		.byte	0x2b
 2846 0219 1C010000 		.4byte	0x11c
 2847 021d 04       		.byte	0x4
 2848 021e 00       		.byte	0
 2849 021f 05       		.uleb128 0x5
 2850 0220 E0060000 		.4byte	.LASF48
 2851 0224 0C       		.byte	0xc
 2852 0225 0A       		.byte	0xa
 2853 0226 2E       		.byte	0x2e
 2854 0227 50020000 		.4byte	0x250
 2855 022b 0F       		.uleb128 0xf
 2856 022c 64617900 		.ascii	"day\000"
 2857 0230 0A       		.byte	0xa
 2858 0231 2F       		.byte	0x2f
 2859 0232 7E000000 		.4byte	0x7e
 2860 0236 00       		.byte	0
 2861 0237 0A       		.uleb128 0xa
 2862 0238 0F030000 		.4byte	.LASF49
 2863 023c 0A       		.byte	0xa
 2864 023d 30       		.byte	0x30
 2865 023e 7E000000 		.4byte	0x7e
 2866 0242 04       		.byte	0x4
 2867 0243 0A       		.uleb128 0xa
 2868 0244 6F070000 		.4byte	.LASF50
 2869 0248 0A       		.byte	0xa
 2870 0249 31       		.byte	0x31
 2871 024a 7E000000 		.4byte	0x7e
 2872 024e 08       		.byte	0x8
 2873 024f 00       		.byte	0
 2874 0250 05       		.uleb128 0x5
 2875 0251 7A060000 		.4byte	.LASF51
 2876 0255 10       		.byte	0x10
 2877 0256 0A       		.byte	0xa
 2878 0257 34       		.byte	0x34
 2879 0258 8D020000 		.4byte	0x28d
 2880 025c 0A       		.uleb128 0xa
 2881 025d D0060000 		.4byte	.LASF52
 2882 0261 0A       		.byte	0xa
 2883 0262 35       		.byte	0x35
 2884 0263 7E000000 		.4byte	0x7e
 2885 0267 00       		.byte	0
 2886 0268 0A       		.uleb128 0xa
 2887 0269 A6060000 		.4byte	.LASF53
 2888 026d 0A       		.byte	0xa
 2889 026e 36       		.byte	0x36
 2890 026f 7E000000 		.4byte	0x7e
 2891 0273 04       		.byte	0x4
 2892 0274 0A       		.uleb128 0xa
 2893 0275 6C050000 		.4byte	.LASF54
 2894 0279 0A       		.byte	0xa
 2895 027a 37       		.byte	0x37
 2896 027b 7E000000 		.4byte	0x7e
 2897 027f 08       		.byte	0x8
 2898 0280 0A       		.uleb128 0xa
 2899 0281 B5070000 		.4byte	.LASF55
 2900 0285 0A       		.byte	0xa
ARM GAS  C:\Users\crono\AppData\Local\Temp\ccd4dy0n.s 			page 65


 2901 0286 38       		.byte	0x38
 2902 0287 7E000000 		.4byte	0x7e
 2903 028b 0C       		.byte	0xc
 2904 028c 00       		.byte	0
 2905 028d 05       		.uleb128 0x5
 2906 028e 0A080000 		.4byte	.LASF56
 2907 0292 48       		.byte	0x48
 2908 0293 0A       		.byte	0xa
 2909 0294 3B       		.byte	0x3b
 2910 0295 FA020000 		.4byte	0x2fa
 2911 0299 0A       		.uleb128 0xa
 2912 029a 01020000 		.4byte	.LASF57
 2913 029e 0A       		.byte	0xa
 2914 029f 3C       		.byte	0x3c
 2915 02a0 50020000 		.4byte	0x250
 2916 02a4 00       		.byte	0
 2917 02a5 0A       		.uleb128 0xa
 2918 02a6 B8040000 		.4byte	.LASF58
 2919 02aa 0A       		.byte	0xa
 2920 02ab 3D       		.byte	0x3d
 2921 02ac FA020000 		.4byte	0x2fa
 2922 02b0 10       		.byte	0x10
 2923 02b1 0A       		.uleb128 0xa
 2924 02b2 47030000 		.4byte	.LASF59
 2925 02b6 0A       		.byte	0xa
 2926 02b7 3E       		.byte	0x3e
 2927 02b8 FA010000 		.4byte	0x1fa
 2928 02bc 14       		.byte	0x14
 2929 02bd 0A       		.uleb128 0xa
 2930 02be 6D030000 		.4byte	.LASF60
 2931 02c2 0A       		.byte	0xa
 2932 02c3 3F       		.byte	0x3f
 2933 02c4 FA010000 		.4byte	0x1fa
 2934 02c8 1C       		.byte	0x1c
 2935 02c9 0A       		.uleb128 0xa
 2936 02ca B2000000 		.4byte	.LASF61
 2937 02ce 0A       		.byte	0xa
 2938 02cf 40       		.byte	0x40
 2939 02d0 FA010000 		.4byte	0x1fa
 2940 02d4 24       		.byte	0x24
 2941 02d5 0A       		.uleb128 0xa
 2942 02d6 9B000000 		.4byte	.LASF62
 2943 02da 0A       		.byte	0xa
 2944 02db 41       		.byte	0x41
 2945 02dc FA010000 		.4byte	0x1fa
 2946 02e0 2C       		.byte	0x2c
 2947 02e1 0A       		.uleb128 0xa
 2948 02e2 FA030000 		.4byte	.LASF63
 2949 02e6 0A       		.byte	0xa
 2950 02e7 42       		.byte	0x42
 2951 02e8 1F020000 		.4byte	0x21f
 2952 02ec 34       		.byte	0x34
 2953 02ed 0A       		.uleb128 0xa
 2954 02ee 85030000 		.4byte	.LASF64
 2955 02f2 0A       		.byte	0xa
 2956 02f3 43       		.byte	0x43
 2957 02f4 FA010000 		.4byte	0x1fa
ARM GAS  C:\Users\crono\AppData\Local\Temp\ccd4dy0n.s 			page 66


 2958 02f8 40       		.byte	0x40
 2959 02f9 00       		.byte	0
 2960 02fa 02       		.uleb128 0x2
 2961 02fb 01       		.byte	0x1
 2962 02fc 02       		.byte	0x2
 2963 02fd 09030000 		.4byte	.LASF65
 2964 0301 05       		.uleb128 0x5
 2965 0302 DA000000 		.4byte	.LASF66
 2966 0306 4C       		.byte	0x4c
 2967 0307 0A       		.byte	0xa
 2968 0308 46       		.byte	0x46
 2969 0309 92030000 		.4byte	0x392
 2970 030d 0A       		.uleb128 0xa
 2971 030e 01020000 		.4byte	.LASF57
 2972 0312 0A       		.byte	0xa
 2973 0313 47       		.byte	0x47
 2974 0314 50020000 		.4byte	0x250
 2975 0318 00       		.byte	0
 2976 0319 0A       		.uleb128 0xa
 2977 031a 47030000 		.4byte	.LASF59
 2978 031e 0A       		.byte	0xa
 2979 031f 48       		.byte	0x48
 2980 0320 FA010000 		.4byte	0x1fa
 2981 0324 10       		.byte	0x10
 2982 0325 0A       		.uleb128 0xa
 2983 0326 6D030000 		.4byte	.LASF60
 2984 032a 0A       		.byte	0xa
 2985 032b 49       		.byte	0x49
 2986 032c FA010000 		.4byte	0x1fa
 2987 0330 18       		.byte	0x18
 2988 0331 0A       		.uleb128 0xa
 2989 0332 6E060000 		.4byte	.LASF67
 2990 0336 0A       		.byte	0xa
 2991 0337 4A       		.byte	0x4a
 2992 0338 7E000000 		.4byte	0x7e
 2993 033c 20       		.byte	0x20
 2994 033d 0A       		.uleb128 0xa
 2995 033e 2F010000 		.4byte	.LASF68
 2996 0342 0A       		.byte	0xa
 2997 0343 4B       		.byte	0x4b
 2998 0344 7E000000 		.4byte	0x7e
 2999 0348 24       		.byte	0x24
 3000 0349 0A       		.uleb128 0xa
 3001 034a D5020000 		.4byte	.LASF69
 3002 034e 0A       		.byte	0xa
 3003 034f 4C       		.byte	0x4c
 3004 0350 FA010000 		.4byte	0x1fa
 3005 0354 28       		.byte	0x28
 3006 0355 0A       		.uleb128 0xa
 3007 0356 03050000 		.4byte	.LASF70
 3008 035a 0A       		.byte	0xa
 3009 035b 4D       		.byte	0x4d
 3010 035c FA010000 		.4byte	0x1fa
 3011 0360 30       		.byte	0x30
 3012 0361 0A       		.uleb128 0xa
 3013 0362 97060000 		.4byte	.LASF71
 3014 0366 0A       		.byte	0xa
ARM GAS  C:\Users\crono\AppData\Local\Temp\ccd4dy0n.s 			page 67


 3015 0367 4D       		.byte	0x4d
 3016 0368 C4000000 		.4byte	0xc4
 3017 036c 38       		.byte	0x38
 3018 036d 0A       		.uleb128 0xa
 3019 036e 86050000 		.4byte	.LASF72
 3020 0372 0A       		.byte	0xa
 3021 0373 4E       		.byte	0x4e
 3022 0374 FA010000 		.4byte	0x1fa
 3023 0378 3C       		.byte	0x3c
 3024 0379 0A       		.uleb128 0xa
 3025 037a B1050000 		.4byte	.LASF73
 3026 037e 0A       		.byte	0xa
 3027 037f 4E       		.byte	0x4e
 3028 0380 C4000000 		.4byte	0xc4
 3029 0384 44       		.byte	0x44
 3030 0385 0A       		.uleb128 0xa
 3031 0386 65000000 		.4byte	.LASF74
 3032 038a 0A       		.byte	0xa
 3033 038b 4F       		.byte	0x4f
 3034 038c 7E000000 		.4byte	0x7e
 3035 0390 48       		.byte	0x48
 3036 0391 00       		.byte	0
 3037 0392 0C       		.uleb128 0xc
 3038 0393 D2030000 		.4byte	.LASF76
 3039 0397 01       		.byte	0x1
 3040 0398 37000000 		.4byte	0x37
 3041 039c 0A       		.byte	0xa
 3042 039d 58       		.byte	0x58
 3043 039e CD030000 		.4byte	0x3cd
 3044 03a2 0E       		.uleb128 0xe
 3045 03a3 2C030000 		.4byte	.LASF77
 3046 03a7 41       		.byte	0x41
 3047 03a8 0E       		.uleb128 0xe
 3048 03a9 50030000 		.4byte	.LASF78
 3049 03ad 44       		.byte	0x44
 3050 03ae 0E       		.uleb128 0xe
 3051 03af 14070000 		.4byte	.LASF79
 3052 03b3 45       		.byte	0x45
 3053 03b4 0E       		.uleb128 0xe
 3054 03b5 CC040000 		.4byte	.LASF80
 3055 03b9 4D       		.byte	0x4d
 3056 03ba 0E       		.uleb128 0xe
 3057 03bb D8070000 		.4byte	.LASF81
 3058 03bf 53       		.byte	0x53
 3059 03c0 0E       		.uleb128 0xe
 3060 03c1 F9080000 		.4byte	.LASF82
 3061 03c5 4E       		.byte	0x4e
 3062 03c6 0E       		.uleb128 0xe
 3063 03c7 EC060000 		.4byte	.LASF83
 3064 03cb 50       		.byte	0x50
 3065 03cc 00       		.byte	0
 3066 03cd 05       		.uleb128 0x5
 3067 03ce 65040000 		.4byte	.LASF84
 3068 03d2 24       		.byte	0x24
 3069 03d3 0A       		.byte	0xa
 3070 03d4 62       		.byte	0x62
 3071 03d5 16040000 		.4byte	0x416
ARM GAS  C:\Users\crono\AppData\Local\Temp\ccd4dy0n.s 			page 68


 3072 03d9 0A       		.uleb128 0xa
 3073 03da 47030000 		.4byte	.LASF59
 3074 03de 0A       		.byte	0xa
 3075 03df 63       		.byte	0x63
 3076 03e0 FA010000 		.4byte	0x1fa
 3077 03e4 00       		.byte	0
 3078 03e5 0A       		.uleb128 0xa
 3079 03e6 6D030000 		.4byte	.LASF60
 3080 03ea 0A       		.byte	0xa
 3081 03eb 64       		.byte	0x64
 3082 03ec FA010000 		.4byte	0x1fa
 3083 03f0 08       		.byte	0x8
 3084 03f1 0A       		.uleb128 0xa
 3085 03f2 01020000 		.4byte	.LASF57
 3086 03f6 0A       		.byte	0xa
 3087 03f7 65       		.byte	0x65
 3088 03f8 50020000 		.4byte	0x250
 3089 03fc 10       		.byte	0x10
 3090 03fd 0A       		.uleb128 0xa
 3091 03fe 1B040000 		.4byte	.LASF85
 3092 0402 0A       		.byte	0xa
 3093 0403 66       		.byte	0x66
 3094 0404 C4000000 		.4byte	0xc4
 3095 0408 20       		.byte	0x20
 3096 0409 0A       		.uleb128 0xa
 3097 040a D5000000 		.4byte	.LASF86
 3098 040e 0A       		.byte	0xa
 3099 040f 67       		.byte	0x67
 3100 0410 C4000000 		.4byte	0xc4
 3101 0414 21       		.byte	0x21
 3102 0415 00       		.byte	0
 3103 0416 05       		.uleb128 0x5
 3104 0417 90080000 		.4byte	.LASF87
 3105 041b 48       		.byte	0x48
 3106 041c 0A       		.byte	0xa
 3107 041d 6A       		.byte	0x6a
 3108 041e 83040000 		.4byte	0x483
 3109 0422 0A       		.uleb128 0xa
 3110 0423 01020000 		.4byte	.LASF57
 3111 0427 0A       		.byte	0xa
 3112 0428 6B       		.byte	0x6b
 3113 0429 50020000 		.4byte	0x250
 3114 042d 00       		.byte	0
 3115 042e 0A       		.uleb128 0xa
 3116 042f BC030000 		.4byte	.LASF88
 3117 0433 0A       		.byte	0xa
 3118 0434 6C       		.byte	0x6c
 3119 0435 FA010000 		.4byte	0x1fa
 3120 0439 10       		.byte	0x10
 3121 043a 0A       		.uleb128 0xa
 3122 043b 32060000 		.4byte	.LASF89
 3123 043f 0A       		.byte	0xa
 3124 0440 6D       		.byte	0x6d
 3125 0441 FA010000 		.4byte	0x1fa
 3126 0445 18       		.byte	0x18
 3127 0446 0A       		.uleb128 0xa
 3128 0447 8D040000 		.4byte	.LASF90
ARM GAS  C:\Users\crono\AppData\Local\Temp\ccd4dy0n.s 			page 69


 3129 044b 0A       		.byte	0xa
 3130 044c 6E       		.byte	0x6e
 3131 044d FA010000 		.4byte	0x1fa
 3132 0451 20       		.byte	0x20
 3133 0452 0A       		.uleb128 0xa
 3134 0453 15030000 		.4byte	.LASF91
 3135 0457 0A       		.byte	0xa
 3136 0458 6F       		.byte	0x6f
 3137 0459 FA010000 		.4byte	0x1fa
 3138 045d 28       		.byte	0x28
 3139 045e 0A       		.uleb128 0xa
 3140 045f A3030000 		.4byte	.LASF92
 3141 0463 0A       		.byte	0xa
 3142 0464 70       		.byte	0x70
 3143 0465 FA010000 		.4byte	0x1fa
 3144 0469 30       		.byte	0x30
 3145 046a 0A       		.uleb128 0xa
 3146 046b 42010000 		.4byte	.LASF93
 3147 046f 0A       		.byte	0xa
 3148 0470 71       		.byte	0x71
 3149 0471 FA010000 		.4byte	0x1fa
 3150 0475 38       		.byte	0x38
 3151 0476 0A       		.uleb128 0xa
 3152 0477 84010000 		.4byte	.LASF94
 3153 047b 0A       		.byte	0xa
 3154 047c 72       		.byte	0x72
 3155 047d FA010000 		.4byte	0x1fa
 3156 0481 40       		.byte	0x40
 3157 0482 00       		.byte	0
 3158 0483 05       		.uleb128 0x5
 3159 0484 4C080000 		.4byte	.LASF95
 3160 0488 50       		.byte	0x50
 3161 0489 0A       		.byte	0xa
 3162 048a 80       		.byte	0x80
 3163 048b D8040000 		.4byte	0x4d8
 3164 048f 0A       		.uleb128 0xa
 3165 0490 D5000000 		.4byte	.LASF86
 3166 0494 0A       		.byte	0xa
 3167 0495 81       		.byte	0x81
 3168 0496 C4000000 		.4byte	0xc4
 3169 049a 00       		.byte	0
 3170 049b 0A       		.uleb128 0xa
 3171 049c 69080000 		.4byte	.LASF96
 3172 04a0 0A       		.byte	0xa
 3173 04a1 82       		.byte	0x82
 3174 04a2 7E000000 		.4byte	0x7e
 3175 04a6 04       		.byte	0x4
 3176 04a7 0A       		.uleb128 0xa
 3177 04a8 28000000 		.4byte	.LASF97
 3178 04ac 0A       		.byte	0xa
 3179 04ad 83       		.byte	0x83
 3180 04ae D8040000 		.4byte	0x4d8
 3181 04b2 08       		.byte	0x8
 3182 04b3 0A       		.uleb128 0xa
 3183 04b4 C7010000 		.4byte	.LASF98
 3184 04b8 0A       		.byte	0xa
 3185 04b9 84       		.byte	0x84
ARM GAS  C:\Users\crono\AppData\Local\Temp\ccd4dy0n.s 			page 70


 3186 04ba FA010000 		.4byte	0x1fa
 3187 04be 38       		.byte	0x38
 3188 04bf 0A       		.uleb128 0xa
 3189 04c0 D5020000 		.4byte	.LASF69
 3190 04c4 0A       		.byte	0xa
 3191 04c5 85       		.byte	0x85
 3192 04c6 FA010000 		.4byte	0x1fa
 3193 04ca 40       		.byte	0x40
 3194 04cb 0A       		.uleb128 0xa
 3195 04cc 8D050000 		.4byte	.LASF99
 3196 04d0 0A       		.byte	0xa
 3197 04d1 86       		.byte	0x86
 3198 04d2 FA010000 		.4byte	0x1fa
 3199 04d6 48       		.byte	0x48
 3200 04d7 00       		.byte	0
 3201 04d8 10       		.uleb128 0x10
 3202 04d9 7E000000 		.4byte	0x7e
 3203 04dd E8040000 		.4byte	0x4e8
 3204 04e1 11       		.uleb128 0x11
 3205 04e2 B7000000 		.4byte	0xb7
 3206 04e6 0B       		.byte	0xb
 3207 04e7 00       		.byte	0
 3208 04e8 05       		.uleb128 0x5
 3209 04e9 46000000 		.4byte	.LASF100
 3210 04ed 10       		.byte	0x10
 3211 04ee 0A       		.byte	0xa
 3212 04ef 89       		.byte	0x89
 3213 04f0 24050000 		.4byte	0x524
 3214 04f4 0F       		.uleb128 0xf
 3215 04f5 6E7200   		.ascii	"nr\000"
 3216 04f8 0A       		.byte	0xa
 3217 04f9 8A       		.byte	0x8a
 3218 04fa 7E000000 		.4byte	0x7e
 3219 04fe 00       		.byte	0
 3220 04ff 0A       		.uleb128 0xa
 3221 0500 8A000000 		.4byte	.LASF101
 3222 0504 0A       		.byte	0xa
 3223 0505 8B       		.byte	0x8b
 3224 0506 7E000000 		.4byte	0x7e
 3225 050a 04       		.byte	0x4
 3226 050b 0A       		.uleb128 0xa
 3227 050c D0070000 		.4byte	.LASF102
 3228 0510 0A       		.byte	0xa
 3229 0511 8C       		.byte	0x8c
 3230 0512 7E000000 		.4byte	0x7e
 3231 0516 08       		.byte	0x8
 3232 0517 0F       		.uleb128 0xf
 3233 0518 736E7200 		.ascii	"snr\000"
 3234 051c 0A       		.byte	0xa
 3235 051d 8D       		.byte	0x8d
 3236 051e 7E000000 		.4byte	0x7e
 3237 0522 0C       		.byte	0xc
 3238 0523 00       		.byte	0
 3239 0524 05       		.uleb128 0x5
 3240 0525 A4080000 		.4byte	.LASF103
 3241 0529 4C       		.byte	0x4c
 3242 052a 0A       		.byte	0xa
ARM GAS  C:\Users\crono\AppData\Local\Temp\ccd4dy0n.s 			page 71


 3243 052b 90       		.byte	0x90
 3244 052c 61050000 		.4byte	0x561
 3245 0530 0A       		.uleb128 0xa
 3246 0531 E2030000 		.4byte	.LASF104
 3247 0535 0A       		.byte	0xa
 3248 0536 91       		.byte	0x91
 3249 0537 7E000000 		.4byte	0x7e
 3250 053b 00       		.byte	0
 3251 053c 0A       		.uleb128 0xa
 3252 053d C2070000 		.4byte	.LASF105
 3253 0541 0A       		.byte	0xa
 3254 0542 92       		.byte	0x92
 3255 0543 7E000000 		.4byte	0x7e
 3256 0547 04       		.byte	0x4
 3257 0548 0A       		.uleb128 0xa
 3258 0549 BE050000 		.4byte	.LASF106
 3259 054d 0A       		.byte	0xa
 3260 054e 93       		.byte	0x93
 3261 054f 7E000000 		.4byte	0x7e
 3262 0553 08       		.byte	0x8
 3263 0554 0A       		.uleb128 0xa
 3264 0555 28000000 		.4byte	.LASF97
 3265 0559 0A       		.byte	0xa
 3266 055a 94       		.byte	0x94
 3267 055b 61050000 		.4byte	0x561
 3268 055f 0C       		.byte	0xc
 3269 0560 00       		.byte	0
 3270 0561 10       		.uleb128 0x10
 3271 0562 E8040000 		.4byte	0x4e8
 3272 0566 71050000 		.4byte	0x571
 3273 056a 11       		.uleb128 0x11
 3274 056b B7000000 		.4byte	0xb7
 3275 056f 03       		.byte	0x3
 3276 0570 00       		.byte	0
 3277 0571 05       		.uleb128 0x5
 3278 0572 B8080000 		.4byte	.LASF107
 3279 0576 24       		.byte	0x24
 3280 0577 0A       		.byte	0xa
 3281 0578 97       		.byte	0x97
 3282 0579 BA050000 		.4byte	0x5ba
 3283 057d 0A       		.uleb128 0xa
 3284 057e 1F060000 		.4byte	.LASF108
 3285 0582 0A       		.byte	0xa
 3286 0583 98       		.byte	0x98
 3287 0584 FA010000 		.4byte	0x1fa
 3288 0588 00       		.byte	0
 3289 0589 0A       		.uleb128 0xa
 3290 058a EA010000 		.4byte	.LASF109
 3291 058e 0A       		.byte	0xa
 3292 058f 99       		.byte	0x99
 3293 0590 FA010000 		.4byte	0x1fa
 3294 0594 08       		.byte	0x8
 3295 0595 0A       		.uleb128 0xa
 3296 0596 F2020000 		.4byte	.LASF110
 3297 059a 0A       		.byte	0xa
 3298 059b 9A       		.byte	0x9a
 3299 059c FA010000 		.4byte	0x1fa
ARM GAS  C:\Users\crono\AppData\Local\Temp\ccd4dy0n.s 			page 72


 3300 05a0 10       		.byte	0x10
 3301 05a1 0A       		.uleb128 0xa
 3302 05a2 DF080000 		.4byte	.LASF111
 3303 05a6 0A       		.byte	0xa
 3304 05a7 9B       		.byte	0x9b
 3305 05a8 FA010000 		.4byte	0x1fa
 3306 05ac 18       		.byte	0x18
 3307 05ad 0A       		.uleb128 0xa
 3308 05ae 48070000 		.4byte	.LASF112
 3309 05b2 0A       		.byte	0xa
 3310 05b3 9C       		.byte	0x9c
 3311 05b4 92030000 		.4byte	0x392
 3312 05b8 20       		.byte	0x20
 3313 05b9 00       		.byte	0
 3314 05ba 05       		.uleb128 0x5
 3315 05bb 79040000 		.4byte	.LASF113
 3316 05bf 24       		.byte	0x24
 3317 05c0 0A       		.byte	0xa
 3318 05c1 9F       		.byte	0x9f
 3319 05c2 F7050000 		.4byte	0x5f7
 3320 05c6 0A       		.uleb128 0xa
 3321 05c7 01020000 		.4byte	.LASF57
 3322 05cb 0A       		.byte	0xa
 3323 05cc A0       		.byte	0xa0
 3324 05cd 50020000 		.4byte	0x250
 3325 05d1 00       		.byte	0
 3326 05d2 0A       		.uleb128 0xa
 3327 05d3 FA030000 		.4byte	.LASF63
 3328 05d7 0A       		.byte	0xa
 3329 05d8 A1       		.byte	0xa1
 3330 05d9 1F020000 		.4byte	0x21f
 3331 05dd 10       		.byte	0x10
 3332 05de 0A       		.uleb128 0xa
 3333 05df C4060000 		.4byte	.LASF114
 3334 05e3 0A       		.byte	0xa
 3335 05e4 A2       		.byte	0xa2
 3336 05e5 7E000000 		.4byte	0x7e
 3337 05e9 1C       		.byte	0x1c
 3338 05ea 0A       		.uleb128 0xa
 3339 05eb E8040000 		.4byte	.LASF115
 3340 05ef 0A       		.byte	0xa
 3341 05f0 A3       		.byte	0xa3
 3342 05f1 7E000000 		.4byte	0x7e
 3343 05f5 20       		.byte	0x20
 3344 05f6 00       		.byte	0
 3345 05f7 03       		.uleb128 0x3
 3346 05f8 A2040000 		.4byte	.LASF116
 3347 05fc 03       		.byte	0x3
 3348 05fd 62       		.byte	0x62
 3349 05fe 93000000 		.4byte	0x93
 3350 0602 12       		.uleb128 0x12
 3351 0603 B5060000 		.4byte	.LASF171
 3352 0607 01       		.byte	0x1
 3353 0608 58       		.byte	0x58
 3354 0609 FA020000 		.4byte	0x2fa
 3355 060d 03       		.byte	0x3
 3356 060e 1C060000 		.4byte	0x61c
ARM GAS  C:\Users\crono\AppData\Local\Temp\ccd4dy0n.s 			page 73


 3357 0612 13       		.uleb128 0x13
 3358 0613 6300     		.ascii	"c\000"
 3359 0615 01       		.byte	0x1
 3360 0616 58       		.byte	0x58
 3361 0617 C4000000 		.4byte	0xc4
 3362 061b 00       		.byte	0
 3363 061c 14       		.uleb128 0x14
 3364 061d 0D060000 		.4byte	.LASF172
 3365 0621 01       		.byte	0x1
 3366 0622 13       		.byte	0x13
 3367 0623 7E000000 		.4byte	0x7e
 3368 0627 00000000 		.4byte	.LFB4
 3369 062b 30000000 		.4byte	.LFE4-.LFB4
 3370 062f 01       		.uleb128 0x1
 3371 0630 9C       		.byte	0x9c
 3372 0631 43060000 		.4byte	0x643
 3373 0635 15       		.uleb128 0x15
 3374 0636 6300     		.ascii	"c\000"
 3375 0638 01       		.byte	0x1
 3376 0639 13       		.byte	0x13
 3377 063a C4000000 		.4byte	0xc4
 3378 063e 00000000 		.4byte	.LLST0
 3379 0642 00       		.byte	0
 3380 0643 16       		.uleb128 0x16
 3381 0644 04070000 		.4byte	.LASF118
 3382 0648 01       		.byte	0x1
 3383 0649 1E       		.byte	0x1e
 3384 064a D6000000 		.4byte	0xd6
 3385 064e 00000000 		.4byte	.LFB5
 3386 0652 1C000000 		.4byte	.LFE5-.LFB5
 3387 0656 01       		.uleb128 0x1
 3388 0657 9C       		.byte	0x9c
 3389 0658 79060000 		.4byte	0x679
 3390 065c 17       		.uleb128 0x17
 3391 065d 5C010000 		.4byte	.LASF117
 3392 0661 01       		.byte	0x1
 3393 0662 1E       		.byte	0x1e
 3394 0663 CB000000 		.4byte	0xcb
 3395 0667 6C000000 		.4byte	.LLST1
 3396 066b 18       		.uleb128 0x18
 3397 066c 9D010000 		.4byte	.LASF121
 3398 0670 01       		.byte	0x1
 3399 0671 24       		.byte	0x24
 3400 0672 D6000000 		.4byte	0xd6
 3401 0676 01       		.uleb128 0x1
 3402 0677 50       		.byte	0x50
 3403 0678 00       		.byte	0
 3404 0679 16       		.uleb128 0x16
 3405 067a 2D000000 		.4byte	.LASF119
 3406 067e 01       		.byte	0x1
 3407 067f 2D       		.byte	0x2d
 3408 0680 FA020000 		.4byte	0x2fa
 3409 0684 00000000 		.4byte	.LFB6
 3410 0688 B0000000 		.4byte	.LFE6-.LFB6
 3411 068c 01       		.uleb128 0x1
 3412 068d 9C       		.byte	0x9c
 3413 068e 53070000 		.4byte	0x753
ARM GAS  C:\Users\crono\AppData\Local\Temp\ccd4dy0n.s 			page 74


 3414 0692 17       		.uleb128 0x17
 3415 0693 5C010000 		.4byte	.LASF117
 3416 0697 01       		.byte	0x1
 3417 0698 2D       		.byte	0x2d
 3418 0699 CB000000 		.4byte	0xcb
 3419 069d 8A000000 		.4byte	.LLST2
 3420 06a1 17       		.uleb128 0x17
 3421 06a2 AE060000 		.4byte	.LASF120
 3422 06a6 01       		.byte	0x1
 3423 06a7 2D       		.byte	0x2d
 3424 06a8 FA020000 		.4byte	0x2fa
 3425 06ac 0F010000 		.4byte	.LLST3
 3426 06b0 19       		.uleb128 0x19
 3427 06b1 9D010000 		.4byte	.LASF121
 3428 06b5 01       		.byte	0x1
 3429 06b6 2F       		.byte	0x2f
 3430 06b7 D6000000 		.4byte	0xd6
 3431 06bb 30010000 		.4byte	.LLST4
 3432 06bf 1A       		.uleb128 0x1a
 3433 06c0 00000000 		.4byte	.Ldebug_ranges0+0
 3434 06c4 08070000 		.4byte	0x708
 3435 06c8 19       		.uleb128 0x19
 3436 06c9 AF070000 		.4byte	.LASF122
 3437 06cd 01       		.byte	0x1
 3438 06ce 41       		.byte	0x41
 3439 06cf 7E000000 		.4byte	0x7e
 3440 06d3 66010000 		.4byte	.LLST5
 3441 06d7 19       		.uleb128 0x19
 3442 06d8 06020000 		.4byte	.LASF123
 3443 06dc 01       		.byte	0x1
 3444 06dd 44       		.byte	0x44
 3445 06de 7E000000 		.4byte	0x7e
 3446 06e2 9A010000 		.4byte	.LLST6
 3447 06e6 19       		.uleb128 0x19
 3448 06e7 C3040000 		.4byte	.LASF124
 3449 06eb 01       		.byte	0x1
 3450 06ec 47       		.byte	0x47
 3451 06ed 7E000000 		.4byte	0x7e
 3452 06f1 B8010000 		.4byte	.LLST7
 3453 06f5 1B       		.uleb128 0x1b
 3454 06f6 3E000000 		.4byte	.LVL21
 3455 06fa 1C060000 		.4byte	0x61c
 3456 06fe 1B       		.uleb128 0x1b
 3457 06ff 4E000000 		.4byte	.LVL25
 3458 0703 1C060000 		.4byte	0x61c
 3459 0707 00       		.byte	0
 3460 0708 1C       		.uleb128 0x1c
 3461 0709 0A000000 		.4byte	.LVL15
 3462 070d F6160000 		.4byte	0x16f6
 3463 0711 1C070000 		.4byte	0x71c
 3464 0715 1D       		.uleb128 0x1d
 3465 0716 01       		.uleb128 0x1
 3466 0717 50       		.byte	0x50
 3467 0718 02       		.uleb128 0x2
 3468 0719 75       		.byte	0x75
 3469 071a 00       		.sleb128 0
 3470 071b 00       		.byte	0
ARM GAS  C:\Users\crono\AppData\Local\Temp\ccd4dy0n.s 			page 75


 3471 071c 1C       		.uleb128 0x1c
 3472 071d 6E000000 		.4byte	.LVL28
 3473 0721 01170000 		.4byte	0x1701
 3474 0725 39070000 		.4byte	0x739
 3475 0729 1D       		.uleb128 0x1d
 3476 072a 01       		.uleb128 0x1
 3477 072b 50       		.byte	0x50
 3478 072c 02       		.uleb128 0x2
 3479 072d 74       		.byte	0x74
 3480 072e 00       		.sleb128 0
 3481 072f 1D       		.uleb128 0x1d
 3482 0730 01       		.uleb128 0x1
 3483 0731 51       		.byte	0x51
 3484 0732 05       		.uleb128 0x5
 3485 0733 03       		.byte	0x3
 3486 0734 00000000 		.4byte	.LC0
 3487 0738 00       		.byte	0
 3488 0739 1E       		.uleb128 0x1e
 3489 073a 78000000 		.4byte	.LVL29
 3490 073e 01170000 		.4byte	0x1701
 3491 0742 1D       		.uleb128 0x1d
 3492 0743 01       		.uleb128 0x1
 3493 0744 50       		.byte	0x50
 3494 0745 02       		.uleb128 0x2
 3495 0746 74       		.byte	0x74
 3496 0747 00       		.sleb128 0
 3497 0748 1D       		.uleb128 0x1d
 3498 0749 01       		.uleb128 0x1
 3499 074a 51       		.byte	0x51
 3500 074b 05       		.uleb128 0x5
 3501 074c 03       		.byte	0x3
 3502 074d 04000000 		.4byte	.LC1
 3503 0751 00       		.byte	0
 3504 0752 00       		.byte	0
 3505 0753 16       		.uleb128 0x16
 3506 0754 CC080000 		.4byte	.LASF125
 3507 0758 01       		.byte	0x1
 3508 0759 5C       		.byte	0x5c
 3509 075a FA020000 		.4byte	0x2fa
 3510 075e 00000000 		.4byte	.LFB8
 3511 0762 B8050000 		.4byte	.LFE8-.LFB8
 3512 0766 01       		.uleb128 0x1
 3513 0767 9C       		.byte	0x9c
 3514 0768 0F0C0000 		.4byte	0xc0f
 3515 076c 17       		.uleb128 0x17
 3516 076d 5C010000 		.4byte	.LASF117
 3517 0771 01       		.byte	0x1
 3518 0772 5C       		.byte	0x5c
 3519 0773 CB000000 		.4byte	0xcb
 3520 0777 D6010000 		.4byte	.LLST8
 3521 077b 17       		.uleb128 0x17
 3522 077c 56000000 		.4byte	.LASF126
 3523 0780 01       		.byte	0x1
 3524 0781 5C       		.byte	0x5c
 3525 0782 CB000000 		.4byte	0xcb
 3526 0786 F4010000 		.4byte	.LLST9
 3527 078a 1F       		.uleb128 0x1f
ARM GAS  C:\Users\crono\AppData\Local\Temp\ccd4dy0n.s 			page 76


 3528 078b 19       		.uleb128 0x19
 3529 078c AC010000 		.4byte	.LASF127
 3530 0790 01       		.byte	0x1
 3531 0791 5E       		.byte	0x5e
 3532 0792 FA020000 		.4byte	0x2fa
 3533 0796 13020000 		.4byte	.LLST10
 3534 079a 19       		.uleb128 0x19
 3535 079b F0080000 		.4byte	.LASF128
 3536 079f 01       		.byte	0x1
 3537 07a0 5F       		.byte	0x5f
 3538 07a1 FA020000 		.4byte	0x2fa
 3539 07a5 32020000 		.4byte	.LLST11
 3540 07a9 20       		.uleb128 0x20
 3541 07aa 617000   		.ascii	"ap\000"
 3542 07ad 01       		.byte	0x1
 3543 07ae 60       		.byte	0x60
 3544 07af F7050000 		.4byte	0x5f7
 3545 07b3 02       		.uleb128 0x2
 3546 07b4 91       		.byte	0x91
 3547 07b5 4C       		.sleb128 -52
 3548 07b6 19       		.uleb128 0x19
 3549 07b7 A6010000 		.4byte	.LASF129
 3550 07bb 01       		.byte	0x1
 3551 07bc 63       		.byte	0x63
 3552 07bd CB000000 		.4byte	0xcb
 3553 07c1 5C020000 		.4byte	.LLST12
 3554 07c5 21       		.uleb128 0x21
 3555 07c6 7D080000 		.4byte	.LASF173
 3556 07ca 01       		.byte	0x1
 3557 07cb 4E01     		.2byte	0x14e
 3558 07cd A2050000 		.4byte	.L34
 3559 07d1 22       		.uleb128 0x22
 3560 07d2 18000000 		.4byte	.Ldebug_ranges0+0x18
 3561 07d6 19       		.uleb128 0x19
 3562 07d7 91070000 		.4byte	.LASF130
 3563 07db 01       		.byte	0x1
 3564 07dc 73       		.byte	0x73
 3565 07dd C4000000 		.4byte	0xc4
 3566 07e1 F7020000 		.4byte	.LLST13
 3567 07e5 23       		.uleb128 0x23
 3568 07e6 96000000 		.4byte	.LBB40
 3569 07ea 3A000000 		.4byte	.LBE40-.LBB40
 3570 07ee 1B080000 		.4byte	0x81b
 3571 07f2 19       		.uleb128 0x19
 3572 07f3 0C020000 		.4byte	.LASF46
 3573 07f7 01       		.byte	0x1
 3574 07f8 82       		.byte	0x82
 3575 07f9 C4000000 		.4byte	0xc4
 3576 07fd 20030000 		.4byte	.LLST14
 3577 0801 24       		.uleb128 0x24
 3578 0802 02060000 		.4byte	0x602
 3579 0806 9A000000 		.4byte	.LBB41
 3580 080a 24000000 		.4byte	.LBE41-.LBB41
 3581 080e 01       		.byte	0x1
 3582 080f 84       		.byte	0x84
 3583 0810 25       		.uleb128 0x25
 3584 0811 12060000 		.4byte	0x612
ARM GAS  C:\Users\crono\AppData\Local\Temp\ccd4dy0n.s 			page 77


 3585 0815 3F030000 		.4byte	.LLST15
 3586 0819 00       		.byte	0
 3587 081a 00       		.byte	0
 3588 081b 23       		.uleb128 0x23
 3589 081c D2000000 		.4byte	.LBB43
 3590 0820 76000000 		.4byte	.LBE43-.LBB43
 3591 0824 51080000 		.4byte	0x851
 3592 0828 19       		.uleb128 0x19
 3593 0829 0C020000 		.4byte	.LASF46
 3594 082d 01       		.byte	0x1
 3595 082e 8B       		.byte	0x8b
 3596 082f 7E000000 		.4byte	0x7e
 3597 0833 52030000 		.4byte	.LLST16
 3598 0837 24       		.uleb128 0x24
 3599 0838 02060000 		.4byte	0x602
 3600 083c D6000000 		.4byte	.LBB44
 3601 0840 24000000 		.4byte	.LBE44-.LBB44
 3602 0844 01       		.byte	0x1
 3603 0845 8D       		.byte	0x8d
 3604 0846 25       		.uleb128 0x25
 3605 0847 12060000 		.4byte	0x612
 3606 084b 7D030000 		.4byte	.LLST17
 3607 084f 00       		.byte	0
 3608 0850 00       		.byte	0
 3609 0851 1A       		.uleb128 0x1a
 3610 0852 48000000 		.4byte	.Ldebug_ranges0+0x48
 3611 0856 BE080000 		.4byte	0x8be
 3612 085a 19       		.uleb128 0x19
 3613 085b DA020000 		.4byte	.LASF131
 3614 085f 01       		.byte	0x1
 3615 0860 A0       		.byte	0xa0
 3616 0861 7E000000 		.4byte	0x7e
 3617 0865 90030000 		.4byte	.LLST18
 3618 0869 19       		.uleb128 0x19
 3619 086a 0C020000 		.4byte	.LASF46
 3620 086e 01       		.byte	0x1
 3621 086f A1       		.byte	0xa1
 3622 0870 1C010000 		.4byte	0x11c
 3623 0874 E7030000 		.4byte	.LLST19
 3624 0878 19       		.uleb128 0x19
 3625 0879 F6040000 		.4byte	.LASF47
 3626 087d 01       		.byte	0x1
 3627 087e A2       		.byte	0xa2
 3628 087f 1C010000 		.4byte	0x11c
 3629 0883 40040000 		.4byte	.LLST20
 3630 0887 23       		.uleb128 0x23
 3631 0888 7E010000 		.4byte	.LBB47
 3632 088c 3A000000 		.4byte	.LBE47-.LBB47
 3633 0890 A4080000 		.4byte	0x8a4
 3634 0894 19       		.uleb128 0x19
 3635 0895 16010000 		.4byte	.LASF132
 3636 0899 01       		.byte	0x1
 3637 089a AB       		.byte	0xab
 3638 089b 7E000000 		.4byte	0x7e
 3639 089f B8040000 		.4byte	.LLST21
 3640 08a3 00       		.byte	0
 3641 08a4 24       		.uleb128 0x24
ARM GAS  C:\Users\crono\AppData\Local\Temp\ccd4dy0n.s 			page 78


 3642 08a5 02060000 		.4byte	0x602
 3643 08a9 F4010000 		.4byte	.LBB48
 3644 08ad 2C000000 		.4byte	.LBE48-.LBB48
 3645 08b1 01       		.byte	0x1
 3646 08b2 A5       		.byte	0xa5
 3647 08b3 25       		.uleb128 0x25
 3648 08b4 12060000 		.4byte	0x612
 3649 08b8 E0040000 		.4byte	.LLST22
 3650 08bc 00       		.byte	0
 3651 08bd 00       		.byte	0
 3652 08be 1A       		.uleb128 0x1a
 3653 08bf 60000000 		.4byte	.Ldebug_ranges0+0x60
 3654 08c3 28090000 		.4byte	0x928
 3655 08c7 19       		.uleb128 0x19
 3656 08c8 0C020000 		.4byte	.LASF46
 3657 08cc 01       		.byte	0x1
 3658 08cd DB       		.byte	0xdb
 3659 08ce 7E000000 		.4byte	0x7e
 3660 08d2 F3040000 		.4byte	.LLST23
 3661 08d6 26       		.uleb128 0x26
 3662 08d7 62020000 		.4byte	.LBB52
 3663 08db 34000000 		.4byte	.LBE52-.LBB52
 3664 08df 18       		.uleb128 0x18
 3665 08e0 94000000 		.4byte	.LASF133
 3666 08e4 01       		.byte	0x1
 3667 08e5 DE       		.byte	0xde
 3668 08e6 BE000000 		.4byte	0xbe
 3669 08ea 02       		.uleb128 0x2
 3670 08eb 91       		.byte	0x91
 3671 08ec 48       		.sleb128 -56
 3672 08ed 27       		.uleb128 0x27
 3673 08ee 02060000 		.4byte	0x602
 3674 08f2 70020000 		.4byte	.LBB53
 3675 08f6 24000000 		.4byte	.LBE53-.LBB53
 3676 08fa 01       		.byte	0x1
 3677 08fb E0       		.byte	0xe0
 3678 08fc 0A090000 		.4byte	0x90a
 3679 0900 25       		.uleb128 0x25
 3680 0901 12060000 		.4byte	0x612
 3681 0905 29050000 		.4byte	.LLST24
 3682 0909 00       		.byte	0
 3683 090a 1E       		.uleb128 0x1e
 3684 090b 6C020000 		.4byte	.LVL83
 3685 090f 0C170000 		.4byte	0x170c
 3686 0913 1D       		.uleb128 0x1d
 3687 0914 01       		.uleb128 0x1
 3688 0915 50       		.byte	0x50
 3689 0916 02       		.uleb128 0x2
 3690 0917 77       		.byte	0x77
 3691 0918 00       		.sleb128 0
 3692 0919 1D       		.uleb128 0x1d
 3693 091a 01       		.uleb128 0x1
 3694 091b 51       		.byte	0x51
 3695 091c 03       		.uleb128 0x3
 3696 091d 91       		.byte	0x91
 3697 091e B07F     		.sleb128 -80
 3698 0920 1D       		.uleb128 0x1d
ARM GAS  C:\Users\crono\AppData\Local\Temp\ccd4dy0n.s 			page 79


 3699 0921 01       		.uleb128 0x1
 3700 0922 52       		.byte	0x52
 3701 0923 01       		.uleb128 0x1
 3702 0924 3A       		.byte	0x3a
 3703 0925 00       		.byte	0
 3704 0926 00       		.byte	0
 3705 0927 00       		.byte	0
 3706 0928 23       		.uleb128 0x23
 3707 0929 A8020000 		.4byte	.LBB56
 3708 092d 40000000 		.4byte	.LBE56-.LBB56
 3709 0931 5E090000 		.4byte	0x95e
 3710 0935 28       		.uleb128 0x28
 3711 0936 62756600 		.ascii	"buf\000"
 3712 093a 01       		.byte	0x1
 3713 093b E8       		.byte	0xe8
 3714 093c BE000000 		.4byte	0xbe
 3715 0940 3C050000 		.4byte	.LLST25
 3716 0944 24       		.uleb128 0x24
 3717 0945 02060000 		.4byte	0x602
 3718 0949 BC020000 		.4byte	.LBB57
 3719 094d 24000000 		.4byte	.LBE57-.LBB57
 3720 0951 01       		.byte	0x1
 3721 0952 EB       		.byte	0xeb
 3722 0953 25       		.uleb128 0x25
 3723 0954 12060000 		.4byte	0x612
 3724 0958 67050000 		.4byte	.LLST26
 3725 095c 00       		.byte	0
 3726 095d 00       		.byte	0
 3727 095e 23       		.uleb128 0x23
 3728 095f EA020000 		.4byte	.LBB59
 3729 0963 64000000 		.4byte	.LBE59-.LBB59
 3730 0967 AB090000 		.4byte	0x9ab
 3731 096b 28       		.uleb128 0x28
 3732 096c 62756600 		.ascii	"buf\000"
 3733 0970 01       		.byte	0x1
 3734 0971 FD       		.byte	0xfd
 3735 0972 BE000000 		.4byte	0xbe
 3736 0976 7A050000 		.4byte	.LLST27
 3737 097a 26       		.uleb128 0x26
 3738 097b FC020000 		.4byte	.LBB60
 3739 097f 3C000000 		.4byte	.LBE60-.LBB60
 3740 0983 28       		.uleb128 0x28
 3741 0984 6600     		.ascii	"f\000"
 3742 0986 01       		.byte	0x1
 3743 0987 F9       		.byte	0xf9
 3744 0988 7E000000 		.4byte	0x7e
 3745 098c 8D050000 		.4byte	.LLST28
 3746 0990 24       		.uleb128 0x24
 3747 0991 02060000 		.4byte	0x602
 3748 0995 00030000 		.4byte	.LBB61
 3749 0999 2E000000 		.4byte	.LBE61-.LBB61
 3750 099d 01       		.byte	0x1
 3751 099e FA       		.byte	0xfa
 3752 099f 25       		.uleb128 0x25
 3753 09a0 12060000 		.4byte	0x612
 3754 09a4 C5050000 		.4byte	.LLST29
 3755 09a8 00       		.byte	0
ARM GAS  C:\Users\crono\AppData\Local\Temp\ccd4dy0n.s 			page 80


 3756 09a9 00       		.byte	0
 3757 09aa 00       		.byte	0
 3758 09ab 1A       		.uleb128 0x1a
 3759 09ac 78000000 		.4byte	.Ldebug_ranges0+0x78
 3760 09b0 B30A0000 		.4byte	0xab3
 3761 09b4 29       		.uleb128 0x29
 3762 09b5 FA030000 		.4byte	.LASF63
 3763 09b9 01       		.byte	0x1
 3764 09ba 0301     		.2byte	0x103
 3765 09bc 0F0C0000 		.4byte	0xc0f
 3766 09c0 D8050000 		.4byte	.LLST30
 3767 09c4 2A       		.uleb128 0x2a
 3768 09c5 6400     		.ascii	"d\000"
 3769 09c7 01       		.byte	0x1
 3770 09c8 0501     		.2byte	0x105
 3771 09ca 7E000000 		.4byte	0x7e
 3772 09ce EB050000 		.4byte	.LLST31
 3773 09d2 2A       		.uleb128 0x2a
 3774 09d3 6D00     		.ascii	"m\000"
 3775 09d5 01       		.byte	0x1
 3776 09d6 0501     		.2byte	0x105
 3777 09d8 7E000000 		.4byte	0x7e
 3778 09dc 2E060000 		.4byte	.LLST32
 3779 09e0 2A       		.uleb128 0x2a
 3780 09e1 7900     		.ascii	"y\000"
 3781 09e3 01       		.byte	0x1
 3782 09e4 0501     		.2byte	0x105
 3783 09e6 7E000000 		.4byte	0x7e
 3784 09ea 71060000 		.4byte	.LLST33
 3785 09ee 2B       		.uleb128 0x2b
 3786 09ef 02060000 		.4byte	0x602
 3787 09f3 60030000 		.4byte	.LBB64
 3788 09f7 24000000 		.4byte	.LBE64-.LBB64
 3789 09fb 01       		.byte	0x1
 3790 09fc 0701     		.2byte	0x107
 3791 09fe 0C0A0000 		.4byte	0xa0c
 3792 0a02 25       		.uleb128 0x25
 3793 0a03 12060000 		.4byte	0x612
 3794 0a07 A9060000 		.4byte	.LLST34
 3795 0a0b 00       		.byte	0
 3796 0a0c 22       		.uleb128 0x22
 3797 0a0d 90000000 		.4byte	.Ldebug_ranges0+0x90
 3798 0a11 2C       		.uleb128 0x2c
 3799 0a12 08060000 		.4byte	.LASF134
 3800 0a16 01       		.byte	0x1
 3801 0a17 0D01     		.2byte	0x10d
 3802 0a19 150C0000 		.4byte	0xc15
 3803 0a1d 02       		.uleb128 0x2
 3804 0a1e 91       		.byte	0x91
 3805 0a1f 40       		.sleb128 -64
 3806 0a20 2C       		.uleb128 0x2c
 3807 0a21 8C070000 		.4byte	.LASF135
 3808 0a25 01       		.byte	0x1
 3809 0a26 0E01     		.2byte	0x10e
 3810 0a28 150C0000 		.4byte	0xc15
 3811 0a2c 02       		.uleb128 0x2
 3812 0a2d 91       		.byte	0x91
ARM GAS  C:\Users\crono\AppData\Local\Temp\ccd4dy0n.s 			page 81


 3813 0a2e 44       		.sleb128 -60
 3814 0a2f 2C       		.uleb128 0x2c
 3815 0a30 15060000 		.4byte	.LASF136
 3816 0a34 01       		.byte	0x1
 3817 0a35 0F01     		.2byte	0x10f
 3818 0a37 150C0000 		.4byte	0xc15
 3819 0a3b 02       		.uleb128 0x2
 3820 0a3c 91       		.byte	0x91
 3821 0a3d 48       		.sleb128 -56
 3822 0a3e 1A       		.uleb128 0x1a
 3823 0a3f A8000000 		.4byte	.Ldebug_ranges0+0xa8
 3824 0a43 560A0000 		.4byte	0xa56
 3825 0a47 2A       		.uleb128 0x2a
 3826 0a48 6600     		.ascii	"f\000"
 3827 0a4a 01       		.byte	0x1
 3828 0a4b 0901     		.2byte	0x109
 3829 0a4d 7E000000 		.4byte	0x7e
 3830 0a51 BC060000 		.4byte	.LLST35
 3831 0a55 00       		.byte	0
 3832 0a56 1C       		.uleb128 0x1c
 3833 0a57 E2030000 		.4byte	.LVL115
 3834 0a5b 0C170000 		.4byte	0x170c
 3835 0a5f 750A0000 		.4byte	0xa75
 3836 0a63 1D       		.uleb128 0x1d
 3837 0a64 01       		.uleb128 0x1
 3838 0a65 50       		.byte	0x50
 3839 0a66 02       		.uleb128 0x2
 3840 0a67 7D       		.byte	0x7d
 3841 0a68 00       		.sleb128 0
 3842 0a69 1D       		.uleb128 0x1d
 3843 0a6a 01       		.uleb128 0x1
 3844 0a6b 51       		.byte	0x51
 3845 0a6c 02       		.uleb128 0x2
 3846 0a6d 79       		.byte	0x79
 3847 0a6e 00       		.sleb128 0
 3848 0a6f 1D       		.uleb128 0x1d
 3849 0a70 01       		.uleb128 0x1
 3850 0a71 52       		.byte	0x52
 3851 0a72 01       		.uleb128 0x1
 3852 0a73 3A       		.byte	0x3a
 3853 0a74 00       		.byte	0
 3854 0a75 1C       		.uleb128 0x1c
 3855 0a76 EE030000 		.4byte	.LVL118
 3856 0a7a 0C170000 		.4byte	0x170c
 3857 0a7e 950A0000 		.4byte	0xa95
 3858 0a82 1D       		.uleb128 0x1d
 3859 0a83 01       		.uleb128 0x1
 3860 0a84 50       		.byte	0x50
 3861 0a85 03       		.uleb128 0x3
 3862 0a86 91       		.byte	0x91
 3863 0a87 AC7F     		.sleb128 -84
 3864 0a89 1D       		.uleb128 0x1d
 3865 0a8a 01       		.uleb128 0x1
 3866 0a8b 51       		.byte	0x51
 3867 0a8c 02       		.uleb128 0x2
 3868 0a8d 79       		.byte	0x79
 3869 0a8e 00       		.sleb128 0
ARM GAS  C:\Users\crono\AppData\Local\Temp\ccd4dy0n.s 			page 82


 3870 0a8f 1D       		.uleb128 0x1d
 3871 0a90 01       		.uleb128 0x1
 3872 0a91 52       		.byte	0x52
 3873 0a92 01       		.uleb128 0x1
 3874 0a93 3A       		.byte	0x3a
 3875 0a94 00       		.byte	0
 3876 0a95 1E       		.uleb128 0x1e
 3877 0a96 FA030000 		.4byte	.LVL121
 3878 0a9a 0C170000 		.4byte	0x170c
 3879 0a9e 1D       		.uleb128 0x1d
 3880 0a9f 01       		.uleb128 0x1
 3881 0aa0 50       		.byte	0x50
 3882 0aa1 03       		.uleb128 0x3
 3883 0aa2 91       		.byte	0x91
 3884 0aa3 B07F     		.sleb128 -80
 3885 0aa5 1D       		.uleb128 0x1d
 3886 0aa6 01       		.uleb128 0x1
 3887 0aa7 51       		.byte	0x51
 3888 0aa8 02       		.uleb128 0x2
 3889 0aa9 79       		.byte	0x79
 3890 0aaa 00       		.sleb128 0
 3891 0aab 1D       		.uleb128 0x1d
 3892 0aac 01       		.uleb128 0x1
 3893 0aad 52       		.byte	0x52
 3894 0aae 01       		.uleb128 0x1
 3895 0aaf 3A       		.byte	0x3a
 3896 0ab0 00       		.byte	0
 3897 0ab1 00       		.byte	0
 3898 0ab2 00       		.byte	0
 3899 0ab3 1A       		.uleb128 0x1a
 3900 0ab4 C0000000 		.4byte	.Ldebug_ranges0+0xc0
 3901 0ab8 F30B0000 		.4byte	0xbf3
 3902 0abc 29       		.uleb128 0x29
 3903 0abd ED030000 		.4byte	.LASF137
 3904 0ac1 01       		.byte	0x1
 3905 0ac2 1B01     		.2byte	0x11b
 3906 0ac4 250C0000 		.4byte	0xc25
 3907 0ac8 E5060000 		.4byte	.LLST36
 3908 0acc 2A       		.uleb128 0x2a
 3909 0acd 6800     		.ascii	"h\000"
 3910 0acf 01       		.byte	0x1
 3911 0ad0 1D01     		.2byte	0x11d
 3912 0ad2 7E000000 		.4byte	0x7e
 3913 0ad6 F8060000 		.4byte	.LLST37
 3914 0ada 2A       		.uleb128 0x2a
 3915 0adb 6900     		.ascii	"i\000"
 3916 0add 01       		.byte	0x1
 3917 0ade 1D01     		.2byte	0x11d
 3918 0ae0 7E000000 		.4byte	0x7e
 3919 0ae4 3B070000 		.4byte	.LLST38
 3920 0ae8 2A       		.uleb128 0x2a
 3921 0ae9 7300     		.ascii	"s\000"
 3922 0aeb 01       		.byte	0x1
 3923 0aec 1D01     		.2byte	0x11d
 3924 0aee 7E000000 		.4byte	0x7e
 3925 0af2 7E070000 		.4byte	.LLST39
 3926 0af6 2A       		.uleb128 0x2a
ARM GAS  C:\Users\crono\AppData\Local\Temp\ccd4dy0n.s 			page 83


 3927 0af7 7500     		.ascii	"u\000"
 3928 0af9 01       		.byte	0x1
 3929 0afa 1D01     		.2byte	0x11d
 3930 0afc 7E000000 		.4byte	0x7e
 3931 0b00 B6070000 		.4byte	.LLST40
 3932 0b04 2B       		.uleb128 0x2b
 3933 0b05 02060000 		.4byte	0x602
 3934 0b09 26040000 		.4byte	.LBB72
 3935 0b0d 24000000 		.4byte	.LBE72-.LBB72
 3936 0b11 01       		.byte	0x1
 3937 0b12 1F01     		.2byte	0x11f
 3938 0b14 220B0000 		.4byte	0xb22
 3939 0b18 25       		.uleb128 0x25
 3940 0b19 12060000 		.4byte	0x612
 3941 0b1d EE070000 		.4byte	.LLST41
 3942 0b21 00       		.byte	0
 3943 0b22 22       		.uleb128 0x22
 3944 0b23 D8000000 		.4byte	.Ldebug_ranges0+0xd8
 3945 0b27 2C       		.uleb128 0x2c
 3946 0b28 1A060000 		.4byte	.LASF138
 3947 0b2c 01       		.byte	0x1
 3948 0b2d 2501     		.2byte	0x125
 3949 0b2f 150C0000 		.4byte	0xc15
 3950 0b33 02       		.uleb128 0x2
 3951 0b34 91       		.byte	0x91
 3952 0b35 40       		.sleb128 -64
 3953 0b36 2C       		.uleb128 0x2c
 3954 0b37 BE040000 		.4byte	.LASF139
 3955 0b3b 01       		.byte	0x1
 3956 0b3c 2601     		.2byte	0x126
 3957 0b3e 150C0000 		.4byte	0xc15
 3958 0b42 02       		.uleb128 0x2
 3959 0b43 91       		.byte	0x91
 3960 0b44 44       		.sleb128 -60
 3961 0b45 2C       		.uleb128 0x2c
 3962 0b46 3A000000 		.4byte	.LASF140
 3963 0b4a 01       		.byte	0x1
 3964 0b4b 2701     		.2byte	0x127
 3965 0b4d 150C0000 		.4byte	0xc15
 3966 0b51 02       		.uleb128 0x2
 3967 0b52 91       		.byte	0x91
 3968 0b53 48       		.sleb128 -56
 3969 0b54 1A       		.uleb128 0x1a
 3970 0b55 F0000000 		.4byte	.Ldebug_ranges0+0xf0
 3971 0b59 6C0B0000 		.4byte	0xb6c
 3972 0b5d 2A       		.uleb128 0x2a
 3973 0b5e 6600     		.ascii	"f\000"
 3974 0b60 01       		.byte	0x1
 3975 0b61 2101     		.2byte	0x121
 3976 0b63 7E000000 		.4byte	0x7e
 3977 0b67 01080000 		.4byte	.LLST42
 3978 0b6b 00       		.byte	0
 3979 0b6c 1A       		.uleb128 0x1a
 3980 0b6d 08010000 		.4byte	.Ldebug_ranges0+0x108
 3981 0b71 960B0000 		.4byte	0xb96
 3982 0b75 29       		.uleb128 0x29
 3983 0b76 0C020000 		.4byte	.LASF46
ARM GAS  C:\Users\crono\AppData\Local\Temp\ccd4dy0n.s 			page 84


 3984 0b7a 01       		.byte	0x1
 3985 0b7b 2F01     		.2byte	0x12f
 3986 0b7d E1000000 		.4byte	0xe1
 3987 0b81 2A080000 		.4byte	.LLST43
 3988 0b85 29       		.uleb128 0x29
 3989 0b86 F6040000 		.4byte	.LASF47
 3990 0b8a 01       		.byte	0x1
 3991 0b8b 3001     		.2byte	0x130
 3992 0b8d E1000000 		.4byte	0xe1
 3993 0b91 48080000 		.4byte	.LLST44
 3994 0b95 00       		.byte	0
 3995 0b96 1C       		.uleb128 0x1c
 3996 0b97 AA040000 		.4byte	.LVL135
 3997 0b9b 0C170000 		.4byte	0x170c
 3998 0b9f B50B0000 		.4byte	0xbb5
 3999 0ba3 1D       		.uleb128 0x1d
 4000 0ba4 01       		.uleb128 0x1
 4001 0ba5 50       		.byte	0x50
 4002 0ba6 02       		.uleb128 0x2
 4003 0ba7 7D       		.byte	0x7d
 4004 0ba8 00       		.sleb128 0
 4005 0ba9 1D       		.uleb128 0x1d
 4006 0baa 01       		.uleb128 0x1
 4007 0bab 51       		.byte	0x51
 4008 0bac 02       		.uleb128 0x2
 4009 0bad 7B       		.byte	0x7b
 4010 0bae 00       		.sleb128 0
 4011 0baf 1D       		.uleb128 0x1d
 4012 0bb0 01       		.uleb128 0x1
 4013 0bb1 52       		.byte	0x52
 4014 0bb2 01       		.uleb128 0x1
 4015 0bb3 3A       		.byte	0x3a
 4016 0bb4 00       		.byte	0
 4017 0bb5 1C       		.uleb128 0x1c
 4018 0bb6 B6040000 		.4byte	.LVL138
 4019 0bba 0C170000 		.4byte	0x170c
 4020 0bbe D50B0000 		.4byte	0xbd5
 4021 0bc2 1D       		.uleb128 0x1d
 4022 0bc3 01       		.uleb128 0x1
 4023 0bc4 50       		.byte	0x50
 4024 0bc5 03       		.uleb128 0x3
 4025 0bc6 91       		.byte	0x91
 4026 0bc7 AC7F     		.sleb128 -84
 4027 0bc9 1D       		.uleb128 0x1d
 4028 0bca 01       		.uleb128 0x1
 4029 0bcb 51       		.byte	0x51
 4030 0bcc 02       		.uleb128 0x2
 4031 0bcd 7B       		.byte	0x7b
 4032 0bce 00       		.sleb128 0
 4033 0bcf 1D       		.uleb128 0x1d
 4034 0bd0 01       		.uleb128 0x1
 4035 0bd1 52       		.byte	0x52
 4036 0bd2 01       		.uleb128 0x1
 4037 0bd3 3A       		.byte	0x3a
 4038 0bd4 00       		.byte	0
 4039 0bd5 1E       		.uleb128 0x1e
 4040 0bd6 C2040000 		.4byte	.LVL141
ARM GAS  C:\Users\crono\AppData\Local\Temp\ccd4dy0n.s 			page 85


 4041 0bda 0C170000 		.4byte	0x170c
 4042 0bde 1D       		.uleb128 0x1d
 4043 0bdf 01       		.uleb128 0x1
 4044 0be0 50       		.byte	0x50
 4045 0be1 03       		.uleb128 0x3
 4046 0be2 91       		.byte	0x91
 4047 0be3 B07F     		.sleb128 -80
 4048 0be5 1D       		.uleb128 0x1d
 4049 0be6 01       		.uleb128 0x1
 4050 0be7 51       		.byte	0x51
 4051 0be8 02       		.uleb128 0x2
 4052 0be9 7B       		.byte	0x7b
 4053 0bea 00       		.sleb128 0
 4054 0beb 1D       		.uleb128 0x1d
 4055 0bec 01       		.uleb128 0x1
 4056 0bed 52       		.byte	0x52
 4057 0bee 01       		.uleb128 0x1
 4058 0bef 3A       		.byte	0x3a
 4059 0bf0 00       		.byte	0
 4060 0bf1 00       		.byte	0
 4061 0bf2 00       		.byte	0
 4062 0bf3 2D       		.uleb128 0x2d
 4063 0bf4 02060000 		.4byte	0x602
 4064 0bf8 34050000 		.4byte	.LBB81
 4065 0bfc 24000000 		.4byte	.LBE81-.LBB81
 4066 0c00 01       		.byte	0x1
 4067 0c01 4901     		.2byte	0x149
 4068 0c03 25       		.uleb128 0x25
 4069 0c04 12060000 		.4byte	0x612
 4070 0c08 71080000 		.4byte	.LLST45
 4071 0c0c 00       		.byte	0
 4072 0c0d 00       		.byte	0
 4073 0c0e 00       		.byte	0
 4074 0c0f 08       		.uleb128 0x8
 4075 0c10 04       		.byte	0x4
 4076 0c11 1F020000 		.4byte	0x21f
 4077 0c15 10       		.uleb128 0x10
 4078 0c16 C4000000 		.4byte	0xc4
 4079 0c1a 250C0000 		.4byte	0xc25
 4080 0c1e 11       		.uleb128 0x11
 4081 0c1f B7000000 		.4byte	0xb7
 4082 0c23 02       		.byte	0x2
 4083 0c24 00       		.byte	0
 4084 0c25 08       		.uleb128 0x8
 4085 0c26 04       		.byte	0x4
 4086 0c27 50020000 		.4byte	0x250
 4087 0c2b 2E       		.uleb128 0x2e
 4088 0c2c 86060000 		.4byte	.LASF141
 4089 0c30 01       		.byte	0x1
 4090 0c31 5301     		.2byte	0x153
 4091 0c33 FA020000 		.4byte	0x2fa
 4092 0c37 00000000 		.4byte	.LFB9
 4093 0c3b 30000000 		.4byte	.LFE9-.LFB9
 4094 0c3f 01       		.uleb128 0x1
 4095 0c40 9C       		.byte	0x9c
 4096 0c41 950C0000 		.4byte	0xc95
 4097 0c45 2F       		.uleb128 0x2f
ARM GAS  C:\Users\crono\AppData\Local\Temp\ccd4dy0n.s 			page 86


 4098 0c46 F3030000 		.4byte	.LASF142
 4099 0c4a 01       		.byte	0x1
 4100 0c4b 5301     		.2byte	0x153
 4101 0c4d BE000000 		.4byte	0xbe
 4102 0c51 84080000 		.4byte	.LLST46
 4103 0c55 2F       		.uleb128 0x2f
 4104 0c56 5C010000 		.4byte	.LASF117
 4105 0c5a 01       		.byte	0x1
 4106 0c5b 5301     		.2byte	0x153
 4107 0c5d CB000000 		.4byte	0xcb
 4108 0c61 B0080000 		.4byte	.LLST47
 4109 0c65 2C       		.uleb128 0x2c
 4110 0c66 91070000 		.4byte	.LASF130
 4111 0c6a 01       		.byte	0x1
 4112 0c6b 5501     		.2byte	0x155
 4113 0c6d 950C0000 		.4byte	0xc95
 4114 0c71 02       		.uleb128 0x2
 4115 0c72 91       		.byte	0x91
 4116 0c73 70       		.sleb128 -16
 4117 0c74 1E       		.uleb128 0x1e
 4118 0c75 10000000 		.4byte	.LVL183
 4119 0c79 53070000 		.4byte	0x753
 4120 0c7d 1D       		.uleb128 0x1d
 4121 0c7e 01       		.uleb128 0x1
 4122 0c7f 50       		.byte	0x50
 4123 0c80 03       		.uleb128 0x3
 4124 0c81 F3       		.byte	0xf3
 4125 0c82 01       		.uleb128 0x1
 4126 0c83 51       		.byte	0x51
 4127 0c84 1D       		.uleb128 0x1d
 4128 0c85 01       		.uleb128 0x1
 4129 0c86 51       		.byte	0x51
 4130 0c87 05       		.uleb128 0x5
 4131 0c88 03       		.byte	0x3
 4132 0c89 08000000 		.4byte	.LC2
 4133 0c8d 1D       		.uleb128 0x1d
 4134 0c8e 01       		.uleb128 0x1
 4135 0c8f 52       		.byte	0x52
 4136 0c90 02       		.uleb128 0x2
 4137 0c91 7D       		.byte	0x7d
 4138 0c92 00       		.sleb128 0
 4139 0c93 00       		.byte	0
 4140 0c94 00       		.byte	0
 4141 0c95 10       		.uleb128 0x10
 4142 0c96 C4000000 		.4byte	0xc4
 4143 0c9a A50C0000 		.4byte	0xca5
 4144 0c9e 11       		.uleb128 0x11
 4145 0c9f B7000000 		.4byte	0xb7
 4146 0ca3 05       		.byte	0x5
 4147 0ca4 00       		.byte	0
 4148 0ca5 2E       		.uleb128 0x2e
 4149 0ca6 1C010000 		.4byte	.LASF75
 4150 0caa 01       		.byte	0x1
 4151 0cab 6001     		.2byte	0x160
 4152 0cad AD010000 		.4byte	0x1ad
 4153 0cb1 00000000 		.4byte	.LFB10
 4154 0cb5 D0000000 		.4byte	.LFE10-.LFB10
ARM GAS  C:\Users\crono\AppData\Local\Temp\ccd4dy0n.s 			page 87


 4155 0cb9 01       		.uleb128 0x1
 4156 0cba 9C       		.byte	0x9c
 4157 0cbb 0A0E0000 		.4byte	0xe0a
 4158 0cbf 2F       		.uleb128 0x2f
 4159 0cc0 5C010000 		.4byte	.LASF117
 4160 0cc4 01       		.byte	0x1
 4161 0cc5 6001     		.2byte	0x160
 4162 0cc7 CB000000 		.4byte	0xcb
 4163 0ccb DC080000 		.4byte	.LLST48
 4164 0ccf 2F       		.uleb128 0x2f
 4165 0cd0 AE060000 		.4byte	.LASF120
 4166 0cd4 01       		.byte	0x1
 4167 0cd5 6001     		.2byte	0x160
 4168 0cd7 FA020000 		.4byte	0x2fa
 4169 0cdb 08090000 		.4byte	.LLST49
 4170 0cdf 2C       		.uleb128 0x2c
 4171 0ce0 91070000 		.4byte	.LASF130
 4172 0ce4 01       		.byte	0x1
 4173 0ce5 6501     		.2byte	0x165
 4174 0ce7 950C0000 		.4byte	0xc95
 4175 0ceb 02       		.uleb128 0x2
 4176 0cec 91       		.byte	0x91
 4177 0ced 70       		.sleb128 -16
 4178 0cee 1C       		.uleb128 0x1c
 4179 0cef 0A000000 		.4byte	.LVL186
 4180 0cf3 79060000 		.4byte	0x679
 4181 0cf7 020D0000 		.4byte	0xd02
 4182 0cfb 1D       		.uleb128 0x1d
 4183 0cfc 01       		.uleb128 0x1
 4184 0cfd 50       		.byte	0x50
 4185 0cfe 02       		.uleb128 0x2
 4186 0cff 74       		.byte	0x74
 4187 0d00 00       		.sleb128 0
 4188 0d01 00       		.byte	0
 4189 0d02 1C       		.uleb128 0x1c
 4190 0d03 18000000 		.4byte	.LVL187
 4191 0d07 53070000 		.4byte	0x753
 4192 0d0b 250D0000 		.4byte	0xd25
 4193 0d0f 1D       		.uleb128 0x1d
 4194 0d10 01       		.uleb128 0x1
 4195 0d11 50       		.byte	0x50
 4196 0d12 02       		.uleb128 0x2
 4197 0d13 74       		.byte	0x74
 4198 0d14 00       		.sleb128 0
 4199 0d15 1D       		.uleb128 0x1d
 4200 0d16 01       		.uleb128 0x1
 4201 0d17 51       		.byte	0x51
 4202 0d18 05       		.uleb128 0x5
 4203 0d19 03       		.byte	0x3
 4204 0d1a 08000000 		.4byte	.LC2
 4205 0d1e 1D       		.uleb128 0x1d
 4206 0d1f 01       		.uleb128 0x1
 4207 0d20 52       		.byte	0x52
 4208 0d21 02       		.uleb128 0x2
 4209 0d22 7D       		.byte	0x7d
 4210 0d23 00       		.sleb128 0
 4211 0d24 00       		.byte	0
ARM GAS  C:\Users\crono\AppData\Local\Temp\ccd4dy0n.s 			page 88


 4212 0d25 1C       		.uleb128 0x1c
 4213 0d26 24000000 		.4byte	.LVL188
 4214 0d2a 01170000 		.4byte	0x1701
 4215 0d2e 420D0000 		.4byte	0xd42
 4216 0d32 1D       		.uleb128 0x1d
 4217 0d33 01       		.uleb128 0x1
 4218 0d34 50       		.byte	0x50
 4219 0d35 02       		.uleb128 0x2
 4220 0d36 91       		.byte	0x91
 4221 0d37 72       		.sleb128 -14
 4222 0d38 1D       		.uleb128 0x1d
 4223 0d39 01       		.uleb128 0x1
 4224 0d3a 51       		.byte	0x51
 4225 0d3b 05       		.uleb128 0x5
 4226 0d3c 03       		.byte	0x3
 4227 0d3d 0C000000 		.4byte	.LC3
 4228 0d41 00       		.byte	0
 4229 0d42 1C       		.uleb128 0x1c
 4230 0d43 30000000 		.4byte	.LVL189
 4231 0d47 01170000 		.4byte	0x1701
 4232 0d4b 5F0D0000 		.4byte	0xd5f
 4233 0d4f 1D       		.uleb128 0x1d
 4234 0d50 01       		.uleb128 0x1
 4235 0d51 50       		.byte	0x50
 4236 0d52 02       		.uleb128 0x2
 4237 0d53 91       		.byte	0x91
 4238 0d54 72       		.sleb128 -14
 4239 0d55 1D       		.uleb128 0x1d
 4240 0d56 01       		.uleb128 0x1
 4241 0d57 51       		.byte	0x51
 4242 0d58 05       		.uleb128 0x5
 4243 0d59 03       		.byte	0x3
 4244 0d5a 10000000 		.4byte	.LC4
 4245 0d5e 00       		.byte	0
 4246 0d5f 1C       		.uleb128 0x1c
 4247 0d60 3C000000 		.4byte	.LVL190
 4248 0d64 01170000 		.4byte	0x1701
 4249 0d68 7C0D0000 		.4byte	0xd7c
 4250 0d6c 1D       		.uleb128 0x1d
 4251 0d6d 01       		.uleb128 0x1
 4252 0d6e 50       		.byte	0x50
 4253 0d6f 02       		.uleb128 0x2
 4254 0d70 91       		.byte	0x91
 4255 0d71 72       		.sleb128 -14
 4256 0d72 1D       		.uleb128 0x1d
 4257 0d73 01       		.uleb128 0x1
 4258 0d74 51       		.byte	0x51
 4259 0d75 05       		.uleb128 0x5
 4260 0d76 03       		.byte	0x3
 4261 0d77 14000000 		.4byte	.LC5
 4262 0d7b 00       		.byte	0
 4263 0d7c 1C       		.uleb128 0x1c
 4264 0d7d 48000000 		.4byte	.LVL191
 4265 0d81 01170000 		.4byte	0x1701
 4266 0d85 990D0000 		.4byte	0xd99
 4267 0d89 1D       		.uleb128 0x1d
 4268 0d8a 01       		.uleb128 0x1
ARM GAS  C:\Users\crono\AppData\Local\Temp\ccd4dy0n.s 			page 89


 4269 0d8b 50       		.byte	0x50
 4270 0d8c 02       		.uleb128 0x2
 4271 0d8d 91       		.byte	0x91
 4272 0d8e 72       		.sleb128 -14
 4273 0d8f 1D       		.uleb128 0x1d
 4274 0d90 01       		.uleb128 0x1
 4275 0d91 51       		.byte	0x51
 4276 0d92 05       		.uleb128 0x5
 4277 0d93 03       		.byte	0x3
 4278 0d94 18000000 		.4byte	.LC6
 4279 0d98 00       		.byte	0
 4280 0d99 1C       		.uleb128 0x1c
 4281 0d9a 54000000 		.4byte	.LVL192
 4282 0d9e 01170000 		.4byte	0x1701
 4283 0da2 B60D0000 		.4byte	0xdb6
 4284 0da6 1D       		.uleb128 0x1d
 4285 0da7 01       		.uleb128 0x1
 4286 0da8 50       		.byte	0x50
 4287 0da9 02       		.uleb128 0x2
 4288 0daa 91       		.byte	0x91
 4289 0dab 72       		.sleb128 -14
 4290 0dac 1D       		.uleb128 0x1d
 4291 0dad 01       		.uleb128 0x1
 4292 0dae 51       		.byte	0x51
 4293 0daf 05       		.uleb128 0x5
 4294 0db0 03       		.byte	0x3
 4295 0db1 1C000000 		.4byte	.LC7
 4296 0db5 00       		.byte	0
 4297 0db6 1C       		.uleb128 0x1c
 4298 0db7 60000000 		.4byte	.LVL193
 4299 0dbb 01170000 		.4byte	0x1701
 4300 0dbf D30D0000 		.4byte	0xdd3
 4301 0dc3 1D       		.uleb128 0x1d
 4302 0dc4 01       		.uleb128 0x1
 4303 0dc5 50       		.byte	0x50
 4304 0dc6 02       		.uleb128 0x2
 4305 0dc7 91       		.byte	0x91
 4306 0dc8 72       		.sleb128 -14
 4307 0dc9 1D       		.uleb128 0x1d
 4308 0dca 01       		.uleb128 0x1
 4309 0dcb 51       		.byte	0x51
 4310 0dcc 05       		.uleb128 0x5
 4311 0dcd 03       		.byte	0x3
 4312 0dce 20000000 		.4byte	.LC8
 4313 0dd2 00       		.byte	0
 4314 0dd3 1C       		.uleb128 0x1c
 4315 0dd4 6C000000 		.4byte	.LVL194
 4316 0dd8 01170000 		.4byte	0x1701
 4317 0ddc F00D0000 		.4byte	0xdf0
 4318 0de0 1D       		.uleb128 0x1d
 4319 0de1 01       		.uleb128 0x1
 4320 0de2 50       		.byte	0x50
 4321 0de3 02       		.uleb128 0x2
 4322 0de4 91       		.byte	0x91
 4323 0de5 72       		.sleb128 -14
 4324 0de6 1D       		.uleb128 0x1d
 4325 0de7 01       		.uleb128 0x1
ARM GAS  C:\Users\crono\AppData\Local\Temp\ccd4dy0n.s 			page 90


 4326 0de8 51       		.byte	0x51
 4327 0de9 05       		.uleb128 0x5
 4328 0dea 03       		.byte	0x3
 4329 0deb 24000000 		.4byte	.LC9
 4330 0def 00       		.byte	0
 4331 0df0 1E       		.uleb128 0x1e
 4332 0df1 78000000 		.4byte	.LVL195
 4333 0df5 01170000 		.4byte	0x1701
 4334 0df9 1D       		.uleb128 0x1d
 4335 0dfa 01       		.uleb128 0x1
 4336 0dfb 50       		.byte	0x50
 4337 0dfc 02       		.uleb128 0x2
 4338 0dfd 91       		.byte	0x91
 4339 0dfe 72       		.sleb128 -14
 4340 0dff 1D       		.uleb128 0x1d
 4341 0e00 01       		.uleb128 0x1
 4342 0e01 51       		.byte	0x51
 4343 0e02 05       		.uleb128 0x5
 4344 0e03 03       		.byte	0x3
 4345 0e04 28000000 		.4byte	.LC10
 4346 0e08 00       		.byte	0
 4347 0e09 00       		.byte	0
 4348 0e0a 2E       		.uleb128 0x2e
 4349 0e0b 20050000 		.4byte	.LASF143
 4350 0e0f 01       		.byte	0x1
 4351 0e10 7D01     		.2byte	0x17d
 4352 0e12 FA020000 		.4byte	0x2fa
 4353 0e16 00000000 		.4byte	.LFB11
 4354 0e1a 98000000 		.4byte	.LFE11-.LFB11
 4355 0e1e 01       		.uleb128 0x1
 4356 0e1f 9C       		.byte	0x9c
 4357 0e20 1A0F0000 		.4byte	0xf1a
 4358 0e24 2F       		.uleb128 0x2f
 4359 0e25 04080000 		.4byte	.LASF144
 4360 0e29 01       		.byte	0x1
 4361 0e2a 7D01     		.2byte	0x17d
 4362 0e2c 1A0F0000 		.4byte	0xf1a
 4363 0e30 29090000 		.4byte	.LLST50
 4364 0e34 2F       		.uleb128 0x2f
 4365 0e35 5C010000 		.4byte	.LASF117
 4366 0e39 01       		.byte	0x1
 4367 0e3a 7D01     		.2byte	0x17d
 4368 0e3c CB000000 		.4byte	0xcb
 4369 0e40 55090000 		.4byte	.LLST51
 4370 0e44 2C       		.uleb128 0x2c
 4371 0e45 91070000 		.4byte	.LASF130
 4372 0e49 01       		.byte	0x1
 4373 0e4a 8001     		.2byte	0x180
 4374 0e4c 950C0000 		.4byte	0xc95
 4375 0e50 02       		.uleb128 0x2
 4376 0e51 91       		.byte	0x91
 4377 0e52 68       		.sleb128 -24
 4378 0e53 2C       		.uleb128 0x2c
 4379 0e54 65010000 		.4byte	.LASF145
 4380 0e58 01       		.byte	0x1
 4381 0e59 8101     		.2byte	0x181
 4382 0e5b C4000000 		.4byte	0xc4
ARM GAS  C:\Users\crono\AppData\Local\Temp\ccd4dy0n.s 			page 91


 4383 0e5f 02       		.uleb128 0x2
 4384 0e60 91       		.byte	0x91
 4385 0e61 67       		.sleb128 -25
 4386 0e62 2C       		.uleb128 0x2c
 4387 0e63 DF020000 		.4byte	.LASF146
 4388 0e67 01       		.byte	0x1
 4389 0e68 8201     		.2byte	0x182
 4390 0e6a 7E000000 		.4byte	0x7e
 4391 0e6e 02       		.uleb128 0x2
 4392 0e6f 91       		.byte	0x91
 4393 0e70 60       		.sleb128 -32
 4394 0e71 2C       		.uleb128 0x2c
 4395 0e72 0C050000 		.4byte	.LASF147
 4396 0e76 01       		.byte	0x1
 4397 0e77 8301     		.2byte	0x183
 4398 0e79 7E000000 		.4byte	0x7e
 4399 0e7d 02       		.uleb128 0x2
 4400 0e7e 91       		.byte	0x91
 4401 0e7f 5C       		.sleb128 -36
 4402 0e80 2C       		.uleb128 0x2c
 4403 0e81 B3010000 		.4byte	.LASF148
 4404 0e85 01       		.byte	0x1
 4405 0e86 8401     		.2byte	0x184
 4406 0e88 7E000000 		.4byte	0x7e
 4407 0e8c 02       		.uleb128 0x2
 4408 0e8d 91       		.byte	0x91
 4409 0e8e 58       		.sleb128 -40
 4410 0e8f 1C       		.uleb128 0x1c
 4411 0e90 48000000 		.4byte	.LVL200
 4412 0e94 53070000 		.4byte	0x753
 4413 0e98 000F0000 		.4byte	0xf00
 4414 0e9c 1D       		.uleb128 0x1d
 4415 0e9d 01       		.uleb128 0x1
 4416 0e9e 50       		.byte	0x50
 4417 0e9f 03       		.uleb128 0x3
 4418 0ea0 F3       		.byte	0xf3
 4419 0ea1 01       		.uleb128 0x1
 4420 0ea2 51       		.byte	0x51
 4421 0ea3 1D       		.uleb128 0x1d
 4422 0ea4 01       		.uleb128 0x1
 4423 0ea5 51       		.byte	0x51
 4424 0ea6 05       		.uleb128 0x5
 4425 0ea7 03       		.byte	0x3
 4426 0ea8 2C000000 		.4byte	.LC11
 4427 0eac 1D       		.uleb128 0x1d
 4428 0ead 01       		.uleb128 0x1
 4429 0eae 52       		.byte	0x52
 4430 0eaf 02       		.uleb128 0x2
 4431 0eb0 91       		.byte	0x91
 4432 0eb1 68       		.sleb128 -24
 4433 0eb2 1D       		.uleb128 0x1d
 4434 0eb3 01       		.uleb128 0x1
 4435 0eb4 53       		.byte	0x53
 4436 0eb5 02       		.uleb128 0x2
 4437 0eb6 74       		.byte	0x74
 4438 0eb7 00       		.sleb128 0
 4439 0eb8 1D       		.uleb128 0x1d
ARM GAS  C:\Users\crono\AppData\Local\Temp\ccd4dy0n.s 			page 92


 4440 0eb9 02       		.uleb128 0x2
 4441 0eba 7D       		.byte	0x7d
 4442 0ebb 00       		.sleb128 0
 4443 0ebc 02       		.uleb128 0x2
 4444 0ebd 91       		.byte	0x91
 4445 0ebe 67       		.sleb128 -25
 4446 0ebf 1D       		.uleb128 0x1d
 4447 0ec0 02       		.uleb128 0x2
 4448 0ec1 7D       		.byte	0x7d
 4449 0ec2 04       		.sleb128 4
 4450 0ec3 02       		.uleb128 0x2
 4451 0ec4 74       		.byte	0x74
 4452 0ec5 14       		.sleb128 20
 4453 0ec6 1D       		.uleb128 0x1d
 4454 0ec7 02       		.uleb128 0x2
 4455 0ec8 7D       		.byte	0x7d
 4456 0ec9 08       		.sleb128 8
 4457 0eca 02       		.uleb128 0x2
 4458 0ecb 91       		.byte	0x91
 4459 0ecc 60       		.sleb128 -32
 4460 0ecd 1D       		.uleb128 0x1d
 4461 0ece 02       		.uleb128 0x2
 4462 0ecf 7D       		.byte	0x7d
 4463 0ed0 0C       		.sleb128 12
 4464 0ed1 02       		.uleb128 0x2
 4465 0ed2 74       		.byte	0x74
 4466 0ed3 1C       		.sleb128 28
 4467 0ed4 1D       		.uleb128 0x1d
 4468 0ed5 02       		.uleb128 0x2
 4469 0ed6 7D       		.byte	0x7d
 4470 0ed7 10       		.sleb128 16
 4471 0ed8 02       		.uleb128 0x2
 4472 0ed9 91       		.byte	0x91
 4473 0eda 5C       		.sleb128 -36
 4474 0edb 1D       		.uleb128 0x1d
 4475 0edc 02       		.uleb128 0x2
 4476 0edd 7D       		.byte	0x7d
 4477 0ede 14       		.sleb128 20
 4478 0edf 02       		.uleb128 0x2
 4479 0ee0 74       		.byte	0x74
 4480 0ee1 24       		.sleb128 36
 4481 0ee2 1D       		.uleb128 0x1d
 4482 0ee3 02       		.uleb128 0x2
 4483 0ee4 7D       		.byte	0x7d
 4484 0ee5 18       		.sleb128 24
 4485 0ee6 02       		.uleb128 0x2
 4486 0ee7 74       		.byte	0x74
 4487 0ee8 2C       		.sleb128 44
 4488 0ee9 1D       		.uleb128 0x1d
 4489 0eea 02       		.uleb128 0x2
 4490 0eeb 7D       		.byte	0x7d
 4491 0eec 1C       		.sleb128 28
 4492 0eed 02       		.uleb128 0x2
 4493 0eee 74       		.byte	0x74
 4494 0eef 34       		.sleb128 52
 4495 0ef0 1D       		.uleb128 0x1d
 4496 0ef1 02       		.uleb128 0x2
ARM GAS  C:\Users\crono\AppData\Local\Temp\ccd4dy0n.s 			page 93


 4497 0ef2 7D       		.byte	0x7d
 4498 0ef3 20       		.sleb128 32
 4499 0ef4 03       		.uleb128 0x3
 4500 0ef5 74       		.byte	0x74
 4501 0ef6 C000     		.sleb128 64
 4502 0ef8 1D       		.uleb128 0x1d
 4503 0ef9 02       		.uleb128 0x2
 4504 0efa 7D       		.byte	0x7d
 4505 0efb 24       		.sleb128 36
 4506 0efc 02       		.uleb128 0x2
 4507 0efd 91       		.byte	0x91
 4508 0efe 58       		.sleb128 -40
 4509 0eff 00       		.byte	0
 4510 0f00 1E       		.uleb128 0x1e
 4511 0f01 56000000 		.4byte	.LVL201
 4512 0f05 01170000 		.4byte	0x1701
 4513 0f09 1D       		.uleb128 0x1d
 4514 0f0a 01       		.uleb128 0x1
 4515 0f0b 50       		.byte	0x50
 4516 0f0c 02       		.uleb128 0x2
 4517 0f0d 91       		.byte	0x91
 4518 0f0e 6A       		.sleb128 -22
 4519 0f0f 1D       		.uleb128 0x1d
 4520 0f10 01       		.uleb128 0x1
 4521 0f11 51       		.byte	0x51
 4522 0f12 05       		.uleb128 0x5
 4523 0f13 03       		.byte	0x3
 4524 0f14 0C000000 		.4byte	.LC3
 4525 0f18 00       		.byte	0
 4526 0f19 00       		.byte	0
 4527 0f1a 08       		.uleb128 0x8
 4528 0f1b 04       		.byte	0x4
 4529 0f1c 8D020000 		.4byte	0x28d
 4530 0f20 2E       		.uleb128 0x2e
 4531 0f21 7B070000 		.4byte	.LASF149
 4532 0f25 01       		.byte	0x1
 4533 0f26 9B01     		.2byte	0x19b
 4534 0f28 FA020000 		.4byte	0x2fa
 4535 0f2c 00000000 		.4byte	.LFB12
 4536 0f30 8C000000 		.4byte	.LFE12-.LFB12
 4537 0f34 01       		.uleb128 0x1
 4538 0f35 9C       		.byte	0x9c
 4539 0f36 21100000 		.4byte	0x1021
 4540 0f3a 2F       		.uleb128 0x2f
 4541 0f3b 04080000 		.4byte	.LASF144
 4542 0f3f 01       		.byte	0x1
 4543 0f40 9B01     		.2byte	0x19b
 4544 0f42 21100000 		.4byte	0x1021
 4545 0f46 81090000 		.4byte	.LLST52
 4546 0f4a 2F       		.uleb128 0x2f
 4547 0f4b 5C010000 		.4byte	.LASF117
 4548 0f4f 01       		.byte	0x1
 4549 0f50 9B01     		.2byte	0x19b
 4550 0f52 CB000000 		.4byte	0xcb
 4551 0f56 AD090000 		.4byte	.LLST53
 4552 0f5a 2C       		.uleb128 0x2c
 4553 0f5b 91070000 		.4byte	.LASF130
ARM GAS  C:\Users\crono\AppData\Local\Temp\ccd4dy0n.s 			page 94


 4554 0f5f 01       		.byte	0x1
 4555 0f60 9E01     		.2byte	0x19e
 4556 0f62 950C0000 		.4byte	0xc95
 4557 0f66 02       		.uleb128 0x2
 4558 0f67 91       		.byte	0x91
 4559 0f68 68       		.sleb128 -24
 4560 0f69 2C       		.uleb128 0x2c
 4561 0f6a DF020000 		.4byte	.LASF146
 4562 0f6e 01       		.byte	0x1
 4563 0f6f 9F01     		.2byte	0x19f
 4564 0f71 7E000000 		.4byte	0x7e
 4565 0f75 02       		.uleb128 0x2
 4566 0f76 91       		.byte	0x91
 4567 0f77 64       		.sleb128 -28
 4568 0f78 2C       		.uleb128 0x2c
 4569 0f79 0C050000 		.4byte	.LASF147
 4570 0f7d 01       		.byte	0x1
 4571 0f7e A001     		.2byte	0x1a0
 4572 0f80 7E000000 		.4byte	0x7e
 4573 0f84 02       		.uleb128 0x2
 4574 0f85 91       		.byte	0x91
 4575 0f86 60       		.sleb128 -32
 4576 0f87 1C       		.uleb128 0x1c
 4577 0f88 56000000 		.4byte	.LVL206
 4578 0f8c 53070000 		.4byte	0x753
 4579 0f90 07100000 		.4byte	0x1007
 4580 0f94 1D       		.uleb128 0x1d
 4581 0f95 01       		.uleb128 0x1
 4582 0f96 50       		.byte	0x50
 4583 0f97 03       		.uleb128 0x3
 4584 0f98 F3       		.byte	0xf3
 4585 0f99 01       		.uleb128 0x1
 4586 0f9a 51       		.byte	0x51
 4587 0f9b 1D       		.uleb128 0x1d
 4588 0f9c 01       		.uleb128 0x1
 4589 0f9d 51       		.byte	0x51
 4590 0f9e 05       		.uleb128 0x5
 4591 0f9f 03       		.byte	0x3
 4592 0fa0 3C000000 		.4byte	.LC12
 4593 0fa4 1D       		.uleb128 0x1d
 4594 0fa5 01       		.uleb128 0x1
 4595 0fa6 52       		.byte	0x52
 4596 0fa7 02       		.uleb128 0x2
 4597 0fa8 91       		.byte	0x91
 4598 0fa9 68       		.sleb128 -24
 4599 0faa 1D       		.uleb128 0x1d
 4600 0fab 01       		.uleb128 0x1
 4601 0fac 53       		.byte	0x53
 4602 0fad 02       		.uleb128 0x2
 4603 0fae 74       		.byte	0x74
 4604 0faf 00       		.sleb128 0
 4605 0fb0 1D       		.uleb128 0x1d
 4606 0fb1 02       		.uleb128 0x2
 4607 0fb2 7D       		.byte	0x7d
 4608 0fb3 00       		.sleb128 0
 4609 0fb4 02       		.uleb128 0x2
 4610 0fb5 74       		.byte	0x74
ARM GAS  C:\Users\crono\AppData\Local\Temp\ccd4dy0n.s 			page 95


 4611 0fb6 10       		.sleb128 16
 4612 0fb7 1D       		.uleb128 0x1d
 4613 0fb8 02       		.uleb128 0x2
 4614 0fb9 7D       		.byte	0x7d
 4615 0fba 04       		.sleb128 4
 4616 0fbb 02       		.uleb128 0x2
 4617 0fbc 91       		.byte	0x91
 4618 0fbd 64       		.sleb128 -28
 4619 0fbe 1D       		.uleb128 0x1d
 4620 0fbf 02       		.uleb128 0x2
 4621 0fc0 7D       		.byte	0x7d
 4622 0fc1 08       		.sleb128 8
 4623 0fc2 02       		.uleb128 0x2
 4624 0fc3 74       		.byte	0x74
 4625 0fc4 18       		.sleb128 24
 4626 0fc5 1D       		.uleb128 0x1d
 4627 0fc6 02       		.uleb128 0x2
 4628 0fc7 7D       		.byte	0x7d
 4629 0fc8 0C       		.sleb128 12
 4630 0fc9 02       		.uleb128 0x2
 4631 0fca 91       		.byte	0x91
 4632 0fcb 60       		.sleb128 -32
 4633 0fcc 1D       		.uleb128 0x1d
 4634 0fcd 02       		.uleb128 0x2
 4635 0fce 7D       		.byte	0x7d
 4636 0fcf 10       		.sleb128 16
 4637 0fd0 02       		.uleb128 0x2
 4638 0fd1 74       		.byte	0x74
 4639 0fd2 20       		.sleb128 32
 4640 0fd3 1D       		.uleb128 0x1d
 4641 0fd4 02       		.uleb128 0x2
 4642 0fd5 7D       		.byte	0x7d
 4643 0fd6 14       		.sleb128 20
 4644 0fd7 02       		.uleb128 0x2
 4645 0fd8 74       		.byte	0x74
 4646 0fd9 24       		.sleb128 36
 4647 0fda 1D       		.uleb128 0x1d
 4648 0fdb 02       		.uleb128 0x2
 4649 0fdc 7D       		.byte	0x7d
 4650 0fdd 18       		.sleb128 24
 4651 0fde 02       		.uleb128 0x2
 4652 0fdf 74       		.byte	0x74
 4653 0fe0 28       		.sleb128 40
 4654 0fe1 1D       		.uleb128 0x1d
 4655 0fe2 02       		.uleb128 0x2
 4656 0fe3 7D       		.byte	0x7d
 4657 0fe4 1C       		.sleb128 28
 4658 0fe5 02       		.uleb128 0x2
 4659 0fe6 74       		.byte	0x74
 4660 0fe7 30       		.sleb128 48
 4661 0fe8 1D       		.uleb128 0x1d
 4662 0fe9 02       		.uleb128 0x2
 4663 0fea 7D       		.byte	0x7d
 4664 0feb 20       		.sleb128 32
 4665 0fec 02       		.uleb128 0x2
 4666 0fed 74       		.byte	0x74
 4667 0fee 38       		.sleb128 56
ARM GAS  C:\Users\crono\AppData\Local\Temp\ccd4dy0n.s 			page 96


 4668 0fef 1D       		.uleb128 0x1d
 4669 0ff0 02       		.uleb128 0x2
 4670 0ff1 7D       		.byte	0x7d
 4671 0ff2 24       		.sleb128 36
 4672 0ff3 02       		.uleb128 0x2
 4673 0ff4 74       		.byte	0x74
 4674 0ff5 3C       		.sleb128 60
 4675 0ff6 1D       		.uleb128 0x1d
 4676 0ff7 02       		.uleb128 0x2
 4677 0ff8 7D       		.byte	0x7d
 4678 0ff9 28       		.sleb128 40
 4679 0ffa 03       		.uleb128 0x3
 4680 0ffb 74       		.byte	0x74
 4681 0ffc C400     		.sleb128 68
 4682 0ffe 1D       		.uleb128 0x1d
 4683 0fff 02       		.uleb128 0x2
 4684 1000 7D       		.byte	0x7d
 4685 1001 2C       		.sleb128 44
 4686 1002 03       		.uleb128 0x3
 4687 1003 74       		.byte	0x74
 4688 1004 C800     		.sleb128 72
 4689 1006 00       		.byte	0
 4690 1007 1E       		.uleb128 0x1e
 4691 1008 64000000 		.4byte	.LVL207
 4692 100c 01170000 		.4byte	0x1701
 4693 1010 1D       		.uleb128 0x1d
 4694 1011 01       		.uleb128 0x1
 4695 1012 50       		.byte	0x50
 4696 1013 02       		.uleb128 0x2
 4697 1014 91       		.byte	0x91
 4698 1015 6A       		.sleb128 -22
 4699 1016 1D       		.uleb128 0x1d
 4700 1017 01       		.uleb128 0x1
 4701 1018 51       		.byte	0x51
 4702 1019 05       		.uleb128 0x5
 4703 101a 03       		.byte	0x3
 4704 101b 10000000 		.4byte	.LC4
 4705 101f 00       		.byte	0
 4706 1020 00       		.byte	0
 4707 1021 08       		.uleb128 0x8
 4708 1022 04       		.byte	0x4
 4709 1023 01030000 		.4byte	0x301
 4710 1027 2E       		.uleb128 0x2e
 4711 1028 92050000 		.4byte	.LASF150
 4712 102c 01       		.byte	0x1
 4713 102d B701     		.2byte	0x1b7
 4714 102f FA020000 		.4byte	0x2fa
 4715 1033 00000000 		.4byte	.LFB13
 4716 1037 90000000 		.4byte	.LFE13-.LFB13
 4717 103b 01       		.uleb128 0x1
 4718 103c 9C       		.byte	0x9c
 4719 103d 55110000 		.4byte	0x1155
 4720 1041 2F       		.uleb128 0x2f
 4721 1042 04080000 		.4byte	.LASF144
 4722 1046 01       		.byte	0x1
 4723 1047 B701     		.2byte	0x1b7
 4724 1049 55110000 		.4byte	0x1155
ARM GAS  C:\Users\crono\AppData\Local\Temp\ccd4dy0n.s 			page 97


 4725 104d D9090000 		.4byte	.LLST54
 4726 1051 2F       		.uleb128 0x2f
 4727 1052 5C010000 		.4byte	.LASF117
 4728 1056 01       		.byte	0x1
 4729 1057 B701     		.2byte	0x1b7
 4730 1059 CB000000 		.4byte	0xcb
 4731 105d 050A0000 		.4byte	.LLST55
 4732 1061 2C       		.uleb128 0x2c
 4733 1062 91070000 		.4byte	.LASF130
 4734 1066 01       		.byte	0x1
 4735 1067 BA01     		.2byte	0x1ba
 4736 1069 950C0000 		.4byte	0xc95
 4737 106d 02       		.uleb128 0x2
 4738 106e 91       		.byte	0x91
 4739 106f 70       		.sleb128 -16
 4740 1070 1C       		.uleb128 0x1c
 4741 1071 6E000000 		.4byte	.LVL212
 4742 1075 53070000 		.4byte	0x753
 4743 1079 3B110000 		.4byte	0x113b
 4744 107d 1D       		.uleb128 0x1d
 4745 107e 01       		.uleb128 0x1
 4746 107f 50       		.byte	0x50
 4747 1080 03       		.uleb128 0x3
 4748 1081 F3       		.byte	0xf3
 4749 1082 01       		.uleb128 0x1
 4750 1083 51       		.byte	0x51
 4751 1084 1D       		.uleb128 0x1d
 4752 1085 01       		.uleb128 0x1
 4753 1086 51       		.byte	0x51
 4754 1087 05       		.uleb128 0x5
 4755 1088 03       		.byte	0x3
 4756 1089 4C000000 		.4byte	.LC13
 4757 108d 1D       		.uleb128 0x1d
 4758 108e 01       		.uleb128 0x1
 4759 108f 52       		.byte	0x52
 4760 1090 02       		.uleb128 0x2
 4761 1091 91       		.byte	0x91
 4762 1092 70       		.sleb128 -16
 4763 1093 1D       		.uleb128 0x1d
 4764 1094 01       		.uleb128 0x1
 4765 1095 53       		.byte	0x53
 4766 1096 03       		.uleb128 0x3
 4767 1097 F3       		.byte	0xf3
 4768 1098 01       		.uleb128 0x1
 4769 1099 50       		.byte	0x50
 4770 109a 1D       		.uleb128 0x1d
 4771 109b 02       		.uleb128 0x2
 4772 109c 7D       		.byte	0x7d
 4773 109d 00       		.sleb128 0
 4774 109e 05       		.uleb128 0x5
 4775 109f F3       		.byte	0xf3
 4776 10a0 01       		.uleb128 0x1
 4777 10a1 50       		.byte	0x50
 4778 10a2 23       		.byte	0x23
 4779 10a3 04       		.uleb128 0x4
 4780 10a4 1D       		.uleb128 0x1d
 4781 10a5 02       		.uleb128 0x2
ARM GAS  C:\Users\crono\AppData\Local\Temp\ccd4dy0n.s 			page 98


 4782 10a6 7D       		.byte	0x7d
 4783 10a7 04       		.sleb128 4
 4784 10a8 05       		.uleb128 0x5
 4785 10a9 F3       		.byte	0xf3
 4786 10aa 01       		.uleb128 0x1
 4787 10ab 50       		.byte	0x50
 4788 10ac 23       		.byte	0x23
 4789 10ad 08       		.uleb128 0x8
 4790 10ae 1D       		.uleb128 0x1d
 4791 10af 02       		.uleb128 0x2
 4792 10b0 7D       		.byte	0x7d
 4793 10b1 08       		.sleb128 8
 4794 10b2 05       		.uleb128 0x5
 4795 10b3 F3       		.byte	0xf3
 4796 10b4 01       		.uleb128 0x1
 4797 10b5 50       		.byte	0x50
 4798 10b6 23       		.byte	0x23
 4799 10b7 0C       		.uleb128 0xc
 4800 10b8 1D       		.uleb128 0x1d
 4801 10b9 02       		.uleb128 0x2
 4802 10ba 7D       		.byte	0x7d
 4803 10bb 0C       		.sleb128 12
 4804 10bc 05       		.uleb128 0x5
 4805 10bd F3       		.byte	0xf3
 4806 10be 01       		.uleb128 0x1
 4807 10bf 50       		.byte	0x50
 4808 10c0 23       		.byte	0x23
 4809 10c1 10       		.uleb128 0x10
 4810 10c2 1D       		.uleb128 0x1d
 4811 10c3 02       		.uleb128 0x2
 4812 10c4 7D       		.byte	0x7d
 4813 10c5 10       		.sleb128 16
 4814 10c6 05       		.uleb128 0x5
 4815 10c7 F3       		.byte	0xf3
 4816 10c8 01       		.uleb128 0x1
 4817 10c9 50       		.byte	0x50
 4818 10ca 23       		.byte	0x23
 4819 10cb 14       		.uleb128 0x14
 4820 10cc 1D       		.uleb128 0x1d
 4821 10cd 02       		.uleb128 0x2
 4822 10ce 7D       		.byte	0x7d
 4823 10cf 14       		.sleb128 20
 4824 10d0 05       		.uleb128 0x5
 4825 10d1 F3       		.byte	0xf3
 4826 10d2 01       		.uleb128 0x1
 4827 10d3 50       		.byte	0x50
 4828 10d4 23       		.byte	0x23
 4829 10d5 18       		.uleb128 0x18
 4830 10d6 1D       		.uleb128 0x1d
 4831 10d7 02       		.uleb128 0x2
 4832 10d8 7D       		.byte	0x7d
 4833 10d9 18       		.sleb128 24
 4834 10da 05       		.uleb128 0x5
 4835 10db F3       		.byte	0xf3
 4836 10dc 01       		.uleb128 0x1
 4837 10dd 50       		.byte	0x50
 4838 10de 23       		.byte	0x23
ARM GAS  C:\Users\crono\AppData\Local\Temp\ccd4dy0n.s 			page 99


 4839 10df 1C       		.uleb128 0x1c
 4840 10e0 1D       		.uleb128 0x1d
 4841 10e1 02       		.uleb128 0x2
 4842 10e2 7D       		.byte	0x7d
 4843 10e3 1C       		.sleb128 28
 4844 10e4 05       		.uleb128 0x5
 4845 10e5 F3       		.byte	0xf3
 4846 10e6 01       		.uleb128 0x1
 4847 10e7 50       		.byte	0x50
 4848 10e8 23       		.byte	0x23
 4849 10e9 20       		.uleb128 0x20
 4850 10ea 1D       		.uleb128 0x1d
 4851 10eb 02       		.uleb128 0x2
 4852 10ec 7D       		.byte	0x7d
 4853 10ed 20       		.sleb128 32
 4854 10ee 05       		.uleb128 0x5
 4855 10ef F3       		.byte	0xf3
 4856 10f0 01       		.uleb128 0x1
 4857 10f1 50       		.byte	0x50
 4858 10f2 23       		.byte	0x23
 4859 10f3 24       		.uleb128 0x24
 4860 10f4 1D       		.uleb128 0x1d
 4861 10f5 02       		.uleb128 0x2
 4862 10f6 7D       		.byte	0x7d
 4863 10f7 24       		.sleb128 36
 4864 10f8 05       		.uleb128 0x5
 4865 10f9 F3       		.byte	0xf3
 4866 10fa 01       		.uleb128 0x1
 4867 10fb 50       		.byte	0x50
 4868 10fc 23       		.byte	0x23
 4869 10fd 28       		.uleb128 0x28
 4870 10fe 1D       		.uleb128 0x1d
 4871 10ff 02       		.uleb128 0x2
 4872 1100 7D       		.byte	0x7d
 4873 1101 28       		.sleb128 40
 4874 1102 05       		.uleb128 0x5
 4875 1103 F3       		.byte	0xf3
 4876 1104 01       		.uleb128 0x1
 4877 1105 50       		.byte	0x50
 4878 1106 23       		.byte	0x23
 4879 1107 2C       		.uleb128 0x2c
 4880 1108 1D       		.uleb128 0x1d
 4881 1109 02       		.uleb128 0x2
 4882 110a 7D       		.byte	0x7d
 4883 110b 2C       		.sleb128 44
 4884 110c 05       		.uleb128 0x5
 4885 110d F3       		.byte	0xf3
 4886 110e 01       		.uleb128 0x1
 4887 110f 50       		.byte	0x50
 4888 1110 23       		.byte	0x23
 4889 1111 30       		.uleb128 0x30
 4890 1112 1D       		.uleb128 0x1d
 4891 1113 02       		.uleb128 0x2
 4892 1114 7D       		.byte	0x7d
 4893 1115 30       		.sleb128 48
 4894 1116 05       		.uleb128 0x5
 4895 1117 F3       		.byte	0xf3
ARM GAS  C:\Users\crono\AppData\Local\Temp\ccd4dy0n.s 			page 100


 4896 1118 01       		.uleb128 0x1
 4897 1119 50       		.byte	0x50
 4898 111a 23       		.byte	0x23
 4899 111b 34       		.uleb128 0x34
 4900 111c 1D       		.uleb128 0x1d
 4901 111d 02       		.uleb128 0x2
 4902 111e 7D       		.byte	0x7d
 4903 111f 34       		.sleb128 52
 4904 1120 05       		.uleb128 0x5
 4905 1121 F3       		.byte	0xf3
 4906 1122 01       		.uleb128 0x1
 4907 1123 50       		.byte	0x50
 4908 1124 23       		.byte	0x23
 4909 1125 38       		.uleb128 0x38
 4910 1126 1D       		.uleb128 0x1d
 4911 1127 02       		.uleb128 0x2
 4912 1128 7D       		.byte	0x7d
 4913 1129 38       		.sleb128 56
 4914 112a 05       		.uleb128 0x5
 4915 112b F3       		.byte	0xf3
 4916 112c 01       		.uleb128 0x1
 4917 112d 50       		.byte	0x50
 4918 112e 23       		.byte	0x23
 4919 112f 40       		.uleb128 0x40
 4920 1130 1D       		.uleb128 0x1d
 4921 1131 02       		.uleb128 0x2
 4922 1132 7D       		.byte	0x7d
 4923 1133 3C       		.sleb128 60
 4924 1134 05       		.uleb128 0x5
 4925 1135 F3       		.byte	0xf3
 4926 1136 01       		.uleb128 0x1
 4927 1137 50       		.byte	0x50
 4928 1138 23       		.byte	0x23
 4929 1139 48       		.uleb128 0x48
 4930 113a 00       		.byte	0
 4931 113b 1E       		.uleb128 0x1e
 4932 113c 7C000000 		.4byte	.LVL213
 4933 1140 01170000 		.4byte	0x1701
 4934 1144 1D       		.uleb128 0x1d
 4935 1145 01       		.uleb128 0x1
 4936 1146 50       		.byte	0x50
 4937 1147 02       		.uleb128 0x2
 4938 1148 91       		.byte	0x91
 4939 1149 72       		.sleb128 -14
 4940 114a 1D       		.uleb128 0x1d
 4941 114b 01       		.uleb128 0x1
 4942 114c 51       		.byte	0x51
 4943 114d 05       		.uleb128 0x5
 4944 114e 03       		.byte	0x3
 4945 114f 14000000 		.4byte	.LC5
 4946 1153 00       		.byte	0
 4947 1154 00       		.byte	0
 4948 1155 08       		.uleb128 0x8
 4949 1156 04       		.byte	0x4
 4950 1157 83040000 		.4byte	0x483
 4951 115b 2E       		.uleb128 0x2e
 4952 115c F4000000 		.4byte	.LASF151
ARM GAS  C:\Users\crono\AppData\Local\Temp\ccd4dy0n.s 			page 101


 4953 1160 01       		.byte	0x1
 4954 1161 D601     		.2byte	0x1d6
 4955 1163 FA020000 		.4byte	0x2fa
 4956 1167 00000000 		.4byte	.LFB14
 4957 116b 68000000 		.4byte	.LFE14-.LFB14
 4958 116f 01       		.uleb128 0x1
 4959 1170 9C       		.byte	0x9c
 4960 1171 30120000 		.4byte	0x1230
 4961 1175 2F       		.uleb128 0x2f
 4962 1176 04080000 		.4byte	.LASF144
 4963 117a 01       		.byte	0x1
 4964 117b D601     		.2byte	0x1d6
 4965 117d 30120000 		.4byte	0x1230
 4966 1181 310A0000 		.4byte	.LLST56
 4967 1185 2F       		.uleb128 0x2f
 4968 1186 5C010000 		.4byte	.LASF117
 4969 118a 01       		.byte	0x1
 4970 118b D601     		.2byte	0x1d6
 4971 118d CB000000 		.4byte	0xcb
 4972 1191 5D0A0000 		.4byte	.LLST57
 4973 1195 2C       		.uleb128 0x2c
 4974 1196 91070000 		.4byte	.LASF130
 4975 119a 01       		.byte	0x1
 4976 119b D901     		.2byte	0x1d9
 4977 119d 950C0000 		.4byte	0xc95
 4978 11a1 02       		.uleb128 0x2
 4979 11a2 91       		.byte	0x91
 4980 11a3 68       		.sleb128 -24
 4981 11a4 2C       		.uleb128 0x2c
 4982 11a5 DF020000 		.4byte	.LASF146
 4983 11a9 01       		.byte	0x1
 4984 11aa DA01     		.2byte	0x1da
 4985 11ac 7E000000 		.4byte	0x7e
 4986 11b0 02       		.uleb128 0x2
 4987 11b1 91       		.byte	0x91
 4988 11b2 64       		.sleb128 -28
 4989 11b3 2C       		.uleb128 0x2c
 4990 11b4 0C050000 		.4byte	.LASF147
 4991 11b8 01       		.byte	0x1
 4992 11b9 DB01     		.2byte	0x1db
 4993 11bb 7E000000 		.4byte	0x7e
 4994 11bf 02       		.uleb128 0x2
 4995 11c0 91       		.byte	0x91
 4996 11c1 60       		.sleb128 -32
 4997 11c2 1C       		.uleb128 0x1c
 4998 11c3 32000000 		.4byte	.LVL217
 4999 11c7 53070000 		.4byte	0x753
 5000 11cb 16120000 		.4byte	0x1216
 5001 11cf 1D       		.uleb128 0x1d
 5002 11d0 01       		.uleb128 0x1
 5003 11d1 50       		.byte	0x50
 5004 11d2 03       		.uleb128 0x3
 5005 11d3 F3       		.byte	0xf3
 5006 11d4 01       		.uleb128 0x1
 5007 11d5 51       		.byte	0x51
 5008 11d6 1D       		.uleb128 0x1d
 5009 11d7 01       		.uleb128 0x1
ARM GAS  C:\Users\crono\AppData\Local\Temp\ccd4dy0n.s 			page 102


 5010 11d8 51       		.byte	0x51
 5011 11d9 05       		.uleb128 0x5
 5012 11da 03       		.byte	0x3
 5013 11db 60000000 		.4byte	.LC14
 5014 11df 1D       		.uleb128 0x1d
 5015 11e0 01       		.uleb128 0x1
 5016 11e1 52       		.byte	0x52
 5017 11e2 02       		.uleb128 0x2
 5018 11e3 91       		.byte	0x91
 5019 11e4 68       		.sleb128 -24
 5020 11e5 1D       		.uleb128 0x1d
 5021 11e6 01       		.uleb128 0x1
 5022 11e7 53       		.byte	0x53
 5023 11e8 02       		.uleb128 0x2
 5024 11e9 74       		.byte	0x74
 5025 11ea 00       		.sleb128 0
 5026 11eb 1D       		.uleb128 0x1d
 5027 11ec 02       		.uleb128 0x2
 5028 11ed 7D       		.byte	0x7d
 5029 11ee 00       		.sleb128 0
 5030 11ef 02       		.uleb128 0x2
 5031 11f0 91       		.byte	0x91
 5032 11f1 64       		.sleb128 -28
 5033 11f2 1D       		.uleb128 0x1d
 5034 11f3 02       		.uleb128 0x2
 5035 11f4 7D       		.byte	0x7d
 5036 11f5 04       		.sleb128 4
 5037 11f6 02       		.uleb128 0x2
 5038 11f7 74       		.byte	0x74
 5039 11f8 08       		.sleb128 8
 5040 11f9 1D       		.uleb128 0x1d
 5041 11fa 02       		.uleb128 0x2
 5042 11fb 7D       		.byte	0x7d
 5043 11fc 08       		.sleb128 8
 5044 11fd 02       		.uleb128 0x2
 5045 11fe 91       		.byte	0x91
 5046 11ff 60       		.sleb128 -32
 5047 1200 1D       		.uleb128 0x1d
 5048 1201 02       		.uleb128 0x2
 5049 1202 7D       		.byte	0x7d
 5050 1203 0C       		.sleb128 12
 5051 1204 02       		.uleb128 0x2
 5052 1205 74       		.byte	0x74
 5053 1206 10       		.sleb128 16
 5054 1207 1D       		.uleb128 0x1d
 5055 1208 02       		.uleb128 0x2
 5056 1209 7D       		.byte	0x7d
 5057 120a 10       		.sleb128 16
 5058 120b 02       		.uleb128 0x2
 5059 120c 74       		.byte	0x74
 5060 120d 20       		.sleb128 32
 5061 120e 1D       		.uleb128 0x1d
 5062 120f 02       		.uleb128 0x2
 5063 1210 7D       		.byte	0x7d
 5064 1211 14       		.sleb128 20
 5065 1212 02       		.uleb128 0x2
 5066 1213 74       		.byte	0x74
ARM GAS  C:\Users\crono\AppData\Local\Temp\ccd4dy0n.s 			page 103


 5067 1214 21       		.sleb128 33
 5068 1215 00       		.byte	0
 5069 1216 1E       		.uleb128 0x1e
 5070 1217 40000000 		.4byte	.LVL218
 5071 121b 01170000 		.4byte	0x1701
 5072 121f 1D       		.uleb128 0x1d
 5073 1220 01       		.uleb128 0x1
 5074 1221 50       		.byte	0x50
 5075 1222 02       		.uleb128 0x2
 5076 1223 91       		.byte	0x91
 5077 1224 6A       		.sleb128 -22
 5078 1225 1D       		.uleb128 0x1d
 5079 1226 01       		.uleb128 0x1
 5080 1227 51       		.byte	0x51
 5081 1228 05       		.uleb128 0x5
 5082 1229 03       		.byte	0x3
 5083 122a 18000000 		.4byte	.LC6
 5084 122e 00       		.byte	0
 5085 122f 00       		.byte	0
 5086 1230 08       		.uleb128 0x8
 5087 1231 04       		.byte	0x4
 5088 1232 CD030000 		.4byte	0x3cd
 5089 1236 2E       		.uleb128 0x2e
 5090 1237 C9050000 		.4byte	.LASF152
 5091 123b 01       		.byte	0x1
 5092 123c EE01     		.2byte	0x1ee
 5093 123e FA020000 		.4byte	0x2fa
 5094 1242 00000000 		.4byte	.LFB15
 5095 1246 5C000000 		.4byte	.LFE15-.LFB15
 5096 124a 01       		.uleb128 0x1
 5097 124b 9C       		.byte	0x9c
 5098 124c 0A130000 		.4byte	0x130a
 5099 1250 2F       		.uleb128 0x2f
 5100 1251 04080000 		.4byte	.LASF144
 5101 1255 01       		.byte	0x1
 5102 1256 EE01     		.2byte	0x1ee
 5103 1258 0A130000 		.4byte	0x130a
 5104 125c 890A0000 		.4byte	.LLST58
 5105 1260 2F       		.uleb128 0x2f
 5106 1261 5C010000 		.4byte	.LASF117
 5107 1265 01       		.byte	0x1
 5108 1266 EE01     		.2byte	0x1ee
 5109 1268 CB000000 		.4byte	0xcb
 5110 126c B50A0000 		.4byte	.LLST59
 5111 1270 2C       		.uleb128 0x2c
 5112 1271 91070000 		.4byte	.LASF130
 5113 1275 01       		.byte	0x1
 5114 1276 F101     		.2byte	0x1f1
 5115 1278 950C0000 		.4byte	0xc95
 5116 127c 02       		.uleb128 0x2
 5117 127d 91       		.byte	0x91
 5118 127e 70       		.sleb128 -16
 5119 127f 1C       		.uleb128 0x1c
 5120 1280 3A000000 		.4byte	.LVL223
 5121 1284 53070000 		.4byte	0x753
 5122 1288 F0120000 		.4byte	0x12f0
 5123 128c 1D       		.uleb128 0x1d
ARM GAS  C:\Users\crono\AppData\Local\Temp\ccd4dy0n.s 			page 104


 5124 128d 01       		.uleb128 0x1
 5125 128e 50       		.byte	0x50
 5126 128f 03       		.uleb128 0x3
 5127 1290 F3       		.byte	0xf3
 5128 1291 01       		.uleb128 0x1
 5129 1292 51       		.byte	0x51
 5130 1293 1D       		.uleb128 0x1d
 5131 1294 01       		.uleb128 0x1
 5132 1295 51       		.byte	0x51
 5133 1296 05       		.uleb128 0x5
 5134 1297 03       		.byte	0x3
 5135 1298 6C000000 		.4byte	.LC15
 5136 129c 1D       		.uleb128 0x1d
 5137 129d 01       		.uleb128 0x1
 5138 129e 52       		.byte	0x52
 5139 129f 02       		.uleb128 0x2
 5140 12a0 91       		.byte	0x91
 5141 12a1 70       		.sleb128 -16
 5142 12a2 1D       		.uleb128 0x1d
 5143 12a3 01       		.uleb128 0x1
 5144 12a4 53       		.byte	0x53
 5145 12a5 03       		.uleb128 0x3
 5146 12a6 F3       		.byte	0xf3
 5147 12a7 01       		.uleb128 0x1
 5148 12a8 50       		.byte	0x50
 5149 12a9 1D       		.uleb128 0x1d
 5150 12aa 02       		.uleb128 0x2
 5151 12ab 7D       		.byte	0x7d
 5152 12ac 00       		.sleb128 0
 5153 12ad 05       		.uleb128 0x5
 5154 12ae F3       		.byte	0xf3
 5155 12af 01       		.uleb128 0x1
 5156 12b0 50       		.byte	0x50
 5157 12b1 23       		.byte	0x23
 5158 12b2 10       		.uleb128 0x10
 5159 12b3 1D       		.uleb128 0x1d
 5160 12b4 02       		.uleb128 0x2
 5161 12b5 7D       		.byte	0x7d
 5162 12b6 04       		.sleb128 4
 5163 12b7 05       		.uleb128 0x5
 5164 12b8 F3       		.byte	0xf3
 5165 12b9 01       		.uleb128 0x1
 5166 12ba 50       		.byte	0x50
 5167 12bb 23       		.byte	0x23
 5168 12bc 18       		.uleb128 0x18
 5169 12bd 1D       		.uleb128 0x1d
 5170 12be 02       		.uleb128 0x2
 5171 12bf 7D       		.byte	0x7d
 5172 12c0 08       		.sleb128 8
 5173 12c1 05       		.uleb128 0x5
 5174 12c2 F3       		.byte	0xf3
 5175 12c3 01       		.uleb128 0x1
 5176 12c4 50       		.byte	0x50
 5177 12c5 23       		.byte	0x23
 5178 12c6 20       		.uleb128 0x20
 5179 12c7 1D       		.uleb128 0x1d
 5180 12c8 02       		.uleb128 0x2
ARM GAS  C:\Users\crono\AppData\Local\Temp\ccd4dy0n.s 			page 105


 5181 12c9 7D       		.byte	0x7d
 5182 12ca 0C       		.sleb128 12
 5183 12cb 05       		.uleb128 0x5
 5184 12cc F3       		.byte	0xf3
 5185 12cd 01       		.uleb128 0x1
 5186 12ce 50       		.byte	0x50
 5187 12cf 23       		.byte	0x23
 5188 12d0 28       		.uleb128 0x28
 5189 12d1 1D       		.uleb128 0x1d
 5190 12d2 02       		.uleb128 0x2
 5191 12d3 7D       		.byte	0x7d
 5192 12d4 10       		.sleb128 16
 5193 12d5 05       		.uleb128 0x5
 5194 12d6 F3       		.byte	0xf3
 5195 12d7 01       		.uleb128 0x1
 5196 12d8 50       		.byte	0x50
 5197 12d9 23       		.byte	0x23
 5198 12da 30       		.uleb128 0x30
 5199 12db 1D       		.uleb128 0x1d
 5200 12dc 02       		.uleb128 0x2
 5201 12dd 7D       		.byte	0x7d
 5202 12de 14       		.sleb128 20
 5203 12df 05       		.uleb128 0x5
 5204 12e0 F3       		.byte	0xf3
 5205 12e1 01       		.uleb128 0x1
 5206 12e2 50       		.byte	0x50
 5207 12e3 23       		.byte	0x23
 5208 12e4 38       		.uleb128 0x38
 5209 12e5 1D       		.uleb128 0x1d
 5210 12e6 02       		.uleb128 0x2
 5211 12e7 7D       		.byte	0x7d
 5212 12e8 18       		.sleb128 24
 5213 12e9 05       		.uleb128 0x5
 5214 12ea F3       		.byte	0xf3
 5215 12eb 01       		.uleb128 0x1
 5216 12ec 50       		.byte	0x50
 5217 12ed 23       		.byte	0x23
 5218 12ee 40       		.uleb128 0x40
 5219 12ef 00       		.byte	0
 5220 12f0 1E       		.uleb128 0x1e
 5221 12f1 48000000 		.4byte	.LVL224
 5222 12f5 01170000 		.4byte	0x1701
 5223 12f9 1D       		.uleb128 0x1d
 5224 12fa 01       		.uleb128 0x1
 5225 12fb 50       		.byte	0x50
 5226 12fc 02       		.uleb128 0x2
 5227 12fd 91       		.byte	0x91
 5228 12fe 72       		.sleb128 -14
 5229 12ff 1D       		.uleb128 0x1d
 5230 1300 01       		.uleb128 0x1
 5231 1301 51       		.byte	0x51
 5232 1302 05       		.uleb128 0x5
 5233 1303 03       		.byte	0x3
 5234 1304 1C000000 		.4byte	.LC7
 5235 1308 00       		.byte	0
 5236 1309 00       		.byte	0
 5237 130a 08       		.uleb128 0x8
ARM GAS  C:\Users\crono\AppData\Local\Temp\ccd4dy0n.s 			page 106


 5238 130b 04       		.byte	0x4
 5239 130c 16040000 		.4byte	0x416
 5240 1310 2E       		.uleb128 0x2e
 5241 1311 DA050000 		.4byte	.LASF153
 5242 1315 01       		.byte	0x1
 5243 1316 0402     		.2byte	0x204
 5244 1318 FA020000 		.4byte	0x2fa
 5245 131c 00000000 		.4byte	.LFB16
 5246 1320 9C000000 		.4byte	.LFE16-.LFB16
 5247 1324 01       		.uleb128 0x1
 5248 1325 9C       		.byte	0x9c
 5249 1326 54140000 		.4byte	0x1454
 5250 132a 2F       		.uleb128 0x2f
 5251 132b 04080000 		.4byte	.LASF144
 5252 132f 01       		.byte	0x1
 5253 1330 0402     		.2byte	0x204
 5254 1332 54140000 		.4byte	0x1454
 5255 1336 E10A0000 		.4byte	.LLST60
 5256 133a 2F       		.uleb128 0x2f
 5257 133b 5C010000 		.4byte	.LASF117
 5258 133f 01       		.byte	0x1
 5259 1340 0402     		.2byte	0x204
 5260 1342 CB000000 		.4byte	0xcb
 5261 1346 0D0B0000 		.4byte	.LLST61
 5262 134a 2C       		.uleb128 0x2c
 5263 134b 91070000 		.4byte	.LASF130
 5264 134f 01       		.byte	0x1
 5265 1350 0B02     		.2byte	0x20b
 5266 1352 950C0000 		.4byte	0xc95
 5267 1356 02       		.uleb128 0x2
 5268 1357 91       		.byte	0x91
 5269 1358 70       		.sleb128 -16
 5270 1359 1C       		.uleb128 0x1c
 5271 135a 7A000000 		.4byte	.LVL228
 5272 135e 53070000 		.4byte	0x753
 5273 1362 3A140000 		.4byte	0x143a
 5274 1366 1D       		.uleb128 0x1d
 5275 1367 01       		.uleb128 0x1
 5276 1368 50       		.byte	0x50
 5277 1369 03       		.uleb128 0x3
 5278 136a F3       		.byte	0xf3
 5279 136b 01       		.uleb128 0x1
 5280 136c 51       		.byte	0x51
 5281 136d 1D       		.uleb128 0x1d
 5282 136e 01       		.uleb128 0x1
 5283 136f 51       		.byte	0x51
 5284 1370 05       		.uleb128 0x5
 5285 1371 03       		.byte	0x3
 5286 1372 78000000 		.4byte	.LC16
 5287 1376 1D       		.uleb128 0x1d
 5288 1377 01       		.uleb128 0x1
 5289 1378 52       		.byte	0x52
 5290 1379 02       		.uleb128 0x2
 5291 137a 91       		.byte	0x91
 5292 137b 70       		.sleb128 -16
 5293 137c 1D       		.uleb128 0x1d
 5294 137d 01       		.uleb128 0x1
ARM GAS  C:\Users\crono\AppData\Local\Temp\ccd4dy0n.s 			page 107


 5295 137e 53       		.byte	0x53
 5296 137f 03       		.uleb128 0x3
 5297 1380 F3       		.byte	0xf3
 5298 1381 01       		.uleb128 0x1
 5299 1382 50       		.byte	0x50
 5300 1383 1D       		.uleb128 0x1d
 5301 1384 02       		.uleb128 0x2
 5302 1385 7D       		.byte	0x7d
 5303 1386 00       		.sleb128 0
 5304 1387 05       		.uleb128 0x5
 5305 1388 F3       		.byte	0xf3
 5306 1389 01       		.uleb128 0x1
 5307 138a 50       		.byte	0x50
 5308 138b 23       		.byte	0x23
 5309 138c 04       		.uleb128 0x4
 5310 138d 1D       		.uleb128 0x1d
 5311 138e 02       		.uleb128 0x2
 5312 138f 7D       		.byte	0x7d
 5313 1390 04       		.sleb128 4
 5314 1391 05       		.uleb128 0x5
 5315 1392 F3       		.byte	0xf3
 5316 1393 01       		.uleb128 0x1
 5317 1394 50       		.byte	0x50
 5318 1395 23       		.byte	0x23
 5319 1396 08       		.uleb128 0x8
 5320 1397 1D       		.uleb128 0x1d
 5321 1398 02       		.uleb128 0x2
 5322 1399 7D       		.byte	0x7d
 5323 139a 08       		.sleb128 8
 5324 139b 05       		.uleb128 0x5
 5325 139c F3       		.byte	0xf3
 5326 139d 01       		.uleb128 0x1
 5327 139e 50       		.byte	0x50
 5328 139f 23       		.byte	0x23
 5329 13a0 0C       		.uleb128 0xc
 5330 13a1 1D       		.uleb128 0x1d
 5331 13a2 02       		.uleb128 0x2
 5332 13a3 7D       		.byte	0x7d
 5333 13a4 0C       		.sleb128 12
 5334 13a5 05       		.uleb128 0x5
 5335 13a6 F3       		.byte	0xf3
 5336 13a7 01       		.uleb128 0x1
 5337 13a8 50       		.byte	0x50
 5338 13a9 23       		.byte	0x23
 5339 13aa 10       		.uleb128 0x10
 5340 13ab 1D       		.uleb128 0x1d
 5341 13ac 02       		.uleb128 0x2
 5342 13ad 7D       		.byte	0x7d
 5343 13ae 10       		.sleb128 16
 5344 13af 05       		.uleb128 0x5
 5345 13b0 F3       		.byte	0xf3
 5346 13b1 01       		.uleb128 0x1
 5347 13b2 50       		.byte	0x50
 5348 13b3 23       		.byte	0x23
 5349 13b4 14       		.uleb128 0x14
 5350 13b5 1D       		.uleb128 0x1d
 5351 13b6 02       		.uleb128 0x2
ARM GAS  C:\Users\crono\AppData\Local\Temp\ccd4dy0n.s 			page 108


 5352 13b7 7D       		.byte	0x7d
 5353 13b8 14       		.sleb128 20
 5354 13b9 05       		.uleb128 0x5
 5355 13ba F3       		.byte	0xf3
 5356 13bb 01       		.uleb128 0x1
 5357 13bc 50       		.byte	0x50
 5358 13bd 23       		.byte	0x23
 5359 13be 18       		.uleb128 0x18
 5360 13bf 1D       		.uleb128 0x1d
 5361 13c0 02       		.uleb128 0x2
 5362 13c1 7D       		.byte	0x7d
 5363 13c2 18       		.sleb128 24
 5364 13c3 05       		.uleb128 0x5
 5365 13c4 F3       		.byte	0xf3
 5366 13c5 01       		.uleb128 0x1
 5367 13c6 50       		.byte	0x50
 5368 13c7 23       		.byte	0x23
 5369 13c8 1C       		.uleb128 0x1c
 5370 13c9 1D       		.uleb128 0x1d
 5371 13ca 02       		.uleb128 0x2
 5372 13cb 7D       		.byte	0x7d
 5373 13cc 1C       		.sleb128 28
 5374 13cd 05       		.uleb128 0x5
 5375 13ce F3       		.byte	0xf3
 5376 13cf 01       		.uleb128 0x1
 5377 13d0 50       		.byte	0x50
 5378 13d1 23       		.byte	0x23
 5379 13d2 20       		.uleb128 0x20
 5380 13d3 1D       		.uleb128 0x1d
 5381 13d4 02       		.uleb128 0x2
 5382 13d5 7D       		.byte	0x7d
 5383 13d6 20       		.sleb128 32
 5384 13d7 05       		.uleb128 0x5
 5385 13d8 F3       		.byte	0xf3
 5386 13d9 01       		.uleb128 0x1
 5387 13da 50       		.byte	0x50
 5388 13db 23       		.byte	0x23
 5389 13dc 24       		.uleb128 0x24
 5390 13dd 1D       		.uleb128 0x1d
 5391 13de 02       		.uleb128 0x2
 5392 13df 7D       		.byte	0x7d
 5393 13e0 24       		.sleb128 36
 5394 13e1 05       		.uleb128 0x5
 5395 13e2 F3       		.byte	0xf3
 5396 13e3 01       		.uleb128 0x1
 5397 13e4 50       		.byte	0x50
 5398 13e5 23       		.byte	0x23
 5399 13e6 28       		.uleb128 0x28
 5400 13e7 1D       		.uleb128 0x1d
 5401 13e8 02       		.uleb128 0x2
 5402 13e9 7D       		.byte	0x7d
 5403 13ea 28       		.sleb128 40
 5404 13eb 05       		.uleb128 0x5
 5405 13ec F3       		.byte	0xf3
 5406 13ed 01       		.uleb128 0x1
 5407 13ee 50       		.byte	0x50
 5408 13ef 23       		.byte	0x23
ARM GAS  C:\Users\crono\AppData\Local\Temp\ccd4dy0n.s 			page 109


 5409 13f0 2C       		.uleb128 0x2c
 5410 13f1 1D       		.uleb128 0x1d
 5411 13f2 02       		.uleb128 0x2
 5412 13f3 7D       		.byte	0x7d
 5413 13f4 2C       		.sleb128 44
 5414 13f5 05       		.uleb128 0x5
 5415 13f6 F3       		.byte	0xf3
 5416 13f7 01       		.uleb128 0x1
 5417 13f8 50       		.byte	0x50
 5418 13f9 23       		.byte	0x23
 5419 13fa 30       		.uleb128 0x30
 5420 13fb 1D       		.uleb128 0x1d
 5421 13fc 02       		.uleb128 0x2
 5422 13fd 7D       		.byte	0x7d
 5423 13fe 30       		.sleb128 48
 5424 13ff 05       		.uleb128 0x5
 5425 1400 F3       		.byte	0xf3
 5426 1401 01       		.uleb128 0x1
 5427 1402 50       		.byte	0x50
 5428 1403 23       		.byte	0x23
 5429 1404 34       		.uleb128 0x34
 5430 1405 1D       		.uleb128 0x1d
 5431 1406 02       		.uleb128 0x2
 5432 1407 7D       		.byte	0x7d
 5433 1408 34       		.sleb128 52
 5434 1409 05       		.uleb128 0x5
 5435 140a F3       		.byte	0xf3
 5436 140b 01       		.uleb128 0x1
 5437 140c 50       		.byte	0x50
 5438 140d 23       		.byte	0x23
 5439 140e 38       		.uleb128 0x38
 5440 140f 1D       		.uleb128 0x1d
 5441 1410 02       		.uleb128 0x2
 5442 1411 7D       		.byte	0x7d
 5443 1412 38       		.sleb128 56
 5444 1413 05       		.uleb128 0x5
 5445 1414 F3       		.byte	0xf3
 5446 1415 01       		.uleb128 0x1
 5447 1416 50       		.byte	0x50
 5448 1417 23       		.byte	0x23
 5449 1418 3C       		.uleb128 0x3c
 5450 1419 1D       		.uleb128 0x1d
 5451 141a 02       		.uleb128 0x2
 5452 141b 7D       		.byte	0x7d
 5453 141c 3C       		.sleb128 60
 5454 141d 05       		.uleb128 0x5
 5455 141e F3       		.byte	0xf3
 5456 141f 01       		.uleb128 0x1
 5457 1420 50       		.byte	0x50
 5458 1421 23       		.byte	0x23
 5459 1422 40       		.uleb128 0x40
 5460 1423 1D       		.uleb128 0x1d
 5461 1424 03       		.uleb128 0x3
 5462 1425 7D       		.byte	0x7d
 5463 1426 C000     		.sleb128 64
 5464 1428 05       		.uleb128 0x5
 5465 1429 F3       		.byte	0xf3
ARM GAS  C:\Users\crono\AppData\Local\Temp\ccd4dy0n.s 			page 110


 5466 142a 01       		.uleb128 0x1
 5467 142b 50       		.byte	0x50
 5468 142c 23       		.byte	0x23
 5469 142d 44       		.uleb128 0x44
 5470 142e 1D       		.uleb128 0x1d
 5471 142f 03       		.uleb128 0x3
 5472 1430 7D       		.byte	0x7d
 5473 1431 C400     		.sleb128 68
 5474 1433 05       		.uleb128 0x5
 5475 1434 F3       		.byte	0xf3
 5476 1435 01       		.uleb128 0x1
 5477 1436 50       		.byte	0x50
 5478 1437 23       		.byte	0x23
 5479 1438 48       		.uleb128 0x48
 5480 1439 00       		.byte	0
 5481 143a 1E       		.uleb128 0x1e
 5482 143b 88000000 		.4byte	.LVL229
 5483 143f 01170000 		.4byte	0x1701
 5484 1443 1D       		.uleb128 0x1d
 5485 1444 01       		.uleb128 0x1
 5486 1445 50       		.byte	0x50
 5487 1446 02       		.uleb128 0x2
 5488 1447 91       		.byte	0x91
 5489 1448 72       		.sleb128 -14
 5490 1449 1D       		.uleb128 0x1d
 5491 144a 01       		.uleb128 0x1
 5492 144b 51       		.byte	0x51
 5493 144c 05       		.uleb128 0x5
 5494 144d 03       		.byte	0x3
 5495 144e 20000000 		.4byte	.LC8
 5496 1452 00       		.byte	0
 5497 1453 00       		.byte	0
 5498 1454 08       		.uleb128 0x8
 5499 1455 04       		.byte	0x4
 5500 1456 24050000 		.4byte	0x524
 5501 145a 2E       		.uleb128 0x2e
 5502 145b EB050000 		.4byte	.LASF154
 5503 145f 01       		.byte	0x1
 5504 1460 2B02     		.2byte	0x22b
 5505 1462 FA020000 		.4byte	0x2fa
 5506 1466 00000000 		.4byte	.LFB17
 5507 146a 9C000000 		.4byte	.LFE17-.LFB17
 5508 146e 01       		.uleb128 0x1
 5509 146f 9C       		.byte	0x9c
 5510 1470 6A150000 		.4byte	0x156a
 5511 1474 2F       		.uleb128 0x2f
 5512 1475 04080000 		.4byte	.LASF144
 5513 1479 01       		.byte	0x1
 5514 147a 2B02     		.2byte	0x22b
 5515 147c 6A150000 		.4byte	0x156a
 5516 1480 390B0000 		.4byte	.LLST62
 5517 1484 2F       		.uleb128 0x2f
 5518 1485 5C010000 		.4byte	.LASF117
 5519 1489 01       		.byte	0x1
 5520 148a 2B02     		.2byte	0x22b
 5521 148c CB000000 		.4byte	0xcb
 5522 1490 650B0000 		.4byte	.LLST63
ARM GAS  C:\Users\crono\AppData\Local\Temp\ccd4dy0n.s 			page 111


 5523 1494 2C       		.uleb128 0x2c
 5524 1495 91070000 		.4byte	.LASF130
 5525 1499 01       		.byte	0x1
 5526 149a 3102     		.2byte	0x231
 5527 149c 950C0000 		.4byte	0xc95
 5528 14a0 02       		.uleb128 0x2
 5529 14a1 91       		.byte	0x91
 5530 14a2 68       		.sleb128 -24
 5531 14a3 2C       		.uleb128 0x2c
 5532 14a4 CC010000 		.4byte	.LASF155
 5533 14a8 01       		.byte	0x1
 5534 14a9 3202     		.2byte	0x232
 5535 14ab C4000000 		.4byte	0xc4
 5536 14af 02       		.uleb128 0x2
 5537 14b0 91       		.byte	0x91
 5538 14b1 67       		.sleb128 -25
 5539 14b2 2C       		.uleb128 0x2c
 5540 14b3 72080000 		.4byte	.LASF156
 5541 14b7 01       		.byte	0x1
 5542 14b8 3202     		.2byte	0x232
 5543 14ba C4000000 		.4byte	0xc4
 5544 14be 02       		.uleb128 0x2
 5545 14bf 91       		.byte	0x91
 5546 14c0 66       		.sleb128 -26
 5547 14c1 2C       		.uleb128 0x2c
 5548 14c2 A2000000 		.4byte	.LASF157
 5549 14c6 01       		.byte	0x1
 5550 14c7 3202     		.2byte	0x232
 5551 14c9 C4000000 		.4byte	0xc4
 5552 14cd 02       		.uleb128 0x2
 5553 14ce 91       		.byte	0x91
 5554 14cf 65       		.sleb128 -27
 5555 14d0 2C       		.uleb128 0x2c
 5556 14d1 EE000000 		.4byte	.LASF158
 5557 14d5 01       		.byte	0x1
 5558 14d6 3202     		.2byte	0x232
 5559 14d8 C4000000 		.4byte	0xc4
 5560 14dc 02       		.uleb128 0x2
 5561 14dd 91       		.byte	0x91
 5562 14de 64       		.sleb128 -28
 5563 14df 2C       		.uleb128 0x2c
 5564 14e0 FE020000 		.4byte	.LASF159
 5565 14e4 01       		.byte	0x1
 5566 14e5 3202     		.2byte	0x232
 5567 14e7 C4000000 		.4byte	0xc4
 5568 14eb 02       		.uleb128 0x2
 5569 14ec 91       		.byte	0x91
 5570 14ed 63       		.sleb128 -29
 5571 14ee 1C       		.uleb128 0x1c
 5572 14ef 40000000 		.4byte	.LVL233
 5573 14f3 53070000 		.4byte	0x753
 5574 14f7 50150000 		.4byte	0x1550
 5575 14fb 1D       		.uleb128 0x1d
 5576 14fc 01       		.uleb128 0x1
 5577 14fd 50       		.byte	0x50
 5578 14fe 03       		.uleb128 0x3
 5579 14ff F3       		.byte	0xf3
ARM GAS  C:\Users\crono\AppData\Local\Temp\ccd4dy0n.s 			page 112


 5580 1500 01       		.uleb128 0x1
 5581 1501 51       		.byte	0x51
 5582 1502 1D       		.uleb128 0x1d
 5583 1503 01       		.uleb128 0x1
 5584 1504 51       		.byte	0x51
 5585 1505 05       		.uleb128 0x5
 5586 1506 03       		.byte	0x3
 5587 1507 90000000 		.4byte	.LC17
 5588 150b 1D       		.uleb128 0x1d
 5589 150c 01       		.uleb128 0x1
 5590 150d 52       		.byte	0x52
 5591 150e 02       		.uleb128 0x2
 5592 150f 91       		.byte	0x91
 5593 1510 68       		.sleb128 -24
 5594 1511 1D       		.uleb128 0x1d
 5595 1512 01       		.uleb128 0x1
 5596 1513 53       		.byte	0x53
 5597 1514 02       		.uleb128 0x2
 5598 1515 74       		.byte	0x74
 5599 1516 00       		.sleb128 0
 5600 1517 1D       		.uleb128 0x1d
 5601 1518 02       		.uleb128 0x2
 5602 1519 7D       		.byte	0x7d
 5603 151a 00       		.sleb128 0
 5604 151b 02       		.uleb128 0x2
 5605 151c 91       		.byte	0x91
 5606 151d 67       		.sleb128 -25
 5607 151e 1D       		.uleb128 0x1d
 5608 151f 02       		.uleb128 0x2
 5609 1520 7D       		.byte	0x7d
 5610 1521 04       		.sleb128 4
 5611 1522 02       		.uleb128 0x2
 5612 1523 74       		.byte	0x74
 5613 1524 08       		.sleb128 8
 5614 1525 1D       		.uleb128 0x1d
 5615 1526 02       		.uleb128 0x2
 5616 1527 7D       		.byte	0x7d
 5617 1528 08       		.sleb128 8
 5618 1529 02       		.uleb128 0x2
 5619 152a 91       		.byte	0x91
 5620 152b 66       		.sleb128 -26
 5621 152c 1D       		.uleb128 0x1d
 5622 152d 02       		.uleb128 0x2
 5623 152e 7D       		.byte	0x7d
 5624 152f 0C       		.sleb128 12
 5625 1530 02       		.uleb128 0x2
 5626 1531 74       		.byte	0x74
 5627 1532 10       		.sleb128 16
 5628 1533 1D       		.uleb128 0x1d
 5629 1534 02       		.uleb128 0x2
 5630 1535 7D       		.byte	0x7d
 5631 1536 10       		.sleb128 16
 5632 1537 02       		.uleb128 0x2
 5633 1538 91       		.byte	0x91
 5634 1539 65       		.sleb128 -27
 5635 153a 1D       		.uleb128 0x1d
 5636 153b 02       		.uleb128 0x2
ARM GAS  C:\Users\crono\AppData\Local\Temp\ccd4dy0n.s 			page 113


 5637 153c 7D       		.byte	0x7d
 5638 153d 14       		.sleb128 20
 5639 153e 02       		.uleb128 0x2
 5640 153f 74       		.byte	0x74
 5641 1540 18       		.sleb128 24
 5642 1541 1D       		.uleb128 0x1d
 5643 1542 02       		.uleb128 0x2
 5644 1543 7D       		.byte	0x7d
 5645 1544 18       		.sleb128 24
 5646 1545 02       		.uleb128 0x2
 5647 1546 91       		.byte	0x91
 5648 1547 64       		.sleb128 -28
 5649 1548 1D       		.uleb128 0x1d
 5650 1549 02       		.uleb128 0x2
 5651 154a 7D       		.byte	0x7d
 5652 154b 1C       		.sleb128 28
 5653 154c 02       		.uleb128 0x2
 5654 154d 91       		.byte	0x91
 5655 154e 63       		.sleb128 -29
 5656 154f 00       		.byte	0
 5657 1550 1E       		.uleb128 0x1e
 5658 1551 4E000000 		.4byte	.LVL234
 5659 1555 01170000 		.4byte	0x1701
 5660 1559 1D       		.uleb128 0x1d
 5661 155a 01       		.uleb128 0x1
 5662 155b 50       		.byte	0x50
 5663 155c 02       		.uleb128 0x2
 5664 155d 91       		.byte	0x91
 5665 155e 6A       		.sleb128 -22
 5666 155f 1D       		.uleb128 0x1d
 5667 1560 01       		.uleb128 0x1
 5668 1561 51       		.byte	0x51
 5669 1562 05       		.uleb128 0x5
 5670 1563 03       		.byte	0x3
 5671 1564 24000000 		.4byte	.LC9
 5672 1568 00       		.byte	0
 5673 1569 00       		.byte	0
 5674 156a 08       		.uleb128 0x8
 5675 156b 04       		.byte	0x4
 5676 156c 71050000 		.4byte	0x571
 5677 1570 2E       		.uleb128 0x2e
 5678 1571 05010000 		.4byte	.LASF160
 5679 1575 01       		.byte	0x1
 5680 1576 4D02     		.2byte	0x24d
 5681 1578 FA020000 		.4byte	0x2fa
 5682 157c 00000000 		.4byte	.LFB18
 5683 1580 74000000 		.4byte	.LFE18-.LFB18
 5684 1584 01       		.uleb128 0x1
 5685 1585 9C       		.byte	0x9c
 5686 1586 20160000 		.4byte	0x1620
 5687 158a 2F       		.uleb128 0x2f
 5688 158b 04080000 		.4byte	.LASF144
 5689 158f 01       		.byte	0x1
 5690 1590 4D02     		.2byte	0x24d
 5691 1592 20160000 		.4byte	0x1620
 5692 1596 910B0000 		.4byte	.LLST64
 5693 159a 2F       		.uleb128 0x2f
ARM GAS  C:\Users\crono\AppData\Local\Temp\ccd4dy0n.s 			page 114


 5694 159b 5C010000 		.4byte	.LASF117
 5695 159f 01       		.byte	0x1
 5696 15a0 4D02     		.2byte	0x24d
 5697 15a2 CB000000 		.4byte	0xcb
 5698 15a6 BD0B0000 		.4byte	.LLST65
 5699 15aa 2C       		.uleb128 0x2c
 5700 15ab 91070000 		.4byte	.LASF130
 5701 15af 01       		.byte	0x1
 5702 15b0 5002     		.2byte	0x250
 5703 15b2 950C0000 		.4byte	0xc95
 5704 15b6 02       		.uleb128 0x2
 5705 15b7 91       		.byte	0x91
 5706 15b8 68       		.sleb128 -24
 5707 15b9 1C       		.uleb128 0x1c
 5708 15ba 30000000 		.4byte	.LVL239
 5709 15be 53070000 		.4byte	0x753
 5710 15c2 06160000 		.4byte	0x1606
 5711 15c6 1D       		.uleb128 0x1d
 5712 15c7 01       		.uleb128 0x1
 5713 15c8 50       		.byte	0x50
 5714 15c9 03       		.uleb128 0x3
 5715 15ca F3       		.byte	0xf3
 5716 15cb 01       		.uleb128 0x1
 5717 15cc 51       		.byte	0x51
 5718 15cd 1D       		.uleb128 0x1d
 5719 15ce 01       		.uleb128 0x1
 5720 15cf 51       		.byte	0x51
 5721 15d0 05       		.uleb128 0x5
 5722 15d1 03       		.byte	0x3
 5723 15d2 9C000000 		.4byte	.LC18
 5724 15d6 1D       		.uleb128 0x1d
 5725 15d7 01       		.uleb128 0x1
 5726 15d8 52       		.byte	0x52
 5727 15d9 02       		.uleb128 0x2
 5728 15da 91       		.byte	0x91
 5729 15db 68       		.sleb128 -24
 5730 15dc 1D       		.uleb128 0x1d
 5731 15dd 01       		.uleb128 0x1
 5732 15de 53       		.byte	0x53
 5733 15df 02       		.uleb128 0x2
 5734 15e0 74       		.byte	0x74
 5735 15e1 00       		.sleb128 0
 5736 15e2 1D       		.uleb128 0x1d
 5737 15e3 02       		.uleb128 0x2
 5738 15e4 7D       		.byte	0x7d
 5739 15e5 00       		.sleb128 0
 5740 15e6 02       		.uleb128 0x2
 5741 15e7 74       		.byte	0x74
 5742 15e8 10       		.sleb128 16
 5743 15e9 1D       		.uleb128 0x1d
 5744 15ea 02       		.uleb128 0x2
 5745 15eb 7D       		.byte	0x7d
 5746 15ec 04       		.sleb128 4
 5747 15ed 02       		.uleb128 0x2
 5748 15ee 74       		.byte	0x74
 5749 15ef 14       		.sleb128 20
 5750 15f0 1D       		.uleb128 0x1d
ARM GAS  C:\Users\crono\AppData\Local\Temp\ccd4dy0n.s 			page 115


 5751 15f1 02       		.uleb128 0x2
 5752 15f2 7D       		.byte	0x7d
 5753 15f3 08       		.sleb128 8
 5754 15f4 02       		.uleb128 0x2
 5755 15f5 74       		.byte	0x74
 5756 15f6 18       		.sleb128 24
 5757 15f7 1D       		.uleb128 0x1d
 5758 15f8 02       		.uleb128 0x2
 5759 15f9 7D       		.byte	0x7d
 5760 15fa 0C       		.sleb128 12
 5761 15fb 02       		.uleb128 0x2
 5762 15fc 74       		.byte	0x74
 5763 15fd 1C       		.sleb128 28
 5764 15fe 1D       		.uleb128 0x1d
 5765 15ff 02       		.uleb128 0x2
 5766 1600 7D       		.byte	0x7d
 5767 1601 10       		.sleb128 16
 5768 1602 02       		.uleb128 0x2
 5769 1603 74       		.byte	0x74
 5770 1604 20       		.sleb128 32
 5771 1605 00       		.byte	0
 5772 1606 1E       		.uleb128 0x1e
 5773 1607 3E000000 		.4byte	.LVL240
 5774 160b 01170000 		.4byte	0x1701
 5775 160f 1D       		.uleb128 0x1d
 5776 1610 01       		.uleb128 0x1
 5777 1611 50       		.byte	0x50
 5778 1612 02       		.uleb128 0x2
 5779 1613 91       		.byte	0x91
 5780 1614 6A       		.sleb128 -22
 5781 1615 1D       		.uleb128 0x1d
 5782 1616 01       		.uleb128 0x1
 5783 1617 51       		.byte	0x51
 5784 1618 05       		.uleb128 0x5
 5785 1619 03       		.byte	0x3
 5786 161a 28000000 		.4byte	.LC10
 5787 161e 00       		.byte	0
 5788 161f 00       		.byte	0
 5789 1620 08       		.uleb128 0x8
 5790 1621 04       		.byte	0x4
 5791 1622 BA050000 		.4byte	0x5ba
 5792 1626 2E       		.uleb128 0x2e
 5793 1627 21020000 		.4byte	.LASF161
 5794 162b 01       		.byte	0x1
 5795 162c 6702     		.2byte	0x267
 5796 162e 7E000000 		.4byte	0x7e
 5797 1632 00000000 		.4byte	.LFB19
 5798 1636 86000000 		.4byte	.LFE19-.LFB19
 5799 163a 01       		.uleb128 0x1
 5800 163b 9C       		.byte	0x9c
 5801 163c CF160000 		.4byte	0x16cf
 5802 1640 30       		.uleb128 0x30
 5803 1641 747300   		.ascii	"ts\000"
 5804 1644 01       		.byte	0x1
 5805 1645 6702     		.2byte	0x267
 5806 1647 CF160000 		.4byte	0x16cf
 5807 164b E90B0000 		.4byte	.LLST66
ARM GAS  C:\Users\crono\AppData\Local\Temp\ccd4dy0n.s 			page 116


 5808 164f 2F       		.uleb128 0x2f
 5809 1650 FA030000 		.4byte	.LASF63
 5810 1654 01       		.byte	0x1
 5811 1655 6702     		.2byte	0x267
 5812 1657 D5160000 		.4byte	0x16d5
 5813 165b 200C0000 		.4byte	.LLST67
 5814 165f 2F       		.uleb128 0x2f
 5815 1660 ED030000 		.4byte	.LASF137
 5816 1664 01       		.byte	0x1
 5817 1665 6702     		.2byte	0x267
 5818 1667 E0160000 		.4byte	0x16e0
 5819 166b 490C0000 		.4byte	.LLST68
 5820 166f 31       		.uleb128 0x31
 5821 1670 746D00   		.ascii	"tm\000"
 5822 1673 01       		.byte	0x1
 5823 1674 6C02     		.2byte	0x26c
 5824 1676 27010000 		.4byte	0x127
 5825 167a 02       		.uleb128 0x2
 5826 167b 91       		.byte	0x91
 5827 167c 4C       		.sleb128 -52
 5828 167d 29       		.uleb128 0x29
 5829 167e FA070000 		.4byte	.LASF162
 5830 1682 01       		.byte	0x1
 5831 1683 7B02     		.2byte	0x27b
 5832 1685 EC000000 		.4byte	0xec
 5833 1689 720C0000 		.4byte	.LLST69
 5834 168d 32       		.uleb128 0x32
 5835 168e D8080000 		.4byte	.LASF166
 5836 1692 01       		.byte	0x1
 5837 1693 7B02     		.2byte	0x27b
 5838 1695 7E000000 		.4byte	0x7e
 5839 1699 9F160000 		.4byte	0x169f
 5840 169d 1F       		.uleb128 0x1f
 5841 169e 00       		.byte	0
 5842 169f 1C       		.uleb128 0x1c
 5843 16a0 24000000 		.4byte	.LVL246
 5844 16a4 17170000 		.4byte	0x1717
 5845 16a8 BE160000 		.4byte	0x16be
 5846 16ac 1D       		.uleb128 0x1d
 5847 16ad 01       		.uleb128 0x1
 5848 16ae 50       		.byte	0x50
 5849 16af 02       		.uleb128 0x2
 5850 16b0 91       		.byte	0x91
 5851 16b1 4C       		.sleb128 -52
 5852 16b2 1D       		.uleb128 0x1d
 5853 16b3 01       		.uleb128 0x1
 5854 16b4 51       		.byte	0x51
 5855 16b5 01       		.uleb128 0x1
 5856 16b6 30       		.byte	0x30
 5857 16b7 1D       		.uleb128 0x1d
 5858 16b8 01       		.uleb128 0x1
 5859 16b9 52       		.byte	0x52
 5860 16ba 02       		.uleb128 0x2
 5861 16bb 08       		.byte	0x8
 5862 16bc 24       		.byte	0x24
 5863 16bd 00       		.byte	0
 5864 16be 1E       		.uleb128 0x1e
ARM GAS  C:\Users\crono\AppData\Local\Temp\ccd4dy0n.s 			page 117


 5865 16bf 60000000 		.4byte	.LVL247
 5866 16c3 20170000 		.4byte	0x1720
 5867 16c7 1D       		.uleb128 0x1d
 5868 16c8 01       		.uleb128 0x1
 5869 16c9 50       		.byte	0x50
 5870 16ca 02       		.uleb128 0x2
 5871 16cb 91       		.byte	0x91
 5872 16cc 4C       		.sleb128 -52
 5873 16cd 00       		.byte	0
 5874 16ce 00       		.byte	0
 5875 16cf 08       		.uleb128 0x8
 5876 16d0 04       		.byte	0x4
 5877 16d1 F7000000 		.4byte	0xf7
 5878 16d5 08       		.uleb128 0x8
 5879 16d6 04       		.byte	0x4
 5880 16d7 DB160000 		.4byte	0x16db
 5881 16db 09       		.uleb128 0x9
 5882 16dc 1F020000 		.4byte	0x21f
 5883 16e0 08       		.uleb128 0x8
 5884 16e1 04       		.byte	0x4
 5885 16e2 E6160000 		.4byte	0x16e6
 5886 16e6 09       		.uleb128 0x9
 5887 16e7 50020000 		.4byte	0x250
 5888 16eb 33       		.uleb128 0x33
 5889 16ec A3050000 		.4byte	.LASF174
 5890 16f0 0D       		.byte	0xd
 5891 16f1 2E       		.byte	0x2e
 5892 16f2 CB000000 		.4byte	0xcb
 5893 16f6 34       		.uleb128 0x34
 5894 16f7 3F000000 		.4byte	.LASF163
 5895 16fb 3F000000 		.4byte	.LASF163
 5896 16ff 0B       		.byte	0xb
 5897 1700 21       		.byte	0x21
 5898 1701 34       		.uleb128 0x34
 5899 1702 E9080000 		.4byte	.LASF164
 5900 1706 E9080000 		.4byte	.LASF164
 5901 170a 0B       		.byte	0xb
 5902 170b 1C       		.byte	0x1c
 5903 170c 34       		.uleb128 0x34
 5904 170d C9070000 		.4byte	.LASF165
 5905 1711 C9070000 		.4byte	.LASF165
 5906 1715 0C       		.byte	0xc
 5907 1716 A2       		.byte	0xa2
 5908 1717 35       		.uleb128 0x35
 5909 1718 FC040000 		.4byte	.LASF175
 5910 171c FC040000 		.4byte	.LASF175
 5911 1720 36       		.uleb128 0x36
 5912 1721 D8080000 		.4byte	.LASF166
 5913 1725 D8080000 		.4byte	.LASF166
 5914 1729 01       		.byte	0x1
 5915 172a 7B02     		.2byte	0x27b
 5916 172c 00       		.byte	0
 5917              		.section	.debug_abbrev,"",%progbits
 5918              	.Ldebug_abbrev0:
 5919 0000 01       		.uleb128 0x1
 5920 0001 11       		.uleb128 0x11
 5921 0002 01       		.byte	0x1
ARM GAS  C:\Users\crono\AppData\Local\Temp\ccd4dy0n.s 			page 118


 5922 0003 25       		.uleb128 0x25
 5923 0004 0E       		.uleb128 0xe
 5924 0005 13       		.uleb128 0x13
 5925 0006 0B       		.uleb128 0xb
 5926 0007 03       		.uleb128 0x3
 5927 0008 0E       		.uleb128 0xe
 5928 0009 1B       		.uleb128 0x1b
 5929 000a 0E       		.uleb128 0xe
 5930 000b 55       		.uleb128 0x55
 5931 000c 17       		.uleb128 0x17
 5932 000d 11       		.uleb128 0x11
 5933 000e 01       		.uleb128 0x1
 5934 000f 10       		.uleb128 0x10
 5935 0010 17       		.uleb128 0x17
 5936 0011 00       		.byte	0
 5937 0012 00       		.byte	0
 5938 0013 02       		.uleb128 0x2
 5939 0014 24       		.uleb128 0x24
 5940 0015 00       		.byte	0
 5941 0016 0B       		.uleb128 0xb
 5942 0017 0B       		.uleb128 0xb
 5943 0018 3E       		.uleb128 0x3e
 5944 0019 0B       		.uleb128 0xb
 5945 001a 03       		.uleb128 0x3
 5946 001b 0E       		.uleb128 0xe
 5947 001c 00       		.byte	0
 5948 001d 00       		.byte	0
 5949 001e 03       		.uleb128 0x3
 5950 001f 16       		.uleb128 0x16
 5951 0020 00       		.byte	0
 5952 0021 03       		.uleb128 0x3
 5953 0022 0E       		.uleb128 0xe
 5954 0023 3A       		.uleb128 0x3a
 5955 0024 0B       		.uleb128 0xb
 5956 0025 3B       		.uleb128 0x3b
 5957 0026 0B       		.uleb128 0xb
 5958 0027 49       		.uleb128 0x49
 5959 0028 13       		.uleb128 0x13
 5960 0029 00       		.byte	0
 5961 002a 00       		.byte	0
 5962 002b 04       		.uleb128 0x4
 5963 002c 24       		.uleb128 0x24
 5964 002d 00       		.byte	0
 5965 002e 0B       		.uleb128 0xb
 5966 002f 0B       		.uleb128 0xb
 5967 0030 3E       		.uleb128 0x3e
 5968 0031 0B       		.uleb128 0xb
 5969 0032 03       		.uleb128 0x3
 5970 0033 08       		.uleb128 0x8
 5971 0034 00       		.byte	0
 5972 0035 00       		.byte	0
 5973 0036 05       		.uleb128 0x5
 5974 0037 13       		.uleb128 0x13
 5975 0038 01       		.byte	0x1
 5976 0039 03       		.uleb128 0x3
 5977 003a 0E       		.uleb128 0xe
 5978 003b 0B       		.uleb128 0xb
ARM GAS  C:\Users\crono\AppData\Local\Temp\ccd4dy0n.s 			page 119


 5979 003c 0B       		.uleb128 0xb
 5980 003d 3A       		.uleb128 0x3a
 5981 003e 0B       		.uleb128 0xb
 5982 003f 3B       		.uleb128 0x3b
 5983 0040 0B       		.uleb128 0xb
 5984 0041 01       		.uleb128 0x1
 5985 0042 13       		.uleb128 0x13
 5986 0043 00       		.byte	0
 5987 0044 00       		.byte	0
 5988 0045 06       		.uleb128 0x6
 5989 0046 0D       		.uleb128 0xd
 5990 0047 00       		.byte	0
 5991 0048 03       		.uleb128 0x3
 5992 0049 0E       		.uleb128 0xe
 5993 004a 49       		.uleb128 0x49
 5994 004b 13       		.uleb128 0x13
 5995 004c 38       		.uleb128 0x38
 5996 004d 0B       		.uleb128 0xb
 5997 004e 34       		.uleb128 0x34
 5998 004f 19       		.uleb128 0x19
 5999 0050 00       		.byte	0
 6000 0051 00       		.byte	0
 6001 0052 07       		.uleb128 0x7
 6002 0053 0F       		.uleb128 0xf
 6003 0054 00       		.byte	0
 6004 0055 0B       		.uleb128 0xb
 6005 0056 0B       		.uleb128 0xb
 6006 0057 00       		.byte	0
 6007 0058 00       		.byte	0
 6008 0059 08       		.uleb128 0x8
 6009 005a 0F       		.uleb128 0xf
 6010 005b 00       		.byte	0
 6011 005c 0B       		.uleb128 0xb
 6012 005d 0B       		.uleb128 0xb
 6013 005e 49       		.uleb128 0x49
 6014 005f 13       		.uleb128 0x13
 6015 0060 00       		.byte	0
 6016 0061 00       		.byte	0
 6017 0062 09       		.uleb128 0x9
 6018 0063 26       		.uleb128 0x26
 6019 0064 00       		.byte	0
 6020 0065 49       		.uleb128 0x49
 6021 0066 13       		.uleb128 0x13
 6022 0067 00       		.byte	0
 6023 0068 00       		.byte	0
 6024 0069 0A       		.uleb128 0xa
 6025 006a 0D       		.uleb128 0xd
 6026 006b 00       		.byte	0
 6027 006c 03       		.uleb128 0x3
 6028 006d 0E       		.uleb128 0xe
 6029 006e 3A       		.uleb128 0x3a
 6030 006f 0B       		.uleb128 0xb
 6031 0070 3B       		.uleb128 0x3b
 6032 0071 0B       		.uleb128 0xb
 6033 0072 49       		.uleb128 0x49
 6034 0073 13       		.uleb128 0x13
 6035 0074 38       		.uleb128 0x38
ARM GAS  C:\Users\crono\AppData\Local\Temp\ccd4dy0n.s 			page 120


 6036 0075 0B       		.uleb128 0xb
 6037 0076 00       		.byte	0
 6038 0077 00       		.byte	0
 6039 0078 0B       		.uleb128 0xb
 6040 0079 13       		.uleb128 0x13
 6041 007a 01       		.byte	0x1
 6042 007b 03       		.uleb128 0x3
 6043 007c 08       		.uleb128 0x8
 6044 007d 0B       		.uleb128 0xb
 6045 007e 0B       		.uleb128 0xb
 6046 007f 3A       		.uleb128 0x3a
 6047 0080 0B       		.uleb128 0xb
 6048 0081 3B       		.uleb128 0x3b
 6049 0082 0B       		.uleb128 0xb
 6050 0083 01       		.uleb128 0x1
 6051 0084 13       		.uleb128 0x13
 6052 0085 00       		.byte	0
 6053 0086 00       		.byte	0
 6054 0087 0C       		.uleb128 0xc
 6055 0088 04       		.uleb128 0x4
 6056 0089 01       		.byte	0x1
 6057 008a 03       		.uleb128 0x3
 6058 008b 0E       		.uleb128 0xe
 6059 008c 0B       		.uleb128 0xb
 6060 008d 0B       		.uleb128 0xb
 6061 008e 49       		.uleb128 0x49
 6062 008f 13       		.uleb128 0x13
 6063 0090 3A       		.uleb128 0x3a
 6064 0091 0B       		.uleb128 0xb
 6065 0092 3B       		.uleb128 0x3b
 6066 0093 0B       		.uleb128 0xb
 6067 0094 01       		.uleb128 0x1
 6068 0095 13       		.uleb128 0x13
 6069 0096 00       		.byte	0
 6070 0097 00       		.byte	0
 6071 0098 0D       		.uleb128 0xd
 6072 0099 28       		.uleb128 0x28
 6073 009a 00       		.byte	0
 6074 009b 03       		.uleb128 0x3
 6075 009c 0E       		.uleb128 0xe
 6076 009d 1C       		.uleb128 0x1c
 6077 009e 0D       		.uleb128 0xd
 6078 009f 00       		.byte	0
 6079 00a0 00       		.byte	0
 6080 00a1 0E       		.uleb128 0xe
 6081 00a2 28       		.uleb128 0x28
 6082 00a3 00       		.byte	0
 6083 00a4 03       		.uleb128 0x3
 6084 00a5 0E       		.uleb128 0xe
 6085 00a6 1C       		.uleb128 0x1c
 6086 00a7 0B       		.uleb128 0xb
 6087 00a8 00       		.byte	0
 6088 00a9 00       		.byte	0
 6089 00aa 0F       		.uleb128 0xf
 6090 00ab 0D       		.uleb128 0xd
 6091 00ac 00       		.byte	0
 6092 00ad 03       		.uleb128 0x3
ARM GAS  C:\Users\crono\AppData\Local\Temp\ccd4dy0n.s 			page 121


 6093 00ae 08       		.uleb128 0x8
 6094 00af 3A       		.uleb128 0x3a
 6095 00b0 0B       		.uleb128 0xb
 6096 00b1 3B       		.uleb128 0x3b
 6097 00b2 0B       		.uleb128 0xb
 6098 00b3 49       		.uleb128 0x49
 6099 00b4 13       		.uleb128 0x13
 6100 00b5 38       		.uleb128 0x38
 6101 00b6 0B       		.uleb128 0xb
 6102 00b7 00       		.byte	0
 6103 00b8 00       		.byte	0
 6104 00b9 10       		.uleb128 0x10
 6105 00ba 01       		.uleb128 0x1
 6106 00bb 01       		.byte	0x1
 6107 00bc 49       		.uleb128 0x49
 6108 00bd 13       		.uleb128 0x13
 6109 00be 01       		.uleb128 0x1
 6110 00bf 13       		.uleb128 0x13
 6111 00c0 00       		.byte	0
 6112 00c1 00       		.byte	0
 6113 00c2 11       		.uleb128 0x11
 6114 00c3 21       		.uleb128 0x21
 6115 00c4 00       		.byte	0
 6116 00c5 49       		.uleb128 0x49
 6117 00c6 13       		.uleb128 0x13
 6118 00c7 2F       		.uleb128 0x2f
 6119 00c8 0B       		.uleb128 0xb
 6120 00c9 00       		.byte	0
 6121 00ca 00       		.byte	0
 6122 00cb 12       		.uleb128 0x12
 6123 00cc 2E       		.uleb128 0x2e
 6124 00cd 01       		.byte	0x1
 6125 00ce 03       		.uleb128 0x3
 6126 00cf 0E       		.uleb128 0xe
 6127 00d0 3A       		.uleb128 0x3a
 6128 00d1 0B       		.uleb128 0xb
 6129 00d2 3B       		.uleb128 0x3b
 6130 00d3 0B       		.uleb128 0xb
 6131 00d4 27       		.uleb128 0x27
 6132 00d5 19       		.uleb128 0x19
 6133 00d6 49       		.uleb128 0x49
 6134 00d7 13       		.uleb128 0x13
 6135 00d8 20       		.uleb128 0x20
 6136 00d9 0B       		.uleb128 0xb
 6137 00da 01       		.uleb128 0x1
 6138 00db 13       		.uleb128 0x13
 6139 00dc 00       		.byte	0
 6140 00dd 00       		.byte	0
 6141 00de 13       		.uleb128 0x13
 6142 00df 05       		.uleb128 0x5
 6143 00e0 00       		.byte	0
 6144 00e1 03       		.uleb128 0x3
 6145 00e2 08       		.uleb128 0x8
 6146 00e3 3A       		.uleb128 0x3a
 6147 00e4 0B       		.uleb128 0xb
 6148 00e5 3B       		.uleb128 0x3b
 6149 00e6 0B       		.uleb128 0xb
ARM GAS  C:\Users\crono\AppData\Local\Temp\ccd4dy0n.s 			page 122


 6150 00e7 49       		.uleb128 0x49
 6151 00e8 13       		.uleb128 0x13
 6152 00e9 00       		.byte	0
 6153 00ea 00       		.byte	0
 6154 00eb 14       		.uleb128 0x14
 6155 00ec 2E       		.uleb128 0x2e
 6156 00ed 01       		.byte	0x1
 6157 00ee 03       		.uleb128 0x3
 6158 00ef 0E       		.uleb128 0xe
 6159 00f0 3A       		.uleb128 0x3a
 6160 00f1 0B       		.uleb128 0xb
 6161 00f2 3B       		.uleb128 0x3b
 6162 00f3 0B       		.uleb128 0xb
 6163 00f4 27       		.uleb128 0x27
 6164 00f5 19       		.uleb128 0x19
 6165 00f6 49       		.uleb128 0x49
 6166 00f7 13       		.uleb128 0x13
 6167 00f8 11       		.uleb128 0x11
 6168 00f9 01       		.uleb128 0x1
 6169 00fa 12       		.uleb128 0x12
 6170 00fb 06       		.uleb128 0x6
 6171 00fc 40       		.uleb128 0x40
 6172 00fd 18       		.uleb128 0x18
 6173 00fe 9742     		.uleb128 0x2117
 6174 0100 19       		.uleb128 0x19
 6175 0101 01       		.uleb128 0x1
 6176 0102 13       		.uleb128 0x13
 6177 0103 00       		.byte	0
 6178 0104 00       		.byte	0
 6179 0105 15       		.uleb128 0x15
 6180 0106 05       		.uleb128 0x5
 6181 0107 00       		.byte	0
 6182 0108 03       		.uleb128 0x3
 6183 0109 08       		.uleb128 0x8
 6184 010a 3A       		.uleb128 0x3a
 6185 010b 0B       		.uleb128 0xb
 6186 010c 3B       		.uleb128 0x3b
 6187 010d 0B       		.uleb128 0xb
 6188 010e 49       		.uleb128 0x49
 6189 010f 13       		.uleb128 0x13
 6190 0110 02       		.uleb128 0x2
 6191 0111 17       		.uleb128 0x17
 6192 0112 00       		.byte	0
 6193 0113 00       		.byte	0
 6194 0114 16       		.uleb128 0x16
 6195 0115 2E       		.uleb128 0x2e
 6196 0116 01       		.byte	0x1
 6197 0117 3F       		.uleb128 0x3f
 6198 0118 19       		.uleb128 0x19
 6199 0119 03       		.uleb128 0x3
 6200 011a 0E       		.uleb128 0xe
 6201 011b 3A       		.uleb128 0x3a
 6202 011c 0B       		.uleb128 0xb
 6203 011d 3B       		.uleb128 0x3b
 6204 011e 0B       		.uleb128 0xb
 6205 011f 27       		.uleb128 0x27
 6206 0120 19       		.uleb128 0x19
ARM GAS  C:\Users\crono\AppData\Local\Temp\ccd4dy0n.s 			page 123


 6207 0121 49       		.uleb128 0x49
 6208 0122 13       		.uleb128 0x13
 6209 0123 11       		.uleb128 0x11
 6210 0124 01       		.uleb128 0x1
 6211 0125 12       		.uleb128 0x12
 6212 0126 06       		.uleb128 0x6
 6213 0127 40       		.uleb128 0x40
 6214 0128 18       		.uleb128 0x18
 6215 0129 9742     		.uleb128 0x2117
 6216 012b 19       		.uleb128 0x19
 6217 012c 01       		.uleb128 0x1
 6218 012d 13       		.uleb128 0x13
 6219 012e 00       		.byte	0
 6220 012f 00       		.byte	0
 6221 0130 17       		.uleb128 0x17
 6222 0131 05       		.uleb128 0x5
 6223 0132 00       		.byte	0
 6224 0133 03       		.uleb128 0x3
 6225 0134 0E       		.uleb128 0xe
 6226 0135 3A       		.uleb128 0x3a
 6227 0136 0B       		.uleb128 0xb
 6228 0137 3B       		.uleb128 0x3b
 6229 0138 0B       		.uleb128 0xb
 6230 0139 49       		.uleb128 0x49
 6231 013a 13       		.uleb128 0x13
 6232 013b 02       		.uleb128 0x2
 6233 013c 17       		.uleb128 0x17
 6234 013d 00       		.byte	0
 6235 013e 00       		.byte	0
 6236 013f 18       		.uleb128 0x18
 6237 0140 34       		.uleb128 0x34
 6238 0141 00       		.byte	0
 6239 0142 03       		.uleb128 0x3
 6240 0143 0E       		.uleb128 0xe
 6241 0144 3A       		.uleb128 0x3a
 6242 0145 0B       		.uleb128 0xb
 6243 0146 3B       		.uleb128 0x3b
 6244 0147 0B       		.uleb128 0xb
 6245 0148 49       		.uleb128 0x49
 6246 0149 13       		.uleb128 0x13
 6247 014a 02       		.uleb128 0x2
 6248 014b 18       		.uleb128 0x18
 6249 014c 00       		.byte	0
 6250 014d 00       		.byte	0
 6251 014e 19       		.uleb128 0x19
 6252 014f 34       		.uleb128 0x34
 6253 0150 00       		.byte	0
 6254 0151 03       		.uleb128 0x3
 6255 0152 0E       		.uleb128 0xe
 6256 0153 3A       		.uleb128 0x3a
 6257 0154 0B       		.uleb128 0xb
 6258 0155 3B       		.uleb128 0x3b
 6259 0156 0B       		.uleb128 0xb
 6260 0157 49       		.uleb128 0x49
 6261 0158 13       		.uleb128 0x13
 6262 0159 02       		.uleb128 0x2
 6263 015a 17       		.uleb128 0x17
ARM GAS  C:\Users\crono\AppData\Local\Temp\ccd4dy0n.s 			page 124


 6264 015b 00       		.byte	0
 6265 015c 00       		.byte	0
 6266 015d 1A       		.uleb128 0x1a
 6267 015e 0B       		.uleb128 0xb
 6268 015f 01       		.byte	0x1
 6269 0160 55       		.uleb128 0x55
 6270 0161 17       		.uleb128 0x17
 6271 0162 01       		.uleb128 0x1
 6272 0163 13       		.uleb128 0x13
 6273 0164 00       		.byte	0
 6274 0165 00       		.byte	0
 6275 0166 1B       		.uleb128 0x1b
 6276 0167 898201   		.uleb128 0x4109
 6277 016a 00       		.byte	0
 6278 016b 11       		.uleb128 0x11
 6279 016c 01       		.uleb128 0x1
 6280 016d 31       		.uleb128 0x31
 6281 016e 13       		.uleb128 0x13
 6282 016f 00       		.byte	0
 6283 0170 00       		.byte	0
 6284 0171 1C       		.uleb128 0x1c
 6285 0172 898201   		.uleb128 0x4109
 6286 0175 01       		.byte	0x1
 6287 0176 11       		.uleb128 0x11
 6288 0177 01       		.uleb128 0x1
 6289 0178 31       		.uleb128 0x31
 6290 0179 13       		.uleb128 0x13
 6291 017a 01       		.uleb128 0x1
 6292 017b 13       		.uleb128 0x13
 6293 017c 00       		.byte	0
 6294 017d 00       		.byte	0
 6295 017e 1D       		.uleb128 0x1d
 6296 017f 8A8201   		.uleb128 0x410a
 6297 0182 00       		.byte	0
 6298 0183 02       		.uleb128 0x2
 6299 0184 18       		.uleb128 0x18
 6300 0185 9142     		.uleb128 0x2111
 6301 0187 18       		.uleb128 0x18
 6302 0188 00       		.byte	0
 6303 0189 00       		.byte	0
 6304 018a 1E       		.uleb128 0x1e
 6305 018b 898201   		.uleb128 0x4109
 6306 018e 01       		.byte	0x1
 6307 018f 11       		.uleb128 0x11
 6308 0190 01       		.uleb128 0x1
 6309 0191 31       		.uleb128 0x31
 6310 0192 13       		.uleb128 0x13
 6311 0193 00       		.byte	0
 6312 0194 00       		.byte	0
 6313 0195 1F       		.uleb128 0x1f
 6314 0196 18       		.uleb128 0x18
 6315 0197 00       		.byte	0
 6316 0198 00       		.byte	0
 6317 0199 00       		.byte	0
 6318 019a 20       		.uleb128 0x20
 6319 019b 34       		.uleb128 0x34
 6320 019c 00       		.byte	0
ARM GAS  C:\Users\crono\AppData\Local\Temp\ccd4dy0n.s 			page 125


 6321 019d 03       		.uleb128 0x3
 6322 019e 08       		.uleb128 0x8
 6323 019f 3A       		.uleb128 0x3a
 6324 01a0 0B       		.uleb128 0xb
 6325 01a1 3B       		.uleb128 0x3b
 6326 01a2 0B       		.uleb128 0xb
 6327 01a3 49       		.uleb128 0x49
 6328 01a4 13       		.uleb128 0x13
 6329 01a5 02       		.uleb128 0x2
 6330 01a6 18       		.uleb128 0x18
 6331 01a7 00       		.byte	0
 6332 01a8 00       		.byte	0
 6333 01a9 21       		.uleb128 0x21
 6334 01aa 0A       		.uleb128 0xa
 6335 01ab 00       		.byte	0
 6336 01ac 03       		.uleb128 0x3
 6337 01ad 0E       		.uleb128 0xe
 6338 01ae 3A       		.uleb128 0x3a
 6339 01af 0B       		.uleb128 0xb
 6340 01b0 3B       		.uleb128 0x3b
 6341 01b1 05       		.uleb128 0x5
 6342 01b2 11       		.uleb128 0x11
 6343 01b3 01       		.uleb128 0x1
 6344 01b4 00       		.byte	0
 6345 01b5 00       		.byte	0
 6346 01b6 22       		.uleb128 0x22
 6347 01b7 0B       		.uleb128 0xb
 6348 01b8 01       		.byte	0x1
 6349 01b9 55       		.uleb128 0x55
 6350 01ba 17       		.uleb128 0x17
 6351 01bb 00       		.byte	0
 6352 01bc 00       		.byte	0
 6353 01bd 23       		.uleb128 0x23
 6354 01be 0B       		.uleb128 0xb
 6355 01bf 01       		.byte	0x1
 6356 01c0 11       		.uleb128 0x11
 6357 01c1 01       		.uleb128 0x1
 6358 01c2 12       		.uleb128 0x12
 6359 01c3 06       		.uleb128 0x6
 6360 01c4 01       		.uleb128 0x1
 6361 01c5 13       		.uleb128 0x13
 6362 01c6 00       		.byte	0
 6363 01c7 00       		.byte	0
 6364 01c8 24       		.uleb128 0x24
 6365 01c9 1D       		.uleb128 0x1d
 6366 01ca 01       		.byte	0x1
 6367 01cb 31       		.uleb128 0x31
 6368 01cc 13       		.uleb128 0x13
 6369 01cd 11       		.uleb128 0x11
 6370 01ce 01       		.uleb128 0x1
 6371 01cf 12       		.uleb128 0x12
 6372 01d0 06       		.uleb128 0x6
 6373 01d1 58       		.uleb128 0x58
 6374 01d2 0B       		.uleb128 0xb
 6375 01d3 59       		.uleb128 0x59
 6376 01d4 0B       		.uleb128 0xb
 6377 01d5 00       		.byte	0
ARM GAS  C:\Users\crono\AppData\Local\Temp\ccd4dy0n.s 			page 126


 6378 01d6 00       		.byte	0
 6379 01d7 25       		.uleb128 0x25
 6380 01d8 05       		.uleb128 0x5
 6381 01d9 00       		.byte	0
 6382 01da 31       		.uleb128 0x31
 6383 01db 13       		.uleb128 0x13
 6384 01dc 02       		.uleb128 0x2
 6385 01dd 17       		.uleb128 0x17
 6386 01de 00       		.byte	0
 6387 01df 00       		.byte	0
 6388 01e0 26       		.uleb128 0x26
 6389 01e1 0B       		.uleb128 0xb
 6390 01e2 01       		.byte	0x1
 6391 01e3 11       		.uleb128 0x11
 6392 01e4 01       		.uleb128 0x1
 6393 01e5 12       		.uleb128 0x12
 6394 01e6 06       		.uleb128 0x6
 6395 01e7 00       		.byte	0
 6396 01e8 00       		.byte	0
 6397 01e9 27       		.uleb128 0x27
 6398 01ea 1D       		.uleb128 0x1d
 6399 01eb 01       		.byte	0x1
 6400 01ec 31       		.uleb128 0x31
 6401 01ed 13       		.uleb128 0x13
 6402 01ee 11       		.uleb128 0x11
 6403 01ef 01       		.uleb128 0x1
 6404 01f0 12       		.uleb128 0x12
 6405 01f1 06       		.uleb128 0x6
 6406 01f2 58       		.uleb128 0x58
 6407 01f3 0B       		.uleb128 0xb
 6408 01f4 59       		.uleb128 0x59
 6409 01f5 0B       		.uleb128 0xb
 6410 01f6 01       		.uleb128 0x1
 6411 01f7 13       		.uleb128 0x13
 6412 01f8 00       		.byte	0
 6413 01f9 00       		.byte	0
 6414 01fa 28       		.uleb128 0x28
 6415 01fb 34       		.uleb128 0x34
 6416 01fc 00       		.byte	0
 6417 01fd 03       		.uleb128 0x3
 6418 01fe 08       		.uleb128 0x8
 6419 01ff 3A       		.uleb128 0x3a
 6420 0200 0B       		.uleb128 0xb
 6421 0201 3B       		.uleb128 0x3b
 6422 0202 0B       		.uleb128 0xb
 6423 0203 49       		.uleb128 0x49
 6424 0204 13       		.uleb128 0x13
 6425 0205 02       		.uleb128 0x2
 6426 0206 17       		.uleb128 0x17
 6427 0207 00       		.byte	0
 6428 0208 00       		.byte	0
 6429 0209 29       		.uleb128 0x29
 6430 020a 34       		.uleb128 0x34
 6431 020b 00       		.byte	0
 6432 020c 03       		.uleb128 0x3
 6433 020d 0E       		.uleb128 0xe
 6434 020e 3A       		.uleb128 0x3a
ARM GAS  C:\Users\crono\AppData\Local\Temp\ccd4dy0n.s 			page 127


 6435 020f 0B       		.uleb128 0xb
 6436 0210 3B       		.uleb128 0x3b
 6437 0211 05       		.uleb128 0x5
 6438 0212 49       		.uleb128 0x49
 6439 0213 13       		.uleb128 0x13
 6440 0214 02       		.uleb128 0x2
 6441 0215 17       		.uleb128 0x17
 6442 0216 00       		.byte	0
 6443 0217 00       		.byte	0
 6444 0218 2A       		.uleb128 0x2a
 6445 0219 34       		.uleb128 0x34
 6446 021a 00       		.byte	0
 6447 021b 03       		.uleb128 0x3
 6448 021c 08       		.uleb128 0x8
 6449 021d 3A       		.uleb128 0x3a
 6450 021e 0B       		.uleb128 0xb
 6451 021f 3B       		.uleb128 0x3b
 6452 0220 05       		.uleb128 0x5
 6453 0221 49       		.uleb128 0x49
 6454 0222 13       		.uleb128 0x13
 6455 0223 02       		.uleb128 0x2
 6456 0224 17       		.uleb128 0x17
 6457 0225 00       		.byte	0
 6458 0226 00       		.byte	0
 6459 0227 2B       		.uleb128 0x2b
 6460 0228 1D       		.uleb128 0x1d
 6461 0229 01       		.byte	0x1
 6462 022a 31       		.uleb128 0x31
 6463 022b 13       		.uleb128 0x13
 6464 022c 11       		.uleb128 0x11
 6465 022d 01       		.uleb128 0x1
 6466 022e 12       		.uleb128 0x12
 6467 022f 06       		.uleb128 0x6
 6468 0230 58       		.uleb128 0x58
 6469 0231 0B       		.uleb128 0xb
 6470 0232 59       		.uleb128 0x59
 6471 0233 05       		.uleb128 0x5
 6472 0234 01       		.uleb128 0x1
 6473 0235 13       		.uleb128 0x13
 6474 0236 00       		.byte	0
 6475 0237 00       		.byte	0
 6476 0238 2C       		.uleb128 0x2c
 6477 0239 34       		.uleb128 0x34
 6478 023a 00       		.byte	0
 6479 023b 03       		.uleb128 0x3
 6480 023c 0E       		.uleb128 0xe
 6481 023d 3A       		.uleb128 0x3a
 6482 023e 0B       		.uleb128 0xb
 6483 023f 3B       		.uleb128 0x3b
 6484 0240 05       		.uleb128 0x5
 6485 0241 49       		.uleb128 0x49
 6486 0242 13       		.uleb128 0x13
 6487 0243 02       		.uleb128 0x2
 6488 0244 18       		.uleb128 0x18
 6489 0245 00       		.byte	0
 6490 0246 00       		.byte	0
 6491 0247 2D       		.uleb128 0x2d
ARM GAS  C:\Users\crono\AppData\Local\Temp\ccd4dy0n.s 			page 128


 6492 0248 1D       		.uleb128 0x1d
 6493 0249 01       		.byte	0x1
 6494 024a 31       		.uleb128 0x31
 6495 024b 13       		.uleb128 0x13
 6496 024c 11       		.uleb128 0x11
 6497 024d 01       		.uleb128 0x1
 6498 024e 12       		.uleb128 0x12
 6499 024f 06       		.uleb128 0x6
 6500 0250 58       		.uleb128 0x58
 6501 0251 0B       		.uleb128 0xb
 6502 0252 59       		.uleb128 0x59
 6503 0253 05       		.uleb128 0x5
 6504 0254 00       		.byte	0
 6505 0255 00       		.byte	0
 6506 0256 2E       		.uleb128 0x2e
 6507 0257 2E       		.uleb128 0x2e
 6508 0258 01       		.byte	0x1
 6509 0259 3F       		.uleb128 0x3f
 6510 025a 19       		.uleb128 0x19
 6511 025b 03       		.uleb128 0x3
 6512 025c 0E       		.uleb128 0xe
 6513 025d 3A       		.uleb128 0x3a
 6514 025e 0B       		.uleb128 0xb
 6515 025f 3B       		.uleb128 0x3b
 6516 0260 05       		.uleb128 0x5
 6517 0261 27       		.uleb128 0x27
 6518 0262 19       		.uleb128 0x19
 6519 0263 49       		.uleb128 0x49
 6520 0264 13       		.uleb128 0x13
 6521 0265 11       		.uleb128 0x11
 6522 0266 01       		.uleb128 0x1
 6523 0267 12       		.uleb128 0x12
 6524 0268 06       		.uleb128 0x6
 6525 0269 40       		.uleb128 0x40
 6526 026a 18       		.uleb128 0x18
 6527 026b 9742     		.uleb128 0x2117
 6528 026d 19       		.uleb128 0x19
 6529 026e 01       		.uleb128 0x1
 6530 026f 13       		.uleb128 0x13
 6531 0270 00       		.byte	0
 6532 0271 00       		.byte	0
 6533 0272 2F       		.uleb128 0x2f
 6534 0273 05       		.uleb128 0x5
 6535 0274 00       		.byte	0
 6536 0275 03       		.uleb128 0x3
 6537 0276 0E       		.uleb128 0xe
 6538 0277 3A       		.uleb128 0x3a
 6539 0278 0B       		.uleb128 0xb
 6540 0279 3B       		.uleb128 0x3b
 6541 027a 05       		.uleb128 0x5
 6542 027b 49       		.uleb128 0x49
 6543 027c 13       		.uleb128 0x13
 6544 027d 02       		.uleb128 0x2
 6545 027e 17       		.uleb128 0x17
 6546 027f 00       		.byte	0
 6547 0280 00       		.byte	0
 6548 0281 30       		.uleb128 0x30
ARM GAS  C:\Users\crono\AppData\Local\Temp\ccd4dy0n.s 			page 129


 6549 0282 05       		.uleb128 0x5
 6550 0283 00       		.byte	0
 6551 0284 03       		.uleb128 0x3
 6552 0285 08       		.uleb128 0x8
 6553 0286 3A       		.uleb128 0x3a
 6554 0287 0B       		.uleb128 0xb
 6555 0288 3B       		.uleb128 0x3b
 6556 0289 05       		.uleb128 0x5
 6557 028a 49       		.uleb128 0x49
 6558 028b 13       		.uleb128 0x13
 6559 028c 02       		.uleb128 0x2
 6560 028d 17       		.uleb128 0x17
 6561 028e 00       		.byte	0
 6562 028f 00       		.byte	0
 6563 0290 31       		.uleb128 0x31
 6564 0291 34       		.uleb128 0x34
 6565 0292 00       		.byte	0
 6566 0293 03       		.uleb128 0x3
 6567 0294 08       		.uleb128 0x8
 6568 0295 3A       		.uleb128 0x3a
 6569 0296 0B       		.uleb128 0xb
 6570 0297 3B       		.uleb128 0x3b
 6571 0298 05       		.uleb128 0x5
 6572 0299 49       		.uleb128 0x49
 6573 029a 13       		.uleb128 0x13
 6574 029b 02       		.uleb128 0x2
 6575 029c 18       		.uleb128 0x18
 6576 029d 00       		.byte	0
 6577 029e 00       		.byte	0
 6578 029f 32       		.uleb128 0x32
 6579 02a0 2E       		.uleb128 0x2e
 6580 02a1 01       		.byte	0x1
 6581 02a2 3F       		.uleb128 0x3f
 6582 02a3 19       		.uleb128 0x19
 6583 02a4 03       		.uleb128 0x3
 6584 02a5 0E       		.uleb128 0xe
 6585 02a6 3A       		.uleb128 0x3a
 6586 02a7 0B       		.uleb128 0xb
 6587 02a8 3B       		.uleb128 0x3b
 6588 02a9 05       		.uleb128 0x5
 6589 02aa 49       		.uleb128 0x49
 6590 02ab 13       		.uleb128 0x13
 6591 02ac 3C       		.uleb128 0x3c
 6592 02ad 19       		.uleb128 0x19
 6593 02ae 01       		.uleb128 0x1
 6594 02af 13       		.uleb128 0x13
 6595 02b0 00       		.byte	0
 6596 02b1 00       		.byte	0
 6597 02b2 33       		.uleb128 0x33
 6598 02b3 34       		.uleb128 0x34
 6599 02b4 00       		.byte	0
 6600 02b5 03       		.uleb128 0x3
 6601 02b6 0E       		.uleb128 0xe
 6602 02b7 3A       		.uleb128 0x3a
 6603 02b8 0B       		.uleb128 0xb
 6604 02b9 3B       		.uleb128 0x3b
 6605 02ba 0B       		.uleb128 0xb
ARM GAS  C:\Users\crono\AppData\Local\Temp\ccd4dy0n.s 			page 130


 6606 02bb 49       		.uleb128 0x49
 6607 02bc 13       		.uleb128 0x13
 6608 02bd 3F       		.uleb128 0x3f
 6609 02be 19       		.uleb128 0x19
 6610 02bf 3C       		.uleb128 0x3c
 6611 02c0 19       		.uleb128 0x19
 6612 02c1 00       		.byte	0
 6613 02c2 00       		.byte	0
 6614 02c3 34       		.uleb128 0x34
 6615 02c4 2E       		.uleb128 0x2e
 6616 02c5 00       		.byte	0
 6617 02c6 3F       		.uleb128 0x3f
 6618 02c7 19       		.uleb128 0x19
 6619 02c8 3C       		.uleb128 0x3c
 6620 02c9 19       		.uleb128 0x19
 6621 02ca 6E       		.uleb128 0x6e
 6622 02cb 0E       		.uleb128 0xe
 6623 02cc 03       		.uleb128 0x3
 6624 02cd 0E       		.uleb128 0xe
 6625 02ce 3A       		.uleb128 0x3a
 6626 02cf 0B       		.uleb128 0xb
 6627 02d0 3B       		.uleb128 0x3b
 6628 02d1 0B       		.uleb128 0xb
 6629 02d2 00       		.byte	0
 6630 02d3 00       		.byte	0
 6631 02d4 35       		.uleb128 0x35
 6632 02d5 2E       		.uleb128 0x2e
 6633 02d6 00       		.byte	0
 6634 02d7 3F       		.uleb128 0x3f
 6635 02d8 19       		.uleb128 0x19
 6636 02d9 3C       		.uleb128 0x3c
 6637 02da 19       		.uleb128 0x19
 6638 02db 6E       		.uleb128 0x6e
 6639 02dc 0E       		.uleb128 0xe
 6640 02dd 03       		.uleb128 0x3
 6641 02de 0E       		.uleb128 0xe
 6642 02df 00       		.byte	0
 6643 02e0 00       		.byte	0
 6644 02e1 36       		.uleb128 0x36
 6645 02e2 2E       		.uleb128 0x2e
 6646 02e3 00       		.byte	0
 6647 02e4 3F       		.uleb128 0x3f
 6648 02e5 19       		.uleb128 0x19
 6649 02e6 3C       		.uleb128 0x3c
 6650 02e7 19       		.uleb128 0x19
 6651 02e8 6E       		.uleb128 0x6e
 6652 02e9 0E       		.uleb128 0xe
 6653 02ea 03       		.uleb128 0x3
 6654 02eb 0E       		.uleb128 0xe
 6655 02ec 3A       		.uleb128 0x3a
 6656 02ed 0B       		.uleb128 0xb
 6657 02ee 3B       		.uleb128 0x3b
 6658 02ef 05       		.uleb128 0x5
 6659 02f0 00       		.byte	0
 6660 02f1 00       		.byte	0
 6661 02f2 00       		.byte	0
 6662              		.section	.debug_loc,"",%progbits
ARM GAS  C:\Users\crono\AppData\Local\Temp\ccd4dy0n.s 			page 131


 6663              	.Ldebug_loc0:
 6664              	.LLST0:
 6665 0000 00000000 		.4byte	.LVL0
 6666 0004 0C000000 		.4byte	.LVL1
 6667 0008 0100     		.2byte	0x1
 6668 000a 50       		.byte	0x50
 6669 000b 0C000000 		.4byte	.LVL1
 6670 000f 0E000000 		.4byte	.LVL2
 6671 0013 0400     		.2byte	0x4
 6672 0015 F3       		.byte	0xf3
 6673 0016 01       		.uleb128 0x1
 6674 0017 50       		.byte	0x50
 6675 0018 9F       		.byte	0x9f
 6676 0019 0E000000 		.4byte	.LVL2
 6677 001d 1A000000 		.4byte	.LVL3
 6678 0021 0100     		.2byte	0x1
 6679 0023 50       		.byte	0x50
 6680 0024 1A000000 		.4byte	.LVL3
 6681 0028 1C000000 		.4byte	.LVL4
 6682 002c 0400     		.2byte	0x4
 6683 002e F3       		.byte	0xf3
 6684 002f 01       		.uleb128 0x1
 6685 0030 50       		.byte	0x50
 6686 0031 9F       		.byte	0x9f
 6687 0032 1C000000 		.4byte	.LVL4
 6688 0036 28000000 		.4byte	.LVL5
 6689 003a 0100     		.2byte	0x1
 6690 003c 50       		.byte	0x50
 6691 003d 28000000 		.4byte	.LVL5
 6692 0041 2A000000 		.4byte	.LVL6
 6693 0045 0400     		.2byte	0x4
 6694 0047 F3       		.byte	0xf3
 6695 0048 01       		.uleb128 0x1
 6696 0049 50       		.byte	0x50
 6697 004a 9F       		.byte	0x9f
 6698 004b 2A000000 		.4byte	.LVL6
 6699 004f 2E000000 		.4byte	.LVL7
 6700 0053 0100     		.2byte	0x1
 6701 0055 50       		.byte	0x50
 6702 0056 2E000000 		.4byte	.LVL7
 6703 005a 30000000 		.4byte	.LFE4
 6704 005e 0400     		.2byte	0x4
 6705 0060 F3       		.byte	0xf3
 6706 0061 01       		.uleb128 0x1
 6707 0062 50       		.byte	0x50
 6708 0063 9F       		.byte	0x9f
 6709 0064 00000000 		.4byte	0
 6710 0068 00000000 		.4byte	0
 6711              	.LLST1:
 6712 006c 00000000 		.4byte	.LVL8
 6713 0070 0A000000 		.4byte	.LVL9
 6714 0074 0100     		.2byte	0x1
 6715 0076 50       		.byte	0x50
 6716 0077 0A000000 		.4byte	.LVL9
 6717 007b 1C000000 		.4byte	.LFE5
 6718 007f 0100     		.2byte	0x1
 6719 0081 52       		.byte	0x52
ARM GAS  C:\Users\crono\AppData\Local\Temp\ccd4dy0n.s 			page 132


 6720 0082 00000000 		.4byte	0
 6721 0086 00000000 		.4byte	0
 6722              	.LLST2:
 6723 008a 00000000 		.4byte	.LVL13
 6724 008e 09000000 		.4byte	.LVL15-1
 6725 0092 0100     		.2byte	0x1
 6726 0094 50       		.byte	0x50
 6727 0095 09000000 		.4byte	.LVL15-1
 6728 0099 10000000 		.4byte	.LVL16
 6729 009d 0100     		.2byte	0x1
 6730 009f 55       		.byte	0x55
 6731 00a0 10000000 		.4byte	.LVL16
 6732 00a4 38000000 		.4byte	.LVL20
 6733 00a8 0100     		.2byte	0x1
 6734 00aa 54       		.byte	0x54
 6735 00ab 38000000 		.4byte	.LVL20
 6736 00af 48000000 		.4byte	.LVL23
 6737 00b3 0300     		.2byte	0x3
 6738 00b5 74       		.byte	0x74
 6739 00b6 02       		.sleb128 2
 6740 00b7 9F       		.byte	0x9f
 6741 00b8 48000000 		.4byte	.LVL23
 6742 00bc 60000000 		.4byte	.LVL27
 6743 00c0 0100     		.2byte	0x1
 6744 00c2 57       		.byte	0x57
 6745 00c3 60000000 		.4byte	.LVL27
 6746 00c7 7E000000 		.4byte	.LVL30
 6747 00cb 0100     		.2byte	0x1
 6748 00cd 54       		.byte	0x54
 6749 00ce 7E000000 		.4byte	.LVL30
 6750 00d2 82000000 		.4byte	.LVL31
 6751 00d6 0100     		.2byte	0x1
 6752 00d8 55       		.byte	0x55
 6753 00d9 82000000 		.4byte	.LVL31
 6754 00dd 86000000 		.4byte	.LVL32
 6755 00e1 0100     		.2byte	0x1
 6756 00e3 54       		.byte	0x54
 6757 00e4 86000000 		.4byte	.LVL32
 6758 00e8 8A000000 		.4byte	.LVL34
 6759 00ec 0300     		.2byte	0x3
 6760 00ee 74       		.byte	0x74
 6761 00ef 02       		.sleb128 2
 6762 00f0 9F       		.byte	0x9f
 6763 00f1 8A000000 		.4byte	.LVL34
 6764 00f5 92000000 		.4byte	.LVL38
 6765 00f9 0100     		.2byte	0x1
 6766 00fb 57       		.byte	0x57
 6767 00fc 92000000 		.4byte	.LVL38
 6768 0100 A2000000 		.4byte	.LVL42
 6769 0104 0100     		.2byte	0x1
 6770 0106 54       		.byte	0x54
 6771 0107 00000000 		.4byte	0
 6772 010b 00000000 		.4byte	0
 6773              	.LLST3:
 6774 010f 00000000 		.4byte	.LVL13
 6775 0113 09000000 		.4byte	.LVL15-1
 6776 0117 0100     		.2byte	0x1
ARM GAS  C:\Users\crono\AppData\Local\Temp\ccd4dy0n.s 			page 133


 6777 0119 51       		.byte	0x51
 6778 011a 09000000 		.4byte	.LVL15-1
 6779 011e B0000000 		.4byte	.LFE6
 6780 0122 0400     		.2byte	0x4
 6781 0124 F3       		.byte	0xf3
 6782 0125 01       		.uleb128 0x1
 6783 0126 51       		.byte	0x51
 6784 0127 9F       		.byte	0x9f
 6785 0128 00000000 		.4byte	0
 6786 012c 00000000 		.4byte	0
 6787              	.LLST4:
 6788 0130 06000000 		.4byte	.LVL14
 6789 0134 1A000000 		.4byte	.LVL17
 6790 0138 0200     		.2byte	0x2
 6791 013a 30       		.byte	0x30
 6792 013b 9F       		.byte	0x9f
 6793 013c 1A000000 		.4byte	.LVL17
 6794 0140 7E000000 		.4byte	.LVL30
 6795 0144 0100     		.2byte	0x1
 6796 0146 55       		.byte	0x55
 6797 0147 7E000000 		.4byte	.LVL30
 6798 014b 86000000 		.4byte	.LVL32
 6799 014f 0200     		.2byte	0x2
 6800 0151 30       		.byte	0x30
 6801 0152 9F       		.byte	0x9f
 6802 0153 86000000 		.4byte	.LVL32
 6803 0157 A2000000 		.4byte	.LVL42
 6804 015b 0100     		.2byte	0x1
 6805 015d 55       		.byte	0x55
 6806 015e 00000000 		.4byte	0
 6807 0162 00000000 		.4byte	0
 6808              	.LLST5:
 6809 0166 40000000 		.4byte	.LVL22
 6810 016a 4A000000 		.4byte	.LVL24
 6811 016e 0100     		.2byte	0x1
 6812 0170 50       		.byte	0x50
 6813 0171 4A000000 		.4byte	.LVL24
 6814 0175 60000000 		.4byte	.LVL27
 6815 0179 0100     		.2byte	0x1
 6816 017b 56       		.byte	0x56
 6817 017c 86000000 		.4byte	.LVL32
 6818 0180 88000000 		.4byte	.LVL33
 6819 0184 0100     		.2byte	0x1
 6820 0186 50       		.byte	0x50
 6821 0187 88000000 		.4byte	.LVL33
 6822 018b 92000000 		.4byte	.LVL38
 6823 018f 0100     		.2byte	0x1
 6824 0191 56       		.byte	0x56
 6825 0192 00000000 		.4byte	0
 6826 0196 00000000 		.4byte	0
 6827              	.LLST6:
 6828 019a 4E000000 		.4byte	.LVL25
 6829 019e 58000000 		.4byte	.LVL26
 6830 01a2 0100     		.2byte	0x1
 6831 01a4 50       		.byte	0x50
 6832 01a5 8A000000 		.4byte	.LVL34
 6833 01a9 8C000000 		.4byte	.LVL35
ARM GAS  C:\Users\crono\AppData\Local\Temp\ccd4dy0n.s 			page 134


 6834 01ad 0100     		.2byte	0x1
 6835 01af 50       		.byte	0x50
 6836 01b0 00000000 		.4byte	0
 6837 01b4 00000000 		.4byte	0
 6838              	.LLST7:
 6839 01b8 58000000 		.4byte	.LVL26
 6840 01bc 60000000 		.4byte	.LVL27
 6841 01c0 0100     		.2byte	0x1
 6842 01c2 50       		.byte	0x50
 6843 01c3 8E000000 		.4byte	.LVL36
 6844 01c7 90000000 		.4byte	.LVL37
 6845 01cb 0100     		.2byte	0x1
 6846 01cd 50       		.byte	0x50
 6847 01ce 00000000 		.4byte	0
 6848 01d2 00000000 		.4byte	0
 6849              	.LLST8:
 6850 01d6 00000000 		.4byte	.LVL43
 6851 01da 18000000 		.4byte	.LVL46
 6852 01de 0100     		.2byte	0x1
 6853 01e0 50       		.byte	0x50
 6854 01e1 18000000 		.4byte	.LVL46
 6855 01e5 A8050000 		.4byte	.LVL179
 6856 01e9 0100     		.2byte	0x1
 6857 01eb 54       		.byte	0x54
 6858 01ec 00000000 		.4byte	0
 6859 01f0 00000000 		.4byte	0
 6860              	.LLST9:
 6861 01f4 00000000 		.4byte	.LVL43
 6862 01f8 18000000 		.4byte	.LVL46
 6863 01fc 0200     		.2byte	0x2
 6864 01fe 91       		.byte	0x91
 6865 01ff 74       		.sleb128 -12
 6866 0200 18000000 		.4byte	.LVL46
 6867 0204 A8050000 		.4byte	.LVL179
 6868 0208 0100     		.2byte	0x1
 6869 020a 55       		.byte	0x55
 6870 020b 00000000 		.4byte	0
 6871 020f 00000000 		.4byte	0
 6872              	.LLST10:
 6873 0213 10000000 		.4byte	.LVL44
 6874 0217 A2050000 		.4byte	.LVL178
 6875 021b 0200     		.2byte	0x2
 6876 021d 30       		.byte	0x30
 6877 021e 9F       		.byte	0x9f
 6878 021f A2050000 		.4byte	.LVL178
 6879 0223 B8050000 		.4byte	.LFE8
 6880 0227 0100     		.2byte	0x1
 6881 0229 50       		.byte	0x50
 6882 022a 00000000 		.4byte	0
 6883 022e 00000000 		.4byte	0
 6884              	.LLST11:
 6885 0232 10000000 		.4byte	.LVL44
 6886 0236 18000000 		.4byte	.LVL46
 6887 023a 0200     		.2byte	0x2
 6888 023c 30       		.byte	0x30
 6889 023d 9F       		.byte	0x9f
 6890 023e 18000000 		.4byte	.LVL46
ARM GAS  C:\Users\crono\AppData\Local\Temp\ccd4dy0n.s 			page 135


 6891 0242 68050000 		.4byte	.LVL160
 6892 0246 0100     		.2byte	0x1
 6893 0248 56       		.byte	0x56
 6894 0249 6A050000 		.4byte	.LVL161
 6895 024d A8050000 		.4byte	.LVL179
 6896 0251 0100     		.2byte	0x1
 6897 0253 56       		.byte	0x56
 6898 0254 00000000 		.4byte	0
 6899 0258 00000000 		.4byte	0
 6900              	.LLST12:
 6901 025c 12000000 		.4byte	.LVL45
 6902 0260 18000000 		.4byte	.LVL46
 6903 0264 0100     		.2byte	0x1
 6904 0266 50       		.byte	0x50
 6905 0267 18000000 		.4byte	.LVL46
 6906 026b 44030000 		.4byte	.LVL104
 6907 026f 0100     		.2byte	0x1
 6908 0271 57       		.byte	0x57
 6909 0272 44030000 		.4byte	.LVL104
 6910 0276 50030000 		.4byte	.LVL105
 6911 027a 0300     		.2byte	0x3
 6912 027c 77       		.byte	0x77
 6913 027d 7F       		.sleb128 -1
 6914 027e 9F       		.byte	0x9f
 6915 027f 50030000 		.4byte	.LVL105
 6916 0283 8C030000 		.4byte	.LVL109
 6917 0287 0100     		.2byte	0x1
 6918 0289 57       		.byte	0x57
 6919 028a 90030000 		.4byte	.LVL110
 6920 028e F0030000 		.4byte	.LVL119
 6921 0292 0100     		.2byte	0x1
 6922 0294 57       		.byte	0x57
 6923 0295 FC030000 		.4byte	.LVL122
 6924 0299 06040000 		.4byte	.LVL124
 6925 029d 0100     		.2byte	0x1
 6926 029f 57       		.byte	0x57
 6927 02a0 16040000 		.4byte	.LVL126
 6928 02a4 C2040000 		.4byte	.LVL141
 6929 02a8 0100     		.2byte	0x1
 6930 02aa 57       		.byte	0x57
 6931 02ab C2040000 		.4byte	.LVL141
 6932 02af C6040000 		.4byte	.LVL142
 6933 02b3 0300     		.2byte	0x3
 6934 02b5 77       		.byte	0x77
 6935 02b6 06       		.sleb128 6
 6936 02b7 9F       		.byte	0x9f
 6937 02b8 C6040000 		.4byte	.LVL142
 6938 02bc 10050000 		.4byte	.LVL151
 6939 02c0 0100     		.2byte	0x1
 6940 02c2 5C       		.byte	0x5c
 6941 02c3 10050000 		.4byte	.LVL151
 6942 02c7 1E050000 		.4byte	.LVL153
 6943 02cb 0100     		.2byte	0x1
 6944 02cd 57       		.byte	0x57
 6945 02ce 62050000 		.4byte	.LVL158
 6946 02d2 66050000 		.4byte	.LVL159
 6947 02d6 0100     		.2byte	0x1
ARM GAS  C:\Users\crono\AppData\Local\Temp\ccd4dy0n.s 			page 136


 6948 02d8 54       		.byte	0x54
 6949 02d9 66050000 		.4byte	.LVL159
 6950 02dd 6A050000 		.4byte	.LVL161
 6951 02e1 0100     		.2byte	0x1
 6952 02e3 57       		.byte	0x57
 6953 02e4 6C050000 		.4byte	.LVL162
 6954 02e8 A8050000 		.4byte	.LVL179
 6955 02ec 0100     		.2byte	0x1
 6956 02ee 57       		.byte	0x57
 6957 02ef 00000000 		.4byte	0
 6958 02f3 00000000 		.4byte	0
 6959              	.LLST13:
 6960 02f7 1A000000 		.4byte	.LVL47
 6961 02fb 2A000000 		.4byte	.LVL48
 6962 02ff 0100     		.2byte	0x1
 6963 0301 53       		.byte	0x53
 6964 0302 66050000 		.4byte	.LVL159
 6965 0306 6A050000 		.4byte	.LVL161
 6966 030a 0100     		.2byte	0x1
 6967 030c 53       		.byte	0x53
 6968 030d 78050000 		.4byte	.LVL163
 6969 0311 7C050000 		.4byte	.LVL164
 6970 0315 0100     		.2byte	0x1
 6971 0317 53       		.byte	0x53
 6972 0318 00000000 		.4byte	0
 6973 031c 00000000 		.4byte	0
 6974              	.LLST14:
 6975 0320 96000000 		.4byte	.LVL49
 6976 0324 C6000000 		.4byte	.LVL52
 6977 0328 0200     		.2byte	0x2
 6978 032a 30       		.byte	0x30
 6979 032b 9F       		.byte	0x9f
 6980 032c C6000000 		.4byte	.LVL52
 6981 0330 D2000000 		.4byte	.LVL53
 6982 0334 0100     		.2byte	0x1
 6983 0336 53       		.byte	0x53
 6984 0337 00000000 		.4byte	0
 6985 033b 00000000 		.4byte	0
 6986              	.LLST15:
 6987 033f 9A000000 		.4byte	.LVL50
 6988 0343 BE000000 		.4byte	.LVL51
 6989 0347 0100     		.2byte	0x1
 6990 0349 53       		.byte	0x53
 6991 034a 00000000 		.4byte	0
 6992 034e 00000000 		.4byte	0
 6993              	.LLST16:
 6994 0352 D2000000 		.4byte	.LVL53
 6995 0356 3E010000 		.4byte	.LVL56
 6996 035a 0200     		.2byte	0x2
 6997 035c 30       		.byte	0x30
 6998 035d 9F       		.byte	0x9f
 6999 035e 3E010000 		.4byte	.LVL56
 7000 0362 4A010000 		.4byte	.LVL57
 7001 0366 0100     		.2byte	0x1
 7002 0368 51       		.byte	0x51
 7003 0369 80050000 		.4byte	.LVL165
 7004 036d 84050000 		.4byte	.LVL166
ARM GAS  C:\Users\crono\AppData\Local\Temp\ccd4dy0n.s 			page 137


 7005 0371 0200     		.2byte	0x2
 7006 0373 30       		.byte	0x30
 7007 0374 9F       		.byte	0x9f
 7008 0375 00000000 		.4byte	0
 7009 0379 00000000 		.4byte	0
 7010              	.LLST17:
 7011 037d D6000000 		.4byte	.LVL54
 7012 0381 FA000000 		.4byte	.LVL55
 7013 0385 0100     		.2byte	0x1
 7014 0387 53       		.byte	0x53
 7015 0388 00000000 		.4byte	0
 7016 038c 00000000 		.4byte	0
 7017              	.LLST18:
 7018 0390 4A010000 		.4byte	.LVL57
 7019 0394 58010000 		.4byte	.LVL58
 7020 0398 0200     		.2byte	0x2
 7021 039a 30       		.byte	0x30
 7022 039b 9F       		.byte	0x9f
 7023 039c 58010000 		.4byte	.LVL58
 7024 03a0 DC010000 		.4byte	.LVL66
 7025 03a4 0100     		.2byte	0x1
 7026 03a6 5E       		.byte	0x5e
 7027 03a7 DE010000 		.4byte	.LVL67
 7028 03ab E2010000 		.4byte	.LVL68
 7029 03af 0100     		.2byte	0x1
 7030 03b1 5E       		.byte	0x5e
 7031 03b2 E4010000 		.4byte	.LVL69
 7032 03b6 EA010000 		.4byte	.LVL72
 7033 03ba 0100     		.2byte	0x1
 7034 03bc 5E       		.byte	0x5e
 7035 03bd EA010000 		.4byte	.LVL72
 7036 03c1 F2010000 		.4byte	.LVL73
 7037 03c5 0200     		.2byte	0x2
 7038 03c7 30       		.byte	0x30
 7039 03c8 9F       		.byte	0x9f
 7040 03c9 F2010000 		.4byte	.LVL73
 7041 03cd 60020000 		.4byte	.LVL82
 7042 03d1 0100     		.2byte	0x1
 7043 03d3 5E       		.byte	0x5e
 7044 03d4 84050000 		.4byte	.LVL166
 7045 03d8 98050000 		.4byte	.LVL176
 7046 03dc 0100     		.2byte	0x1
 7047 03de 5E       		.byte	0x5e
 7048 03df 00000000 		.4byte	0
 7049 03e3 00000000 		.4byte	0
 7050              	.LLST19:
 7051 03e7 4A010000 		.4byte	.LVL57
 7052 03eb 58010000 		.4byte	.LVL58
 7053 03ef 0300     		.2byte	0x3
 7054 03f1 09       		.byte	0x9
 7055 03f2 FF       		.byte	0xff
 7056 03f3 9F       		.byte	0x9f
 7057 03f4 58010000 		.4byte	.LVL58
 7058 03f8 AA010000 		.4byte	.LVL61
 7059 03fc 0100     		.2byte	0x1
 7060 03fe 52       		.byte	0x52
 7061 03ff AE010000 		.4byte	.LVL62
ARM GAS  C:\Users\crono\AppData\Local\Temp\ccd4dy0n.s 			page 138


 7062 0403 EA010000 		.4byte	.LVL72
 7063 0407 0100     		.2byte	0x1
 7064 0409 52       		.byte	0x52
 7065 040a EA010000 		.4byte	.LVL72
 7066 040e F2010000 		.4byte	.LVL73
 7067 0412 0300     		.2byte	0x3
 7068 0414 09       		.byte	0x9
 7069 0415 FF       		.byte	0xff
 7070 0416 9F       		.byte	0x9f
 7071 0417 F2010000 		.4byte	.LVL73
 7072 041b 44020000 		.4byte	.LVL78
 7073 041f 0100     		.2byte	0x1
 7074 0421 52       		.byte	0x52
 7075 0422 46020000 		.4byte	.LVL79
 7076 0426 60020000 		.4byte	.LVL82
 7077 042a 0100     		.2byte	0x1
 7078 042c 52       		.byte	0x52
 7079 042d 84050000 		.4byte	.LVL166
 7080 0431 98050000 		.4byte	.LVL176
 7081 0435 0100     		.2byte	0x1
 7082 0437 52       		.byte	0x52
 7083 0438 00000000 		.4byte	0
 7084 043c 00000000 		.4byte	0
 7085              	.LLST20:
 7086 0440 4A010000 		.4byte	.LVL57
 7087 0444 58010000 		.4byte	.LVL58
 7088 0448 0200     		.2byte	0x2
 7089 044a 30       		.byte	0x30
 7090 044b 9F       		.byte	0x9f
 7091 044c 58010000 		.4byte	.LVL58
 7092 0450 EA010000 		.4byte	.LVL72
 7093 0454 0100     		.2byte	0x1
 7094 0456 50       		.byte	0x50
 7095 0457 EA010000 		.4byte	.LVL72
 7096 045b F2010000 		.4byte	.LVL73
 7097 045f 0200     		.2byte	0x2
 7098 0461 30       		.byte	0x30
 7099 0462 9F       		.byte	0x9f
 7100 0463 F2010000 		.4byte	.LVL73
 7101 0467 42020000 		.4byte	.LVL77
 7102 046b 0100     		.2byte	0x1
 7103 046d 50       		.byte	0x50
 7104 046e 46020000 		.4byte	.LVL79
 7105 0472 60020000 		.4byte	.LVL82
 7106 0476 0100     		.2byte	0x1
 7107 0478 50       		.byte	0x50
 7108 0479 84050000 		.4byte	.LVL166
 7109 047d 86050000 		.4byte	.LVL167
 7110 0481 0100     		.2byte	0x1
 7111 0483 50       		.byte	0x50
 7112 0484 88050000 		.4byte	.LVL168
 7113 0488 8A050000 		.4byte	.LVL169
 7114 048c 0100     		.2byte	0x1
 7115 048e 50       		.byte	0x50
 7116 048f 8C050000 		.4byte	.LVL170
 7117 0493 8E050000 		.4byte	.LVL171
 7118 0497 0100     		.2byte	0x1
ARM GAS  C:\Users\crono\AppData\Local\Temp\ccd4dy0n.s 			page 139


 7119 0499 50       		.byte	0x50
 7120 049a 90050000 		.4byte	.LVL172
 7121 049e 92050000 		.4byte	.LVL173
 7122 04a2 0100     		.2byte	0x1
 7123 04a4 50       		.byte	0x50
 7124 04a5 94050000 		.4byte	.LVL174
 7125 04a9 96050000 		.4byte	.LVL175
 7126 04ad 0100     		.2byte	0x1
 7127 04af 50       		.byte	0x50
 7128 04b0 00000000 		.4byte	0
 7129 04b4 00000000 		.4byte	0
 7130              	.LLST21:
 7131 04b8 80010000 		.4byte	.LVL59
 7132 04bc B4010000 		.4byte	.LVL63
 7133 04c0 0100     		.2byte	0x1
 7134 04c2 53       		.byte	0x53
 7135 04c3 B4010000 		.4byte	.LVL63
 7136 04c7 B8010000 		.4byte	.LVL65
 7137 04cb 0B00     		.2byte	0xb
 7138 04cd 77       		.byte	0x77
 7139 04ce 00       		.sleb128 0
 7140 04cf 94       		.byte	0x94
 7141 04d0 01       		.byte	0x1
 7142 04d1 08       		.byte	0x8
 7143 04d2 FF       		.byte	0xff
 7144 04d3 1A       		.byte	0x1a
 7145 04d4 08       		.byte	0x8
 7146 04d5 30       		.byte	0x30
 7147 04d6 1C       		.byte	0x1c
 7148 04d7 9F       		.byte	0x9f
 7149 04d8 00000000 		.4byte	0
 7150 04dc 00000000 		.4byte	0
 7151              	.LLST22:
 7152 04e0 F4010000 		.4byte	.LVL74
 7153 04e4 20020000 		.4byte	.LVL75
 7154 04e8 0100     		.2byte	0x1
 7155 04ea 53       		.byte	0x53
 7156 04eb 00000000 		.4byte	0
 7157 04ef 00000000 		.4byte	0
 7158              	.LLST23:
 7159 04f3 60020000 		.4byte	.LVL82
 7160 04f7 6C020000 		.4byte	.LVL83
 7161 04fb 0200     		.2byte	0x2
 7162 04fd 30       		.byte	0x30
 7163 04fe 9F       		.byte	0x9f
 7164 04ff 6C020000 		.4byte	.LVL83
 7165 0503 98020000 		.4byte	.LVL86
 7166 0507 0100     		.2byte	0x1
 7167 0509 50       		.byte	0x50
 7168 050a 9A020000 		.4byte	.LVL87
 7169 050e 9C020000 		.4byte	.LVL88
 7170 0512 0200     		.2byte	0x2
 7171 0514 30       		.byte	0x30
 7172 0515 9F       		.byte	0x9f
 7173 0516 9C020000 		.4byte	.LVL88
 7174 051a A8020000 		.4byte	.LVL89
 7175 051e 0100     		.2byte	0x1
ARM GAS  C:\Users\crono\AppData\Local\Temp\ccd4dy0n.s 			page 140


 7176 0520 50       		.byte	0x50
 7177 0521 00000000 		.4byte	0
 7178 0525 00000000 		.4byte	0
 7179              	.LLST24:
 7180 0529 70020000 		.4byte	.LVL84
 7181 052d 94020000 		.4byte	.LVL85
 7182 0531 0100     		.2byte	0x1
 7183 0533 52       		.byte	0x52
 7184 0534 00000000 		.4byte	0
 7185 0538 00000000 		.4byte	0
 7186              	.LLST25:
 7187 053c B0020000 		.4byte	.LVL90
 7188 0540 B4020000 		.4byte	.LVL91
 7189 0544 0100     		.2byte	0x1
 7190 0546 51       		.byte	0x51
 7191 0547 B4020000 		.4byte	.LVL91
 7192 054b BA020000 		.4byte	.LVL93
 7193 054f 0300     		.2byte	0x3
 7194 0551 71       		.byte	0x71
 7195 0552 01       		.sleb128 1
 7196 0553 9F       		.byte	0x9f
 7197 0554 BA020000 		.4byte	.LVL93
 7198 0558 EA020000 		.4byte	.LVL96
 7199 055c 0100     		.2byte	0x1
 7200 055e 51       		.byte	0x51
 7201 055f 00000000 		.4byte	0
 7202 0563 00000000 		.4byte	0
 7203              	.LLST26:
 7204 0567 BC020000 		.4byte	.LVL94
 7205 056b E0020000 		.4byte	.LVL95
 7206 056f 0100     		.2byte	0x1
 7207 0571 52       		.byte	0x52
 7208 0572 00000000 		.4byte	0
 7209 0576 00000000 		.4byte	0
 7210              	.LLST27:
 7211 057a 40030000 		.4byte	.LVL103
 7212 057e 50030000 		.4byte	.LVL105
 7213 0582 0100     		.2byte	0x1
 7214 0584 53       		.byte	0x53
 7215 0585 00000000 		.4byte	0
 7216 0589 00000000 		.4byte	0
 7217              	.LLST28:
 7218 058d FC020000 		.4byte	.LVL97
 7219 0591 FE020000 		.4byte	.LVL98
 7220 0595 0100     		.2byte	0x1
 7221 0597 53       		.byte	0x53
 7222 0598 FE020000 		.4byte	.LVL98
 7223 059c 34030000 		.4byte	.LVL101
 7224 05a0 0300     		.2byte	0x3
 7225 05a2 73       		.byte	0x73
 7226 05a3 7F       		.sleb128 -1
 7227 05a4 9F       		.byte	0x9f
 7228 05a5 34030000 		.4byte	.LVL101
 7229 05a9 3A030000 		.4byte	.LVL102
 7230 05ad 0100     		.2byte	0x1
 7231 05af 53       		.byte	0x53
 7232 05b0 A0050000 		.4byte	.LVL177
ARM GAS  C:\Users\crono\AppData\Local\Temp\ccd4dy0n.s 			page 141


 7233 05b4 A2050000 		.4byte	.LVL178
 7234 05b8 0300     		.2byte	0x3
 7235 05ba 73       		.byte	0x73
 7236 05bb 7F       		.sleb128 -1
 7237 05bc 9F       		.byte	0x9f
 7238 05bd 00000000 		.4byte	0
 7239 05c1 00000000 		.4byte	0
 7240              	.LLST29:
 7241 05c5 00030000 		.4byte	.LVL99
 7242 05c9 2E030000 		.4byte	.LVL100
 7243 05cd 0100     		.2byte	0x1
 7244 05cf 51       		.byte	0x51
 7245 05d0 00000000 		.4byte	0
 7246 05d4 00000000 		.4byte	0
 7247              	.LLST30:
 7248 05d8 5A030000 		.4byte	.LVL106
 7249 05dc 16040000 		.4byte	.LVL126
 7250 05e0 0100     		.2byte	0x1
 7251 05e2 58       		.byte	0x58
 7252 05e3 00000000 		.4byte	0
 7253 05e7 00000000 		.4byte	0
 7254              	.LLST31:
 7255 05eb 5A030000 		.4byte	.LVL106
 7256 05ef E4030000 		.4byte	.LVL116
 7257 05f3 0300     		.2byte	0x3
 7258 05f5 09       		.byte	0x9
 7259 05f6 FF       		.byte	0xff
 7260 05f7 9F       		.byte	0x9f
 7261 05f8 E4030000 		.4byte	.LVL116
 7262 05fc EA030000 		.4byte	.LVL117
 7263 0600 0100     		.2byte	0x1
 7264 0602 50       		.byte	0x50
 7265 0603 EA030000 		.4byte	.LVL117
 7266 0607 FC030000 		.4byte	.LVL122
 7267 060b 0100     		.2byte	0x1
 7268 060d 5A       		.byte	0x5a
 7269 060e FC030000 		.4byte	.LVL122
 7270 0612 08040000 		.4byte	.LVL125
 7271 0616 0300     		.2byte	0x3
 7272 0618 09       		.byte	0x9
 7273 0619 FF       		.byte	0xff
 7274 061a 9F       		.byte	0x9f
 7275 061b 08040000 		.4byte	.LVL125
 7276 061f 16040000 		.4byte	.LVL126
 7277 0623 0100     		.2byte	0x1
 7278 0625 5A       		.byte	0x5a
 7279 0626 00000000 		.4byte	0
 7280 062a 00000000 		.4byte	0
 7281              	.LLST32:
 7282 062e 5A030000 		.4byte	.LVL106
 7283 0632 F0030000 		.4byte	.LVL119
 7284 0636 0300     		.2byte	0x3
 7285 0638 09       		.byte	0x9
 7286 0639 FF       		.byte	0xff
 7287 063a 9F       		.byte	0x9f
 7288 063b F0030000 		.4byte	.LVL119
 7289 063f F6030000 		.4byte	.LVL120
ARM GAS  C:\Users\crono\AppData\Local\Temp\ccd4dy0n.s 			page 142


 7290 0643 0100     		.2byte	0x1
 7291 0645 50       		.byte	0x50
 7292 0646 F6030000 		.4byte	.LVL120
 7293 064a FC030000 		.4byte	.LVL122
 7294 064e 0100     		.2byte	0x1
 7295 0650 57       		.byte	0x57
 7296 0651 FC030000 		.4byte	.LVL122
 7297 0655 08040000 		.4byte	.LVL125
 7298 0659 0300     		.2byte	0x3
 7299 065b 09       		.byte	0x9
 7300 065c FF       		.byte	0xff
 7301 065d 9F       		.byte	0x9f
 7302 065e 08040000 		.4byte	.LVL125
 7303 0662 16040000 		.4byte	.LVL126
 7304 0666 0100     		.2byte	0x1
 7305 0668 57       		.byte	0x57
 7306 0669 00000000 		.4byte	0
 7307 066d 00000000 		.4byte	0
 7308              	.LLST33:
 7309 0671 5A030000 		.4byte	.LVL106
 7310 0675 FA030000 		.4byte	.LVL121
 7311 0679 0300     		.2byte	0x3
 7312 067b 09       		.byte	0x9
 7313 067c FF       		.byte	0xff
 7314 067d 9F       		.byte	0x9f
 7315 067e FA030000 		.4byte	.LVL121
 7316 0682 FC030000 		.4byte	.LVL122
 7317 0686 0100     		.2byte	0x1
 7318 0688 50       		.byte	0x50
 7319 0689 FC030000 		.4byte	.LVL122
 7320 068d 08040000 		.4byte	.LVL125
 7321 0691 0300     		.2byte	0x3
 7322 0693 09       		.byte	0x9
 7323 0694 FF       		.byte	0xff
 7324 0695 9F       		.byte	0x9f
 7325 0696 08040000 		.4byte	.LVL125
 7326 069a 16040000 		.4byte	.LVL126
 7327 069e 0100     		.2byte	0x1
 7328 06a0 50       		.byte	0x50
 7329 06a1 00000000 		.4byte	0
 7330 06a5 00000000 		.4byte	0
 7331              	.LLST34:
 7332 06a9 60030000 		.4byte	.LVL107
 7333 06ad 84030000 		.4byte	.LVL108
 7334 06b1 0100     		.2byte	0x1
 7335 06b3 50       		.byte	0x50
 7336 06b4 00000000 		.4byte	0
 7337 06b8 00000000 		.4byte	0
 7338              	.LLST35:
 7339 06bc 90030000 		.4byte	.LVL110
 7340 06c0 A0030000 		.4byte	.LVL112
 7341 06c4 0100     		.2byte	0x1
 7342 06c6 53       		.byte	0x53
 7343 06c7 A2030000 		.4byte	.LVL113
 7344 06cb AC030000 		.4byte	.LVL114
 7345 06cf 0100     		.2byte	0x1
 7346 06d1 53       		.byte	0x53
ARM GAS  C:\Users\crono\AppData\Local\Temp\ccd4dy0n.s 			page 143


 7347 06d2 FC030000 		.4byte	.LVL122
 7348 06d6 00040000 		.4byte	.LVL123
 7349 06da 0100     		.2byte	0x1
 7350 06dc 53       		.byte	0x53
 7351 06dd 00000000 		.4byte	0
 7352 06e1 00000000 		.4byte	0
 7353              	.LLST36:
 7354 06e5 20040000 		.4byte	.LVL127
 7355 06e9 30050000 		.4byte	.LVL154
 7356 06ed 0100     		.2byte	0x1
 7357 06ef 58       		.byte	0x58
 7358 06f0 00000000 		.4byte	0
 7359 06f4 00000000 		.4byte	0
 7360              	.LLST37:
 7361 06f8 20040000 		.4byte	.LVL127
 7362 06fc AC040000 		.4byte	.LVL136
 7363 0700 0300     		.2byte	0x3
 7364 0702 09       		.byte	0x9
 7365 0703 FF       		.byte	0xff
 7366 0704 9F       		.byte	0x9f
 7367 0705 AC040000 		.4byte	.LVL136
 7368 0709 B2040000 		.4byte	.LVL137
 7369 070d 0100     		.2byte	0x1
 7370 070f 50       		.byte	0x50
 7371 0710 B2040000 		.4byte	.LVL137
 7372 0714 10050000 		.4byte	.LVL151
 7373 0718 0100     		.2byte	0x1
 7374 071a 5A       		.byte	0x5a
 7375 071b 10050000 		.4byte	.LVL151
 7376 071f 1E050000 		.4byte	.LVL153
 7377 0723 0300     		.2byte	0x3
 7378 0725 09       		.byte	0x9
 7379 0726 FF       		.byte	0xff
 7380 0727 9F       		.byte	0x9f
 7381 0728 1E050000 		.4byte	.LVL153
 7382 072c 30050000 		.4byte	.LVL154
 7383 0730 0100     		.2byte	0x1
 7384 0732 5A       		.byte	0x5a
 7385 0733 00000000 		.4byte	0
 7386 0737 00000000 		.4byte	0
 7387              	.LLST38:
 7388 073b 20040000 		.4byte	.LVL127
 7389 073f B8040000 		.4byte	.LVL139
 7390 0743 0300     		.2byte	0x3
 7391 0745 09       		.byte	0x9
 7392 0746 FF       		.byte	0xff
 7393 0747 9F       		.byte	0x9f
 7394 0748 B8040000 		.4byte	.LVL139
 7395 074c BE040000 		.4byte	.LVL140
 7396 0750 0100     		.2byte	0x1
 7397 0752 50       		.byte	0x50
 7398 0753 BE040000 		.4byte	.LVL140
 7399 0757 10050000 		.4byte	.LVL151
 7400 075b 0100     		.2byte	0x1
 7401 075d 59       		.byte	0x59
 7402 075e 10050000 		.4byte	.LVL151
 7403 0762 1E050000 		.4byte	.LVL153
ARM GAS  C:\Users\crono\AppData\Local\Temp\ccd4dy0n.s 			page 144


 7404 0766 0300     		.2byte	0x3
 7405 0768 09       		.byte	0x9
 7406 0769 FF       		.byte	0xff
 7407 076a 9F       		.byte	0x9f
 7408 076b 1E050000 		.4byte	.LVL153
 7409 076f 30050000 		.4byte	.LVL154
 7410 0773 0100     		.2byte	0x1
 7411 0775 59       		.byte	0x59
 7412 0776 00000000 		.4byte	0
 7413 077a 00000000 		.4byte	0
 7414              	.LLST39:
 7415 077e 20040000 		.4byte	.LVL127
 7416 0782 C2040000 		.4byte	.LVL141
 7417 0786 0300     		.2byte	0x3
 7418 0788 09       		.byte	0x9
 7419 0789 FF       		.byte	0xff
 7420 078a 9F       		.byte	0x9f
 7421 078b C2040000 		.4byte	.LVL141
 7422 078f 10050000 		.4byte	.LVL151
 7423 0793 0100     		.2byte	0x1
 7424 0795 50       		.byte	0x50
 7425 0796 10050000 		.4byte	.LVL151
 7426 079a 1E050000 		.4byte	.LVL153
 7427 079e 0300     		.2byte	0x3
 7428 07a0 09       		.byte	0x9
 7429 07a1 FF       		.byte	0xff
 7430 07a2 9F       		.byte	0x9f
 7431 07a3 1E050000 		.4byte	.LVL153
 7432 07a7 30050000 		.4byte	.LVL154
 7433 07ab 0100     		.2byte	0x1
 7434 07ad 50       		.byte	0x50
 7435 07ae 00000000 		.4byte	0
 7436 07b2 00000000 		.4byte	0
 7437              	.LLST40:
 7438 07b6 20040000 		.4byte	.LVL127
 7439 07ba 0E050000 		.4byte	.LVL150
 7440 07be 0300     		.2byte	0x3
 7441 07c0 09       		.byte	0x9
 7442 07c1 FF       		.byte	0xff
 7443 07c2 9F       		.byte	0x9f
 7444 07c3 0E050000 		.4byte	.LVL150
 7445 07c7 10050000 		.4byte	.LVL151
 7446 07cb 0100     		.2byte	0x1
 7447 07cd 53       		.byte	0x53
 7448 07ce 10050000 		.4byte	.LVL151
 7449 07d2 1E050000 		.4byte	.LVL153
 7450 07d6 0300     		.2byte	0x3
 7451 07d8 09       		.byte	0x9
 7452 07d9 FF       		.byte	0xff
 7453 07da 9F       		.byte	0x9f
 7454 07db 1E050000 		.4byte	.LVL153
 7455 07df 30050000 		.4byte	.LVL154
 7456 07e3 0100     		.2byte	0x1
 7457 07e5 53       		.byte	0x53
 7458 07e6 00000000 		.4byte	0
 7459 07ea 00000000 		.4byte	0
 7460              	.LLST41:
ARM GAS  C:\Users\crono\AppData\Local\Temp\ccd4dy0n.s 			page 145


 7461 07ee 26040000 		.4byte	.LVL128
 7462 07f2 4A040000 		.4byte	.LVL129
 7463 07f6 0100     		.2byte	0x1
 7464 07f8 50       		.byte	0x50
 7465 07f9 00000000 		.4byte	0
 7466 07fd 00000000 		.4byte	0
 7467              	.LLST42:
 7468 0801 58040000 		.4byte	.LVL130
 7469 0805 68040000 		.4byte	.LVL132
 7470 0809 0100     		.2byte	0x1
 7471 080b 53       		.byte	0x53
 7472 080c 6A040000 		.4byte	.LVL133
 7473 0810 74040000 		.4byte	.LVL134
 7474 0814 0100     		.2byte	0x1
 7475 0816 53       		.byte	0x53
 7476 0817 10050000 		.4byte	.LVL151
 7477 081b 14050000 		.4byte	.LVL152
 7478 081f 0100     		.2byte	0x1
 7479 0821 53       		.byte	0x53
 7480 0822 00000000 		.4byte	0
 7481 0826 00000000 		.4byte	0
 7482              	.LLST43:
 7483 082a D0040000 		.4byte	.LVL143
 7484 082e EC040000 		.4byte	.LVL148
 7485 0832 0100     		.2byte	0x1
 7486 0834 51       		.byte	0x51
 7487 0835 F0040000 		.4byte	.LVL149
 7488 0839 10050000 		.4byte	.LVL151
 7489 083d 0100     		.2byte	0x1
 7490 083f 51       		.byte	0x51
 7491 0840 00000000 		.4byte	0
 7492 0844 00000000 		.4byte	0
 7493              	.LLST44:
 7494 0848 D0040000 		.4byte	.LVL143
 7495 084c E8040000 		.4byte	.LVL146
 7496 0850 0100     		.2byte	0x1
 7497 0852 52       		.byte	0x52
 7498 0853 EA040000 		.4byte	.LVL147
 7499 0857 EC040000 		.4byte	.LVL148
 7500 085b 0100     		.2byte	0x1
 7501 085d 52       		.byte	0x52
 7502 085e F0040000 		.4byte	.LVL149
 7503 0862 10050000 		.4byte	.LVL151
 7504 0866 0100     		.2byte	0x1
 7505 0868 52       		.byte	0x52
 7506 0869 00000000 		.4byte	0
 7507 086d 00000000 		.4byte	0
 7508              	.LLST45:
 7509 0871 34050000 		.4byte	.LVL156
 7510 0875 58050000 		.4byte	.LVL157
 7511 0879 0100     		.2byte	0x1
 7512 087b 52       		.byte	0x52
 7513 087c 00000000 		.4byte	0
 7514 0880 00000000 		.4byte	0
 7515              	.LLST46:
 7516 0884 00000000 		.4byte	.LVL180
 7517 0888 08000000 		.4byte	.LVL181
ARM GAS  C:\Users\crono\AppData\Local\Temp\ccd4dy0n.s 			page 146


 7518 088c 0100     		.2byte	0x1
 7519 088e 50       		.byte	0x50
 7520 088f 08000000 		.4byte	.LVL181
 7521 0893 2A000000 		.4byte	.LVL184
 7522 0897 0100     		.2byte	0x1
 7523 0899 54       		.byte	0x54
 7524 089a 2A000000 		.4byte	.LVL184
 7525 089e 30000000 		.4byte	.LFE9
 7526 08a2 0400     		.2byte	0x4
 7527 08a4 F3       		.byte	0xf3
 7528 08a5 01       		.uleb128 0x1
 7529 08a6 50       		.byte	0x50
 7530 08a7 9F       		.byte	0x9f
 7531 08a8 00000000 		.4byte	0
 7532 08ac 00000000 		.4byte	0
 7533              	.LLST47:
 7534 08b0 00000000 		.4byte	.LVL180
 7535 08b4 0C000000 		.4byte	.LVL182
 7536 08b8 0100     		.2byte	0x1
 7537 08ba 51       		.byte	0x51
 7538 08bb 0C000000 		.4byte	.LVL182
 7539 08bf 0F000000 		.4byte	.LVL183-1
 7540 08c3 0100     		.2byte	0x1
 7541 08c5 50       		.byte	0x50
 7542 08c6 0F000000 		.4byte	.LVL183-1
 7543 08ca 30000000 		.4byte	.LFE9
 7544 08ce 0400     		.2byte	0x4
 7545 08d0 F3       		.byte	0xf3
 7546 08d1 01       		.uleb128 0x1
 7547 08d2 51       		.byte	0x51
 7548 08d3 9F       		.byte	0x9f
 7549 08d4 00000000 		.4byte	0
 7550 08d8 00000000 		.4byte	0
 7551              	.LLST48:
 7552 08dc 00000000 		.4byte	.LVL185
 7553 08e0 09000000 		.4byte	.LVL186-1
 7554 08e4 0100     		.2byte	0x1
 7555 08e6 50       		.byte	0x50
 7556 08e7 09000000 		.4byte	.LVL186-1
 7557 08eb AC000000 		.4byte	.LVL196
 7558 08ef 0100     		.2byte	0x1
 7559 08f1 54       		.byte	0x54
 7560 08f2 AC000000 		.4byte	.LVL196
 7561 08f6 D0000000 		.4byte	.LFE10
 7562 08fa 0400     		.2byte	0x4
 7563 08fc F3       		.byte	0xf3
 7564 08fd 01       		.uleb128 0x1
 7565 08fe 50       		.byte	0x50
 7566 08ff 9F       		.byte	0x9f
 7567 0900 00000000 		.4byte	0
 7568 0904 00000000 		.4byte	0
 7569              	.LLST49:
 7570 0908 00000000 		.4byte	.LVL185
 7571 090c 09000000 		.4byte	.LVL186-1
 7572 0910 0100     		.2byte	0x1
 7573 0912 51       		.byte	0x51
 7574 0913 09000000 		.4byte	.LVL186-1
ARM GAS  C:\Users\crono\AppData\Local\Temp\ccd4dy0n.s 			page 147


 7575 0917 D0000000 		.4byte	.LFE10
 7576 091b 0400     		.2byte	0x4
 7577 091d F3       		.byte	0xf3
 7578 091e 01       		.uleb128 0x1
 7579 091f 51       		.byte	0x51
 7580 0920 9F       		.byte	0x9f
 7581 0921 00000000 		.4byte	0
 7582 0925 00000000 		.4byte	0
 7583              	.LLST50:
 7584 0929 00000000 		.4byte	.LVL197
 7585 092d 08000000 		.4byte	.LVL198
 7586 0931 0100     		.2byte	0x1
 7587 0933 50       		.byte	0x50
 7588 0934 08000000 		.4byte	.LVL198
 7589 0938 8E000000 		.4byte	.LVL202
 7590 093c 0100     		.2byte	0x1
 7591 093e 54       		.byte	0x54
 7592 093f 8E000000 		.4byte	.LVL202
 7593 0943 98000000 		.4byte	.LFE11
 7594 0947 0400     		.2byte	0x4
 7595 0949 F3       		.byte	0xf3
 7596 094a 01       		.uleb128 0x1
 7597 094b 50       		.byte	0x50
 7598 094c 9F       		.byte	0x9f
 7599 094d 00000000 		.4byte	0
 7600 0951 00000000 		.4byte	0
 7601              	.LLST51:
 7602 0955 00000000 		.4byte	.LVL197
 7603 0959 44000000 		.4byte	.LVL199
 7604 095d 0100     		.2byte	0x1
 7605 095f 51       		.byte	0x51
 7606 0960 44000000 		.4byte	.LVL199
 7607 0964 47000000 		.4byte	.LVL200-1
 7608 0968 0100     		.2byte	0x1
 7609 096a 50       		.byte	0x50
 7610 096b 47000000 		.4byte	.LVL200-1
 7611 096f 98000000 		.4byte	.LFE11
 7612 0973 0400     		.2byte	0x4
 7613 0975 F3       		.byte	0xf3
 7614 0976 01       		.uleb128 0x1
 7615 0977 51       		.byte	0x51
 7616 0978 9F       		.byte	0x9f
 7617 0979 00000000 		.4byte	0
 7618 097d 00000000 		.4byte	0
 7619              	.LLST52:
 7620 0981 00000000 		.4byte	.LVL203
 7621 0985 08000000 		.4byte	.LVL204
 7622 0989 0100     		.2byte	0x1
 7623 098b 50       		.byte	0x50
 7624 098c 08000000 		.4byte	.LVL204
 7625 0990 84000000 		.4byte	.LVL208
 7626 0994 0100     		.2byte	0x1
 7627 0996 54       		.byte	0x54
 7628 0997 84000000 		.4byte	.LVL208
 7629 099b 8C000000 		.4byte	.LFE12
 7630 099f 0400     		.2byte	0x4
 7631 09a1 F3       		.byte	0xf3
ARM GAS  C:\Users\crono\AppData\Local\Temp\ccd4dy0n.s 			page 148


 7632 09a2 01       		.uleb128 0x1
 7633 09a3 50       		.byte	0x50
 7634 09a4 9F       		.byte	0x9f
 7635 09a5 00000000 		.4byte	0
 7636 09a9 00000000 		.4byte	0
 7637              	.LLST53:
 7638 09ad 00000000 		.4byte	.LVL203
 7639 09b1 52000000 		.4byte	.LVL205
 7640 09b5 0100     		.2byte	0x1
 7641 09b7 51       		.byte	0x51
 7642 09b8 52000000 		.4byte	.LVL205
 7643 09bc 55000000 		.4byte	.LVL206-1
 7644 09c0 0100     		.2byte	0x1
 7645 09c2 50       		.byte	0x50
 7646 09c3 55000000 		.4byte	.LVL206-1
 7647 09c7 8C000000 		.4byte	.LFE12
 7648 09cb 0400     		.2byte	0x4
 7649 09cd F3       		.byte	0xf3
 7650 09ce 01       		.uleb128 0x1
 7651 09cf 51       		.byte	0x51
 7652 09d0 9F       		.byte	0x9f
 7653 09d1 00000000 		.4byte	0
 7654 09d5 00000000 		.4byte	0
 7655              	.LLST54:
 7656 09d9 00000000 		.4byte	.LVL209
 7657 09dd 08000000 		.4byte	.LVL210
 7658 09e1 0100     		.2byte	0x1
 7659 09e3 50       		.byte	0x50
 7660 09e4 08000000 		.4byte	.LVL210
 7661 09e8 6D000000 		.4byte	.LVL212-1
 7662 09ec 0100     		.2byte	0x1
 7663 09ee 53       		.byte	0x53
 7664 09ef 6D000000 		.4byte	.LVL212-1
 7665 09f3 90000000 		.4byte	.LFE13
 7666 09f7 0400     		.2byte	0x4
 7667 09f9 F3       		.byte	0xf3
 7668 09fa 01       		.uleb128 0x1
 7669 09fb 50       		.byte	0x50
 7670 09fc 9F       		.byte	0x9f
 7671 09fd 00000000 		.4byte	0
 7672 0a01 00000000 		.4byte	0
 7673              	.LLST55:
 7674 0a05 00000000 		.4byte	.LVL209
 7675 0a09 6A000000 		.4byte	.LVL211
 7676 0a0d 0100     		.2byte	0x1
 7677 0a0f 51       		.byte	0x51
 7678 0a10 6A000000 		.4byte	.LVL211
 7679 0a14 6D000000 		.4byte	.LVL212-1
 7680 0a18 0100     		.2byte	0x1
 7681 0a1a 50       		.byte	0x50
 7682 0a1b 6D000000 		.4byte	.LVL212-1
 7683 0a1f 90000000 		.4byte	.LFE13
 7684 0a23 0400     		.2byte	0x4
 7685 0a25 F3       		.byte	0xf3
 7686 0a26 01       		.uleb128 0x1
 7687 0a27 51       		.byte	0x51
 7688 0a28 9F       		.byte	0x9f
ARM GAS  C:\Users\crono\AppData\Local\Temp\ccd4dy0n.s 			page 149


 7689 0a29 00000000 		.4byte	0
 7690 0a2d 00000000 		.4byte	0
 7691              	.LLST56:
 7692 0a31 00000000 		.4byte	.LVL214
 7693 0a35 08000000 		.4byte	.LVL215
 7694 0a39 0100     		.2byte	0x1
 7695 0a3b 50       		.byte	0x50
 7696 0a3c 08000000 		.4byte	.LVL215
 7697 0a40 60000000 		.4byte	.LVL219
 7698 0a44 0100     		.2byte	0x1
 7699 0a46 54       		.byte	0x54
 7700 0a47 60000000 		.4byte	.LVL219
 7701 0a4b 68000000 		.4byte	.LFE14
 7702 0a4f 0400     		.2byte	0x4
 7703 0a51 F3       		.byte	0xf3
 7704 0a52 01       		.uleb128 0x1
 7705 0a53 50       		.byte	0x50
 7706 0a54 9F       		.byte	0x9f
 7707 0a55 00000000 		.4byte	0
 7708 0a59 00000000 		.4byte	0
 7709              	.LLST57:
 7710 0a5d 00000000 		.4byte	.LVL214
 7711 0a61 2E000000 		.4byte	.LVL216
 7712 0a65 0100     		.2byte	0x1
 7713 0a67 51       		.byte	0x51
 7714 0a68 2E000000 		.4byte	.LVL216
 7715 0a6c 31000000 		.4byte	.LVL217-1
 7716 0a70 0100     		.2byte	0x1
 7717 0a72 50       		.byte	0x50
 7718 0a73 31000000 		.4byte	.LVL217-1
 7719 0a77 68000000 		.4byte	.LFE14
 7720 0a7b 0400     		.2byte	0x4
 7721 0a7d F3       		.byte	0xf3
 7722 0a7e 01       		.uleb128 0x1
 7723 0a7f 51       		.byte	0x51
 7724 0a80 9F       		.byte	0x9f
 7725 0a81 00000000 		.4byte	0
 7726 0a85 00000000 		.4byte	0
 7727              	.LLST58:
 7728 0a89 00000000 		.4byte	.LVL220
 7729 0a8d 08000000 		.4byte	.LVL221
 7730 0a91 0100     		.2byte	0x1
 7731 0a93 50       		.byte	0x50
 7732 0a94 08000000 		.4byte	.LVL221
 7733 0a98 39000000 		.4byte	.LVL223-1
 7734 0a9c 0100     		.2byte	0x1
 7735 0a9e 53       		.byte	0x53
 7736 0a9f 39000000 		.4byte	.LVL223-1
 7737 0aa3 5C000000 		.4byte	.LFE15
 7738 0aa7 0400     		.2byte	0x4
 7739 0aa9 F3       		.byte	0xf3
 7740 0aaa 01       		.uleb128 0x1
 7741 0aab 50       		.byte	0x50
 7742 0aac 9F       		.byte	0x9f
 7743 0aad 00000000 		.4byte	0
 7744 0ab1 00000000 		.4byte	0
 7745              	.LLST59:
ARM GAS  C:\Users\crono\AppData\Local\Temp\ccd4dy0n.s 			page 150


 7746 0ab5 00000000 		.4byte	.LVL220
 7747 0ab9 36000000 		.4byte	.LVL222
 7748 0abd 0100     		.2byte	0x1
 7749 0abf 51       		.byte	0x51
 7750 0ac0 36000000 		.4byte	.LVL222
 7751 0ac4 39000000 		.4byte	.LVL223-1
 7752 0ac8 0100     		.2byte	0x1
 7753 0aca 50       		.byte	0x50
 7754 0acb 39000000 		.4byte	.LVL223-1
 7755 0acf 5C000000 		.4byte	.LFE15
 7756 0ad3 0400     		.2byte	0x4
 7757 0ad5 F3       		.byte	0xf3
 7758 0ad6 01       		.uleb128 0x1
 7759 0ad7 51       		.byte	0x51
 7760 0ad8 9F       		.byte	0x9f
 7761 0ad9 00000000 		.4byte	0
 7762 0add 00000000 		.4byte	0
 7763              	.LLST60:
 7764 0ae1 00000000 		.4byte	.LVL225
 7765 0ae5 08000000 		.4byte	.LVL226
 7766 0ae9 0100     		.2byte	0x1
 7767 0aeb 50       		.byte	0x50
 7768 0aec 08000000 		.4byte	.LVL226
 7769 0af0 79000000 		.4byte	.LVL228-1
 7770 0af4 0100     		.2byte	0x1
 7771 0af6 53       		.byte	0x53
 7772 0af7 79000000 		.4byte	.LVL228-1
 7773 0afb 9C000000 		.4byte	.LFE16
 7774 0aff 0400     		.2byte	0x4
 7775 0b01 F3       		.byte	0xf3
 7776 0b02 01       		.uleb128 0x1
 7777 0b03 50       		.byte	0x50
 7778 0b04 9F       		.byte	0x9f
 7779 0b05 00000000 		.4byte	0
 7780 0b09 00000000 		.4byte	0
 7781              	.LLST61:
 7782 0b0d 00000000 		.4byte	.LVL225
 7783 0b11 76000000 		.4byte	.LVL227
 7784 0b15 0100     		.2byte	0x1
 7785 0b17 51       		.byte	0x51
 7786 0b18 76000000 		.4byte	.LVL227
 7787 0b1c 79000000 		.4byte	.LVL228-1
 7788 0b20 0100     		.2byte	0x1
 7789 0b22 50       		.byte	0x50
 7790 0b23 79000000 		.4byte	.LVL228-1
 7791 0b27 9C000000 		.4byte	.LFE16
 7792 0b2b 0400     		.2byte	0x4
 7793 0b2d F3       		.byte	0xf3
 7794 0b2e 01       		.uleb128 0x1
 7795 0b2f 51       		.byte	0x51
 7796 0b30 9F       		.byte	0x9f
 7797 0b31 00000000 		.4byte	0
 7798 0b35 00000000 		.4byte	0
 7799              	.LLST62:
 7800 0b39 00000000 		.4byte	.LVL230
 7801 0b3d 08000000 		.4byte	.LVL231
 7802 0b41 0100     		.2byte	0x1
ARM GAS  C:\Users\crono\AppData\Local\Temp\ccd4dy0n.s 			page 151


 7803 0b43 50       		.byte	0x50
 7804 0b44 08000000 		.4byte	.LVL231
 7805 0b48 92000000 		.4byte	.LVL235
 7806 0b4c 0100     		.2byte	0x1
 7807 0b4e 54       		.byte	0x54
 7808 0b4f 92000000 		.4byte	.LVL235
 7809 0b53 9C000000 		.4byte	.LFE17
 7810 0b57 0400     		.2byte	0x4
 7811 0b59 F3       		.byte	0xf3
 7812 0b5a 01       		.uleb128 0x1
 7813 0b5b 50       		.byte	0x50
 7814 0b5c 9F       		.byte	0x9f
 7815 0b5d 00000000 		.4byte	0
 7816 0b61 00000000 		.4byte	0
 7817              	.LLST63:
 7818 0b65 00000000 		.4byte	.LVL230
 7819 0b69 3C000000 		.4byte	.LVL232
 7820 0b6d 0100     		.2byte	0x1
 7821 0b6f 51       		.byte	0x51
 7822 0b70 3C000000 		.4byte	.LVL232
 7823 0b74 3F000000 		.4byte	.LVL233-1
 7824 0b78 0100     		.2byte	0x1
 7825 0b7a 50       		.byte	0x50
 7826 0b7b 3F000000 		.4byte	.LVL233-1
 7827 0b7f 9C000000 		.4byte	.LFE17
 7828 0b83 0400     		.2byte	0x4
 7829 0b85 F3       		.byte	0xf3
 7830 0b86 01       		.uleb128 0x1
 7831 0b87 51       		.byte	0x51
 7832 0b88 9F       		.byte	0x9f
 7833 0b89 00000000 		.4byte	0
 7834 0b8d 00000000 		.4byte	0
 7835              	.LLST64:
 7836 0b91 00000000 		.4byte	.LVL236
 7837 0b95 08000000 		.4byte	.LVL237
 7838 0b99 0100     		.2byte	0x1
 7839 0b9b 50       		.byte	0x50
 7840 0b9c 08000000 		.4byte	.LVL237
 7841 0ba0 6A000000 		.4byte	.LVL241
 7842 0ba4 0100     		.2byte	0x1
 7843 0ba6 54       		.byte	0x54
 7844 0ba7 6A000000 		.4byte	.LVL241
 7845 0bab 74000000 		.4byte	.LFE18
 7846 0baf 0400     		.2byte	0x4
 7847 0bb1 F3       		.byte	0xf3
 7848 0bb2 01       		.uleb128 0x1
 7849 0bb3 50       		.byte	0x50
 7850 0bb4 9F       		.byte	0x9f
 7851 0bb5 00000000 		.4byte	0
 7852 0bb9 00000000 		.4byte	0
 7853              	.LLST65:
 7854 0bbd 00000000 		.4byte	.LVL236
 7855 0bc1 2C000000 		.4byte	.LVL238
 7856 0bc5 0100     		.2byte	0x1
 7857 0bc7 51       		.byte	0x51
 7858 0bc8 2C000000 		.4byte	.LVL238
 7859 0bcc 2F000000 		.4byte	.LVL239-1
ARM GAS  C:\Users\crono\AppData\Local\Temp\ccd4dy0n.s 			page 152


 7860 0bd0 0100     		.2byte	0x1
 7861 0bd2 50       		.byte	0x50
 7862 0bd3 2F000000 		.4byte	.LVL239-1
 7863 0bd7 74000000 		.4byte	.LFE18
 7864 0bdb 0400     		.2byte	0x4
 7865 0bdd F3       		.byte	0xf3
 7866 0bde 01       		.uleb128 0x1
 7867 0bdf 51       		.byte	0x51
 7868 0be0 9F       		.byte	0x9f
 7869 0be1 00000000 		.4byte	0
 7870 0be5 00000000 		.4byte	0
 7871              	.LLST66:
 7872 0be9 00000000 		.4byte	.LVL242
 7873 0bed 20000000 		.4byte	.LVL245
 7874 0bf1 0100     		.2byte	0x1
 7875 0bf3 50       		.byte	0x50
 7876 0bf4 20000000 		.4byte	.LVL245
 7877 0bf8 82000000 		.4byte	.LVL249
 7878 0bfc 0100     		.2byte	0x1
 7879 0bfe 56       		.byte	0x56
 7880 0bff 82000000 		.4byte	.LVL249
 7881 0c03 84000000 		.4byte	.LVL250
 7882 0c07 0100     		.2byte	0x1
 7883 0c09 50       		.byte	0x50
 7884 0c0a 84000000 		.4byte	.LVL250
 7885 0c0e 86000000 		.4byte	.LFE19
 7886 0c12 0400     		.2byte	0x4
 7887 0c14 F3       		.byte	0xf3
 7888 0c15 01       		.uleb128 0x1
 7889 0c16 50       		.byte	0x50
 7890 0c17 9F       		.byte	0x9f
 7891 0c18 00000000 		.4byte	0
 7892 0c1c 00000000 		.4byte	0
 7893              	.LLST67:
 7894 0c20 00000000 		.4byte	.LVL242
 7895 0c24 1E000000 		.4byte	.LVL244
 7896 0c28 0100     		.2byte	0x1
 7897 0c2a 51       		.byte	0x51
 7898 0c2b 1E000000 		.4byte	.LVL244
 7899 0c2f 82000000 		.4byte	.LVL249
 7900 0c33 0100     		.2byte	0x1
 7901 0c35 55       		.byte	0x55
 7902 0c36 82000000 		.4byte	.LVL249
 7903 0c3a 86000000 		.4byte	.LFE19
 7904 0c3e 0100     		.2byte	0x1
 7905 0c40 51       		.byte	0x51
 7906 0c41 00000000 		.4byte	0
 7907 0c45 00000000 		.4byte	0
 7908              	.LLST68:
 7909 0c49 00000000 		.4byte	.LVL242
 7910 0c4d 1C000000 		.4byte	.LVL243
 7911 0c51 0100     		.2byte	0x1
 7912 0c53 52       		.byte	0x52
 7913 0c54 1C000000 		.4byte	.LVL243
 7914 0c58 82000000 		.4byte	.LVL249
 7915 0c5c 0100     		.2byte	0x1
 7916 0c5e 54       		.byte	0x54
ARM GAS  C:\Users\crono\AppData\Local\Temp\ccd4dy0n.s 			page 153


 7917 0c5f 82000000 		.4byte	.LVL249
 7918 0c63 86000000 		.4byte	.LFE19
 7919 0c67 0100     		.2byte	0x1
 7920 0c69 52       		.byte	0x52
 7921 0c6a 00000000 		.4byte	0
 7922 0c6e 00000000 		.4byte	0
 7923              	.LLST69:
 7924 0c72 60000000 		.4byte	.LVL247
 7925 0c76 7E000000 		.4byte	.LVL248
 7926 0c7a 0100     		.2byte	0x1
 7927 0c7c 50       		.byte	0x50
 7928 0c7d 00000000 		.4byte	0
 7929 0c81 00000000 		.4byte	0
 7930              		.section	.debug_aranges,"",%progbits
 7931 0000 8C000000 		.4byte	0x8c
 7932 0004 0200     		.2byte	0x2
 7933 0006 00000000 		.4byte	.Ldebug_info0
 7934 000a 04       		.byte	0x4
 7935 000b 00       		.byte	0
 7936 000c 0000     		.2byte	0
 7937 000e 0000     		.2byte	0
 7938 0010 00000000 		.4byte	.LFB4
 7939 0014 30000000 		.4byte	.LFE4-.LFB4
 7940 0018 00000000 		.4byte	.LFB5
 7941 001c 1C000000 		.4byte	.LFE5-.LFB5
 7942 0020 00000000 		.4byte	.LFB6
 7943 0024 B0000000 		.4byte	.LFE6-.LFB6
 7944 0028 00000000 		.4byte	.LFB8
 7945 002c B8050000 		.4byte	.LFE8-.LFB8
 7946 0030 00000000 		.4byte	.LFB9
 7947 0034 30000000 		.4byte	.LFE9-.LFB9
 7948 0038 00000000 		.4byte	.LFB10
 7949 003c D0000000 		.4byte	.LFE10-.LFB10
 7950 0040 00000000 		.4byte	.LFB11
 7951 0044 98000000 		.4byte	.LFE11-.LFB11
 7952 0048 00000000 		.4byte	.LFB12
 7953 004c 8C000000 		.4byte	.LFE12-.LFB12
 7954 0050 00000000 		.4byte	.LFB13
 7955 0054 90000000 		.4byte	.LFE13-.LFB13
 7956 0058 00000000 		.4byte	.LFB14
 7957 005c 68000000 		.4byte	.LFE14-.LFB14
 7958 0060 00000000 		.4byte	.LFB15
 7959 0064 5C000000 		.4byte	.LFE15-.LFB15
 7960 0068 00000000 		.4byte	.LFB16
 7961 006c 9C000000 		.4byte	.LFE16-.LFB16
 7962 0070 00000000 		.4byte	.LFB17
 7963 0074 9C000000 		.4byte	.LFE17-.LFB17
 7964 0078 00000000 		.4byte	.LFB18
 7965 007c 74000000 		.4byte	.LFE18-.LFB18
 7966 0080 00000000 		.4byte	.LFB19
 7967 0084 86000000 		.4byte	.LFE19-.LFB19
 7968 0088 00000000 		.4byte	0
 7969 008c 00000000 		.4byte	0
 7970              		.section	.debug_ranges,"",%progbits
 7971              	.Ldebug_ranges0:
 7972 0000 38000000 		.4byte	.LBB37
 7973 0004 60000000 		.4byte	.LBE37
ARM GAS  C:\Users\crono\AppData\Local\Temp\ccd4dy0n.s 			page 154


 7974 0008 86000000 		.4byte	.LBB38
 7975 000c 92000000 		.4byte	.LBE38
 7976 0010 00000000 		.4byte	0
 7977 0014 00000000 		.4byte	0
 7978 0018 18000000 		.4byte	.LBB39
 7979 001c D6010000 		.4byte	.LBE39
 7980 0020 D8010000 		.4byte	.LBB83
 7981 0024 96020000 		.4byte	.LBE83
 7982 0028 9A020000 		.4byte	.LBB84
 7983 002c FC030000 		.4byte	.LBE84
 7984 0030 00040000 		.4byte	.LBB85
 7985 0034 10050000 		.4byte	.LBE85
 7986 0038 14050000 		.4byte	.LBB86
 7987 003c 6C050000 		.4byte	.LBE86
 7988 0040 00000000 		.4byte	0
 7989 0044 00000000 		.4byte	0
 7990 0048 4A010000 		.4byte	.LBB46
 7991 004c D6010000 		.4byte	.LBE46
 7992 0050 D8010000 		.4byte	.LBB50
 7993 0054 5E020000 		.4byte	.LBE50
 7994 0058 00000000 		.4byte	0
 7995 005c 00000000 		.4byte	0
 7996 0060 60020000 		.4byte	.LBB51
 7997 0064 96020000 		.4byte	.LBE51
 7998 0068 9A020000 		.4byte	.LBB55
 7999 006c A6020000 		.4byte	.LBE55
 8000 0070 00000000 		.4byte	0
 8001 0074 00000000 		.4byte	0
 8002 0078 50030000 		.4byte	.LBB63
 8003 007c FC030000 		.4byte	.LBE63
 8004 0080 00040000 		.4byte	.LBB70
 8005 0084 14040000 		.4byte	.LBE70
 8006 0088 00000000 		.4byte	0
 8007 008c 00000000 		.4byte	0
 8008 0090 90030000 		.4byte	.LBB66
 8009 0094 A0030000 		.4byte	.LBE66
 8010 0098 A2030000 		.4byte	.LBB69
 8011 009c FC030000 		.4byte	.LBE69
 8012 00a0 00000000 		.4byte	0
 8013 00a4 00000000 		.4byte	0
 8014 00a8 90030000 		.4byte	.LBB67
 8015 00ac A0030000 		.4byte	.LBE67
 8016 00b0 A2030000 		.4byte	.LBB68
 8017 00b4 A6030000 		.4byte	.LBE68
 8018 00b8 00000000 		.4byte	0
 8019 00bc 00000000 		.4byte	0
 8020 00c0 16040000 		.4byte	.LBB71
 8021 00c4 10050000 		.4byte	.LBE71
 8022 00c8 14050000 		.4byte	.LBB80
 8023 00cc 2E050000 		.4byte	.LBE80
 8024 00d0 00000000 		.4byte	0
 8025 00d4 00000000 		.4byte	0
 8026 00d8 58040000 		.4byte	.LBB74
 8027 00dc 68040000 		.4byte	.LBE74
 8028 00e0 6A040000 		.4byte	.LBB79
 8029 00e4 10050000 		.4byte	.LBE79
 8030 00e8 00000000 		.4byte	0
ARM GAS  C:\Users\crono\AppData\Local\Temp\ccd4dy0n.s 			page 155


 8031 00ec 00000000 		.4byte	0
 8032 00f0 58040000 		.4byte	.LBB75
 8033 00f4 68040000 		.4byte	.LBE75
 8034 00f8 6A040000 		.4byte	.LBB76
 8035 00fc 6E040000 		.4byte	.LBE76
 8036 0100 00000000 		.4byte	0
 8037 0104 00000000 		.4byte	0
 8038 0108 D0040000 		.4byte	.LBB77
 8039 010c EC040000 		.4byte	.LBE77
 8040 0110 F0040000 		.4byte	.LBB78
 8041 0114 0E050000 		.4byte	.LBE78
 8042 0118 00000000 		.4byte	0
 8043 011c 00000000 		.4byte	0
 8044 0120 00000000 		.4byte	.LFB4
 8045 0124 30000000 		.4byte	.LFE4
 8046 0128 00000000 		.4byte	.LFB5
 8047 012c 1C000000 		.4byte	.LFE5
 8048 0130 00000000 		.4byte	.LFB6
 8049 0134 B0000000 		.4byte	.LFE6
 8050 0138 00000000 		.4byte	.LFB8
 8051 013c B8050000 		.4byte	.LFE8
 8052 0140 00000000 		.4byte	.LFB9
 8053 0144 30000000 		.4byte	.LFE9
 8054 0148 00000000 		.4byte	.LFB10
 8055 014c D0000000 		.4byte	.LFE10
 8056 0150 00000000 		.4byte	.LFB11
 8057 0154 98000000 		.4byte	.LFE11
 8058 0158 00000000 		.4byte	.LFB12
 8059 015c 8C000000 		.4byte	.LFE12
 8060 0160 00000000 		.4byte	.LFB13
 8061 0164 90000000 		.4byte	.LFE13
 8062 0168 00000000 		.4byte	.LFB14
 8063 016c 68000000 		.4byte	.LFE14
 8064 0170 00000000 		.4byte	.LFB15
 8065 0174 5C000000 		.4byte	.LFE15
 8066 0178 00000000 		.4byte	.LFB16
 8067 017c 9C000000 		.4byte	.LFE16
 8068 0180 00000000 		.4byte	.LFB17
 8069 0184 9C000000 		.4byte	.LFE17
 8070 0188 00000000 		.4byte	.LFB18
 8071 018c 74000000 		.4byte	.LFE18
 8072 0190 00000000 		.4byte	.LFB19
 8073 0194 86000000 		.4byte	.LFE19
 8074 0198 00000000 		.4byte	0
 8075 019c 00000000 		.4byte	0
 8076              		.section	.debug_line,"",%progbits
 8077              	.Ldebug_line0:
 8078 0000 18060000 		.section	.debug_str,"MS",%progbits,1
 8078      02007D02 
 8078      00000201 
 8078      FB0E0D00 
 8078      01010101 
 8079              	.LASF40:
 8080 0000 4D494E4D 		.ascii	"MINMEA_SENTENCE_GLL\000"
 8080      45415F53 
 8080      454E5445 
 8080      4E43455F 
ARM GAS  C:\Users\crono\AppData\Local\Temp\ccd4dy0n.s 			page 156


 8080      474C4C00 
 8081              	.LASF44:
 8082 0014 4D494E4D 		.ascii	"MINMEA_SENTENCE_ZDA\000"
 8082      45415F53 
 8082      454E5445 
 8082      4E43455F 
 8082      5A444100 
 8083              	.LASF97:
 8084 0028 73617473 		.ascii	"sats\000"
 8084      00
 8085              	.LASF119:
 8086 002d 6D696E6D 		.ascii	"minmea_check\000"
 8086      65615F63 
 8086      6865636B 
 8086      00
 8087              	.LASF140:
 8088 003a 73417272 		.ascii	"sArr\000"
 8088      00
 8089              	.LASF163:
 8090 003f 7374726C 		.ascii	"strlen\000"
 8090      656E00
 8091              	.LASF100:
 8092 0046 6D696E6D 		.ascii	"minmea_sat_info\000"
 8092      65615F73 
 8092      61745F69 
 8092      6E666F00 
 8093              	.LASF126:
 8094 0056 666F726D 		.ascii	"format\000"
 8094      617400
 8095              	.LASF31:
 8096 005d 746D5F79 		.ascii	"tm_yday\000"
 8096      64617900 
 8097              	.LASF74:
 8098 0065 64677073 		.ascii	"dgps_age\000"
 8098      5F616765 
 8098      00
 8099              	.LASF35:
 8100 006e 4D494E4D 		.ascii	"MINMEA_INVALID\000"
 8100      45415F49 
 8100      4E56414C 
 8100      494400
 8101              	.LASF11:
 8102 007d 756E7369 		.ascii	"unsigned int\000"
 8102      676E6564 
 8102      20696E74 
 8102      00
 8103              	.LASF101:
 8104 008a 656C6576 		.ascii	"elevation\000"
 8104      6174696F 
 8104      6E00
 8105              	.LASF133:
 8106 0094 656E6470 		.ascii	"endptr\000"
 8106      747200
 8107              	.LASF62:
 8108 009b 636F7572 		.ascii	"course\000"
 8108      736500
 8109              	.LASF157:
ARM GAS  C:\Users\crono\AppData\Local\Temp\ccd4dy0n.s 			page 157


 8110 00a2 635F6B6E 		.ascii	"c_knots\000"
 8110      6F747300 
 8111              	.LASF27:
 8112 00aa 746D5F6D 		.ascii	"tm_mday\000"
 8112      64617900 
 8113              	.LASF61:
 8114 00b2 73706565 		.ascii	"speed\000"
 8114      6400
 8115              	.LASF10:
 8116 00b8 5F5F696E 		.ascii	"__int_least32_t\000"
 8116      745F6C65 
 8116      61737433 
 8116      325F7400 
 8117              	.LASF45:
 8118 00c8 6D696E6D 		.ascii	"minmea_float\000"
 8118      65615F66 
 8118      6C6F6174 
 8118      00
 8119              	.LASF86:
 8120 00d5 6D6F6465 		.ascii	"mode\000"
 8120      00
 8121              	.LASF66:
 8122 00da 6D696E6D 		.ascii	"minmea_sentence_gga\000"
 8122      65615F73 
 8122      656E7465 
 8122      6E63655F 
 8122      67676100 
 8123              	.LASF158:
 8124 00ee 635F6B70 		.ascii	"c_kph\000"
 8124      6800
 8125              	.LASF151:
 8126 00f4 6D696E6D 		.ascii	"minmea_parse_gll\000"
 8126      65615F70 
 8126      61727365 
 8126      5F676C6C 
 8126      00
 8127              	.LASF160:
 8128 0105 6D696E6D 		.ascii	"minmea_parse_zda\000"
 8128      65615F70 
 8128      61727365 
 8128      5F7A6461 
 8128      00
 8129              	.LASF132:
 8130 0116 64696769 		.ascii	"digit\000"
 8130      7400
 8131              	.LASF75:
 8132 011c 6D696E6D 		.ascii	"minmea_sentence_id\000"
 8132      65615F73 
 8132      656E7465 
 8132      6E63655F 
 8132      696400
 8133              	.LASF68:
 8134 012f 73617465 		.ascii	"satellites_tracked\000"
 8134      6C6C6974 
 8134      65735F74 
 8134      7261636B 
 8134      656400
ARM GAS  C:\Users\crono\AppData\Local\Temp\ccd4dy0n.s 			page 158


 8135              	.LASF93:
 8136 0142 6C6F6E67 		.ascii	"longitude_error_deviation\000"
 8136      69747564 
 8136      655F6572 
 8136      726F725F 
 8136      64657669 
 8137              	.LASF117:
 8138 015c 73656E74 		.ascii	"sentence\000"
 8138      656E6365 
 8138      00
 8139              	.LASF145:
 8140 0165 76616C69 		.ascii	"validity\000"
 8140      64697479 
 8140      00
 8141              	.LASF17:
 8142 016e 75696E74 		.ascii	"uint32_t\000"
 8142      33325F74 
 8142      00
 8143              	.LASF28:
 8144 0177 746D5F6D 		.ascii	"tm_mon\000"
 8144      6F6E00
 8145              	.LASF34:
 8146 017e 666C6F61 		.ascii	"float\000"
 8146      7400
 8147              	.LASF94:
 8148 0184 616C7469 		.ascii	"altitude_error_deviation\000"
 8148      74756465 
 8148      5F657272 
 8148      6F725F64 
 8148      65766961 
 8149              	.LASF121:
 8150 019d 63686563 		.ascii	"checksum\000"
 8150      6B73756D 
 8150      00
 8151              	.LASF129:
 8152 01a6 6669656C 		.ascii	"field\000"
 8152      6400
 8153              	.LASF127:
 8154 01ac 72657375 		.ascii	"result\000"
 8154      6C7400
 8155              	.LASF148:
 8156 01b3 76617269 		.ascii	"variation_direction\000"
 8156      6174696F 
 8156      6E5F6469 
 8156      72656374 
 8156      696F6E00 
 8157              	.LASF98:
 8158 01c7 70646F70 		.ascii	"pdop\000"
 8158      00
 8159              	.LASF155:
 8160 01cc 635F7472 		.ascii	"c_true\000"
 8160      756500
 8161              	.LASF9:
 8162 01d3 6C6F6E67 		.ascii	"long long unsigned int\000"
 8162      206C6F6E 
 8162      6720756E 
 8162      7369676E 
ARM GAS  C:\Users\crono\AppData\Local\Temp\ccd4dy0n.s 			page 159


 8162      65642069 
 8163              	.LASF109:
 8164 01ea 6D61676E 		.ascii	"magnetic_track_degrees\000"
 8164      65746963 
 8164      5F747261 
 8164      636B5F64 
 8164      65677265 
 8165              	.LASF57:
 8166 0201 74696D65 		.ascii	"time\000"
 8166      00
 8167              	.LASF123:
 8168 0206 6C6F7765 		.ascii	"lower\000"
 8168      7200
 8169              	.LASF46:
 8170 020c 76616C75 		.ascii	"value\000"
 8170      6500
 8171              	.LASF36:
 8172 0212 4D494E4D 		.ascii	"MINMEA_UNKNOWN\000"
 8172      45415F55 
 8172      4E4B4E4F 
 8172      574E00
 8173              	.LASF161:
 8174 0221 6D696E6D 		.ascii	"minmea_gettime\000"
 8174      65615F67 
 8174      65747469 
 8174      6D6500
 8175              	.LASF167:
 8176 0230 474E5520 		.ascii	"GNU C11 5.4.1 20160609 (release) [ARM/embedded-5-br"
 8176      43313120 
 8176      352E342E 
 8176      31203230 
 8176      31363036 
 8177 0263 616E6368 		.ascii	"anch revision 237715] -mcpu=cortex-m3 -mthumb -g -O"
 8177      20726576 
 8177      6973696F 
 8177      6E203233 
 8177      37373135 
 8178 0296 67202D66 		.ascii	"g -ffunction-sections -ffat-lto-objects\000"
 8178      66756E63 
 8178      74696F6E 
 8178      2D736563 
 8178      74696F6E 
 8179              	.LASF13:
 8180 02be 5F5F676E 		.ascii	"__gnuc_va_list\000"
 8180      75635F76 
 8180      615F6C69 
 8180      737400
 8181              	.LASF22:
 8182 02cd 74765F6E 		.ascii	"tv_nsec\000"
 8182      73656300 
 8183              	.LASF69:
 8184 02d5 68646F70 		.ascii	"hdop\000"
 8184      00
 8185              	.LASF131:
 8186 02da 7369676E 		.ascii	"sign\000"
 8186      00
 8187              	.LASF146:
ARM GAS  C:\Users\crono\AppData\Local\Temp\ccd4dy0n.s 			page 160


 8188 02df 6C617469 		.ascii	"latitude_direction\000"
 8188      74756465 
 8188      5F646972 
 8188      65637469 
 8188      6F6E00
 8189              	.LASF110:
 8190 02f2 73706565 		.ascii	"speed_knots\000"
 8190      645F6B6E 
 8190      6F747300 
 8191              	.LASF159:
 8192 02fe 635F6661 		.ascii	"c_faa_mode\000"
 8192      615F6D6F 
 8192      646500
 8193              	.LASF65:
 8194 0309 5F426F6F 		.ascii	"_Bool\000"
 8194      6C00
 8195              	.LASF49:
 8196 030f 6D6F6E74 		.ascii	"month\000"
 8196      6800
 8197              	.LASF91:
 8198 0315 73656D69 		.ascii	"semi_major_orientation\000"
 8198      5F6D616A 
 8198      6F725F6F 
 8198      7269656E 
 8198      74617469 
 8199              	.LASF77:
 8200 032c 4D494E4D 		.ascii	"MINMEA_FAA_MODE_AUTONOMOUS\000"
 8200      45415F46 
 8200      41415F4D 
 8200      4F44455F 
 8200      4155544F 
 8201              	.LASF59:
 8202 0347 6C617469 		.ascii	"latitude\000"
 8202      74756465 
 8202      00
 8203              	.LASF78:
 8204 0350 4D494E4D 		.ascii	"MINMEA_FAA_MODE_DIFFERENTIAL\000"
 8204      45415F46 
 8204      41415F4D 
 8204      4F44455F 
 8204      44494646 
 8205              	.LASF60:
 8206 036d 6C6F6E67 		.ascii	"longitude\000"
 8206      69747564 
 8206      6500
 8207              	.LASF20:
 8208 0377 74696D65 		.ascii	"timespec\000"
 8208      73706563 
 8208      00
 8209              	.LASF15:
 8210 0380 63686172 		.ascii	"char\000"
 8210      00
 8211              	.LASF64:
 8212 0385 76617269 		.ascii	"variation\000"
 8212      6174696F 
 8212      6E00
 8213              	.LASF37:
ARM GAS  C:\Users\crono\AppData\Local\Temp\ccd4dy0n.s 			page 161


 8214 038f 4D494E4D 		.ascii	"MINMEA_SENTENCE_RMC\000"
 8214      45415F53 
 8214      454E5445 
 8214      4E43455F 
 8214      524D4300 
 8215              	.LASF92:
 8216 03a3 6C617469 		.ascii	"latitude_error_deviation\000"
 8216      74756465 
 8216      5F657272 
 8216      6F725F64 
 8216      65766961 
 8217              	.LASF88:
 8218 03bc 726D735F 		.ascii	"rms_deviation\000"
 8218      64657669 
 8218      6174696F 
 8218      6E00
 8219              	.LASF29:
 8220 03ca 746D5F79 		.ascii	"tm_year\000"
 8220      65617200 
 8221              	.LASF76:
 8222 03d2 6D696E6D 		.ascii	"minmea_faa_mode\000"
 8222      65615F66 
 8222      61615F6D 
 8222      6F646500 
 8223              	.LASF104:
 8224 03e2 746F7461 		.ascii	"total_msgs\000"
 8224      6C5F6D73 
 8224      677300
 8225              	.LASF137:
 8226 03ed 74696D65 		.ascii	"time_\000"
 8226      5F00
 8227              	.LASF142:
 8228 03f3 74616C6B 		.ascii	"talker\000"
 8228      657200
 8229              	.LASF63:
 8230 03fa 64617465 		.ascii	"date\000"
 8230      00
 8231              	.LASF39:
 8232 03ff 4D494E4D 		.ascii	"MINMEA_SENTENCE_GSA\000"
 8232      45415F53 
 8232      454E5445 
 8232      4E43455F 
 8232      47534100 
 8233              	.LASF16:
 8234 0413 75696E74 		.ascii	"uint8_t\000"
 8234      385F7400 
 8235              	.LASF85:
 8236 041b 73746174 		.ascii	"status\000"
 8236      757300
 8237              	.LASF18:
 8238 0422 74696D65 		.ascii	"time_t\000"
 8238      5F7400
 8239              	.LASF41:
 8240 0429 4D494E4D 		.ascii	"MINMEA_SENTENCE_GST\000"
 8240      45415F53 
 8240      454E5445 
 8240      4E43455F 
ARM GAS  C:\Users\crono\AppData\Local\Temp\ccd4dy0n.s 			page 162


 8240      47535400 
 8241              	.LASF42:
 8242 043d 4D494E4D 		.ascii	"MINMEA_SENTENCE_GSV\000"
 8242      45415F53 
 8242      454E5445 
 8242      4E43455F 
 8242      47535600 
 8243              	.LASF43:
 8244 0451 4D494E4D 		.ascii	"MINMEA_SENTENCE_VTG\000"
 8244      45415F53 
 8244      454E5445 
 8244      4E43455F 
 8244      56544700 
 8245              	.LASF84:
 8246 0465 6D696E6D 		.ascii	"minmea_sentence_gll\000"
 8246      65615F73 
 8246      656E7465 
 8246      6E63655F 
 8246      676C6C00 
 8247              	.LASF113:
 8248 0479 6D696E6D 		.ascii	"minmea_sentence_zda\000"
 8248      65615F73 
 8248      656E7465 
 8248      6E63655F 
 8248      7A646100 
 8249              	.LASF90:
 8250 048d 73656D69 		.ascii	"semi_minor_deviation\000"
 8250      5F6D696E 
 8250      6F725F64 
 8250      65766961 
 8250      74696F6E 
 8251              	.LASF116:
 8252 04a2 76615F6C 		.ascii	"va_list\000"
 8252      69737400 
 8253              	.LASF8:
 8254 04aa 6C6F6E67 		.ascii	"long long int\000"
 8254      206C6F6E 
 8254      6720696E 
 8254      7400
 8255              	.LASF58:
 8256 04b8 76616C69 		.ascii	"valid\000"
 8256      6400
 8257              	.LASF139:
 8258 04be 69417272 		.ascii	"iArr\000"
 8258      00
 8259              	.LASF124:
 8260 04c3 65787065 		.ascii	"expected\000"
 8260      63746564 
 8260      00
 8261              	.LASF80:
 8262 04cc 4D494E4D 		.ascii	"MINMEA_FAA_MODE_MANUAL\000"
 8262      45415F46 
 8262      41415F4D 
 8262      4F44455F 
 8262      4D414E55 
 8263              	.LASF170:
 8264 04e3 5F5F6170 		.ascii	"__ap\000"
ARM GAS  C:\Users\crono\AppData\Local\Temp\ccd4dy0n.s 			page 163


 8264      00
 8265              	.LASF115:
 8266 04e8 6D696E75 		.ascii	"minute_offset\000"
 8266      74655F6F 
 8266      66667365 
 8266      7400
 8267              	.LASF47:
 8268 04f6 7363616C 		.ascii	"scale\000"
 8268      6500
 8269              	.LASF175:
 8270 04fc 6D656D73 		.ascii	"memset\000"
 8270      657400
 8271              	.LASF70:
 8272 0503 616C7469 		.ascii	"altitude\000"
 8272      74756465 
 8272      00
 8273              	.LASF147:
 8274 050c 6C6F6E67 		.ascii	"longitude_direction\000"
 8274      69747564 
 8274      655F6469 
 8274      72656374 
 8274      696F6E00 
 8275              	.LASF143:
 8276 0520 6D696E6D 		.ascii	"minmea_parse_rmc\000"
 8276      65615F70 
 8276      61727365 
 8276      5F726D63 
 8276      00
 8277              	.LASF169:
 8278 0531 433A5C44 		.ascii	"C:\\Dropbox\\Public\\PSoC_Creator\\GPS_Logger\\GPS_"
 8278      726F7062 
 8278      6F785C50 
 8278      75626C69 
 8278      635C5053 
 8279 055f 4C6F6767 		.ascii	"Logger.cydsn\000"
 8279      65722E63 
 8279      7964736E 
 8279      00
 8280              	.LASF54:
 8281 056c 7365636F 		.ascii	"seconds\000"
 8281      6E647300 
 8282              	.LASF7:
 8283 0574 6C6F6E67 		.ascii	"long unsigned int\000"
 8283      20756E73 
 8283      69676E65 
 8283      6420696E 
 8283      7400
 8284              	.LASF72:
 8285 0586 68656967 		.ascii	"height\000"
 8285      687400
 8286              	.LASF99:
 8287 058d 76646F70 		.ascii	"vdop\000"
 8287      00
 8288              	.LASF150:
 8289 0592 6D696E6D 		.ascii	"minmea_parse_gsa\000"
 8289      65615F70 
 8289      61727365 
ARM GAS  C:\Users\crono\AppData\Local\Temp\ccd4dy0n.s 			page 164


 8289      5F677361 
 8289      00
 8290              	.LASF174:
 8291 05a3 5F5F6374 		.ascii	"__ctype_ptr__\000"
 8291      7970655F 
 8291      7074725F 
 8291      5F00
 8292              	.LASF73:
 8293 05b1 68656967 		.ascii	"height_units\000"
 8293      68745F75 
 8293      6E697473 
 8293      00
 8294              	.LASF106:
 8295 05be 746F7461 		.ascii	"total_sats\000"
 8295      6C5F7361 
 8295      747300
 8296              	.LASF152:
 8297 05c9 6D696E6D 		.ascii	"minmea_parse_gst\000"
 8297      65615F70 
 8297      61727365 
 8297      5F677374 
 8297      00
 8298              	.LASF153:
 8299 05da 6D696E6D 		.ascii	"minmea_parse_gsv\000"
 8299      65615F70 
 8299      61727365 
 8299      5F677376 
 8299      00
 8300              	.LASF154:
 8301 05eb 6D696E6D 		.ascii	"minmea_parse_vtg\000"
 8301      65615F70 
 8301      61727365 
 8301      5F767467 
 8301      00
 8302              	.LASF12:
 8303 05fc 6C6F6E67 		.ascii	"long double\000"
 8303      20646F75 
 8303      626C6500 
 8304              	.LASF134:
 8305 0608 64417272 		.ascii	"dArr\000"
 8305      00
 8306              	.LASF172:
 8307 060d 68657832 		.ascii	"hex2int\000"
 8307      696E7400 
 8308              	.LASF136:
 8309 0615 79417272 		.ascii	"yArr\000"
 8309      00
 8310              	.LASF138:
 8311 061a 68417272 		.ascii	"hArr\000"
 8311      00
 8312              	.LASF108:
 8313 061f 74727565 		.ascii	"true_track_degrees\000"
 8313      5F747261 
 8313      636B5F64 
 8313      65677265 
 8313      657300
 8314              	.LASF89:
ARM GAS  C:\Users\crono\AppData\Local\Temp\ccd4dy0n.s 			page 165


 8315 0632 73656D69 		.ascii	"semi_major_deviation\000"
 8315      5F6D616A 
 8315      6F725F64 
 8315      65766961 
 8315      74696F6E 
 8316              	.LASF38:
 8317 0647 4D494E4D 		.ascii	"MINMEA_SENTENCE_GGA\000"
 8317      45415F53 
 8317      454E5445 
 8317      4E43455F 
 8317      47474100 
 8318              	.LASF2:
 8319 065b 73686F72 		.ascii	"short int\000"
 8319      7420696E 
 8319      7400
 8320              	.LASF4:
 8321 0665 6C6F6E67 		.ascii	"long int\000"
 8321      20696E74 
 8321      00
 8322              	.LASF67:
 8323 066e 6669785F 		.ascii	"fix_quality\000"
 8323      7175616C 
 8323      69747900 
 8324              	.LASF51:
 8325 067a 6D696E6D 		.ascii	"minmea_time\000"
 8325      65615F74 
 8325      696D6500 
 8326              	.LASF141:
 8327 0686 6D696E6D 		.ascii	"minmea_talker_id\000"
 8327      65615F74 
 8327      616C6B65 
 8327      725F6964 
 8327      00
 8328              	.LASF71:
 8329 0697 616C7469 		.ascii	"altitude_units\000"
 8329      74756465 
 8329      5F756E69 
 8329      747300
 8330              	.LASF53:
 8331 06a6 6D696E75 		.ascii	"minutes\000"
 8331      74657300 
 8332              	.LASF120:
 8333 06ae 73747269 		.ascii	"strict\000"
 8333      637400
 8334              	.LASF171:
 8335 06b5 6D696E6D 		.ascii	"minmea_isfield\000"
 8335      65615F69 
 8335      73666965 
 8335      6C6400
 8336              	.LASF114:
 8337 06c4 686F7572 		.ascii	"hour_offset\000"
 8337      5F6F6666 
 8337      73657400 
 8338              	.LASF52:
 8339 06d0 686F7572 		.ascii	"hours\000"
 8339      7300
 8340              	.LASF5:
ARM GAS  C:\Users\crono\AppData\Local\Temp\ccd4dy0n.s 			page 166


 8341 06d6 5F5F7569 		.ascii	"__uint8_t\000"
 8341      6E74385F 
 8341      7400
 8342              	.LASF48:
 8343 06e0 6D696E6D 		.ascii	"minmea_date\000"
 8343      65615F64 
 8343      61746500 
 8344              	.LASF83:
 8345 06ec 4D494E4D 		.ascii	"MINMEA_FAA_MODE_PRECISE\000"
 8345      45415F46 
 8345      41415F4D 
 8345      4F44455F 
 8345      50524543 
 8346              	.LASF118:
 8347 0704 6D696E6D 		.ascii	"minmea_checksum\000"
 8347      65615F63 
 8347      6865636B 
 8347      73756D00 
 8348              	.LASF79:
 8349 0714 4D494E4D 		.ascii	"MINMEA_FAA_MODE_ESTIMATED\000"
 8349      45415F46 
 8349      41415F4D 
 8349      4F44455F 
 8349      45535449 
 8350              	.LASF19:
 8351 072e 5F5F7661 		.ascii	"__va_list\000"
 8351      5F6C6973 
 8351      7400
 8352              	.LASF21:
 8353 0738 74765F73 		.ascii	"tv_sec\000"
 8353      656300
 8354              	.LASF14:
 8355 073f 73697A65 		.ascii	"sizetype\000"
 8355      74797065 
 8355      00
 8356              	.LASF112:
 8357 0748 6661615F 		.ascii	"faa_mode\000"
 8357      6D6F6465 
 8357      00
 8358              	.LASF168:
 8359 0751 6D696E6D 		.ascii	"minmea\\minmea.c\000"
 8359      65615C6D 
 8359      696E6D65 
 8359      612E6300 
 8360              	.LASF23:
 8361 0761 696E745F 		.ascii	"int_least32_t\000"
 8361      6C656173 
 8361      7433325F 
 8361      7400
 8362              	.LASF50:
 8363 076f 79656172 		.ascii	"year\000"
 8363      00
 8364              	.LASF25:
 8365 0774 746D5F6D 		.ascii	"tm_min\000"
 8365      696E00
 8366              	.LASF149:
 8367 077b 6D696E6D 		.ascii	"minmea_parse_gga\000"
ARM GAS  C:\Users\crono\AppData\Local\Temp\ccd4dy0n.s 			page 167


 8367      65615F70 
 8367      61727365 
 8367      5F676761 
 8367      00
 8368              	.LASF135:
 8369 078c 6D417272 		.ascii	"mArr\000"
 8369      00
 8370              	.LASF130:
 8371 0791 74797065 		.ascii	"type\000"
 8371      00
 8372              	.LASF1:
 8373 0796 756E7369 		.ascii	"unsigned char\000"
 8373      676E6564 
 8373      20636861 
 8373      7200
 8374              	.LASF6:
 8375 07a4 5F5F7569 		.ascii	"__uint32_t\000"
 8375      6E743332 
 8375      5F7400
 8376              	.LASF122:
 8377 07af 75707065 		.ascii	"upper\000"
 8377      7200
 8378              	.LASF55:
 8379 07b5 6D696372 		.ascii	"microseconds\000"
 8379      6F736563 
 8379      6F6E6473 
 8379      00
 8380              	.LASF105:
 8381 07c2 6D73675F 		.ascii	"msg_nr\000"
 8381      6E7200
 8382              	.LASF165:
 8383 07c9 73747274 		.ascii	"strtol\000"
 8383      6F6C00
 8384              	.LASF102:
 8385 07d0 617A696D 		.ascii	"azimuth\000"
 8385      75746800 
 8386              	.LASF81:
 8387 07d8 4D494E4D 		.ascii	"MINMEA_FAA_MODE_SIMULATED\000"
 8387      45415F46 
 8387      41415F4D 
 8387      4F44455F 
 8387      53494D55 
 8388              	.LASF30:
 8389 07f2 746D5F77 		.ascii	"tm_wday\000"
 8389      64617900 
 8390              	.LASF162:
 8391 07fa 74696D65 		.ascii	"timestamp\000"
 8391      7374616D 
 8391      7000
 8392              	.LASF144:
 8393 0804 6672616D 		.ascii	"frame\000"
 8393      6500
 8394              	.LASF56:
 8395 080a 6D696E6D 		.ascii	"minmea_sentence_rmc\000"
 8395      65615F73 
 8395      656E7465 
 8395      6E63655F 
ARM GAS  C:\Users\crono\AppData\Local\Temp\ccd4dy0n.s 			page 168


 8395      726D6300 
 8396              	.LASF26:
 8397 081e 746D5F68 		.ascii	"tm_hour\000"
 8397      6F757200 
 8398              	.LASF0:
 8399 0826 7369676E 		.ascii	"signed char\000"
 8399      65642063 
 8399      68617200 
 8400              	.LASF3:
 8401 0832 73686F72 		.ascii	"short unsigned int\000"
 8401      7420756E 
 8401      7369676E 
 8401      65642069 
 8401      6E7400
 8402              	.LASF24:
 8403 0845 746D5F73 		.ascii	"tm_sec\000"
 8403      656300
 8404              	.LASF95:
 8405 084c 6D696E6D 		.ascii	"minmea_sentence_gsa\000"
 8405      65615F73 
 8405      656E7465 
 8405      6E63655F 
 8405      67736100 
 8406              	.LASF32:
 8407 0860 746D5F69 		.ascii	"tm_isdst\000"
 8407      73647374 
 8407      00
 8408              	.LASF96:
 8409 0869 6669785F 		.ascii	"fix_type\000"
 8409      74797065 
 8409      00
 8410              	.LASF156:
 8411 0872 635F6D61 		.ascii	"c_magnetic\000"
 8411      676E6574 
 8411      696300
 8412              	.LASF173:
 8413 087d 70617273 		.ascii	"parse_error\000"
 8413      655F6572 
 8413      726F7200 
 8414              	.LASF33:
 8415 0889 646F7562 		.ascii	"double\000"
 8415      6C6500
 8416              	.LASF87:
 8417 0890 6D696E6D 		.ascii	"minmea_sentence_gst\000"
 8417      65615F73 
 8417      656E7465 
 8417      6E63655F 
 8417      67737400 
 8418              	.LASF103:
 8419 08a4 6D696E6D 		.ascii	"minmea_sentence_gsv\000"
 8419      65615F73 
 8419      656E7465 
 8419      6E63655F 
 8419      67737600 
 8420              	.LASF107:
 8421 08b8 6D696E6D 		.ascii	"minmea_sentence_vtg\000"
 8421      65615F73 
ARM GAS  C:\Users\crono\AppData\Local\Temp\ccd4dy0n.s 			page 169


 8421      656E7465 
 8421      6E63655F 
 8421      76746700 
 8422              	.LASF125:
 8423 08cc 6D696E6D 		.ascii	"minmea_scan\000"
 8423      65615F73 
 8423      63616E00 
 8424              	.LASF166:
 8425 08d8 74696D65 		.ascii	"timegm\000"
 8425      676D00
 8426              	.LASF111:
 8427 08df 73706565 		.ascii	"speed_kph\000"
 8427      645F6B70 
 8427      6800
 8428              	.LASF164:
 8429 08e9 73747263 		.ascii	"strcmp\000"
 8429      6D7000
 8430              	.LASF128:
 8431 08f0 6F707469 		.ascii	"optional\000"
 8431      6F6E616C 
 8431      00
 8432              	.LASF82:
 8433 08f9 4D494E4D 		.ascii	"MINMEA_FAA_MODE_NOT_VALID\000"
 8433      45415F46 
 8433      41415F4D 
 8433      4F44455F 
 8433      4E4F545F 
 8434              		.ident	"GCC: (GNU Tools for ARM Embedded Processors) 5.4.1 20160609 (release) [ARM/embedded-5-bran
