ARM GAS  C:\Users\crono\AppData\Local\Temp\ccd4dy0n.s 			page 1


   1              		.syntax unified
   2              		.cpu cortex-m3
   3              		.fpu softvfp
   4              		.eabi_attribute 20, 1
   5              		.eabi_attribute 21, 1
   6              		.eabi_attribute 23, 3
   7              		.eabi_attribute 24, 1
   8              		.eabi_attribute 25, 1
   9              		.eabi_attribute 26, 1
  10              		.eabi_attribute 30, 1
  11              		.eabi_attribute 34, 1
  12              		.eabi_attribute 18, 4
  13              		.thumb
  14              		.syntax unified
  15              		.file	"minmea.c"
  16              		.text
  17              	.Ltext0:
  18              		.cfi_sections	.debug_frame
  19              		.section	.text.hex2int,"ax",%progbits
  20              		.align	2
  21              		.thumb
  22              		.thumb_func
  23              		.type	hex2int, %function
  24              	hex2int:
  25              	.LFB4:
  26              		.file 1 "minmea\\minmea.c"
   1:minmea/minmea.c **** /*
   2:minmea/minmea.c ****  * Copyright © 2014 Kosma Moczek <kosma@cloudyourcar.com>
   3:minmea/minmea.c ****  * This program is free software. It comes without any warranty, to the extent
   4:minmea/minmea.c ****  * permitted by applicable law. You can redistribute it and/or modify it under
   5:minmea/minmea.c ****  * the terms of the Do What The Fuck You Want To Public License, Version 2, as
   6:minmea/minmea.c ****  * published by Sam Hocevar. See the COPYING file for more details.
   7:minmea/minmea.c ****  */
   8:minmea/minmea.c **** 
   9:minmea/minmea.c **** #include "minmea.h"
  10:minmea/minmea.c **** 
  11:minmea/minmea.c **** #include <stdlib.h>
  12:minmea/minmea.c **** #include <string.h>
  13:minmea/minmea.c **** #include <ctype.h>
  14:minmea/minmea.c **** #include <stdarg.h>
  15:minmea/minmea.c **** #include <time.h>
  16:minmea/minmea.c **** 
  17:minmea/minmea.c **** #define boolstr(s) ((s) ? "true" : "false")
  18:minmea/minmea.c **** 
  19:minmea/minmea.c **** static int hex2int(char c)
  20:minmea/minmea.c **** {
  27              		.loc 1 20 0
  28              		.cfi_startproc
  29              		@ args = 0, pretend = 0, frame = 0
  30              		@ frame_needed = 0, uses_anonymous_args = 0
  31              		@ link register save eliminated.
  32              	.LVL0:
  21:minmea/minmea.c ****     if (c >= '0' && c <= '9')
  33              		.loc 1 21 0
  34 0000 A0F13003 		sub	r3, r0, #48
  35 0004 DBB2     		uxtb	r3, r3
  36 0006 092B     		cmp	r3, #9
ARM GAS  C:\Users\crono\AppData\Local\Temp\ccd4dy0n.s 			page 2


  37 0008 01D8     		bhi	.L2
  22:minmea/minmea.c ****         return c - '0';
  38              		.loc 1 22 0
  39 000a 3038     		subs	r0, r0, #48
  40              	.LVL1:
  41 000c 7047     		bx	lr
  42              	.LVL2:
  43              	.L2:
  23:minmea/minmea.c ****     if (c >= 'A' && c <= 'F')
  44              		.loc 1 23 0
  45 000e A0F14103 		sub	r3, r0, #65
  46 0012 DBB2     		uxtb	r3, r3
  47 0014 052B     		cmp	r3, #5
  48 0016 01D8     		bhi	.L4
  24:minmea/minmea.c ****         return c - 'A' + 10;
  49              		.loc 1 24 0
  50 0018 3738     		subs	r0, r0, #55
  51              	.LVL3:
  52 001a 7047     		bx	lr
  53              	.LVL4:
  54              	.L4:
  25:minmea/minmea.c ****     if (c >= 'a' && c <= 'f')
  55              		.loc 1 25 0
  56 001c A0F16103 		sub	r3, r0, #97
  57 0020 DBB2     		uxtb	r3, r3
  58 0022 052B     		cmp	r3, #5
  59 0024 01D8     		bhi	.L5
  26:minmea/minmea.c ****         return c - 'a' + 10;
  60              		.loc 1 26 0
  61 0026 5738     		subs	r0, r0, #87
  62              	.LVL5:
  63 0028 7047     		bx	lr
  64              	.LVL6:
  65              	.L5:
  27:minmea/minmea.c ****     return -1;
  66              		.loc 1 27 0
  67 002a 4FF0FF30 		mov	r0, #-1
  68              	.LVL7:
  28:minmea/minmea.c **** }
  69              		.loc 1 28 0
  70 002e 7047     		bx	lr
  71              		.cfi_endproc
  72              	.LFE4:
  73              		.size	hex2int, .-hex2int
  74              		.section	.text.minmea_checksum,"ax",%progbits
  75              		.align	2
  76              		.global	minmea_checksum
  77              		.thumb
  78              		.thumb_func
  79              		.type	minmea_checksum, %function
  80              	minmea_checksum:
  81              	.LFB5:
  29:minmea/minmea.c **** 
  30:minmea/minmea.c **** uint8_t minmea_checksum(const char *sentence)
  31:minmea/minmea.c **** {
  82              		.loc 1 31 0
  83              		.cfi_startproc
ARM GAS  C:\Users\crono\AppData\Local\Temp\ccd4dy0n.s 			page 3


  84              		@ args = 0, pretend = 0, frame = 0
  85              		@ frame_needed = 0, uses_anonymous_args = 0
  86              		@ link register save eliminated.
  87              	.LVL8:
  88 0000 0246     		mov	r2, r0
  32:minmea/minmea.c ****     // Support senteces with or without the starting dollar sign.
  33:minmea/minmea.c ****     if (*sentence == '$')
  89              		.loc 1 33 0
  90 0002 0378     		ldrb	r3, [r0]	@ zero_extendqisi2
  91 0004 242B     		cmp	r3, #36
  92 0006 00D1     		bne	.L7
  34:minmea/minmea.c ****         sentence++;
  93              		.loc 1 34 0
  94 0008 0132     		adds	r2, r2, #1
  95              	.LVL9:
  96              	.L7:
  31:minmea/minmea.c ****     // Support senteces with or without the starting dollar sign.
  97              		.loc 1 31 0
  98 000a 0020     		movs	r0, #0
  99 000c 01E0     		b	.L8
 100              	.LVL10:
 101              	.L10:
  35:minmea/minmea.c **** 
  36:minmea/minmea.c ****     uint8_t checksum = 0x00;
  37:minmea/minmea.c **** 
  38:minmea/minmea.c ****     // The optional checksum is an XOR of all bytes between "$" and "*".
  39:minmea/minmea.c ****     while (*sentence && *sentence != '*')
  40:minmea/minmea.c ****         checksum ^= *sentence++;
 102              		.loc 1 40 0
 103 000e 0132     		adds	r2, r2, #1
 104              	.LVL11:
 105 0010 5840     		eors	r0, r0, r3
 106              	.LVL12:
 107              	.L8:
  39:minmea/minmea.c ****         checksum ^= *sentence++;
 108              		.loc 1 39 0
 109 0012 1378     		ldrb	r3, [r2]	@ zero_extendqisi2
 110 0014 0BB1     		cbz	r3, .L9
  39:minmea/minmea.c ****         checksum ^= *sentence++;
 111              		.loc 1 39 0 is_stmt 0 discriminator 1
 112 0016 2A2B     		cmp	r3, #42
 113 0018 F9D1     		bne	.L10
 114              	.L9:
  41:minmea/minmea.c **** 
  42:minmea/minmea.c ****     return checksum;
  43:minmea/minmea.c **** }
 115              		.loc 1 43 0 is_stmt 1
 116 001a 7047     		bx	lr
 117              		.cfi_endproc
 118              	.LFE5:
 119              		.size	minmea_checksum, .-minmea_checksum
 120              		.section	.text.minmea_check,"ax",%progbits
 121              		.align	2
 122              		.global	minmea_check
 123              		.thumb
 124              		.thumb_func
 125              		.type	minmea_check, %function
ARM GAS  C:\Users\crono\AppData\Local\Temp\ccd4dy0n.s 			page 4


 126              	minmea_check:
 127              	.LFB6:
  44:minmea/minmea.c **** 
  45:minmea/minmea.c **** bool minmea_check(const char *sentence, bool strict)
  46:minmea/minmea.c **** {
 128              		.loc 1 46 0
 129              		.cfi_startproc
 130              		@ args = 0, pretend = 0, frame = 0
 131              		@ frame_needed = 0, uses_anonymous_args = 0
 132              	.LVL13:
 133 0000 F8B5     		push	{r3, r4, r5, r6, r7, lr}
 134              		.cfi_def_cfa_offset 24
 135              		.cfi_offset 3, -24
 136              		.cfi_offset 4, -20
 137              		.cfi_offset 5, -16
 138              		.cfi_offset 6, -12
 139              		.cfi_offset 7, -8
 140              		.cfi_offset 14, -4
 141 0002 0546     		mov	r5, r0
 142 0004 0E46     		mov	r6, r1
 143              	.LVL14:
  47:minmea/minmea.c ****     uint8_t checksum = 0x00;
  48:minmea/minmea.c **** 
  49:minmea/minmea.c ****     // Sequence length is limited.
  50:minmea/minmea.c ****     if (strlen(sentence) > MINMEA_MAX_LENGTH + 3)
 144              		.loc 1 50 0
 145 0006 FFF7FEFF 		bl	strlen
 146              	.LVL15:
 147 000a 5328     		cmp	r0, #83
 148 000c 37D8     		bhi	.L18
  51:minmea/minmea.c ****         return false;
  52:minmea/minmea.c **** 
  53:minmea/minmea.c ****     // A valid sentence starts with "$".
  54:minmea/minmea.c ****     if (*sentence++ != '$')
 149              		.loc 1 54 0
 150 000e 6C1C     		adds	r4, r5, #1
 151              	.LVL16:
 152 0010 2B78     		ldrb	r3, [r5]	@ zero_extendqisi2
 153 0012 242B     		cmp	r3, #36
 154 0014 35D1     		bne	.L19
 155 0016 0025     		movs	r5, #0
 156 0018 01E0     		b	.L13
 157              	.LVL17:
 158              	.L15:
  55:minmea/minmea.c ****         return false;
  56:minmea/minmea.c **** 
  57:minmea/minmea.c ****     // The optional checksum is an XOR of all bytes between "$" and "*".
  58:minmea/minmea.c ****     while (*sentence && *sentence != '*' && isprint((unsigned char) *sentence))
  59:minmea/minmea.c ****         checksum ^= *sentence++;
 159              		.loc 1 59 0
 160 001a 0134     		adds	r4, r4, #1
 161              	.LVL18:
 162 001c 5D40     		eors	r5, r5, r3
 163              	.LVL19:
 164              	.L13:
  58:minmea/minmea.c ****         checksum ^= *sentence++;
 165              		.loc 1 58 0
ARM GAS  C:\Users\crono\AppData\Local\Temp\ccd4dy0n.s 			page 5


 166 001e 2378     		ldrb	r3, [r4]	@ zero_extendqisi2
 167 0020 43B1     		cbz	r3, .L14
  58:minmea/minmea.c ****         checksum ^= *sentence++;
 168              		.loc 1 58 0 is_stmt 0 discriminator 1
 169 0022 2A2B     		cmp	r3, #42
 170 0024 06D0     		beq	.L14
  58:minmea/minmea.c ****         checksum ^= *sentence++;
 171              		.loc 1 58 0 discriminator 2
 172 0026 1F4A     		ldr	r2, .L28
 173 0028 1268     		ldr	r2, [r2]
 174 002a 1A44     		add	r2, r2, r3
 175 002c 5278     		ldrb	r2, [r2, #1]	@ zero_extendqisi2
 176 002e 12F0970F 		tst	r2, #151
 177 0032 F2D1     		bne	.L15
 178              	.L14:
  60:minmea/minmea.c **** 
  61:minmea/minmea.c ****     // If checksum is present...
  62:minmea/minmea.c ****     if (*sentence == '*') {
 179              		.loc 1 62 0 is_stmt 1
 180 0034 2A2B     		cmp	r3, #42
 181 0036 13D1     		bne	.L16
 182              	.LVL20:
 183              	.LBB37:
  63:minmea/minmea.c ****         // Extract checksum.
  64:minmea/minmea.c ****         sentence++;
  65:minmea/minmea.c ****         int upper = hex2int(*sentence++);
 184              		.loc 1 65 0
 185 0038 6078     		ldrb	r0, [r4, #1]	@ zero_extendqisi2
 186 003a FFF7FEFF 		bl	hex2int
 187              	.LVL21:
 188 003e 0646     		mov	r6, r0
 189              	.LVL22:
  66:minmea/minmea.c ****         if (upper == -1)
 190              		.loc 1 66 0
 191 0040 B0F1FF3F 		cmp	r0, #-1
 192 0044 1FD0     		beq	.L20
  67:minmea/minmea.c ****             return false;
  68:minmea/minmea.c ****         int lower = hex2int(*sentence++);
 193              		.loc 1 68 0
 194 0046 E71C     		adds	r7, r4, #3
 195              	.LVL23:
 196 0048 A078     		ldrb	r0, [r4, #2]	@ zero_extendqisi2
 197              	.LVL24:
 198 004a FFF7FEFF 		bl	hex2int
 199              	.LVL25:
  69:minmea/minmea.c ****         if (lower == -1)
 200              		.loc 1 69 0
 201 004e B0F1FF3F 		cmp	r0, #-1
 202 0052 1AD0     		beq	.L21
  70:minmea/minmea.c ****             return false;
  71:minmea/minmea.c ****         int expected = upper << 4 | lower;
 203              		.loc 1 71 0
 204 0054 40EA0610 		orr	r0, r0, r6, lsl #4
 205              	.LVL26:
  72:minmea/minmea.c **** 
  73:minmea/minmea.c ****         // Check for checksum mismatch.
  74:minmea/minmea.c ****         if (checksum != expected)
ARM GAS  C:\Users\crono\AppData\Local\Temp\ccd4dy0n.s 			page 6


 206              		.loc 1 74 0
 207 0058 A842     		cmp	r0, r5
 208 005a 18D1     		bne	.L22
  68:minmea/minmea.c ****         if (lower == -1)
 209              		.loc 1 68 0
 210 005c 3C46     		mov	r4, r7
 211 005e 00E0     		b	.L17
 212              	.LVL27:
 213              	.L16:
 214              	.LBE37:
  75:minmea/minmea.c ****             return false;
  76:minmea/minmea.c ****     } else if (strict) {
 215              		.loc 1 76 0
 216 0060 BEB9     		cbnz	r6, .L23
 217              	.L17:
  77:minmea/minmea.c ****         // Discard non-checksummed frames in strict mode.
  78:minmea/minmea.c ****         return false;
  79:minmea/minmea.c ****     }
  80:minmea/minmea.c **** 
  81:minmea/minmea.c ****     // The only stuff allowed at this point is a newline.
  82:minmea/minmea.c ****     if (*sentence && strcmp(sentence, "\n") && strcmp(sentence, "\r\n"))
 218              		.loc 1 82 0
 219 0062 2378     		ldrb	r3, [r4]	@ zero_extendqisi2
 220 0064 BBB1     		cbz	r3, .L24
 221              		.loc 1 82 0 is_stmt 0 discriminator 1
 222 0066 1049     		ldr	r1, .L28+4
 223 0068 2046     		mov	r0, r4
 224 006a FFF7FEFF 		bl	strcmp
 225              	.LVL28:
 226 006e A0B1     		cbz	r0, .L25
 227              		.loc 1 82 0 discriminator 2
 228 0070 0E49     		ldr	r1, .L28+8
 229 0072 2046     		mov	r0, r4
 230 0074 FFF7FEFF 		bl	strcmp
 231              	.LVL29:
 232 0078 88B9     		cbnz	r0, .L26
  83:minmea/minmea.c ****         return false;
  84:minmea/minmea.c **** 
  85:minmea/minmea.c ****     return true;
 233              		.loc 1 85 0 is_stmt 1
 234 007a 0120     		movs	r0, #1
 235 007c F8BD     		pop	{r3, r4, r5, r6, r7, pc}
 236              	.LVL30:
 237              	.L18:
  51:minmea/minmea.c **** 
 238              		.loc 1 51 0
 239 007e 0020     		movs	r0, #0
 240 0080 F8BD     		pop	{r3, r4, r5, r6, r7, pc}
 241              	.LVL31:
 242              	.L19:
  55:minmea/minmea.c **** 
 243              		.loc 1 55 0
 244 0082 0020     		movs	r0, #0
 245 0084 F8BD     		pop	{r3, r4, r5, r6, r7, pc}
 246              	.LVL32:
 247              	.L20:
 248              	.LBB38:
ARM GAS  C:\Users\crono\AppData\Local\Temp\ccd4dy0n.s 			page 7


  67:minmea/minmea.c ****         int lower = hex2int(*sentence++);
 249              		.loc 1 67 0
 250 0086 0020     		movs	r0, #0
 251              	.LVL33:
 252 0088 F8BD     		pop	{r3, r4, r5, r6, r7, pc}
 253              	.LVL34:
 254              	.L21:
  70:minmea/minmea.c ****         int expected = upper << 4 | lower;
 255              		.loc 1 70 0
 256 008a 0020     		movs	r0, #0
 257              	.LVL35:
 258 008c F8BD     		pop	{r3, r4, r5, r6, r7, pc}
 259              	.LVL36:
 260              	.L22:
  75:minmea/minmea.c ****     } else if (strict) {
 261              		.loc 1 75 0
 262 008e 0020     		movs	r0, #0
 263              	.LVL37:
 264 0090 F8BD     		pop	{r3, r4, r5, r6, r7, pc}
 265              	.LVL38:
 266              	.L23:
 267              	.LBE38:
  78:minmea/minmea.c ****     }
 268              		.loc 1 78 0
 269 0092 0020     		movs	r0, #0
 270 0094 F8BD     		pop	{r3, r4, r5, r6, r7, pc}
 271              	.LVL39:
 272              	.L24:
 273              		.loc 1 85 0
 274 0096 0120     		movs	r0, #1
 275 0098 F8BD     		pop	{r3, r4, r5, r6, r7, pc}
 276              	.LVL40:
 277              	.L25:
 278 009a 0120     		movs	r0, #1
 279 009c F8BD     		pop	{r3, r4, r5, r6, r7, pc}
 280              	.LVL41:
 281              	.L26:
  83:minmea/minmea.c **** 
 282              		.loc 1 83 0
 283 009e 0020     		movs	r0, #0
  86:minmea/minmea.c **** }
 284              		.loc 1 86 0
 285 00a0 F8BD     		pop	{r3, r4, r5, r6, r7, pc}
 286              	.LVL42:
 287              	.L29:
 288 00a2 00BF     		.align	2
 289              	.L28:
 290 00a4 00000000 		.word	__ctype_ptr__
 291 00a8 00000000 		.word	.LC0
 292 00ac 04000000 		.word	.LC1
 293              		.cfi_endproc
 294              	.LFE6:
 295              		.size	minmea_check, .-minmea_check
 296              		.section	.text.minmea_scan,"ax",%progbits
 297              		.align	2
 298              		.global	minmea_scan
 299              		.thumb
ARM GAS  C:\Users\crono\AppData\Local\Temp\ccd4dy0n.s 			page 8


 300              		.thumb_func
 301              		.type	minmea_scan, %function
 302              	minmea_scan:
 303              	.LFB8:
  87:minmea/minmea.c **** 
  88:minmea/minmea.c **** static inline bool minmea_isfield(char c) {
  89:minmea/minmea.c ****     return isprint((unsigned char) c) && c != ',' && c != '*';
  90:minmea/minmea.c **** }
  91:minmea/minmea.c **** 
  92:minmea/minmea.c **** bool minmea_scan(const char *sentence, const char *format, ...)
  93:minmea/minmea.c **** {
 304              		.loc 1 93 0
 305              		.cfi_startproc
 306              		@ args = 4, pretend = 12, frame = 16
 307              		@ frame_needed = 0, uses_anonymous_args = 1
 308              	.LVL43:
 309 0000 0EB4     		push	{r1, r2, r3}
 310              		.cfi_def_cfa_offset 12
 311              		.cfi_offset 1, -12
 312              		.cfi_offset 2, -8
 313              		.cfi_offset 3, -4
 314 0002 2DE9F04F 		push	{r4, r5, r6, r7, r8, r9, r10, fp, lr}
 315              		.cfi_def_cfa_offset 48
 316              		.cfi_offset 4, -48
 317              		.cfi_offset 5, -44
 318              		.cfi_offset 6, -40
 319              		.cfi_offset 7, -36
 320              		.cfi_offset 8, -32
 321              		.cfi_offset 9, -28
 322              		.cfi_offset 10, -24
 323              		.cfi_offset 11, -20
 324              		.cfi_offset 14, -16
 325 0006 84B0     		sub	sp, sp, #16
 326              		.cfi_def_cfa_offset 64
 327 0008 0446     		mov	r4, r0
 328 000a 0DAB     		add	r3, sp, #52
 329 000c 53F8045B 		ldr	r5, [r3], #4
 330              	.LVL44:
  94:minmea/minmea.c ****     bool result = false;
  95:minmea/minmea.c ****     bool optional = false;
  96:minmea/minmea.c ****     va_list ap;
  97:minmea/minmea.c ****     va_start(ap, format);
 331              		.loc 1 97 0
 332 0010 0393     		str	r3, [sp, #12]
 333              	.LVL45:
  98:minmea/minmea.c **** 
  99:minmea/minmea.c ****     const char *field = sentence;
 334              		.loc 1 99 0
 335 0012 0746     		mov	r7, r0
  95:minmea/minmea.c ****     va_list ap;
 336              		.loc 1 95 0
 337 0014 0026     		movs	r6, #0
 100:minmea/minmea.c **** #define next_field() \
 101:minmea/minmea.c ****     do { \
 102:minmea/minmea.c ****         /* Progress to the next field. */ \
 103:minmea/minmea.c ****         while (minmea_isfield(*sentence)) \
 104:minmea/minmea.c ****             sentence++; \
ARM GAS  C:\Users\crono\AppData\Local\Temp\ccd4dy0n.s 			page 9


 105:minmea/minmea.c ****         /* Make sure there is a field there. */ \
 106:minmea/minmea.c ****         if (*sentence == ',') { \
 107:minmea/minmea.c ****             sentence++; \
 108:minmea/minmea.c ****             field = sentence; \
 109:minmea/minmea.c ****         } else { \
 110:minmea/minmea.c ****             field = NULL; \
 111:minmea/minmea.c ****         } \
 112:minmea/minmea.c ****     } while (0)
 113:minmea/minmea.c **** 
 114:minmea/minmea.c ****     while (*format) {
 338              		.loc 1 114 0
 339 0016 A9E2     		b	.L31
 340              	.LVL46:
 341              	.L93:
 342              	.LBB39:
 115:minmea/minmea.c ****         char type = *format++;
 343              		.loc 1 115 0
 344 0018 0135     		adds	r5, r5, #1
 345              	.LVL47:
 116:minmea/minmea.c **** 
 117:minmea/minmea.c ****         if (type == ';') {
 346              		.loc 1 117 0
 347 001a 3B2B     		cmp	r3, #59
 348 001c 00F0A382 		beq	.L94
 118:minmea/minmea.c ****             // All further fields are optional.
 119:minmea/minmea.c ****             optional = true;
 120:minmea/minmea.c ****             continue;
 121:minmea/minmea.c ****         }
 122:minmea/minmea.c **** 
 123:minmea/minmea.c ****         if (!field && !optional) {
 349              		.loc 1 123 0
 350 0020 17B9     		cbnz	r7, .L33
 351              		.loc 1 123 0 is_stmt 0 discriminator 1
 352 0022 002E     		cmp	r6, #0
 353 0024 00F0A882 		beq	.L95
 354              	.L33:
 124:minmea/minmea.c ****             // Field requested but we ran out if input. Bail out.
 125:minmea/minmea.c ****             goto parse_error;
 126:minmea/minmea.c ****         }
 127:minmea/minmea.c **** 
 128:minmea/minmea.c ****         switch (type) {
 355              		.loc 1 128 0 is_stmt 1
 356 0028 443B     		subs	r3, r3, #68
 357              	.LVL48:
 358 002a 302B     		cmp	r3, #48
 359 002c 00F2A682 		bhi	.L96
 360 0030 DFE813F0 		tbh	[pc, r3, lsl #1]
 361              	.L36:
 362 0034 8E01     		.2byte	(.L35-.L36)/2
 363 0036 A402     		.2byte	(.L96-.L36)/2
 364 0038 A402     		.2byte	(.L96-.L36)/2
 365 003a A402     		.2byte	(.L96-.L36)/2
 366 003c A402     		.2byte	(.L96-.L36)/2
 367 003e A402     		.2byte	(.L96-.L36)/2
 368 0040 A402     		.2byte	(.L96-.L36)/2
 369 0042 A402     		.2byte	(.L96-.L36)/2
 370 0044 A402     		.2byte	(.L96-.L36)/2
ARM GAS  C:\Users\crono\AppData\Local\Temp\ccd4dy0n.s 			page 10


 371 0046 A402     		.2byte	(.L96-.L36)/2
 372 0048 A402     		.2byte	(.L96-.L36)/2
 373 004a A402     		.2byte	(.L96-.L36)/2
 374 004c A402     		.2byte	(.L96-.L36)/2
 375 004e A402     		.2byte	(.L96-.L36)/2
 376 0050 A402     		.2byte	(.L96-.L36)/2
 377 0052 A402     		.2byte	(.L96-.L36)/2
 378 0054 F101     		.2byte	(.L37-.L36)/2
 379 0056 A402     		.2byte	(.L96-.L36)/2
 380 0058 A402     		.2byte	(.L96-.L36)/2
 381 005a A402     		.2byte	(.L96-.L36)/2
 382 005c A402     		.2byte	(.L96-.L36)/2
 383 005e A402     		.2byte	(.L96-.L36)/2
 384 0060 A402     		.2byte	(.L96-.L36)/2
 385 0062 A402     		.2byte	(.L96-.L36)/2
 386 0064 A402     		.2byte	(.L96-.L36)/2
 387 0066 A402     		.2byte	(.L96-.L36)/2
 388 0068 A402     		.2byte	(.L96-.L36)/2
 389 006a 7F02     		.2byte	(.L66-.L36)/2
 390 006c A402     		.2byte	(.L96-.L36)/2
 391 006e A402     		.2byte	(.L96-.L36)/2
 392 0070 A402     		.2byte	(.L96-.L36)/2
 393 0072 3100     		.2byte	(.L39-.L36)/2
 394 0074 4F00     		.2byte	(.L40-.L36)/2
 395 0076 A402     		.2byte	(.L96-.L36)/2
 396 0078 8B00     		.2byte	(.L41-.L36)/2
 397 007a A402     		.2byte	(.L96-.L36)/2
 398 007c A402     		.2byte	(.L96-.L36)/2
 399 007e 1601     		.2byte	(.L42-.L36)/2
 400 0080 A402     		.2byte	(.L96-.L36)/2
 401 0082 A402     		.2byte	(.L96-.L36)/2
 402 0084 A402     		.2byte	(.L96-.L36)/2
 403 0086 A402     		.2byte	(.L96-.L36)/2
 404 0088 A402     		.2byte	(.L96-.L36)/2
 405 008a A402     		.2byte	(.L96-.L36)/2
 406 008c A402     		.2byte	(.L96-.L36)/2
 407 008e A402     		.2byte	(.L96-.L36)/2
 408 0090 A402     		.2byte	(.L96-.L36)/2
 409 0092 3A01     		.2byte	(.L43-.L36)/2
 410 0094 5B01     		.2byte	(.L44-.L36)/2
 411              		.p2align 1
 412              	.L39:
 413              	.LVL49:
 414              	.LBB40:
 129:minmea/minmea.c ****             case 'c': { // Single character field (char).
 130:minmea/minmea.c ****                 char value = '\0';
 131:minmea/minmea.c **** 
 132:minmea/minmea.c ****                 if (field && minmea_isfield(*field))
 415              		.loc 1 132 0
 416 0096 AFB1     		cbz	r7, .L97
 417              		.loc 1 132 0 is_stmt 0 discriminator 1
 418 0098 3B78     		ldrb	r3, [r7]	@ zero_extendqisi2
 419              	.LVL50:
 420              	.LBB41:
 421              	.LBB42:
  89:minmea/minmea.c **** }
 422              		.loc 1 89 0 is_stmt 1 discriminator 1
ARM GAS  C:\Users\crono\AppData\Local\Temp\ccd4dy0n.s 			page 11


 423 009a A24A     		ldr	r2, .L152
 424 009c 1268     		ldr	r2, [r2]
 425 009e 1A44     		add	r2, r2, r3
 426 00a0 5278     		ldrb	r2, [r2, #1]	@ zero_extendqisi2
 427 00a2 12F0970F 		tst	r2, #151
 428 00a6 05D0     		beq	.L98
  89:minmea/minmea.c **** }
 429              		.loc 1 89 0 is_stmt 0
 430 00a8 2C2B     		cmp	r3, #44
 431 00aa 05D0     		beq	.L99
 432 00ac 2A2B     		cmp	r3, #42
 433 00ae 05D1     		bne	.L100
 434 00b0 0022     		movs	r2, #0
 435 00b2 04E0     		b	.L46
 436              	.L98:
 437 00b4 0022     		movs	r2, #0
 438 00b6 02E0     		b	.L46
 439              	.L99:
 440 00b8 0022     		movs	r2, #0
 441 00ba 00E0     		b	.L46
 442              	.L100:
 443 00bc 0122     		movs	r2, #1
 444              	.L46:
 445              	.LVL51:
 446              	.LBE42:
 447              	.LBE41:
 448              		.loc 1 132 0 is_stmt 1
 449 00be 12B9     		cbnz	r2, .L45
 130:minmea/minmea.c **** 
 450              		.loc 1 130 0
 451 00c0 0023     		movs	r3, #0
 452 00c2 00E0     		b	.L45
 453              	.L97:
 454 00c4 0023     		movs	r3, #0
 455              	.L45:
 456              	.LVL52:
 133:minmea/minmea.c ****                     value = *field;
 134:minmea/minmea.c **** 
 135:minmea/minmea.c ****                 *va_arg(ap, char *) = value;
 457              		.loc 1 135 0
 458 00c6 039A     		ldr	r2, [sp, #12]
 459 00c8 111D     		adds	r1, r2, #4
 460 00ca 0391     		str	r1, [sp, #12]
 461 00cc 1268     		ldr	r2, [r2]
 462 00ce 1370     		strb	r3, [r2]
 463              	.LBE40:
 136:minmea/minmea.c ****             } break;
 464              		.loc 1 136 0
 465 00d0 2FE2     		b	.L66
 466              	.LVL53:
 467              	.L40:
 468              	.LBB43:
 137:minmea/minmea.c **** 
 138:minmea/minmea.c ****             case 'd': { // Single character direction field (int).
 139:minmea/minmea.c ****                 int value = 0;
 140:minmea/minmea.c **** 
 141:minmea/minmea.c ****                 if (field && minmea_isfield(*field)) {
ARM GAS  C:\Users\crono\AppData\Local\Temp\ccd4dy0n.s 			page 12


 469              		.loc 1 141 0
 470 00d2 77B3     		cbz	r7, .L101
 471              		.loc 1 141 0 is_stmt 0 discriminator 1
 472 00d4 3B78     		ldrb	r3, [r7]	@ zero_extendqisi2
 473              	.LVL54:
 474              	.LBB44:
 475              	.LBB45:
  89:minmea/minmea.c **** }
 476              		.loc 1 89 0 is_stmt 1 discriminator 1
 477 00d6 934A     		ldr	r2, .L152
 478 00d8 1268     		ldr	r2, [r2]
 479 00da 1A44     		add	r2, r2, r3
 480 00dc 5278     		ldrb	r2, [r2, #1]	@ zero_extendqisi2
 481 00de 12F0970F 		tst	r2, #151
 482 00e2 05D0     		beq	.L102
  89:minmea/minmea.c **** }
 483              		.loc 1 89 0 is_stmt 0
 484 00e4 2C2B     		cmp	r3, #44
 485 00e6 05D0     		beq	.L103
 486 00e8 2A2B     		cmp	r3, #42
 487 00ea 05D1     		bne	.L104
 488 00ec 0022     		movs	r2, #0
 489 00ee 04E0     		b	.L48
 490              	.L102:
 491 00f0 0022     		movs	r2, #0
 492 00f2 02E0     		b	.L48
 493              	.L103:
 494 00f4 0022     		movs	r2, #0
 495 00f6 00E0     		b	.L48
 496              	.L104:
 497 00f8 0122     		movs	r2, #1
 498              	.L48:
 499              	.LVL55:
 500              	.LBE45:
 501              	.LBE44:
 502              		.loc 1 141 0 is_stmt 1
 503 00fa E2B1     		cbz	r2, .L105
 142:minmea/minmea.c ****                     switch (*field) {
 504              		.loc 1 142 0
 505 00fc 453B     		subs	r3, r3, #69
 506 00fe 122B     		cmp	r3, #18
 507 0100 00F23E82 		bhi	.L106
 508 0104 DFE813F0 		tbh	[pc, r3, lsl #1]
 509              	.L50:
 510 0108 1300     		.2byte	(.L49-.L50)/2
 511 010a 3C02     		.2byte	(.L106-.L50)/2
 512 010c 3C02     		.2byte	(.L106-.L50)/2
 513 010e 3C02     		.2byte	(.L106-.L50)/2
 514 0110 3C02     		.2byte	(.L106-.L50)/2
 515 0112 3C02     		.2byte	(.L106-.L50)/2
 516 0114 3C02     		.2byte	(.L106-.L50)/2
 517 0116 3C02     		.2byte	(.L106-.L50)/2
 518 0118 3C02     		.2byte	(.L106-.L50)/2
 519 011a 1300     		.2byte	(.L49-.L50)/2
 520 011c 3C02     		.2byte	(.L106-.L50)/2
 521 011e 3C02     		.2byte	(.L106-.L50)/2
 522 0120 3C02     		.2byte	(.L106-.L50)/2
ARM GAS  C:\Users\crono\AppData\Local\Temp\ccd4dy0n.s 			page 13


 523 0122 3C02     		.2byte	(.L106-.L50)/2
 524 0124 1900     		.2byte	(.L107-.L50)/2
 525 0126 3C02     		.2byte	(.L106-.L50)/2
 526 0128 3C02     		.2byte	(.L106-.L50)/2
 527 012a 3C02     		.2byte	(.L106-.L50)/2
 528 012c 1900     		.2byte	(.L107-.L50)/2
 529              		.p2align 1
 530              	.L49:
 143:minmea/minmea.c ****                         case 'N':
 144:minmea/minmea.c ****                         case 'E':
 145:minmea/minmea.c ****                             value = 1;
 531              		.loc 1 145 0
 532 012e 0121     		movs	r1, #1
 533 0130 05E0     		b	.L47
 534              	.L101:
 139:minmea/minmea.c **** 
 535              		.loc 1 139 0
 536 0132 0021     		movs	r1, #0
 537 0134 03E0     		b	.L47
 538              	.L105:
 539 0136 0021     		movs	r1, #0
 540 0138 01E0     		b	.L47
 541              	.L107:
 146:minmea/minmea.c ****                             break;
 147:minmea/minmea.c ****                         case 'S':
 148:minmea/minmea.c ****                         case 'W':
 149:minmea/minmea.c ****                             value = -1;
 542              		.loc 1 149 0
 543 013a 4FF0FF31 		mov	r1, #-1
 544              	.L47:
 545              	.LVL56:
 150:minmea/minmea.c ****                             break;
 151:minmea/minmea.c ****                         default:
 152:minmea/minmea.c ****                             goto parse_error;
 153:minmea/minmea.c ****                     }
 154:minmea/minmea.c ****                 }
 155:minmea/minmea.c **** 
 156:minmea/minmea.c ****                 *va_arg(ap, int *) = value;
 546              		.loc 1 156 0
 547 013e 039B     		ldr	r3, [sp, #12]
 548 0140 1A1D     		adds	r2, r3, #4
 549 0142 0392     		str	r2, [sp, #12]
 550 0144 1B68     		ldr	r3, [r3]
 551 0146 1960     		str	r1, [r3]
 552              	.LBE43:
 157:minmea/minmea.c ****             } break;
 553              		.loc 1 157 0
 554 0148 F3E1     		b	.L66
 555              	.LVL57:
 556              	.L41:
 557              	.LBB46:
 158:minmea/minmea.c **** 
 159:minmea/minmea.c ****             case 'f': { // Fractional value with scale (struct minmea_float).
 160:minmea/minmea.c ****                 int sign = 0;
 161:minmea/minmea.c ****                 int_least32_t value = -1;
 162:minmea/minmea.c ****                 int_least32_t scale = 0;
 163:minmea/minmea.c **** 
ARM GAS  C:\Users\crono\AppData\Local\Temp\ccd4dy0n.s 			page 14


 164:minmea/minmea.c ****                 if (field) {
 558              		.loc 1 164 0
 559 014a 002F     		cmp	r7, #0
 560 014c 4DD1     		bne	.L108
 162:minmea/minmea.c **** 
 561              		.loc 1 162 0
 562 014e 0020     		movs	r0, #0
 161:minmea/minmea.c ****                 int_least32_t scale = 0;
 563              		.loc 1 161 0
 564 0150 4FF0FF32 		mov	r2, #-1
 160:minmea/minmea.c ****                 int_least32_t value = -1;
 565              		.loc 1 160 0
 566 0154 8646     		mov	lr, r0
 567 0156 66E0     		b	.L52
 568              	.LVL58:
 569              	.L61:
 165:minmea/minmea.c ****                     while (minmea_isfield(*field)) {
 166:minmea/minmea.c ****                         if (*field == '+' && !sign && value == -1) {
 570              		.loc 1 166 0
 571 0158 2B2B     		cmp	r3, #43
 572 015a 05D1     		bne	.L53
 573              		.loc 1 166 0 is_stmt 0 discriminator 1
 574 015c BEF1000F 		cmp	lr, #0
 575 0160 02D1     		bne	.L53
 576              		.loc 1 166 0 discriminator 2
 577 0162 B2F1FF3F 		cmp	r2, #-1
 578 0166 37D0     		beq	.L109
 579              	.L53:
 167:minmea/minmea.c ****                             sign = 1;
 168:minmea/minmea.c ****                         } else if (*field == '-' && !sign && value == -1) {
 580              		.loc 1 168 0 is_stmt 1
 581 0168 2D2B     		cmp	r3, #45
 582 016a 05D1     		bne	.L55
 583              		.loc 1 168 0 is_stmt 0 discriminator 1
 584 016c BEF1000F 		cmp	lr, #0
 585 0170 02D1     		bne	.L55
 586              		.loc 1 168 0 discriminator 2
 587 0172 B2F1FF3F 		cmp	r2, #-1
 588 0176 32D0     		beq	.L110
 589              	.L55:
 169:minmea/minmea.c ****                             sign = -1;
 170:minmea/minmea.c ****                         } else if (isdigit((unsigned char) *field)) {
 590              		.loc 1 170 0 is_stmt 1
 591 0178 11F0040F 		tst	r1, #4
 592 017c 1CD0     		beq	.L56
 593              	.LBB47:
 171:minmea/minmea.c ****                             int digit = *field - '0';
 594              		.loc 1 171 0
 595 017e 303B     		subs	r3, r3, #48
 596              	.LVL59:
 172:minmea/minmea.c ****                             if (value == -1)
 597              		.loc 1 172 0
 598 0180 B2F1FF3F 		cmp	r2, #-1
 599 0184 00D1     		bne	.L57
 173:minmea/minmea.c ****                                 value = 0;
 600              		.loc 1 173 0
 601 0186 0022     		movs	r2, #0
ARM GAS  C:\Users\crono\AppData\Local\Temp\ccd4dy0n.s 			page 15


 602              	.LVL60:
 603              	.L57:
 174:minmea/minmea.c ****                             if (value > (INT_LEAST32_MAX-digit) / 10) {
 604              		.loc 1 174 0
 605 0188 6FF00041 		mvn	r1, #-2147483648
 606 018c C91A     		subs	r1, r1, r3
 607 018e DFF898C1 		ldr	ip, .L152+4
 608 0192 8CFB018C 		smull	r8, ip, ip, r1
 609 0196 C917     		asrs	r1, r1, #31
 610 0198 C1EBAC01 		rsb	r1, r1, ip, asr #2
 611 019c 8A42     		cmp	r2, r1
 612 019e 02DD     		ble	.L58
 175:minmea/minmea.c ****                                 /* we ran out of bits, what do we do? */
 176:minmea/minmea.c ****                                 if (scale) {
 613              		.loc 1 176 0
 614 01a0 0028     		cmp	r0, #0
 615 01a2 40D1     		bne	.L52
 616 01a4 FDE1     		b	.L34
 617              	.L58:
 177:minmea/minmea.c ****                                     /* truncate extra precision */
 178:minmea/minmea.c ****                                     break;
 179:minmea/minmea.c ****                                 } else {
 180:minmea/minmea.c ****                                     /* integer overflow. bail out. */
 181:minmea/minmea.c ****                                     goto parse_error;
 182:minmea/minmea.c ****                                 }
 183:minmea/minmea.c ****                             }
 184:minmea/minmea.c ****                             value = (10 * value) + digit;
 618              		.loc 1 184 0
 619 01a6 02EB8202 		add	r2, r2, r2, lsl #2
 620              	.LVL61:
 621 01aa 5100     		lsls	r1, r2, #1
 622 01ac 5A18     		adds	r2, r3, r1
 623              	.LVL62:
 185:minmea/minmea.c ****                             if (scale)
 624              		.loc 1 185 0
 625 01ae D0B1     		cbz	r0, .L54
 186:minmea/minmea.c ****                                 scale *= 10;
 626              		.loc 1 186 0
 627 01b0 00EB8003 		add	r3, r0, r0, lsl #2
 628              	.LVL63:
 629 01b4 5800     		lsls	r0, r3, #1
 630              	.LVL64:
 631 01b6 16E0     		b	.L54
 632              	.LVL65:
 633              	.L56:
 634              	.LBE47:
 187:minmea/minmea.c ****                         } else if (*field == '.' && scale == 0) {
 635              		.loc 1 187 0
 636 01b8 2E2B     		cmp	r3, #46
 637 01ba 00D1     		bne	.L59
 638              		.loc 1 187 0 is_stmt 0 discriminator 1
 639 01bc 90B1     		cbz	r0, .L112
 640              	.L59:
 188:minmea/minmea.c ****                             scale = 1;
 189:minmea/minmea.c ****                         } else if (*field == ' ') {
 641              		.loc 1 189 0 is_stmt 1
 642 01be 202B     		cmp	r3, #32
ARM GAS  C:\Users\crono\AppData\Local\Temp\ccd4dy0n.s 			page 16


 643 01c0 40F0E081 		bne	.L113
 190:minmea/minmea.c ****                             /* Allow spaces at the start of the field. Not NMEA
 191:minmea/minmea.c ****                              * conformant, but some modules do this. */
 192:minmea/minmea.c ****                             if (sign != 0 || value != -1 || scale != 0)
 644              		.loc 1 192 0
 645 01c4 BEF1000F 		cmp	lr, #0
 646 01c8 40F0DE81 		bne	.L114
 647              		.loc 1 192 0 is_stmt 0 discriminator 1
 648 01cc B2F1FF3F 		cmp	r2, #-1
 649 01d0 40F0DC81 		bne	.L115
 650              		.loc 1 192 0 discriminator 2
 651 01d4 38B1     		cbz	r0, .L54
 652              	.LBE46:
 653              	.LBE39:
 654 01d6 DBE1     		b	.L116
 655              	.L109:
 656              	.LBB83:
 657              	.LBB50:
 167:minmea/minmea.c ****                         } else if (*field == '-' && !sign && value == -1) {
 658              		.loc 1 167 0 is_stmt 1
 659 01d8 4FF0010E 		mov	lr, #1
 660              	.LVL66:
 661 01dc 03E0     		b	.L54
 662              	.LVL67:
 663              	.L110:
 169:minmea/minmea.c ****                         } else if (isdigit((unsigned char) *field)) {
 664              		.loc 1 169 0
 665 01de 4FF0FF3E 		mov	lr, #-1
 666              	.LVL68:
 667 01e2 00E0     		b	.L54
 668              	.LVL69:
 669              	.L112:
 188:minmea/minmea.c ****                         } else if (*field == ' ') {
 670              		.loc 1 188 0
 671 01e4 0120     		movs	r0, #1
 672              	.LVL70:
 673              	.L54:
 193:minmea/minmea.c ****                                 goto parse_error;
 194:minmea/minmea.c ****                         } else {
 195:minmea/minmea.c ****                             goto parse_error;
 196:minmea/minmea.c ****                         }
 197:minmea/minmea.c ****                         field++;
 674              		.loc 1 197 0
 675 01e6 0137     		adds	r7, r7, #1
 676              	.LVL71:
 677 01e8 03E0     		b	.L51
 678              	.LVL72:
 679              	.L108:
 680 01ea 0020     		movs	r0, #0
 681 01ec 4FF0FF32 		mov	r2, #-1
 682 01f0 8646     		mov	lr, r0
 683              	.LVL73:
 684              	.L51:
 165:minmea/minmea.c ****                         if (*field == '+' && !sign && value == -1) {
 685              		.loc 1 165 0
 686 01f2 3B78     		ldrb	r3, [r7]	@ zero_extendqisi2
 687              	.LVL74:
ARM GAS  C:\Users\crono\AppData\Local\Temp\ccd4dy0n.s 			page 17


 688              	.LBB48:
 689              	.LBB49:
  89:minmea/minmea.c **** }
 690              		.loc 1 89 0
 691 01f4 4B49     		ldr	r1, .L152
 692 01f6 0968     		ldr	r1, [r1]
 693 01f8 1944     		add	r1, r1, r3
 694 01fa 4978     		ldrb	r1, [r1, #1]	@ zero_extendqisi2
 695 01fc 11F0970F 		tst	r1, #151
 696 0200 06D0     		beq	.L117
 697 0202 2C2B     		cmp	r3, #44
 698 0204 07D0     		beq	.L118
 699 0206 2A2B     		cmp	r3, #42
 700 0208 08D1     		bne	.L119
 701 020a 4FF0000C 		mov	ip, #0
 702 020e 07E0     		b	.L60
 703              	.L117:
 704 0210 4FF0000C 		mov	ip, #0
 705 0214 04E0     		b	.L60
 706              	.L118:
 707 0216 4FF0000C 		mov	ip, #0
 708 021a 01E0     		b	.L60
 709              	.L119:
 710 021c 4FF0010C 		mov	ip, #1
 711              	.L60:
 712              	.LVL75:
 713              	.LBE49:
 714              	.LBE48:
 165:minmea/minmea.c ****                         if (*field == '+' && !sign && value == -1) {
 715              		.loc 1 165 0
 716 0220 BCF1000F 		cmp	ip, #0
 717 0224 98D1     		bne	.L61
 718              	.LVL76:
 719              	.L52:
 198:minmea/minmea.c ****                     }
 199:minmea/minmea.c ****                 }
 200:minmea/minmea.c **** 
 201:minmea/minmea.c ****                 if ((sign || scale) && value == -1)
 720              		.loc 1 201 0
 721 0226 BEF1000F 		cmp	lr, #0
 722 022a 00D1     		bne	.L62
 723              		.loc 1 201 0 is_stmt 0 discriminator 2
 724 022c 18B1     		cbz	r0, .L63
 725              	.L62:
 726              		.loc 1 201 0 discriminator 3
 727 022e B2F1FF3F 		cmp	r2, #-1
 728 0232 00F0AF81 		beq	.L120
 729              	.L63:
 202:minmea/minmea.c ****                     goto parse_error;
 203:minmea/minmea.c **** 
 204:minmea/minmea.c ****                 if (value == -1) {
 730              		.loc 1 204 0 is_stmt 1
 731 0236 B2F1FF3F 		cmp	r2, #-1
 732 023a 01D0     		beq	.L121
 205:minmea/minmea.c ****                     /* No digits were scanned. */
 206:minmea/minmea.c ****                     value = 0;
 207:minmea/minmea.c ****                     scale = 0;
ARM GAS  C:\Users\crono\AppData\Local\Temp\ccd4dy0n.s 			page 18


 208:minmea/minmea.c ****                 } else if (scale == 0) {
 733              		.loc 1 208 0
 734 023c 18B1     		cbz	r0, .L122
 735 023e 03E0     		b	.L64
 736              	.L121:
 207:minmea/minmea.c ****                 } else if (scale == 0) {
 737              		.loc 1 207 0
 738 0240 0020     		movs	r0, #0
 739              	.LVL77:
 206:minmea/minmea.c ****                     scale = 0;
 740              		.loc 1 206 0
 741 0242 0246     		mov	r2, r0
 742              	.LVL78:
 743 0244 00E0     		b	.L64
 744              	.LVL79:
 745              	.L122:
 209:minmea/minmea.c ****                     /* No decimal point. */
 210:minmea/minmea.c ****                     scale = 1;
 746              		.loc 1 210 0
 747 0246 0120     		movs	r0, #1
 748              	.LVL80:
 749              	.L64:
 211:minmea/minmea.c ****                 }
 212:minmea/minmea.c ****                 if (sign)
 750              		.loc 1 212 0
 751 0248 BEF1000F 		cmp	lr, #0
 752 024c 01D0     		beq	.L65
 213:minmea/minmea.c ****                     value *= sign;
 753              		.loc 1 213 0
 754 024e 0EFB02F2 		mul	r2, lr, r2
 755              	.LVL81:
 756              	.L65:
 214:minmea/minmea.c **** 
 215:minmea/minmea.c ****                 *va_arg(ap, struct minmea_float *) = (struct minmea_float) {value, scale};
 757              		.loc 1 215 0
 758 0252 039B     		ldr	r3, [sp, #12]
 759 0254 191D     		adds	r1, r3, #4
 760 0256 0391     		str	r1, [sp, #12]
 761 0258 1B68     		ldr	r3, [r3]
 762 025a 1A60     		str	r2, [r3]
 763 025c 5860     		str	r0, [r3, #4]
 764              	.LBE50:
 216:minmea/minmea.c ****             } break;
 765              		.loc 1 216 0
 766 025e 68E1     		b	.L66
 767              	.LVL82:
 768              	.L42:
 769              	.LBB51:
 217:minmea/minmea.c **** 
 218:minmea/minmea.c ****             case 'i': { // Integer value, default 0 (int).
 219:minmea/minmea.c ****                 int value = 0;
 220:minmea/minmea.c **** 
 221:minmea/minmea.c ****                 if (field) {
 770              		.loc 1 221 0
 771 0260 DFB1     		cbz	r7, .L123
 772              	.LBB52:
 222:minmea/minmea.c ****                     char *endptr;
ARM GAS  C:\Users\crono\AppData\Local\Temp\ccd4dy0n.s 			page 19


 223:minmea/minmea.c ****                     value = strtol(field, &endptr, 10);
 773              		.loc 1 223 0
 774 0262 0A22     		movs	r2, #10
 775 0264 02A9     		add	r1, sp, #8
 776 0266 3846     		mov	r0, r7
 777 0268 FFF7FEFF 		bl	strtol
 778              	.LVL83:
 224:minmea/minmea.c ****                     if (minmea_isfield(*endptr))
 779              		.loc 1 224 0
 780 026c 029B     		ldr	r3, [sp, #8]
 781 026e 1A78     		ldrb	r2, [r3]	@ zero_extendqisi2
 782              	.LVL84:
 783              	.LBB53:
 784              	.LBB54:
  89:minmea/minmea.c **** }
 785              		.loc 1 89 0
 786 0270 2C4B     		ldr	r3, .L152
 787 0272 1B68     		ldr	r3, [r3]
 788 0274 1344     		add	r3, r3, r2
 789 0276 5B78     		ldrb	r3, [r3, #1]	@ zero_extendqisi2
 790 0278 13F0970F 		tst	r3, #151
 791 027c 05D0     		beq	.L124
 792 027e 2C2A     		cmp	r2, #44
 793 0280 05D0     		beq	.L125
 794 0282 2A2A     		cmp	r2, #42
 795 0284 05D1     		bne	.L126
 796 0286 0023     		movs	r3, #0
 797 0288 04E0     		b	.L68
 798              	.L124:
 799 028a 0023     		movs	r3, #0
 800 028c 02E0     		b	.L68
 801              	.L125:
 802 028e 0023     		movs	r3, #0
 803 0290 00E0     		b	.L68
 804              	.L126:
 805 0292 0123     		movs	r3, #1
 806              	.L68:
 807              	.LVL85:
 808              	.LBE54:
 809              	.LBE53:
 810              		.loc 1 224 0
 811 0294 13B1     		cbz	r3, .L67
 812              	.LBE52:
 813              	.LBE51:
 814              	.LBE83:
  94:minmea/minmea.c ****     bool optional = false;
 815              		.loc 1 94 0
 816 0296 0020     		movs	r0, #0
 817              	.LVL86:
 818 0298 83E1     		b	.L34
 819              	.LVL87:
 820              	.L123:
 821              	.LBB84:
 822              	.LBB55:
 219:minmea/minmea.c **** 
 823              		.loc 1 219 0
 824 029a 0020     		movs	r0, #0
ARM GAS  C:\Users\crono\AppData\Local\Temp\ccd4dy0n.s 			page 20


 825              	.LVL88:
 826              	.L67:
 225:minmea/minmea.c ****                         goto parse_error;
 226:minmea/minmea.c ****                 }
 227:minmea/minmea.c **** 
 228:minmea/minmea.c ****                 *va_arg(ap, int *) = value;
 827              		.loc 1 228 0
 828 029c 039B     		ldr	r3, [sp, #12]
 829 029e 1A1D     		adds	r2, r3, #4
 830 02a0 0392     		str	r2, [sp, #12]
 831 02a2 1B68     		ldr	r3, [r3]
 832 02a4 1860     		str	r0, [r3]
 833              	.LBE55:
 229:minmea/minmea.c ****             } break;
 834              		.loc 1 229 0
 835 02a6 44E1     		b	.L66
 836              	.LVL89:
 837              	.L43:
 838              	.LBB56:
 230:minmea/minmea.c **** 
 231:minmea/minmea.c ****             case 's': { // String value (char *).
 232:minmea/minmea.c ****                 char *buf = va_arg(ap, char *);
 839              		.loc 1 232 0
 840 02a8 039B     		ldr	r3, [sp, #12]
 841 02aa 1A1D     		adds	r2, r3, #4
 842 02ac 0392     		str	r2, [sp, #12]
 843 02ae 1968     		ldr	r1, [r3]
 844              	.LVL90:
 233:minmea/minmea.c **** 
 234:minmea/minmea.c ****                 if (field) {
 845              		.loc 1 234 0
 846 02b0 1FB9     		cbnz	r7, .L70
 847 02b2 17E0     		b	.L71
 848              	.L73:
 849              	.LVL91:
 235:minmea/minmea.c ****                     while (minmea_isfield(*field))
 236:minmea/minmea.c ****                         *buf++ = *field++;
 850              		.loc 1 236 0
 851 02b4 0137     		adds	r7, r7, #1
 852              	.LVL92:
 853 02b6 0A70     		strb	r2, [r1]
 854 02b8 0131     		adds	r1, r1, #1
 855              	.LVL93:
 856              	.L70:
 235:minmea/minmea.c ****                     while (minmea_isfield(*field))
 857              		.loc 1 235 0
 858 02ba 3A78     		ldrb	r2, [r7]	@ zero_extendqisi2
 859              	.LVL94:
 860              	.LBB57:
 861              	.LBB58:
  89:minmea/minmea.c **** }
 862              		.loc 1 89 0
 863 02bc 194B     		ldr	r3, .L152
 864 02be 1B68     		ldr	r3, [r3]
 865 02c0 1344     		add	r3, r3, r2
 866 02c2 5B78     		ldrb	r3, [r3, #1]	@ zero_extendqisi2
 867 02c4 13F0970F 		tst	r3, #151
ARM GAS  C:\Users\crono\AppData\Local\Temp\ccd4dy0n.s 			page 21


 868 02c8 05D0     		beq	.L127
 869 02ca 2C2A     		cmp	r2, #44
 870 02cc 05D0     		beq	.L128
 871 02ce 2A2A     		cmp	r2, #42
 872 02d0 05D1     		bne	.L129
 873 02d2 0023     		movs	r3, #0
 874 02d4 04E0     		b	.L72
 875              	.L127:
 876 02d6 0023     		movs	r3, #0
 877 02d8 02E0     		b	.L72
 878              	.L128:
 879 02da 0023     		movs	r3, #0
 880 02dc 00E0     		b	.L72
 881              	.L129:
 882 02de 0123     		movs	r3, #1
 883              	.L72:
 884              	.LVL95:
 885              	.LBE58:
 886              	.LBE57:
 235:minmea/minmea.c ****                     while (minmea_isfield(*field))
 887              		.loc 1 235 0
 888 02e0 002B     		cmp	r3, #0
 889 02e2 E7D1     		bne	.L73
 890              	.L71:
 237:minmea/minmea.c ****                 }
 238:minmea/minmea.c **** 
 239:minmea/minmea.c ****                 *buf = '\0';
 891              		.loc 1 239 0
 892 02e4 0023     		movs	r3, #0
 893 02e6 0B70     		strb	r3, [r1]
 894              	.LBE56:
 240:minmea/minmea.c ****             } break;
 895              		.loc 1 240 0
 896 02e8 23E1     		b	.L66
 897              	.LVL96:
 898              	.L44:
 899              	.LBB59:
 241:minmea/minmea.c **** 
 242:minmea/minmea.c ****             case 't': { // NMEA talker+sentence identifier (char *).
 243:minmea/minmea.c ****                 // This field is always mandatory.
 244:minmea/minmea.c ****                 if (!field)
 900              		.loc 1 244 0
 901 02ea 002F     		cmp	r7, #0
 902 02ec 00F05481 		beq	.L130
 245:minmea/minmea.c ****                     goto parse_error;
 246:minmea/minmea.c **** 
 247:minmea/minmea.c ****                 if (field[0] != '$')
 903              		.loc 1 247 0
 904 02f0 3B78     		ldrb	r3, [r7]	@ zero_extendqisi2
 905 02f2 242B     		cmp	r3, #36
 906 02f4 40F05281 		bne	.L131
 907 02f8 0023     		movs	r3, #0
 908 02fa 1BE0     		b	.L74
 909              	.LVL97:
 910              	.L76:
 911              	.LBB60:
 248:minmea/minmea.c ****                     goto parse_error;
ARM GAS  C:\Users\crono\AppData\Local\Temp\ccd4dy0n.s 			page 22


 249:minmea/minmea.c ****                 for (int f=0; f<5; f++)
 250:minmea/minmea.c ****                     if (!minmea_isfield(field[1+f]))
 912              		.loc 1 250 0
 913 02fc 0133     		adds	r3, r3, #1
 914              	.LVL98:
 915 02fe F95C     		ldrb	r1, [r7, r3]	@ zero_extendqisi2
 916              	.LVL99:
 917              	.LBB61:
 918              	.LBB62:
  89:minmea/minmea.c **** }
 919              		.loc 1 89 0
 920 0300 084A     		ldr	r2, .L152
 921 0302 1268     		ldr	r2, [r2]
 922 0304 0A44     		add	r2, r2, r1
 923 0306 5278     		ldrb	r2, [r2, #1]	@ zero_extendqisi2
 924 0308 12F0970F 		tst	r2, #151
 925 030c 05D0     		beq	.L132
 926 030e 2C29     		cmp	r1, #44
 927 0310 05D0     		beq	.L133
 928 0312 2A29     		cmp	r1, #42
 929 0314 0AD1     		bne	.L134
 930 0316 0022     		movs	r2, #0
 931 0318 09E0     		b	.L75
 932              	.L132:
 933 031a 0022     		movs	r2, #0
 934 031c 07E0     		b	.L75
 935              	.L133:
 936 031e 0022     		movs	r2, #0
 937 0320 05E0     		b	.L75
 938              	.L153:
 939 0322 00BF     		.align	2
 940              	.L152:
 941 0324 00000000 		.word	__ctype_ptr__
 942 0328 67666666 		.word	1717986919
 943              	.L134:
 944 032c 0122     		movs	r2, #1
 945              	.L75:
 946              	.LVL100:
 947              	.LBE62:
 948              	.LBE61:
 949              		.loc 1 250 0
 950 032e 002A     		cmp	r2, #0
 951 0330 00F03681 		beq	.L135
 952              	.LVL101:
 953              	.L74:
 249:minmea/minmea.c ****                     if (!minmea_isfield(field[1+f]))
 954              		.loc 1 249 0 discriminator 1
 955 0334 042B     		cmp	r3, #4
 956 0336 E1DD     		ble	.L76
 957              	.LBE60:
 251:minmea/minmea.c ****                         goto parse_error;
 252:minmea/minmea.c **** 
 253:minmea/minmea.c ****                 char *buf = va_arg(ap, char *);
 958              		.loc 1 253 0
 959 0338 039B     		ldr	r3, [sp, #12]
 960              	.LVL102:
 961 033a 1A1D     		adds	r2, r3, #4
ARM GAS  C:\Users\crono\AppData\Local\Temp\ccd4dy0n.s 			page 23


 962 033c 0392     		str	r2, [sp, #12]
 963 033e 1B68     		ldr	r3, [r3]
 964              	.LVL103:
 254:minmea/minmea.c ****                 memcpy(buf, field+1, 5);
 965              		.loc 1 254 0
 966 0340 57F8012F 		ldr	r2, [r7, #1]!	@ unaligned
 967              	.LVL104:
 968 0344 1A60     		str	r2, [r3]	@ unaligned
 969 0346 3A79     		ldrb	r2, [r7, #4]	@ zero_extendqisi2
 970 0348 1A71     		strb	r2, [r3, #4]
 255:minmea/minmea.c ****                 buf[5] = '\0';
 971              		.loc 1 255 0
 972 034a 0022     		movs	r2, #0
 973 034c 5A71     		strb	r2, [r3, #5]
 974              	.LBE59:
 256:minmea/minmea.c ****             } break;
 975              		.loc 1 256 0
 976 034e F0E0     		b	.L66
 977              	.LVL105:
 978              	.L35:
 979              	.LBB63:
 257:minmea/minmea.c **** 
 258:minmea/minmea.c ****             case 'D': { // Date (int, int, int), -1 if empty.
 259:minmea/minmea.c ****                 struct minmea_date *date = va_arg(ap, struct minmea_date *);
 980              		.loc 1 259 0
 981 0350 039B     		ldr	r3, [sp, #12]
 982 0352 1A1D     		adds	r2, r3, #4
 983 0354 0392     		str	r2, [sp, #12]
 984 0356 D3F80080 		ldr	r8, [r3]
 985              	.LVL106:
 260:minmea/minmea.c **** 
 261:minmea/minmea.c ****                 int d = -1, m = -1, y = -1;
 262:minmea/minmea.c **** 
 263:minmea/minmea.c ****                 if (field && minmea_isfield(*field)) {
 986              		.loc 1 263 0
 987 035a 002F     		cmp	r7, #0
 988 035c 50D0     		beq	.L136
 989              		.loc 1 263 0 is_stmt 0 discriminator 1
 990 035e 3878     		ldrb	r0, [r7]	@ zero_extendqisi2
 991              	.LVL107:
 992              	.LBB64:
 993              	.LBB65:
  89:minmea/minmea.c **** }
 994              		.loc 1 89 0 is_stmt 1 discriminator 1
 995 0360 924B     		ldr	r3, .L154
 996 0362 1968     		ldr	r1, [r3]
 997 0364 0B18     		adds	r3, r1, r0
 998 0366 5B78     		ldrb	r3, [r3, #1]	@ zero_extendqisi2
 999 0368 13F0970F 		tst	r3, #151
 1000 036c 05D0     		beq	.L137
  89:minmea/minmea.c **** }
 1001              		.loc 1 89 0 is_stmt 0
 1002 036e 2C28     		cmp	r0, #44
 1003 0370 05D0     		beq	.L138
 1004 0372 2A28     		cmp	r0, #42
 1005 0374 05D1     		bne	.L139
 1006 0376 0023     		movs	r3, #0
ARM GAS  C:\Users\crono\AppData\Local\Temp\ccd4dy0n.s 			page 24


 1007 0378 04E0     		b	.L78
 1008              	.L137:
 1009 037a 0023     		movs	r3, #0
 1010 037c 02E0     		b	.L78
 1011              	.L138:
 1012 037e 0023     		movs	r3, #0
 1013 0380 00E0     		b	.L78
 1014              	.L139:
 1015 0382 0123     		movs	r3, #1
 1016              	.L78:
 1017              	.LVL108:
 1018              	.LBE65:
 1019              	.LBE64:
 1020              		.loc 1 263 0 is_stmt 1
 1021 0384 63B9     		cbnz	r3, .L140
 261:minmea/minmea.c **** 
 1022              		.loc 1 261 0
 1023 0386 4FF0FF30 		mov	r0, #-1
 1024 038a 0746     		mov	r7, r0
 1025              	.LVL109:
 1026 038c 8246     		mov	r10, r0
 1027 038e 3BE0     		b	.L77
 1028              	.LVL110:
 1029              	.L81:
 1030              	.LBB66:
 1031              	.LBB67:
 264:minmea/minmea.c ****                     // Always six digits.
 265:minmea/minmea.c ****                     for (int f=0; f<6; f++)
 266:minmea/minmea.c ****                         if (!isdigit((unsigned char) field[f]))
 1032              		.loc 1 266 0
 1033 0390 FA5C     		ldrb	r2, [r7, r3]	@ zero_extendqisi2
 1034 0392 0A44     		add	r2, r2, r1
 1035 0394 5278     		ldrb	r2, [r2, #1]	@ zero_extendqisi2
 1036 0396 12F0040F 		tst	r2, #4
 1037 039a 2FD0     		beq	.L80
 265:minmea/minmea.c ****                         if (!isdigit((unsigned char) field[f]))
 1038              		.loc 1 265 0 discriminator 2
 1039 039c 0133     		adds	r3, r3, #1
 1040              	.LVL111:
 1041 039e 00E0     		b	.L79
 1042              	.LVL112:
 1043              	.L140:
 1044              	.LBE67:
 1045              	.LBE66:
 1046 03a0 0023     		movs	r3, #0
 1047              	.L79:
 1048              	.LVL113:
 1049              	.LBB69:
 1050              	.LBB68:
 265:minmea/minmea.c ****                         if (!isdigit((unsigned char) field[f]))
 1051              		.loc 1 265 0 is_stmt 0 discriminator 1
 1052 03a2 052B     		cmp	r3, #5
 1053 03a4 F4DD     		ble	.L81
 1054              	.LBE68:
 267:minmea/minmea.c ****                             goto parse_error;
 268:minmea/minmea.c **** 
 269:minmea/minmea.c ****                     char dArr[] = {field[0], field[1], '\0'};
ARM GAS  C:\Users\crono\AppData\Local\Temp\ccd4dy0n.s 			page 25


 1055              		.loc 1 269 0 is_stmt 1
 1056 03a6 8DF80000 		strb	r0, [sp]
 1057 03aa 7B78     		ldrb	r3, [r7, #1]	@ zero_extendqisi2
 1058              	.LVL114:
 1059 03ac 8DF80130 		strb	r3, [sp, #1]
 1060 03b0 4FF00009 		mov	r9, #0
 1061 03b4 8DF80290 		strb	r9, [sp, #2]
 270:minmea/minmea.c ****                     char mArr[] = {field[2], field[3], '\0'};
 1062              		.loc 1 270 0
 1063 03b8 BB78     		ldrb	r3, [r7, #2]	@ zero_extendqisi2
 1064 03ba 8DF80430 		strb	r3, [sp, #4]
 1065 03be FB78     		ldrb	r3, [r7, #3]	@ zero_extendqisi2
 1066 03c0 8DF80530 		strb	r3, [sp, #5]
 1067 03c4 8DF80690 		strb	r9, [sp, #6]
 271:minmea/minmea.c ****                     char yArr[] = {field[4], field[5], '\0'};
 1068              		.loc 1 271 0
 1069 03c8 3B79     		ldrb	r3, [r7, #4]	@ zero_extendqisi2
 1070 03ca 8DF80830 		strb	r3, [sp, #8]
 1071 03ce 7B79     		ldrb	r3, [r7, #5]	@ zero_extendqisi2
 1072 03d0 8DF80930 		strb	r3, [sp, #9]
 1073 03d4 8DF80A90 		strb	r9, [sp, #10]
 272:minmea/minmea.c ****                     d = strtol(dArr, NULL, 10);
 1074              		.loc 1 272 0
 1075 03d8 0A22     		movs	r2, #10
 1076 03da 4946     		mov	r1, r9
 1077 03dc 6846     		mov	r0, sp
 1078 03de FFF7FEFF 		bl	strtol
 1079              	.LVL115:
 1080 03e2 8246     		mov	r10, r0
 1081              	.LVL116:
 273:minmea/minmea.c ****                     m = strtol(mArr, NULL, 10);
 1082              		.loc 1 273 0
 1083 03e4 0A22     		movs	r2, #10
 1084 03e6 4946     		mov	r1, r9
 1085 03e8 01A8     		add	r0, sp, #4
 1086              	.LVL117:
 1087 03ea FFF7FEFF 		bl	strtol
 1088              	.LVL118:
 1089 03ee 0746     		mov	r7, r0
 1090              	.LVL119:
 274:minmea/minmea.c ****                     y = strtol(yArr, NULL, 10);
 1091              		.loc 1 274 0
 1092 03f0 0A22     		movs	r2, #10
 1093 03f2 4946     		mov	r1, r9
 1094 03f4 02A8     		add	r0, sp, #8
 1095              	.LVL120:
 1096 03f6 FFF7FEFF 		bl	strtol
 1097              	.LVL121:
 1098 03fa 05E0     		b	.L77
 1099              	.LVL122:
 1100              	.L80:
 1101              	.LBE69:
 1102              	.LBE63:
 1103              	.LBE84:
  94:minmea/minmea.c ****     bool optional = false;
 1104              		.loc 1 94 0
 1105 03fc 0020     		movs	r0, #0
ARM GAS  C:\Users\crono\AppData\Local\Temp\ccd4dy0n.s 			page 26


 1106 03fe D0E0     		b	.L34
 1107              	.LVL123:
 1108              	.L136:
 1109              	.LBB85:
 1110              	.LBB70:
 261:minmea/minmea.c **** 
 1111              		.loc 1 261 0
 1112 0400 4FF0FF30 		mov	r0, #-1
 1113 0404 0746     		mov	r7, r0
 1114              	.LVL124:
 1115 0406 8246     		mov	r10, r0
 1116              	.LVL125:
 1117              	.L77:
 275:minmea/minmea.c ****                 }
 276:minmea/minmea.c **** 
 277:minmea/minmea.c ****                 date->day = d;
 1118              		.loc 1 277 0
 1119 0408 C8F800A0 		str	r10, [r8]
 278:minmea/minmea.c ****                 date->month = m;
 1120              		.loc 1 278 0
 1121 040c C8F80470 		str	r7, [r8, #4]
 279:minmea/minmea.c ****                 date->year = y;
 1122              		.loc 1 279 0
 1123 0410 C8F80800 		str	r0, [r8, #8]
 1124              	.LBE70:
 280:minmea/minmea.c ****             } break;
 1125              		.loc 1 280 0
 1126 0414 8DE0     		b	.L66
 1127              	.LVL126:
 1128              	.L37:
 1129              	.LBB71:
 281:minmea/minmea.c **** 
 282:minmea/minmea.c ****             case 'T': { // Time (int, int, int, int), -1 if empty.
 283:minmea/minmea.c ****                 struct minmea_time *time_ = va_arg(ap, struct minmea_time *);
 1130              		.loc 1 283 0
 1131 0416 039B     		ldr	r3, [sp, #12]
 1132 0418 1A1D     		adds	r2, r3, #4
 1133 041a 0392     		str	r2, [sp, #12]
 1134 041c D3F80080 		ldr	r8, [r3]
 1135              	.LVL127:
 284:minmea/minmea.c **** 
 285:minmea/minmea.c ****                 int h = -1, i = -1, s = -1, u = -1;
 286:minmea/minmea.c **** 
 287:minmea/minmea.c ****                 if (field && minmea_isfield(*field)) {
 1136              		.loc 1 287 0
 1137 0420 002F     		cmp	r7, #0
 1138 0422 77D0     		beq	.L141
 1139              		.loc 1 287 0 is_stmt 0 discriminator 1
 1140 0424 3878     		ldrb	r0, [r7]	@ zero_extendqisi2
 1141              	.LVL128:
 1142              	.LBB72:
 1143              	.LBB73:
  89:minmea/minmea.c **** }
 1144              		.loc 1 89 0 is_stmt 1 discriminator 1
 1145 0426 614B     		ldr	r3, .L154
 1146 0428 1968     		ldr	r1, [r3]
 1147 042a 0B18     		adds	r3, r1, r0
ARM GAS  C:\Users\crono\AppData\Local\Temp\ccd4dy0n.s 			page 27


 1148 042c 5B78     		ldrb	r3, [r3, #1]	@ zero_extendqisi2
 1149 042e 13F0970F 		tst	r3, #151
 1150 0432 05D0     		beq	.L142
  89:minmea/minmea.c **** }
 1151              		.loc 1 89 0 is_stmt 0
 1152 0434 2C28     		cmp	r0, #44
 1153 0436 05D0     		beq	.L143
 1154 0438 2A28     		cmp	r0, #42
 1155 043a 05D1     		bne	.L144
 1156 043c 0023     		movs	r3, #0
 1157 043e 04E0     		b	.L83
 1158              	.L142:
 1159 0440 0023     		movs	r3, #0
 1160 0442 02E0     		b	.L83
 1161              	.L143:
 1162 0444 0023     		movs	r3, #0
 1163 0446 00E0     		b	.L83
 1164              	.L144:
 1165 0448 0123     		movs	r3, #1
 1166              	.L83:
 1167              	.LVL129:
 1168              	.LBE73:
 1169              	.LBE72:
 1170              		.loc 1 287 0 is_stmt 1
 1171 044a 6BB9     		cbnz	r3, .L145
 285:minmea/minmea.c **** 
 1172              		.loc 1 285 0
 1173 044c 4FF0FF33 		mov	r3, #-1
 1174 0450 1846     		mov	r0, r3
 1175 0452 9946     		mov	r9, r3
 1176 0454 9A46     		mov	r10, r3
 1177 0456 62E0     		b	.L82
 1178              	.LVL130:
 1179              	.L86:
 1180              	.LBB74:
 1181              	.LBB75:
 288:minmea/minmea.c ****                     // Minimum required: integer time.
 289:minmea/minmea.c ****                     for (int f=0; f<6; f++)
 290:minmea/minmea.c ****                         if (!isdigit((unsigned char) field[f]))
 1182              		.loc 1 290 0
 1183 0458 FA5C     		ldrb	r2, [r7, r3]	@ zero_extendqisi2
 1184 045a 0A44     		add	r2, r2, r1
 1185 045c 5278     		ldrb	r2, [r2, #1]	@ zero_extendqisi2
 1186 045e 12F0040F 		tst	r2, #4
 1187 0462 55D0     		beq	.L85
 289:minmea/minmea.c ****                         if (!isdigit((unsigned char) field[f]))
 1188              		.loc 1 289 0 discriminator 2
 1189 0464 0133     		adds	r3, r3, #1
 1190              	.LVL131:
 1191 0466 00E0     		b	.L84
 1192              	.LVL132:
 1193              	.L145:
 1194              	.LBE75:
 1195              	.LBE74:
 1196 0468 0023     		movs	r3, #0
 1197              	.L84:
 1198              	.LVL133:
ARM GAS  C:\Users\crono\AppData\Local\Temp\ccd4dy0n.s 			page 28


 1199              	.LBB79:
 1200              	.LBB76:
 289:minmea/minmea.c ****                         if (!isdigit((unsigned char) field[f]))
 1201              		.loc 1 289 0 is_stmt 0 discriminator 1
 1202 046a 052B     		cmp	r3, #5
 1203 046c F4DD     		ble	.L86
 1204              	.LBE76:
 291:minmea/minmea.c ****                             goto parse_error;
 292:minmea/minmea.c **** 
 293:minmea/minmea.c ****                     char hArr[] = {field[0], field[1], '\0'};
 1205              		.loc 1 293 0 is_stmt 1
 1206 046e 8DF80000 		strb	r0, [sp]
 1207 0472 7B78     		ldrb	r3, [r7, #1]	@ zero_extendqisi2
 1208              	.LVL134:
 1209 0474 8DF80130 		strb	r3, [sp, #1]
 1210 0478 4FF0000B 		mov	fp, #0
 1211 047c 8DF802B0 		strb	fp, [sp, #2]
 294:minmea/minmea.c ****                     char iArr[] = {field[2], field[3], '\0'};
 1212              		.loc 1 294 0
 1213 0480 BB78     		ldrb	r3, [r7, #2]	@ zero_extendqisi2
 1214 0482 8DF80430 		strb	r3, [sp, #4]
 1215 0486 FB78     		ldrb	r3, [r7, #3]	@ zero_extendqisi2
 1216 0488 8DF80530 		strb	r3, [sp, #5]
 1217 048c 8DF806B0 		strb	fp, [sp, #6]
 295:minmea/minmea.c ****                     char sArr[] = {field[4], field[5], '\0'};
 1218              		.loc 1 295 0
 1219 0490 3B79     		ldrb	r3, [r7, #4]	@ zero_extendqisi2
 1220 0492 8DF80830 		strb	r3, [sp, #8]
 1221 0496 7B79     		ldrb	r3, [r7, #5]	@ zero_extendqisi2
 1222 0498 8DF80930 		strb	r3, [sp, #9]
 1223 049c 8DF80AB0 		strb	fp, [sp, #10]
 296:minmea/minmea.c ****                     h = strtol(hArr, NULL, 10);
 1224              		.loc 1 296 0
 1225 04a0 0A22     		movs	r2, #10
 1226 04a2 5946     		mov	r1, fp
 1227 04a4 6846     		mov	r0, sp
 1228 04a6 FFF7FEFF 		bl	strtol
 1229              	.LVL135:
 1230 04aa 8246     		mov	r10, r0
 1231              	.LVL136:
 297:minmea/minmea.c ****                     i = strtol(iArr, NULL, 10);
 1232              		.loc 1 297 0
 1233 04ac 0A22     		movs	r2, #10
 1234 04ae 5946     		mov	r1, fp
 1235 04b0 01A8     		add	r0, sp, #4
 1236              	.LVL137:
 1237 04b2 FFF7FEFF 		bl	strtol
 1238              	.LVL138:
 1239 04b6 8146     		mov	r9, r0
 1240              	.LVL139:
 298:minmea/minmea.c ****                     s = strtol(sArr, NULL, 10);
 1241              		.loc 1 298 0
 1242 04b8 0A22     		movs	r2, #10
 1243 04ba 5946     		mov	r1, fp
 1244 04bc 02A8     		add	r0, sp, #8
 1245              	.LVL140:
 1246 04be FFF7FEFF 		bl	strtol
ARM GAS  C:\Users\crono\AppData\Local\Temp\ccd4dy0n.s 			page 29


 1247              	.LVL141:
 299:minmea/minmea.c ****                     field += 6;
 300:minmea/minmea.c **** 
 301:minmea/minmea.c ****                     // Extra: fractional time. Saved as microseconds.
 302:minmea/minmea.c ****                     if (*field++ == '.') {
 1248              		.loc 1 302 0
 1249 04c2 07F1070C 		add	ip, r7, #7
 1250              	.LVL142:
 1251 04c6 BB79     		ldrb	r3, [r7, #6]	@ zero_extendqisi2
 1252 04c8 2E2B     		cmp	r3, #46
 1253 04ca 0FD0     		beq	.L146
 303:minmea/minmea.c ****                         uint32_t value = 0;
 304:minmea/minmea.c ****                         uint32_t scale = 1000000LU;
 305:minmea/minmea.c ****                         while (isdigit((unsigned char) *field) && scale > 1) {
 306:minmea/minmea.c ****                             value = (value * 10) + (*field++ - '0');
 307:minmea/minmea.c ****                             scale /= 10;
 308:minmea/minmea.c ****                         }
 309:minmea/minmea.c ****                         u = value * scale;
 310:minmea/minmea.c ****                     } else {
 311:minmea/minmea.c ****                         u = 0;
 1254              		.loc 1 311 0
 1255 04cc 5B46     		mov	r3, fp
 1256 04ce 26E0     		b	.L82
 1257              	.LVL143:
 1258              	.L90:
 1259              	.LBB77:
 306:minmea/minmea.c ****                             scale /= 10;
 1260              		.loc 1 306 0
 1261 04d0 01EB8103 		add	r3, r1, r1, lsl #2
 1262 04d4 5F00     		lsls	r7, r3, #1
 1263 04d6 0CF1010C 		add	ip, ip, #1
 1264              	.LVL144:
 1265 04da 0BEB0703 		add	r3, fp, r7
 1266 04de A3F13001 		sub	r1, r3, #48
 1267              	.LVL145:
 307:minmea/minmea.c ****                         }
 1268              		.loc 1 307 0
 1269 04e2 334B     		ldr	r3, .L154+4
 1270 04e4 A3FB0223 		umull	r2, r3, r3, r2
 1271              	.LVL146:
 1272 04e8 DA08     		lsrs	r2, r3, #3
 1273              	.LVL147:
 1274 04ea 01E0     		b	.L87
 1275              	.LVL148:
 1276              	.L146:
 1277              	.LBE77:
 1278 04ec 314A     		ldr	r2, .L154+8
 1279 04ee 0021     		movs	r1, #0
 1280              	.L87:
 1281              	.LVL149:
 1282              	.LBB78:
 305:minmea/minmea.c ****                             value = (value * 10) + (*field++ - '0');
 1283              		.loc 1 305 0
 1284 04f0 9CF800B0 		ldrb	fp, [ip]	@ zero_extendqisi2
 1285 04f4 2D4B     		ldr	r3, .L154
 1286 04f6 1B68     		ldr	r3, [r3]
 1287 04f8 03EB0B0E 		add	lr, r3, fp
ARM GAS  C:\Users\crono\AppData\Local\Temp\ccd4dy0n.s 			page 30


 1288 04fc 9EF80130 		ldrb	r3, [lr, #1]	@ zero_extendqisi2
 1289 0500 13F0040F 		tst	r3, #4
 1290 0504 01D0     		beq	.L89
 305:minmea/minmea.c ****                             value = (value * 10) + (*field++ - '0');
 1291              		.loc 1 305 0 is_stmt 0 discriminator 1
 1292 0506 012A     		cmp	r2, #1
 1293 0508 E2D8     		bhi	.L90
 1294              	.L89:
 309:minmea/minmea.c ****                     } else {
 1295              		.loc 1 309 0 is_stmt 1
 1296 050a 02FB01F3 		mul	r3, r2, r1
 1297              	.LVL150:
 1298              	.LBE78:
 1299 050e 06E0     		b	.L82
 1300              	.LVL151:
 1301              	.L85:
 1302              	.LBE79:
 1303              	.LBE71:
 1304              	.LBE85:
  94:minmea/minmea.c ****     bool optional = false;
 1305              		.loc 1 94 0
 1306 0510 0020     		movs	r0, #0
 1307 0512 46E0     		b	.L34
 1308              	.LVL152:
 1309              	.L141:
 1310              	.LBB86:
 1311              	.LBB80:
 285:minmea/minmea.c **** 
 1312              		.loc 1 285 0
 1313 0514 4FF0FF33 		mov	r3, #-1
 1314 0518 1846     		mov	r0, r3
 1315 051a 9946     		mov	r9, r3
 1316 051c 9A46     		mov	r10, r3
 1317              	.LVL153:
 1318              	.L82:
 312:minmea/minmea.c ****                     }
 313:minmea/minmea.c ****                 }
 314:minmea/minmea.c **** 
 315:minmea/minmea.c ****                 time_->hours = h;
 1319              		.loc 1 315 0
 1320 051e C8F800A0 		str	r10, [r8]
 316:minmea/minmea.c ****                 time_->minutes = i;
 1321              		.loc 1 316 0
 1322 0522 C8F80490 		str	r9, [r8, #4]
 317:minmea/minmea.c ****                 time_->seconds = s;
 1323              		.loc 1 317 0
 1324 0526 C8F80800 		str	r0, [r8, #8]
 318:minmea/minmea.c ****                 time_->microseconds = u;
 1325              		.loc 1 318 0
 1326 052a C8F80C30 		str	r3, [r8, #12]
 1327              	.LBE80:
 319:minmea/minmea.c ****             } break;
 1328              		.loc 1 319 0
 1329 052e 00E0     		b	.L66
 1330              	.LVL154:
 1331              	.L92:
 320:minmea/minmea.c **** 
ARM GAS  C:\Users\crono\AppData\Local\Temp\ccd4dy0n.s 			page 31


 321:minmea/minmea.c ****             case '_': { // Ignore the field.
 322:minmea/minmea.c ****             } break;
 323:minmea/minmea.c **** 
 324:minmea/minmea.c ****             default: { // Unknown.
 325:minmea/minmea.c ****                 goto parse_error;
 326:minmea/minmea.c ****             }
 327:minmea/minmea.c ****         }
 328:minmea/minmea.c **** 
 329:minmea/minmea.c ****         next_field();
 1332              		.loc 1 329 0 discriminator 2
 1333 0530 0134     		adds	r4, r4, #1
 1334              	.LVL155:
 1335              	.L66:
 1336              		.loc 1 329 0 is_stmt 0 discriminator 1
 1337 0532 2278     		ldrb	r2, [r4]	@ zero_extendqisi2
 1338              	.LVL156:
 1339              	.LBB81:
 1340              	.LBB82:
  89:minmea/minmea.c **** }
 1341              		.loc 1 89 0 is_stmt 1 discriminator 1
 1342 0534 1D4B     		ldr	r3, .L154
 1343 0536 1B68     		ldr	r3, [r3]
 1344 0538 1344     		add	r3, r3, r2
 1345 053a 5B78     		ldrb	r3, [r3, #1]	@ zero_extendqisi2
 1346 053c 13F0970F 		tst	r3, #151
 1347 0540 05D0     		beq	.L147
  89:minmea/minmea.c **** }
 1348              		.loc 1 89 0 is_stmt 0
 1349 0542 2C2A     		cmp	r2, #44
 1350 0544 05D0     		beq	.L148
 1351 0546 2A2A     		cmp	r2, #42
 1352 0548 05D1     		bne	.L149
 1353 054a 0023     		movs	r3, #0
 1354 054c 04E0     		b	.L91
 1355              	.L147:
 1356 054e 0023     		movs	r3, #0
 1357 0550 02E0     		b	.L91
 1358              	.L148:
 1359 0552 0023     		movs	r3, #0
 1360 0554 00E0     		b	.L91
 1361              	.L149:
 1362 0556 0123     		movs	r3, #1
 1363              	.L91:
 1364              	.LVL157:
 1365              	.LBE82:
 1366              	.LBE81:
 1367              		.loc 1 329 0 is_stmt 1
 1368 0558 002B     		cmp	r3, #0
 1369 055a E9D1     		bne	.L92
 1370              		.loc 1 329 0 is_stmt 0 discriminator 3
 1371 055c 2C2A     		cmp	r2, #44
 1372 055e 04D1     		bne	.L150
 1373              		.loc 1 329 0 discriminator 4
 1374 0560 0134     		adds	r4, r4, #1
 1375              	.LVL158:
 1376 0562 2746     		mov	r7, r4
 1377 0564 02E0     		b	.L31
ARM GAS  C:\Users\crono\AppData\Local\Temp\ccd4dy0n.s 			page 32


 1378              	.LVL159:
 1379              	.L94:
 119:minmea/minmea.c ****             continue;
 1380              		.loc 1 119 0 is_stmt 1
 1381 0566 0126     		movs	r6, #1
 1382              	.LVL160:
 1383 0568 00E0     		b	.L31
 1384              	.LVL161:
 1385              	.L150:
 1386              		.loc 1 329 0
 1387 056a 0027     		movs	r7, #0
 1388              	.LVL162:
 1389              	.L31:
 1390              	.LBE86:
 114:minmea/minmea.c ****         char type = *format++;
 1391              		.loc 1 114 0
 1392 056c 2B78     		ldrb	r3, [r5]	@ zero_extendqisi2
 1393 056e 002B     		cmp	r3, #0
 1394 0570 7FF452AD 		bne	.L93
 330:minmea/minmea.c ****     }
 331:minmea/minmea.c **** 
 332:minmea/minmea.c ****     result = true;
 1395              		.loc 1 332 0
 1396 0574 0120     		movs	r0, #1
 1397 0576 14E0     		b	.L34
 1398              	.LVL163:
 1399              	.L95:
  94:minmea/minmea.c ****     bool optional = false;
 1400              		.loc 1 94 0
 1401 0578 0020     		movs	r0, #0
 1402 057a 12E0     		b	.L34
 1403              	.LVL164:
 1404              	.L96:
 1405 057c 0020     		movs	r0, #0
 1406 057e 10E0     		b	.L34
 1407              	.LVL165:
 1408              	.L106:
 1409 0580 0020     		movs	r0, #0
 1410 0582 0EE0     		b	.L34
 1411              	.LVL166:
 1412              	.L113:
 1413 0584 0020     		movs	r0, #0
 1414              	.LVL167:
 1415 0586 0CE0     		b	.L34
 1416              	.LVL168:
 1417              	.L114:
 1418 0588 0020     		movs	r0, #0
 1419              	.LVL169:
 1420 058a 0AE0     		b	.L34
 1421              	.LVL170:
 1422              	.L115:
 1423 058c 0020     		movs	r0, #0
 1424              	.LVL171:
 1425 058e 08E0     		b	.L34
 1426              	.LVL172:
 1427              	.L116:
 1428 0590 0020     		movs	r0, #0
ARM GAS  C:\Users\crono\AppData\Local\Temp\ccd4dy0n.s 			page 33


 1429              	.LVL173:
 1430 0592 06E0     		b	.L34
 1431              	.LVL174:
 1432              	.L120:
 1433 0594 0020     		movs	r0, #0
 1434              	.LVL175:
 1435 0596 04E0     		b	.L34
 1436              	.LVL176:
 1437              	.L130:
 1438 0598 0020     		movs	r0, #0
 1439 059a 02E0     		b	.L34
 1440              	.L131:
 1441 059c 0020     		movs	r0, #0
 1442 059e 00E0     		b	.L34
 1443              	.LVL177:
 1444              	.L135:
 1445 05a0 0020     		movs	r0, #0
 1446              	.LVL178:
 1447              	.L34:
 333:minmea/minmea.c **** 
 334:minmea/minmea.c **** parse_error:
 335:minmea/minmea.c ****     va_end(ap);
 336:minmea/minmea.c ****     return result;
 337:minmea/minmea.c **** }
 1448              		.loc 1 337 0
 1449 05a2 04B0     		add	sp, sp, #16
 1450              		.cfi_def_cfa_offset 48
 1451              		@ sp needed
 1452 05a4 BDE8F04F 		pop	{r4, r5, r6, r7, r8, r9, r10, fp, lr}
 1453              		.cfi_restore 14
 1454              		.cfi_restore 11
 1455              		.cfi_restore 10
 1456              		.cfi_restore 9
 1457              		.cfi_restore 8
 1458              		.cfi_restore 7
 1459              		.cfi_restore 6
 1460              		.cfi_restore 5
 1461              		.cfi_restore 4
 1462              		.cfi_def_cfa_offset 12
 1463              	.LVL179:
 1464 05a8 03B0     		add	sp, sp, #12
 1465              		.cfi_restore 3
 1466              		.cfi_restore 2
 1467              		.cfi_restore 1
 1468              		.cfi_def_cfa_offset 0
 1469 05aa 7047     		bx	lr
 1470              	.L155:
 1471              		.align	2
 1472              	.L154:
 1473 05ac 00000000 		.word	__ctype_ptr__
 1474 05b0 CDCCCCCC 		.word	-858993459
 1475 05b4 40420F00 		.word	1000000
 1476              		.cfi_endproc
 1477              	.LFE8:
 1478              		.size	minmea_scan, .-minmea_scan
 1479              		.section	.text.minmea_talker_id,"ax",%progbits
 1480              		.align	2
ARM GAS  C:\Users\crono\AppData\Local\Temp\ccd4dy0n.s 			page 34


 1481              		.global	minmea_talker_id
 1482              		.thumb
 1483              		.thumb_func
 1484              		.type	minmea_talker_id, %function
 1485              	minmea_talker_id:
 1486              	.LFB9:
 338:minmea/minmea.c **** 
 339:minmea/minmea.c **** bool minmea_talker_id(char talker[3], const char *sentence)
 340:minmea/minmea.c **** {
 1487              		.loc 1 340 0
 1488              		.cfi_startproc
 1489              		@ args = 0, pretend = 0, frame = 8
 1490              		@ frame_needed = 0, uses_anonymous_args = 0
 1491              	.LVL180:
 1492 0000 10B5     		push	{r4, lr}
 1493              		.cfi_def_cfa_offset 8
 1494              		.cfi_offset 4, -8
 1495              		.cfi_offset 14, -4
 1496 0002 82B0     		sub	sp, sp, #8
 1497              		.cfi_def_cfa_offset 16
 1498 0004 0446     		mov	r4, r0
 1499 0006 0846     		mov	r0, r1
 1500              	.LVL181:
 341:minmea/minmea.c ****     char type[6];
 342:minmea/minmea.c ****     if (!minmea_scan(sentence, "t", type))
 1501              		.loc 1 342 0
 1502 0008 6A46     		mov	r2, sp
 1503 000a 0849     		ldr	r1, .L159
 1504              	.LVL182:
 1505 000c FFF7FEFF 		bl	minmea_scan
 1506              	.LVL183:
 1507 0010 0346     		mov	r3, r0
 1508 0012 38B1     		cbz	r0, .L157
 343:minmea/minmea.c ****         return false;
 344:minmea/minmea.c **** 
 345:minmea/minmea.c ****     talker[0] = type[0];
 1509              		.loc 1 345 0
 1510 0014 9DF80020 		ldrb	r2, [sp]	@ zero_extendqisi2
 1511 0018 2270     		strb	r2, [r4]
 346:minmea/minmea.c ****     talker[1] = type[1];
 1512              		.loc 1 346 0
 1513 001a 9DF80120 		ldrb	r2, [sp, #1]	@ zero_extendqisi2
 1514 001e 6270     		strb	r2, [r4, #1]
 347:minmea/minmea.c ****     talker[2] = '\0';
 1515              		.loc 1 347 0
 1516 0020 0022     		movs	r2, #0
 1517 0022 A270     		strb	r2, [r4, #2]
 1518              	.L157:
 348:minmea/minmea.c **** 
 349:minmea/minmea.c ****     return true;
 350:minmea/minmea.c **** }
 1519              		.loc 1 350 0
 1520 0024 1846     		mov	r0, r3
 1521 0026 02B0     		add	sp, sp, #8
 1522              		.cfi_def_cfa_offset 8
 1523              		@ sp needed
 1524 0028 10BD     		pop	{r4, pc}
ARM GAS  C:\Users\crono\AppData\Local\Temp\ccd4dy0n.s 			page 35


 1525              	.LVL184:
 1526              	.L160:
 1527 002a 00BF     		.align	2
 1528              	.L159:
 1529 002c 08000000 		.word	.LC2
 1530              		.cfi_endproc
 1531              	.LFE9:
 1532              		.size	minmea_talker_id, .-minmea_talker_id
 1533              		.section	.text.minmea_sentence_id,"ax",%progbits
 1534              		.align	2
 1535              		.global	minmea_sentence_id
 1536              		.thumb
 1537              		.thumb_func
 1538              		.type	minmea_sentence_id, %function
 1539              	minmea_sentence_id:
 1540              	.LFB10:
 351:minmea/minmea.c **** 
 352:minmea/minmea.c **** enum minmea_sentence_id minmea_sentence_id(const char *sentence, bool strict)
 353:minmea/minmea.c **** {
 1541              		.loc 1 353 0
 1542              		.cfi_startproc
 1543              		@ args = 0, pretend = 0, frame = 8
 1544              		@ frame_needed = 0, uses_anonymous_args = 0
 1545              	.LVL185:
 1546 0000 10B5     		push	{r4, lr}
 1547              		.cfi_def_cfa_offset 8
 1548              		.cfi_offset 4, -8
 1549              		.cfi_offset 14, -4
 1550 0002 82B0     		sub	sp, sp, #8
 1551              		.cfi_def_cfa_offset 16
 1552 0004 0446     		mov	r4, r0
 354:minmea/minmea.c ****     if (!minmea_check(sentence, strict))
 1553              		.loc 1 354 0
 1554 0006 FFF7FEFF 		bl	minmea_check
 1555              	.LVL186:
 1556 000a 0028     		cmp	r0, #0
 1557 000c 37D0     		beq	.L163
 355:minmea/minmea.c ****         return MINMEA_INVALID;
 356:minmea/minmea.c **** 
 357:minmea/minmea.c ****     char type[6];
 358:minmea/minmea.c ****     if (!minmea_scan(sentence, "t", type))
 1558              		.loc 1 358 0
 1559 000e 6A46     		mov	r2, sp
 1560 0010 2649     		ldr	r1, .L174
 1561 0012 2046     		mov	r0, r4
 1562 0014 FFF7FEFF 		bl	minmea_scan
 1563              	.LVL187:
 1564 0018 A0B3     		cbz	r0, .L164
 359:minmea/minmea.c ****         return MINMEA_INVALID;
 360:minmea/minmea.c **** 
 361:minmea/minmea.c ****     if (!strcmp(type+2, "RMC"))
 1565              		.loc 1 361 0
 1566 001a 2549     		ldr	r1, .L174+4
 1567 001c 0DF10200 		add	r0, sp, #2
 1568 0020 FFF7FEFF 		bl	strcmp
 1569              	.LVL188:
 1570 0024 88B3     		cbz	r0, .L165
ARM GAS  C:\Users\crono\AppData\Local\Temp\ccd4dy0n.s 			page 36


 362:minmea/minmea.c ****         return MINMEA_SENTENCE_RMC;
 363:minmea/minmea.c ****     if (!strcmp(type+2, "GGA"))
 1571              		.loc 1 363 0
 1572 0026 2349     		ldr	r1, .L174+8
 1573 0028 0DF10200 		add	r0, sp, #2
 1574 002c FFF7FEFF 		bl	strcmp
 1575              	.LVL189:
 1576 0030 68B3     		cbz	r0, .L166
 364:minmea/minmea.c ****         return MINMEA_SENTENCE_GGA;
 365:minmea/minmea.c ****     if (!strcmp(type+2, "GSA"))
 1577              		.loc 1 365 0
 1578 0032 2149     		ldr	r1, .L174+12
 1579 0034 0DF10200 		add	r0, sp, #2
 1580 0038 FFF7FEFF 		bl	strcmp
 1581              	.LVL190:
 1582 003c 48B3     		cbz	r0, .L167
 366:minmea/minmea.c ****         return MINMEA_SENTENCE_GSA;
 367:minmea/minmea.c ****     if (!strcmp(type+2, "GLL"))
 1583              		.loc 1 367 0
 1584 003e 1F49     		ldr	r1, .L174+16
 1585 0040 0DF10200 		add	r0, sp, #2
 1586 0044 FFF7FEFF 		bl	strcmp
 1587              	.LVL191:
 1588 0048 28B3     		cbz	r0, .L168
 368:minmea/minmea.c ****         return MINMEA_SENTENCE_GLL;
 369:minmea/minmea.c ****     if (!strcmp(type+2, "GST"))
 1589              		.loc 1 369 0
 1590 004a 1D49     		ldr	r1, .L174+20
 1591 004c 0DF10200 		add	r0, sp, #2
 1592 0050 FFF7FEFF 		bl	strcmp
 1593              	.LVL192:
 1594 0054 08B3     		cbz	r0, .L169
 370:minmea/minmea.c ****         return MINMEA_SENTENCE_GST;
 371:minmea/minmea.c ****     if (!strcmp(type+2, "GSV"))
 1595              		.loc 1 371 0
 1596 0056 1B49     		ldr	r1, .L174+24
 1597 0058 0DF10200 		add	r0, sp, #2
 1598 005c FFF7FEFF 		bl	strcmp
 1599              	.LVL193:
 1600 0060 E8B1     		cbz	r0, .L170
 372:minmea/minmea.c ****         return MINMEA_SENTENCE_GSV;
 373:minmea/minmea.c ****     if (!strcmp(type+2, "VTG"))
 1601              		.loc 1 373 0
 1602 0062 1949     		ldr	r1, .L174+28
 1603 0064 0DF10200 		add	r0, sp, #2
 1604 0068 FFF7FEFF 		bl	strcmp
 1605              	.LVL194:
 1606 006c C8B1     		cbz	r0, .L171
 374:minmea/minmea.c ****         return MINMEA_SENTENCE_VTG;
 375:minmea/minmea.c ****     if (!strcmp(type+2, "ZDA"))
 1607              		.loc 1 375 0
 1608 006e 1749     		ldr	r1, .L174+32
 1609 0070 0DF10200 		add	r0, sp, #2
 1610 0074 FFF7FEFF 		bl	strcmp
 1611              	.LVL195:
 1612 0078 A8B9     		cbnz	r0, .L172
 376:minmea/minmea.c ****         return MINMEA_SENTENCE_ZDA;
ARM GAS  C:\Users\crono\AppData\Local\Temp\ccd4dy0n.s 			page 37


 1613              		.loc 1 376 0
 1614 007a 0820     		movs	r0, #8
 1615 007c 14E0     		b	.L162
 1616              	.L163:
 355:minmea/minmea.c **** 
 1617              		.loc 1 355 0
 1618 007e 4FF0FF30 		mov	r0, #-1
 1619 0082 11E0     		b	.L162
 1620              	.L164:
 359:minmea/minmea.c **** 
 1621              		.loc 1 359 0
 1622 0084 4FF0FF30 		mov	r0, #-1
 1623 0088 0EE0     		b	.L162
 1624              	.L165:
 362:minmea/minmea.c ****     if (!strcmp(type+2, "GGA"))
 1625              		.loc 1 362 0
 1626 008a 0120     		movs	r0, #1
 1627 008c 0CE0     		b	.L162
 1628              	.L166:
 364:minmea/minmea.c ****     if (!strcmp(type+2, "GSA"))
 1629              		.loc 1 364 0
 1630 008e 0220     		movs	r0, #2
 1631 0090 0AE0     		b	.L162
 1632              	.L167:
 366:minmea/minmea.c ****     if (!strcmp(type+2, "GLL"))
 1633              		.loc 1 366 0
 1634 0092 0320     		movs	r0, #3
 1635 0094 08E0     		b	.L162
 1636              	.L168:
 368:minmea/minmea.c ****     if (!strcmp(type+2, "GST"))
 1637              		.loc 1 368 0
 1638 0096 0420     		movs	r0, #4
 1639 0098 06E0     		b	.L162
 1640              	.L169:
 370:minmea/minmea.c ****     if (!strcmp(type+2, "GSV"))
 1641              		.loc 1 370 0
 1642 009a 0520     		movs	r0, #5
 1643 009c 04E0     		b	.L162
 1644              	.L170:
 372:minmea/minmea.c ****     if (!strcmp(type+2, "VTG"))
 1645              		.loc 1 372 0
 1646 009e 0620     		movs	r0, #6
 1647 00a0 02E0     		b	.L162
 1648              	.L171:
 374:minmea/minmea.c ****     if (!strcmp(type+2, "ZDA"))
 1649              		.loc 1 374 0
 1650 00a2 0720     		movs	r0, #7
 1651 00a4 00E0     		b	.L162
 1652              	.L172:
 377:minmea/minmea.c **** 
 378:minmea/minmea.c ****     return MINMEA_UNKNOWN;
 1653              		.loc 1 378 0
 1654 00a6 0020     		movs	r0, #0
 1655              	.L162:
 379:minmea/minmea.c **** }
 1656              		.loc 1 379 0
 1657 00a8 02B0     		add	sp, sp, #8
ARM GAS  C:\Users\crono\AppData\Local\Temp\ccd4dy0n.s 			page 38


 1658              		.cfi_def_cfa_offset 8
 1659              		@ sp needed
 1660 00aa 10BD     		pop	{r4, pc}
 1661              	.LVL196:
 1662              	.L175:
 1663              		.align	2
 1664              	.L174:
 1665 00ac 08000000 		.word	.LC2
 1666 00b0 0C000000 		.word	.LC3
 1667 00b4 10000000 		.word	.LC4
 1668 00b8 14000000 		.word	.LC5
 1669 00bc 18000000 		.word	.LC6
 1670 00c0 1C000000 		.word	.LC7
 1671 00c4 20000000 		.word	.LC8
 1672 00c8 24000000 		.word	.LC9
 1673 00cc 28000000 		.word	.LC10
 1674              		.cfi_endproc
 1675              	.LFE10:
 1676              		.size	minmea_sentence_id, .-minmea_sentence_id
 1677              		.section	.text.minmea_parse_rmc,"ax",%progbits
 1678              		.align	2
 1679              		.global	minmea_parse_rmc
 1680              		.thumb
 1681              		.thumb_func
 1682              		.type	minmea_parse_rmc, %function
 1683              	minmea_parse_rmc:
 1684              	.LFB11:
 380:minmea/minmea.c **** 
 381:minmea/minmea.c **** bool minmea_parse_rmc(struct minmea_sentence_rmc *frame, const char *sentence)
 382:minmea/minmea.c **** {
 1685              		.loc 1 382 0
 1686              		.cfi_startproc
 1687              		@ args = 0, pretend = 0, frame = 24
 1688              		@ frame_needed = 0, uses_anonymous_args = 0
 1689              	.LVL197:
 1690 0000 30B5     		push	{r4, r5, lr}
 1691              		.cfi_def_cfa_offset 12
 1692              		.cfi_offset 4, -12
 1693              		.cfi_offset 5, -8
 1694              		.cfi_offset 14, -4
 1695 0002 91B0     		sub	sp, sp, #68
 1696              		.cfi_def_cfa_offset 80
 1697 0004 0446     		mov	r4, r0
 1698 0006 0846     		mov	r0, r1
 1699              	.LVL198:
 383:minmea/minmea.c ****     // $GPRMC,081836,A,3751.65,S,14507.36,E,000.0,360.0,130998,011.3,E*62
 384:minmea/minmea.c ****     char type[6];
 385:minmea/minmea.c ****     char validity;
 386:minmea/minmea.c ****     int latitude_direction;
 387:minmea/minmea.c ****     int longitude_direction;
 388:minmea/minmea.c ****     int variation_direction;
 389:minmea/minmea.c ****     if (!minmea_scan(sentence, "tTcfdfdffDfd",
 1700              		.loc 1 389 0
 1701 0008 0AAB     		add	r3, sp, #40
 1702 000a 0993     		str	r3, [sp, #36]
 1703 000c 04F14003 		add	r3, r4, #64
 1704 0010 0893     		str	r3, [sp, #32]
ARM GAS  C:\Users\crono\AppData\Local\Temp\ccd4dy0n.s 			page 39


 1705 0012 04F13403 		add	r3, r4, #52
 1706 0016 0793     		str	r3, [sp, #28]
 1707 0018 04F12C03 		add	r3, r4, #44
 1708 001c 0693     		str	r3, [sp, #24]
 1709 001e 04F12403 		add	r3, r4, #36
 1710 0022 0593     		str	r3, [sp, #20]
 1711 0024 0BAB     		add	r3, sp, #44
 1712 0026 0493     		str	r3, [sp, #16]
 1713 0028 04F11C03 		add	r3, r4, #28
 1714 002c 0393     		str	r3, [sp, #12]
 1715 002e 0CAB     		add	r3, sp, #48
 1716 0030 0293     		str	r3, [sp, #8]
 1717 0032 04F11403 		add	r3, r4, #20
 1718 0036 0193     		str	r3, [sp, #4]
 1719 0038 0DF13703 		add	r3, sp, #55
 1720 003c 0093     		str	r3, [sp]
 1721 003e 2346     		mov	r3, r4
 1722 0040 0EAA     		add	r2, sp, #56
 1723 0042 1349     		ldr	r1, .L180
 1724              	.LVL199:
 1725 0044 FFF7FEFF 		bl	minmea_scan
 1726              	.LVL200:
 1727 0048 0546     		mov	r5, r0
 1728 004a E8B1     		cbz	r0, .L177
 390:minmea/minmea.c ****             type,
 391:minmea/minmea.c ****             &frame->time,
 392:minmea/minmea.c ****             &validity,
 393:minmea/minmea.c ****             &frame->latitude, &latitude_direction,
 394:minmea/minmea.c ****             &frame->longitude, &longitude_direction,
 395:minmea/minmea.c ****             &frame->speed,
 396:minmea/minmea.c ****             &frame->course,
 397:minmea/minmea.c ****             &frame->date,
 398:minmea/minmea.c ****             &frame->variation, &variation_direction))
 399:minmea/minmea.c ****         return false;
 400:minmea/minmea.c ****     if (strcmp(type+2, "RMC"))
 1729              		.loc 1 400 0
 1730 004c 1149     		ldr	r1, .L180+4
 1731 004e 0DF13A00 		add	r0, sp, #58
 1732 0052 FFF7FEFF 		bl	strcmp
 1733              	.LVL201:
 1734 0056 B0B9     		cbnz	r0, .L178
 401:minmea/minmea.c ****         return false;
 402:minmea/minmea.c **** 
 403:minmea/minmea.c ****     frame->valid = (validity == 'A');
 1735              		.loc 1 403 0
 1736 0058 9DF83730 		ldrb	r3, [sp, #55]	@ zero_extendqisi2
 1737 005c 412B     		cmp	r3, #65
 1738 005e 14BF     		ite	ne
 1739 0060 0023     		movne	r3, #0
 1740 0062 0123     		moveq	r3, #1
 1741 0064 2374     		strb	r3, [r4, #16]
 404:minmea/minmea.c ****     frame->latitude.value *= latitude_direction;
 1742              		.loc 1 404 0
 1743 0066 6269     		ldr	r2, [r4, #20]
 1744 0068 0C9B     		ldr	r3, [sp, #48]
 1745 006a 03FB02F3 		mul	r3, r3, r2
 1746 006e 6361     		str	r3, [r4, #20]
ARM GAS  C:\Users\crono\AppData\Local\Temp\ccd4dy0n.s 			page 40


 405:minmea/minmea.c ****     frame->longitude.value *= longitude_direction;
 1747              		.loc 1 405 0
 1748 0070 E269     		ldr	r2, [r4, #28]
 1749 0072 0B9B     		ldr	r3, [sp, #44]
 1750 0074 03FB02F3 		mul	r3, r3, r2
 1751 0078 E361     		str	r3, [r4, #28]
 406:minmea/minmea.c ****     frame->variation.value *= variation_direction;
 1752              		.loc 1 406 0
 1753 007a 226C     		ldr	r2, [r4, #64]
 1754 007c 0A9B     		ldr	r3, [sp, #40]
 1755 007e 03FB02F3 		mul	r3, r3, r2
 1756 0082 2364     		str	r3, [r4, #64]
 407:minmea/minmea.c **** 
 408:minmea/minmea.c ****     return true;
 1757              		.loc 1 408 0
 1758 0084 00E0     		b	.L177
 1759              	.L178:
 401:minmea/minmea.c **** 
 1760              		.loc 1 401 0
 1761 0086 0025     		movs	r5, #0
 1762              	.L177:
 409:minmea/minmea.c **** }
 1763              		.loc 1 409 0
 1764 0088 2846     		mov	r0, r5
 1765 008a 11B0     		add	sp, sp, #68
 1766              		.cfi_def_cfa_offset 12
 1767              		@ sp needed
 1768 008c 30BD     		pop	{r4, r5, pc}
 1769              	.LVL202:
 1770              	.L181:
 1771 008e 00BF     		.align	2
 1772              	.L180:
 1773 0090 2C000000 		.word	.LC11
 1774 0094 0C000000 		.word	.LC3
 1775              		.cfi_endproc
 1776              	.LFE11:
 1777              		.size	minmea_parse_rmc, .-minmea_parse_rmc
 1778              		.section	.text.minmea_parse_gga,"ax",%progbits
 1779              		.align	2
 1780              		.global	minmea_parse_gga
 1781              		.thumb
 1782              		.thumb_func
 1783              		.type	minmea_parse_gga, %function
 1784              	minmea_parse_gga:
 1785              	.LFB12:
 410:minmea/minmea.c **** 
 411:minmea/minmea.c **** bool minmea_parse_gga(struct minmea_sentence_gga *frame, const char *sentence)
 412:minmea/minmea.c **** {
 1786              		.loc 1 412 0
 1787              		.cfi_startproc
 1788              		@ args = 0, pretend = 0, frame = 16
 1789              		@ frame_needed = 0, uses_anonymous_args = 0
 1790              	.LVL203:
 1791 0000 30B5     		push	{r4, r5, lr}
 1792              		.cfi_def_cfa_offset 12
 1793              		.cfi_offset 4, -12
 1794              		.cfi_offset 5, -8
ARM GAS  C:\Users\crono\AppData\Local\Temp\ccd4dy0n.s 			page 41


 1795              		.cfi_offset 14, -4
 1796 0002 91B0     		sub	sp, sp, #68
 1797              		.cfi_def_cfa_offset 80
 1798 0004 0446     		mov	r4, r0
 1799 0006 0846     		mov	r0, r1
 1800              	.LVL204:
 413:minmea/minmea.c ****     // $GPGGA,123519,4807.038,N,01131.000,E,1,08,0.9,545.4,M,46.9,M,,*47
 414:minmea/minmea.c ****     char type[6];
 415:minmea/minmea.c ****     int latitude_direction;
 416:minmea/minmea.c ****     int longitude_direction;
 417:minmea/minmea.c **** 
 418:minmea/minmea.c ****     if (!minmea_scan(sentence, "tTfdfdiiffcfci_",
 1801              		.loc 1 418 0
 1802 0008 04F14803 		add	r3, r4, #72
 1803 000c 0B93     		str	r3, [sp, #44]
 1804 000e 04F14403 		add	r3, r4, #68
 1805 0012 0A93     		str	r3, [sp, #40]
 1806 0014 04F13C03 		add	r3, r4, #60
 1807 0018 0993     		str	r3, [sp, #36]
 1808 001a 04F13803 		add	r3, r4, #56
 1809 001e 0893     		str	r3, [sp, #32]
 1810 0020 04F13003 		add	r3, r4, #48
 1811 0024 0793     		str	r3, [sp, #28]
 1812 0026 04F12803 		add	r3, r4, #40
 1813 002a 0693     		str	r3, [sp, #24]
 1814 002c 04F12403 		add	r3, r4, #36
 1815 0030 0593     		str	r3, [sp, #20]
 1816 0032 04F12003 		add	r3, r4, #32
 1817 0036 0493     		str	r3, [sp, #16]
 1818 0038 0CAB     		add	r3, sp, #48
 1819 003a 0393     		str	r3, [sp, #12]
 1820 003c 04F11803 		add	r3, r4, #24
 1821 0040 0293     		str	r3, [sp, #8]
 1822 0042 0DAB     		add	r3, sp, #52
 1823 0044 0193     		str	r3, [sp, #4]
 1824 0046 04F11003 		add	r3, r4, #16
 1825 004a 0093     		str	r3, [sp]
 1826 004c 2346     		mov	r3, r4
 1827 004e 0EAA     		add	r2, sp, #56
 1828 0050 0C49     		ldr	r1, .L186
 1829              	.LVL205:
 1830 0052 FFF7FEFF 		bl	minmea_scan
 1831              	.LVL206:
 1832 0056 0546     		mov	r5, r0
 1833 0058 88B1     		cbz	r0, .L183
 419:minmea/minmea.c ****             type,
 420:minmea/minmea.c ****             &frame->time,
 421:minmea/minmea.c ****             &frame->latitude, &latitude_direction,
 422:minmea/minmea.c ****             &frame->longitude, &longitude_direction,
 423:minmea/minmea.c ****             &frame->fix_quality,
 424:minmea/minmea.c ****             &frame->satellites_tracked,
 425:minmea/minmea.c ****             &frame->hdop,
 426:minmea/minmea.c ****             &frame->altitude, &frame->altitude_units,
 427:minmea/minmea.c ****             &frame->height, &frame->height_units,
 428:minmea/minmea.c ****             &frame->dgps_age))
 429:minmea/minmea.c ****         return false;
 430:minmea/minmea.c ****     if (strcmp(type+2, "GGA"))
ARM GAS  C:\Users\crono\AppData\Local\Temp\ccd4dy0n.s 			page 42


 1834              		.loc 1 430 0
 1835 005a 0B49     		ldr	r1, .L186+4
 1836 005c 0DF13A00 		add	r0, sp, #58
 1837 0060 FFF7FEFF 		bl	strcmp
 1838              	.LVL207:
 1839 0064 50B9     		cbnz	r0, .L184
 431:minmea/minmea.c ****         return false;
 432:minmea/minmea.c **** 
 433:minmea/minmea.c ****     frame->latitude.value *= latitude_direction;
 1840              		.loc 1 433 0
 1841 0066 2269     		ldr	r2, [r4, #16]
 1842 0068 0D9B     		ldr	r3, [sp, #52]
 1843 006a 03FB02F3 		mul	r3, r3, r2
 1844 006e 2361     		str	r3, [r4, #16]
 434:minmea/minmea.c ****     frame->longitude.value *= longitude_direction;
 1845              		.loc 1 434 0
 1846 0070 A269     		ldr	r2, [r4, #24]
 1847 0072 0C9B     		ldr	r3, [sp, #48]
 1848 0074 03FB02F3 		mul	r3, r3, r2
 1849 0078 A361     		str	r3, [r4, #24]
 435:minmea/minmea.c **** 
 436:minmea/minmea.c ****     return true;
 1850              		.loc 1 436 0
 1851 007a 00E0     		b	.L183
 1852              	.L184:
 431:minmea/minmea.c **** 
 1853              		.loc 1 431 0
 1854 007c 0025     		movs	r5, #0
 1855              	.L183:
 437:minmea/minmea.c **** }
 1856              		.loc 1 437 0
 1857 007e 2846     		mov	r0, r5
 1858 0080 11B0     		add	sp, sp, #68
 1859              		.cfi_def_cfa_offset 12
 1860              		@ sp needed
 1861 0082 30BD     		pop	{r4, r5, pc}
 1862              	.LVL208:
 1863              	.L187:
 1864              		.align	2
 1865              	.L186:
 1866 0084 3C000000 		.word	.LC12
 1867 0088 10000000 		.word	.LC4
 1868              		.cfi_endproc
 1869              	.LFE12:
 1870              		.size	minmea_parse_gga, .-minmea_parse_gga
 1871              		.section	.text.minmea_parse_gsa,"ax",%progbits
 1872              		.align	2
 1873              		.global	minmea_parse_gsa
 1874              		.thumb
 1875              		.thumb_func
 1876              		.type	minmea_parse_gsa, %function
 1877              	minmea_parse_gsa:
 1878              	.LFB13:
 438:minmea/minmea.c **** 
 439:minmea/minmea.c **** bool minmea_parse_gsa(struct minmea_sentence_gsa *frame, const char *sentence)
 440:minmea/minmea.c **** {
 1879              		.loc 1 440 0
ARM GAS  C:\Users\crono\AppData\Local\Temp\ccd4dy0n.s 			page 43


 1880              		.cfi_startproc
 1881              		@ args = 0, pretend = 0, frame = 8
 1882              		@ frame_needed = 0, uses_anonymous_args = 0
 1883              	.LVL209:
 1884 0000 10B5     		push	{r4, lr}
 1885              		.cfi_def_cfa_offset 8
 1886              		.cfi_offset 4, -8
 1887              		.cfi_offset 14, -4
 1888 0002 92B0     		sub	sp, sp, #72
 1889              		.cfi_def_cfa_offset 80
 1890 0004 0346     		mov	r3, r0
 1891 0006 0846     		mov	r0, r1
 1892              	.LVL210:
 441:minmea/minmea.c ****     // $GPGSA,A,3,04,05,,09,12,,,24,,,,,2.5,1.3,2.1*39
 442:minmea/minmea.c ****     char type[6];
 443:minmea/minmea.c **** 
 444:minmea/minmea.c ****     if (!minmea_scan(sentence, "tciiiiiiiiiiiiifff",
 1893              		.loc 1 444 0
 1894 0008 03F14802 		add	r2, r3, #72
 1895 000c 0F92     		str	r2, [sp, #60]
 1896 000e 03F14002 		add	r2, r3, #64
 1897 0012 0E92     		str	r2, [sp, #56]
 1898 0014 03F13802 		add	r2, r3, #56
 1899 0018 0D92     		str	r2, [sp, #52]
 1900 001a 03F13402 		add	r2, r3, #52
 1901 001e 0C92     		str	r2, [sp, #48]
 1902 0020 03F13002 		add	r2, r3, #48
 1903 0024 0B92     		str	r2, [sp, #44]
 1904 0026 03F12C02 		add	r2, r3, #44
 1905 002a 0A92     		str	r2, [sp, #40]
 1906 002c 03F12802 		add	r2, r3, #40
 1907 0030 0992     		str	r2, [sp, #36]
 1908 0032 03F12402 		add	r2, r3, #36
 1909 0036 0892     		str	r2, [sp, #32]
 1910 0038 03F12002 		add	r2, r3, #32
 1911 003c 0792     		str	r2, [sp, #28]
 1912 003e 03F11C02 		add	r2, r3, #28
 1913 0042 0692     		str	r2, [sp, #24]
 1914 0044 03F11802 		add	r2, r3, #24
 1915 0048 0592     		str	r2, [sp, #20]
 1916 004a 03F11402 		add	r2, r3, #20
 1917 004e 0492     		str	r2, [sp, #16]
 1918 0050 03F11002 		add	r2, r3, #16
 1919 0054 0392     		str	r2, [sp, #12]
 1920 0056 03F10C02 		add	r2, r3, #12
 1921 005a 0292     		str	r2, [sp, #8]
 1922 005c 03F10802 		add	r2, r3, #8
 1923 0060 0192     		str	r2, [sp, #4]
 1924 0062 1A1D     		adds	r2, r3, #4
 1925 0064 0092     		str	r2, [sp]
 1926 0066 10AA     		add	r2, sp, #64
 1927 0068 0749     		ldr	r1, .L191
 1928              	.LVL211:
 1929 006a FFF7FEFF 		bl	minmea_scan
 1930              	.LVL212:
 1931 006e 0446     		mov	r4, r0
 1932 0070 30B1     		cbz	r0, .L189
ARM GAS  C:\Users\crono\AppData\Local\Temp\ccd4dy0n.s 			page 44


 445:minmea/minmea.c ****             type,
 446:minmea/minmea.c ****             &frame->mode,
 447:minmea/minmea.c ****             &frame->fix_type,
 448:minmea/minmea.c ****             &frame->sats[0],
 449:minmea/minmea.c ****             &frame->sats[1],
 450:minmea/minmea.c ****             &frame->sats[2],
 451:minmea/minmea.c ****             &frame->sats[3],
 452:minmea/minmea.c ****             &frame->sats[4],
 453:minmea/minmea.c ****             &frame->sats[5],
 454:minmea/minmea.c ****             &frame->sats[6],
 455:minmea/minmea.c ****             &frame->sats[7],
 456:minmea/minmea.c ****             &frame->sats[8],
 457:minmea/minmea.c ****             &frame->sats[9],
 458:minmea/minmea.c ****             &frame->sats[10],
 459:minmea/minmea.c ****             &frame->sats[11],
 460:minmea/minmea.c ****             &frame->pdop,
 461:minmea/minmea.c ****             &frame->hdop,
 462:minmea/minmea.c ****             &frame->vdop))
 463:minmea/minmea.c ****         return false;
 464:minmea/minmea.c ****     if (strcmp(type+2, "GSA"))
 1933              		.loc 1 464 0
 1934 0072 0649     		ldr	r1, .L191+4
 1935 0074 0DF14200 		add	r0, sp, #66
 1936 0078 FFF7FEFF 		bl	strcmp
 1937              	.LVL213:
 1938 007c 00B1     		cbz	r0, .L189
 465:minmea/minmea.c ****         return false;
 1939              		.loc 1 465 0
 1940 007e 0024     		movs	r4, #0
 1941              	.L189:
 466:minmea/minmea.c **** 
 467:minmea/minmea.c ****     return true;
 468:minmea/minmea.c **** }
 1942              		.loc 1 468 0
 1943 0080 2046     		mov	r0, r4
 1944 0082 12B0     		add	sp, sp, #72
 1945              		.cfi_def_cfa_offset 8
 1946              		@ sp needed
 1947 0084 10BD     		pop	{r4, pc}
 1948              	.L192:
 1949 0086 00BF     		.align	2
 1950              	.L191:
 1951 0088 4C000000 		.word	.LC13
 1952 008c 14000000 		.word	.LC5
 1953              		.cfi_endproc
 1954              	.LFE13:
 1955              		.size	minmea_parse_gsa, .-minmea_parse_gsa
 1956              		.section	.text.minmea_parse_gll,"ax",%progbits
 1957              		.align	2
 1958              		.global	minmea_parse_gll
 1959              		.thumb
 1960              		.thumb_func
 1961              		.type	minmea_parse_gll, %function
 1962              	minmea_parse_gll:
 1963              	.LFB14:
 469:minmea/minmea.c **** 
 470:minmea/minmea.c **** bool minmea_parse_gll(struct minmea_sentence_gll *frame, const char *sentence)
ARM GAS  C:\Users\crono\AppData\Local\Temp\ccd4dy0n.s 			page 45


 471:minmea/minmea.c **** {
 1964              		.loc 1 471 0
 1965              		.cfi_startproc
 1966              		@ args = 0, pretend = 0, frame = 16
 1967              		@ frame_needed = 0, uses_anonymous_args = 0
 1968              	.LVL214:
 1969 0000 30B5     		push	{r4, r5, lr}
 1970              		.cfi_def_cfa_offset 12
 1971              		.cfi_offset 4, -12
 1972              		.cfi_offset 5, -8
 1973              		.cfi_offset 14, -4
 1974 0002 8BB0     		sub	sp, sp, #44
 1975              		.cfi_def_cfa_offset 56
 1976 0004 0446     		mov	r4, r0
 1977 0006 0846     		mov	r0, r1
 1978              	.LVL215:
 472:minmea/minmea.c ****     // $GPGLL,3723.2475,N,12158.3416,W,161229.487,A,A*41$;
 473:minmea/minmea.c ****     char type[6];
 474:minmea/minmea.c ****     int latitude_direction;
 475:minmea/minmea.c ****     int longitude_direction;
 476:minmea/minmea.c **** 
 477:minmea/minmea.c ****     if (!minmea_scan(sentence, "tfdfdTc;c",
 1979              		.loc 1 477 0
 1980 0008 04F12103 		add	r3, r4, #33
 1981 000c 0593     		str	r3, [sp, #20]
 1982 000e 04F12003 		add	r3, r4, #32
 1983 0012 0493     		str	r3, [sp, #16]
 1984 0014 04F11003 		add	r3, r4, #16
 1985 0018 0393     		str	r3, [sp, #12]
 1986 001a 06AB     		add	r3, sp, #24
 1987 001c 0293     		str	r3, [sp, #8]
 1988 001e 04F10803 		add	r3, r4, #8
 1989 0022 0193     		str	r3, [sp, #4]
 1990 0024 07AB     		add	r3, sp, #28
 1991 0026 0093     		str	r3, [sp]
 1992 0028 2346     		mov	r3, r4
 1993 002a 08AA     		add	r2, sp, #32
 1994 002c 0C49     		ldr	r1, .L197
 1995              	.LVL216:
 1996 002e FFF7FEFF 		bl	minmea_scan
 1997              	.LVL217:
 1998 0032 0546     		mov	r5, r0
 1999 0034 88B1     		cbz	r0, .L194
 478:minmea/minmea.c ****             type,
 479:minmea/minmea.c ****             &frame->latitude, &latitude_direction,
 480:minmea/minmea.c ****             &frame->longitude, &longitude_direction,
 481:minmea/minmea.c ****             &frame->time,
 482:minmea/minmea.c ****             &frame->status,
 483:minmea/minmea.c ****             &frame->mode))
 484:minmea/minmea.c ****         return false;
 485:minmea/minmea.c ****     if (strcmp(type+2, "GLL"))
 2000              		.loc 1 485 0
 2001 0036 0B49     		ldr	r1, .L197+4
 2002 0038 0DF12200 		add	r0, sp, #34
 2003 003c FFF7FEFF 		bl	strcmp
 2004              	.LVL218:
 2005 0040 50B9     		cbnz	r0, .L195
ARM GAS  C:\Users\crono\AppData\Local\Temp\ccd4dy0n.s 			page 46


 486:minmea/minmea.c ****         return false;
 487:minmea/minmea.c **** 
 488:minmea/minmea.c ****     frame->latitude.value *= latitude_direction;
 2006              		.loc 1 488 0
 2007 0042 2268     		ldr	r2, [r4]
 2008 0044 079B     		ldr	r3, [sp, #28]
 2009 0046 03FB02F3 		mul	r3, r3, r2
 2010 004a 2360     		str	r3, [r4]
 489:minmea/minmea.c ****     frame->longitude.value *= longitude_direction;
 2011              		.loc 1 489 0
 2012 004c A268     		ldr	r2, [r4, #8]
 2013 004e 069B     		ldr	r3, [sp, #24]
 2014 0050 03FB02F3 		mul	r3, r3, r2
 2015 0054 A360     		str	r3, [r4, #8]
 490:minmea/minmea.c **** 
 491:minmea/minmea.c ****     return true;
 2016              		.loc 1 491 0
 2017 0056 00E0     		b	.L194
 2018              	.L195:
 486:minmea/minmea.c **** 
 2019              		.loc 1 486 0
 2020 0058 0025     		movs	r5, #0
 2021              	.L194:
 492:minmea/minmea.c **** }
 2022              		.loc 1 492 0
 2023 005a 2846     		mov	r0, r5
 2024 005c 0BB0     		add	sp, sp, #44
 2025              		.cfi_def_cfa_offset 12
 2026              		@ sp needed
 2027 005e 30BD     		pop	{r4, r5, pc}
 2028              	.LVL219:
 2029              	.L198:
 2030              		.align	2
 2031              	.L197:
 2032 0060 60000000 		.word	.LC14
 2033 0064 18000000 		.word	.LC6
 2034              		.cfi_endproc
 2035              	.LFE14:
 2036              		.size	minmea_parse_gll, .-minmea_parse_gll
 2037              		.section	.text.minmea_parse_gst,"ax",%progbits
 2038              		.align	2
 2039              		.global	minmea_parse_gst
 2040              		.thumb
 2041              		.thumb_func
 2042              		.type	minmea_parse_gst, %function
 2043              	minmea_parse_gst:
 2044              	.LFB15:
 493:minmea/minmea.c **** 
 494:minmea/minmea.c **** bool minmea_parse_gst(struct minmea_sentence_gst *frame, const char *sentence)
 495:minmea/minmea.c **** {
 2045              		.loc 1 495 0
 2046              		.cfi_startproc
 2047              		@ args = 0, pretend = 0, frame = 8
 2048              		@ frame_needed = 0, uses_anonymous_args = 0
 2049              	.LVL220:
 2050 0000 10B5     		push	{r4, lr}
 2051              		.cfi_def_cfa_offset 8
ARM GAS  C:\Users\crono\AppData\Local\Temp\ccd4dy0n.s 			page 47


 2052              		.cfi_offset 4, -8
 2053              		.cfi_offset 14, -4
 2054 0002 8AB0     		sub	sp, sp, #40
 2055              		.cfi_def_cfa_offset 48
 2056 0004 0346     		mov	r3, r0
 2057 0006 0846     		mov	r0, r1
 2058              	.LVL221:
 496:minmea/minmea.c ****     // $GPGST,024603.00,3.2,6.6,4.7,47.3,5.8,5.6,22.0*58
 497:minmea/minmea.c ****     char type[6];
 498:minmea/minmea.c **** 
 499:minmea/minmea.c ****     if (!minmea_scan(sentence, "tTfffffff",
 2059              		.loc 1 499 0
 2060 0008 03F14002 		add	r2, r3, #64
 2061 000c 0692     		str	r2, [sp, #24]
 2062 000e 03F13802 		add	r2, r3, #56
 2063 0012 0592     		str	r2, [sp, #20]
 2064 0014 03F13002 		add	r2, r3, #48
 2065 0018 0492     		str	r2, [sp, #16]
 2066 001a 03F12802 		add	r2, r3, #40
 2067 001e 0392     		str	r2, [sp, #12]
 2068 0020 03F12002 		add	r2, r3, #32
 2069 0024 0292     		str	r2, [sp, #8]
 2070 0026 03F11802 		add	r2, r3, #24
 2071 002a 0192     		str	r2, [sp, #4]
 2072 002c 03F11002 		add	r2, r3, #16
 2073 0030 0092     		str	r2, [sp]
 2074 0032 08AA     		add	r2, sp, #32
 2075 0034 0749     		ldr	r1, .L202
 2076              	.LVL222:
 2077 0036 FFF7FEFF 		bl	minmea_scan
 2078              	.LVL223:
 2079 003a 0446     		mov	r4, r0
 2080 003c 30B1     		cbz	r0, .L200
 500:minmea/minmea.c ****             type,
 501:minmea/minmea.c ****             &frame->time,
 502:minmea/minmea.c ****             &frame->rms_deviation,
 503:minmea/minmea.c ****             &frame->semi_major_deviation,
 504:minmea/minmea.c ****             &frame->semi_minor_deviation,
 505:minmea/minmea.c ****             &frame->semi_major_orientation,
 506:minmea/minmea.c ****             &frame->latitude_error_deviation,
 507:minmea/minmea.c ****             &frame->longitude_error_deviation,
 508:minmea/minmea.c ****             &frame->altitude_error_deviation))
 509:minmea/minmea.c ****         return false;
 510:minmea/minmea.c ****     if (strcmp(type+2, "GST"))
 2081              		.loc 1 510 0
 2082 003e 0649     		ldr	r1, .L202+4
 2083 0040 0DF12200 		add	r0, sp, #34
 2084 0044 FFF7FEFF 		bl	strcmp
 2085              	.LVL224:
 2086 0048 00B1     		cbz	r0, .L200
 511:minmea/minmea.c ****         return false;
 2087              		.loc 1 511 0
 2088 004a 0024     		movs	r4, #0
 2089              	.L200:
 512:minmea/minmea.c **** 
 513:minmea/minmea.c ****     return true;
 514:minmea/minmea.c **** }
ARM GAS  C:\Users\crono\AppData\Local\Temp\ccd4dy0n.s 			page 48


 2090              		.loc 1 514 0
 2091 004c 2046     		mov	r0, r4
 2092 004e 0AB0     		add	sp, sp, #40
 2093              		.cfi_def_cfa_offset 8
 2094              		@ sp needed
 2095 0050 10BD     		pop	{r4, pc}
 2096              	.L203:
 2097 0052 00BF     		.align	2
 2098              	.L202:
 2099 0054 6C000000 		.word	.LC15
 2100 0058 1C000000 		.word	.LC7
 2101              		.cfi_endproc
 2102              	.LFE15:
 2103              		.size	minmea_parse_gst, .-minmea_parse_gst
 2104              		.section	.text.minmea_parse_gsv,"ax",%progbits
 2105              		.align	2
 2106              		.global	minmea_parse_gsv
 2107              		.thumb
 2108              		.thumb_func
 2109              		.type	minmea_parse_gsv, %function
 2110              	minmea_parse_gsv:
 2111              	.LFB16:
 515:minmea/minmea.c **** 
 516:minmea/minmea.c **** bool minmea_parse_gsv(struct minmea_sentence_gsv *frame, const char *sentence)
 517:minmea/minmea.c **** {
 2112              		.loc 1 517 0
 2113              		.cfi_startproc
 2114              		@ args = 0, pretend = 0, frame = 8
 2115              		@ frame_needed = 0, uses_anonymous_args = 0
 2116              	.LVL225:
 2117 0000 10B5     		push	{r4, lr}
 2118              		.cfi_def_cfa_offset 8
 2119              		.cfi_offset 4, -8
 2120              		.cfi_offset 14, -4
 2121 0002 94B0     		sub	sp, sp, #80
 2122              		.cfi_def_cfa_offset 88
 2123 0004 0346     		mov	r3, r0
 2124 0006 0846     		mov	r0, r1
 2125              	.LVL226:
 518:minmea/minmea.c ****     // $GPGSV,3,1,11,03,03,111,00,04,15,270,00,06,01,010,00,13,06,292,00*74
 519:minmea/minmea.c ****     // $GPGSV,3,3,11,22,42,067,42,24,14,311,43,27,05,244,00,,,,*4D
 520:minmea/minmea.c ****     // $GPGSV,4,2,11,08,51,203,30,09,45,215,28*75
 521:minmea/minmea.c ****     // $GPGSV,4,4,13,39,31,170,27*40
 522:minmea/minmea.c ****     // $GPGSV,4,4,13*7B
 523:minmea/minmea.c ****     char type[6];
 524:minmea/minmea.c **** 
 525:minmea/minmea.c ****     if (!minmea_scan(sentence, "tiii;iiiiiiiiiiiiiiii",
 2126              		.loc 1 525 0
 2127 0008 03F14802 		add	r2, r3, #72
 2128 000c 1192     		str	r2, [sp, #68]
 2129 000e 03F14402 		add	r2, r3, #68
 2130 0012 1092     		str	r2, [sp, #64]
 2131 0014 03F14002 		add	r2, r3, #64
 2132 0018 0F92     		str	r2, [sp, #60]
 2133 001a 03F13C02 		add	r2, r3, #60
 2134 001e 0E92     		str	r2, [sp, #56]
 2135 0020 03F13802 		add	r2, r3, #56
ARM GAS  C:\Users\crono\AppData\Local\Temp\ccd4dy0n.s 			page 49


 2136 0024 0D92     		str	r2, [sp, #52]
 2137 0026 03F13402 		add	r2, r3, #52
 2138 002a 0C92     		str	r2, [sp, #48]
 2139 002c 03F13002 		add	r2, r3, #48
 2140 0030 0B92     		str	r2, [sp, #44]
 2141 0032 03F12C02 		add	r2, r3, #44
 2142 0036 0A92     		str	r2, [sp, #40]
 2143 0038 03F12802 		add	r2, r3, #40
 2144 003c 0992     		str	r2, [sp, #36]
 2145 003e 03F12402 		add	r2, r3, #36
 2146 0042 0892     		str	r2, [sp, #32]
 2147 0044 03F12002 		add	r2, r3, #32
 2148 0048 0792     		str	r2, [sp, #28]
 2149 004a 03F11C02 		add	r2, r3, #28
 2150 004e 0692     		str	r2, [sp, #24]
 2151 0050 03F11802 		add	r2, r3, #24
 2152 0054 0592     		str	r2, [sp, #20]
 2153 0056 03F11402 		add	r2, r3, #20
 2154 005a 0492     		str	r2, [sp, #16]
 2155 005c 03F11002 		add	r2, r3, #16
 2156 0060 0392     		str	r2, [sp, #12]
 2157 0062 03F10C02 		add	r2, r3, #12
 2158 0066 0292     		str	r2, [sp, #8]
 2159 0068 03F10802 		add	r2, r3, #8
 2160 006c 0192     		str	r2, [sp, #4]
 2161 006e 1A1D     		adds	r2, r3, #4
 2162 0070 0092     		str	r2, [sp]
 2163 0072 12AA     		add	r2, sp, #72
 2164 0074 0749     		ldr	r1, .L207
 2165              	.LVL227:
 2166 0076 FFF7FEFF 		bl	minmea_scan
 2167              	.LVL228:
 2168 007a 0446     		mov	r4, r0
 2169 007c 30B1     		cbz	r0, .L205
 526:minmea/minmea.c ****             type,
 527:minmea/minmea.c ****             &frame->total_msgs,
 528:minmea/minmea.c ****             &frame->msg_nr,
 529:minmea/minmea.c ****             &frame->total_sats,
 530:minmea/minmea.c ****             &frame->sats[0].nr,
 531:minmea/minmea.c ****             &frame->sats[0].elevation,
 532:minmea/minmea.c ****             &frame->sats[0].azimuth,
 533:minmea/minmea.c ****             &frame->sats[0].snr,
 534:minmea/minmea.c ****             &frame->sats[1].nr,
 535:minmea/minmea.c ****             &frame->sats[1].elevation,
 536:minmea/minmea.c ****             &frame->sats[1].azimuth,
 537:minmea/minmea.c ****             &frame->sats[1].snr,
 538:minmea/minmea.c ****             &frame->sats[2].nr,
 539:minmea/minmea.c ****             &frame->sats[2].elevation,
 540:minmea/minmea.c ****             &frame->sats[2].azimuth,
 541:minmea/minmea.c ****             &frame->sats[2].snr,
 542:minmea/minmea.c ****             &frame->sats[3].nr,
 543:minmea/minmea.c ****             &frame->sats[3].elevation,
 544:minmea/minmea.c ****             &frame->sats[3].azimuth,
 545:minmea/minmea.c ****             &frame->sats[3].snr
 546:minmea/minmea.c ****             )) {
 547:minmea/minmea.c ****         return false;
 548:minmea/minmea.c ****     }
ARM GAS  C:\Users\crono\AppData\Local\Temp\ccd4dy0n.s 			page 50


 549:minmea/minmea.c ****     if (strcmp(type+2, "GSV"))
 2170              		.loc 1 549 0
 2171 007e 0649     		ldr	r1, .L207+4
 2172 0080 0DF14A00 		add	r0, sp, #74
 2173 0084 FFF7FEFF 		bl	strcmp
 2174              	.LVL229:
 2175 0088 00B1     		cbz	r0, .L205
 550:minmea/minmea.c ****         return false;
 2176              		.loc 1 550 0
 2177 008a 0024     		movs	r4, #0
 2178              	.L205:
 551:minmea/minmea.c **** 
 552:minmea/minmea.c ****     return true;
 553:minmea/minmea.c **** }
 2179              		.loc 1 553 0
 2180 008c 2046     		mov	r0, r4
 2181 008e 14B0     		add	sp, sp, #80
 2182              		.cfi_def_cfa_offset 8
 2183              		@ sp needed
 2184 0090 10BD     		pop	{r4, pc}
 2185              	.L208:
 2186 0092 00BF     		.align	2
 2187              	.L207:
 2188 0094 78000000 		.word	.LC16
 2189 0098 20000000 		.word	.LC8
 2190              		.cfi_endproc
 2191              	.LFE16:
 2192              		.size	minmea_parse_gsv, .-minmea_parse_gsv
 2193              		.section	.text.minmea_parse_vtg,"ax",%progbits
 2194              		.align	2
 2195              		.global	minmea_parse_vtg
 2196              		.thumb
 2197              		.thumb_func
 2198              		.type	minmea_parse_vtg, %function
 2199              	minmea_parse_vtg:
 2200              	.LFB17:
 554:minmea/minmea.c **** 
 555:minmea/minmea.c **** bool minmea_parse_vtg(struct minmea_sentence_vtg *frame, const char *sentence)
 556:minmea/minmea.c **** {
 2201              		.loc 1 556 0
 2202              		.cfi_startproc
 2203              		@ args = 0, pretend = 0, frame = 16
 2204              		@ frame_needed = 0, uses_anonymous_args = 0
 2205              	.LVL230:
 2206 0000 30B5     		push	{r4, r5, lr}
 2207              		.cfi_def_cfa_offset 12
 2208              		.cfi_offset 4, -12
 2209              		.cfi_offset 5, -8
 2210              		.cfi_offset 14, -4
 2211 0002 8DB0     		sub	sp, sp, #52
 2212              		.cfi_def_cfa_offset 64
 2213 0004 0446     		mov	r4, r0
 2214 0006 0846     		mov	r0, r1
 2215              	.LVL231:
 557:minmea/minmea.c ****     // $GPVTG,054.7,T,034.4,M,005.5,N,010.2,K*48
 558:minmea/minmea.c ****     // $GPVTG,156.1,T,140.9,M,0.0,N,0.0,K*41
 559:minmea/minmea.c ****     // $GPVTG,096.5,T,083.5,M,0.0,N,0.0,K,D*22
ARM GAS  C:\Users\crono\AppData\Local\Temp\ccd4dy0n.s 			page 51


 560:minmea/minmea.c ****     // $GPVTG,188.36,T,,M,0.820,N,1.519,K,A*3F
 561:minmea/minmea.c ****     char type[6];
 562:minmea/minmea.c ****     char c_true, c_magnetic, c_knots, c_kph, c_faa_mode;
 563:minmea/minmea.c **** 
 564:minmea/minmea.c ****     if (!minmea_scan(sentence, "tfcfcfcfc;c",
 2216              		.loc 1 564 0
 2217 0008 0DF12303 		add	r3, sp, #35
 2218 000c 0793     		str	r3, [sp, #28]
 2219 000e 09AB     		add	r3, sp, #36
 2220 0010 0693     		str	r3, [sp, #24]
 2221 0012 04F11803 		add	r3, r4, #24
 2222 0016 0593     		str	r3, [sp, #20]
 2223 0018 0DF12503 		add	r3, sp, #37
 2224 001c 0493     		str	r3, [sp, #16]
 2225 001e 04F11003 		add	r3, r4, #16
 2226 0022 0393     		str	r3, [sp, #12]
 2227 0024 0DF12603 		add	r3, sp, #38
 2228 0028 0293     		str	r3, [sp, #8]
 2229 002a 04F10803 		add	r3, r4, #8
 2230 002e 0193     		str	r3, [sp, #4]
 2231 0030 0DF12703 		add	r3, sp, #39
 2232 0034 0093     		str	r3, [sp]
 2233 0036 2346     		mov	r3, r4
 2234 0038 0AAA     		add	r2, sp, #40
 2235 003a 1649     		ldr	r1, .L217
 2236              	.LVL232:
 2237 003c FFF7FEFF 		bl	minmea_scan
 2238              	.LVL233:
 2239 0040 0546     		mov	r5, r0
 2240 0042 18B3     		cbz	r0, .L210
 565:minmea/minmea.c ****             type,
 566:minmea/minmea.c ****             &frame->true_track_degrees,
 567:minmea/minmea.c ****             &c_true,
 568:minmea/minmea.c ****             &frame->magnetic_track_degrees,
 569:minmea/minmea.c ****             &c_magnetic,
 570:minmea/minmea.c ****             &frame->speed_knots,
 571:minmea/minmea.c ****             &c_knots,
 572:minmea/minmea.c ****             &frame->speed_kph,
 573:minmea/minmea.c ****             &c_kph,
 574:minmea/minmea.c ****             &c_faa_mode))
 575:minmea/minmea.c ****         return false;
 576:minmea/minmea.c ****     if (strcmp(type+2, "VTG"))
 2241              		.loc 1 576 0
 2242 0044 1449     		ldr	r1, .L217+4
 2243 0046 0DF12A00 		add	r0, sp, #42
 2244 004a FFF7FEFF 		bl	strcmp
 2245              	.LVL234:
 2246 004e A0B9     		cbnz	r0, .L211
 577:minmea/minmea.c ****         return false;
 578:minmea/minmea.c ****     // check chars
 579:minmea/minmea.c ****     if (c_true != 'T' ||
 2247              		.loc 1 579 0
 2248 0050 9DF82730 		ldrb	r3, [sp, #39]	@ zero_extendqisi2
 2249 0054 542B     		cmp	r3, #84
 2250 0056 12D1     		bne	.L212
 580:minmea/minmea.c ****         c_magnetic != 'M' ||
 2251              		.loc 1 580 0 discriminator 1
ARM GAS  C:\Users\crono\AppData\Local\Temp\ccd4dy0n.s 			page 52


 2252 0058 9DF82630 		ldrb	r3, [sp, #38]	@ zero_extendqisi2
 579:minmea/minmea.c ****         c_magnetic != 'M' ||
 2253              		.loc 1 579 0 discriminator 1
 2254 005c 4D2B     		cmp	r3, #77
 2255 005e 10D1     		bne	.L213
 581:minmea/minmea.c ****         c_knots != 'N' ||
 2256              		.loc 1 581 0
 2257 0060 9DF82530 		ldrb	r3, [sp, #37]	@ zero_extendqisi2
 580:minmea/minmea.c ****         c_magnetic != 'M' ||
 2258              		.loc 1 580 0
 2259 0064 4E2B     		cmp	r3, #78
 2260 0066 0ED1     		bne	.L214
 582:minmea/minmea.c ****         c_kph != 'K')
 2261              		.loc 1 582 0
 2262 0068 9DF82430 		ldrb	r3, [sp, #36]	@ zero_extendqisi2
 581:minmea/minmea.c ****         c_knots != 'N' ||
 2263              		.loc 1 581 0
 2264 006c 4B2B     		cmp	r3, #75
 2265 006e 0CD1     		bne	.L215
 583:minmea/minmea.c ****         return false;
 584:minmea/minmea.c ****     frame->faa_mode = (enum minmea_faa_mode)c_faa_mode;
 2266              		.loc 1 584 0
 2267 0070 9DF82330 		ldrb	r3, [sp, #35]	@ zero_extendqisi2
 2268 0074 84F82030 		strb	r3, [r4, #32]
 585:minmea/minmea.c **** 
 586:minmea/minmea.c ****     return true;
 2269              		.loc 1 586 0
 2270 0078 08E0     		b	.L210
 2271              	.L211:
 577:minmea/minmea.c ****     // check chars
 2272              		.loc 1 577 0
 2273 007a 0025     		movs	r5, #0
 2274 007c 06E0     		b	.L210
 2275              	.L212:
 583:minmea/minmea.c ****         return false;
 2276              		.loc 1 583 0
 2277 007e 0025     		movs	r5, #0
 2278 0080 04E0     		b	.L210
 2279              	.L213:
 2280 0082 0025     		movs	r5, #0
 2281 0084 02E0     		b	.L210
 2282              	.L214:
 2283 0086 0025     		movs	r5, #0
 2284 0088 00E0     		b	.L210
 2285              	.L215:
 2286 008a 0025     		movs	r5, #0
 2287              	.L210:
 587:minmea/minmea.c **** }
 2288              		.loc 1 587 0
 2289 008c 2846     		mov	r0, r5
 2290 008e 0DB0     		add	sp, sp, #52
 2291              		.cfi_def_cfa_offset 12
 2292              		@ sp needed
 2293 0090 30BD     		pop	{r4, r5, pc}
 2294              	.LVL235:
 2295              	.L218:
 2296 0092 00BF     		.align	2
ARM GAS  C:\Users\crono\AppData\Local\Temp\ccd4dy0n.s 			page 53


 2297              	.L217:
 2298 0094 90000000 		.word	.LC17
 2299 0098 24000000 		.word	.LC9
 2300              		.cfi_endproc
 2301              	.LFE17:
 2302              		.size	minmea_parse_vtg, .-minmea_parse_vtg
 2303              		.section	.text.minmea_parse_zda,"ax",%progbits
 2304              		.align	2
 2305              		.global	minmea_parse_zda
 2306              		.thumb
 2307              		.thumb_func
 2308              		.type	minmea_parse_zda, %function
 2309              	minmea_parse_zda:
 2310              	.LFB18:
 588:minmea/minmea.c **** 
 589:minmea/minmea.c **** bool minmea_parse_zda(struct minmea_sentence_zda *frame, const char *sentence)
 590:minmea/minmea.c **** {
 2311              		.loc 1 590 0
 2312              		.cfi_startproc
 2313              		@ args = 0, pretend = 0, frame = 8
 2314              		@ frame_needed = 0, uses_anonymous_args = 0
 2315              	.LVL236:
 2316 0000 30B5     		push	{r4, r5, lr}
 2317              		.cfi_def_cfa_offset 12
 2318              		.cfi_offset 4, -12
 2319              		.cfi_offset 5, -8
 2320              		.cfi_offset 14, -4
 2321 0002 89B0     		sub	sp, sp, #36
 2322              		.cfi_def_cfa_offset 48
 2323 0004 0446     		mov	r4, r0
 2324 0006 0846     		mov	r0, r1
 2325              	.LVL237:
 591:minmea/minmea.c ****   // $GPZDA,201530.00,04,07,2002,00,00*60
 592:minmea/minmea.c ****   char type[6];
 593:minmea/minmea.c **** 
 594:minmea/minmea.c ****   if(!minmea_scan(sentence, "tTiiiii",
 2326              		.loc 1 594 0
 2327 0008 04F12003 		add	r3, r4, #32
 2328 000c 0493     		str	r3, [sp, #16]
 2329 000e 04F11C03 		add	r3, r4, #28
 2330 0012 0393     		str	r3, [sp, #12]
 2331 0014 04F11803 		add	r3, r4, #24
 2332 0018 0293     		str	r3, [sp, #8]
 2333 001a 04F11403 		add	r3, r4, #20
 2334 001e 0193     		str	r3, [sp, #4]
 2335 0020 04F11003 		add	r3, r4, #16
 2336 0024 0093     		str	r3, [sp]
 2337 0026 2346     		mov	r3, r4
 2338 0028 06AA     		add	r2, sp, #24
 2339 002a 1049     		ldr	r1, .L225
 2340              	.LVL238:
 2341 002c FFF7FEFF 		bl	minmea_scan
 2342              	.LVL239:
 2343 0030 0546     		mov	r5, r0
 2344 0032 B8B1     		cbz	r0, .L220
 595:minmea/minmea.c ****           type,
 596:minmea/minmea.c ****           &frame->time,
ARM GAS  C:\Users\crono\AppData\Local\Temp\ccd4dy0n.s 			page 54


 597:minmea/minmea.c ****           &frame->date.day,
 598:minmea/minmea.c ****           &frame->date.month,
 599:minmea/minmea.c ****           &frame->date.year,
 600:minmea/minmea.c ****           &frame->hour_offset,
 601:minmea/minmea.c ****           &frame->minute_offset))
 602:minmea/minmea.c ****       return false;
 603:minmea/minmea.c ****   if (strcmp(type+2, "ZDA"))
 2345              		.loc 1 603 0
 2346 0034 0E49     		ldr	r1, .L225+4
 2347 0036 0DF11A00 		add	r0, sp, #26
 2348 003a FFF7FEFF 		bl	strcmp
 2349              	.LVL240:
 2350 003e 60B9     		cbnz	r0, .L221
 604:minmea/minmea.c ****       return false;
 605:minmea/minmea.c **** 
 606:minmea/minmea.c ****   // check offsets
 607:minmea/minmea.c ****   if (abs(frame->hour_offset) > 13 ||
 2351              		.loc 1 607 0
 2352 0040 E369     		ldr	r3, [r4, #28]
 2353 0042 002B     		cmp	r3, #0
 2354 0044 B8BF     		it	lt
 2355 0046 5B42     		rsblt	r3, r3, #0
 2356 0048 0D2B     		cmp	r3, #13
 2357 004a 08DC     		bgt	.L222
 608:minmea/minmea.c ****       frame->minute_offset > 59 ||
 2358              		.loc 1 608 0 discriminator 1
 2359 004c 236A     		ldr	r3, [r4, #32]
 607:minmea/minmea.c ****       frame->minute_offset > 59 ||
 2360              		.loc 1 607 0 discriminator 1
 2361 004e 3B2B     		cmp	r3, #59
 2362 0050 07DC     		bgt	.L223
 2363              		.loc 1 608 0
 2364 0052 002B     		cmp	r3, #0
 2365 0054 06DA     		bge	.L220
 609:minmea/minmea.c ****       frame->minute_offset < 0)
 610:minmea/minmea.c ****       return false;
 2366              		.loc 1 610 0
 2367 0056 0025     		movs	r5, #0
 2368 0058 04E0     		b	.L220
 2369              	.L221:
 604:minmea/minmea.c **** 
 2370              		.loc 1 604 0
 2371 005a 0025     		movs	r5, #0
 2372 005c 02E0     		b	.L220
 2373              	.L222:
 2374              		.loc 1 610 0
 2375 005e 0025     		movs	r5, #0
 2376 0060 00E0     		b	.L220
 2377              	.L223:
 2378 0062 0025     		movs	r5, #0
 2379              	.L220:
 611:minmea/minmea.c **** 
 612:minmea/minmea.c ****   return true;
 613:minmea/minmea.c **** }
 2380              		.loc 1 613 0
 2381 0064 2846     		mov	r0, r5
 2382 0066 09B0     		add	sp, sp, #36
ARM GAS  C:\Users\crono\AppData\Local\Temp\ccd4dy0n.s 			page 55


 2383              		.cfi_def_cfa_offset 12
 2384              		@ sp needed
 2385 0068 30BD     		pop	{r4, r5, pc}
 2386              	.LVL241:
 2387              	.L226:
 2388 006a 00BF     		.align	2
 2389              	.L225:
 2390 006c 9C000000 		.word	.LC18
 2391 0070 28000000 		.word	.LC10
 2392              		.cfi_endproc
 2393              	.LFE18:
 2394              		.size	minmea_parse_zda, .-minmea_parse_zda
 2395              		.section	.text.minmea_gettime,"ax",%progbits
 2396              		.align	2
 2397              		.global	minmea_gettime
 2398              		.thumb
 2399              		.thumb_func
 2400              		.type	minmea_gettime, %function
 2401              	minmea_gettime:
 2402              	.LFB19:
 614:minmea/minmea.c **** 
 615:minmea/minmea.c **** int minmea_gettime(struct timespec *ts, const struct minmea_date *date, const struct minmea_time *t
 616:minmea/minmea.c **** {
 2403              		.loc 1 616 0
 2404              		.cfi_startproc
 2405              		@ args = 0, pretend = 0, frame = 40
 2406              		@ frame_needed = 0, uses_anonymous_args = 0
 2407              	.LVL242:
 617:minmea/minmea.c ****     if (date->year == -1 || time_->hours == -1)
 2408              		.loc 1 617 0
 2409 0000 8B68     		ldr	r3, [r1, #8]
 2410 0002 B3F1FF3F 		cmp	r3, #-1
 2411 0006 3CD0     		beq	.L234
 2412              		.loc 1 617 0 is_stmt 0 discriminator 1
 2413 0008 1368     		ldr	r3, [r2]
 2414 000a B3F1FF3F 		cmp	r3, #-1
 2415 000e 38D0     		beq	.L234
 616:minmea/minmea.c ****     if (date->year == -1 || time_->hours == -1)
 2416              		.loc 1 616 0 is_stmt 1
 2417 0010 70B5     		push	{r4, r5, r6, lr}
 2418              		.cfi_def_cfa_offset 16
 2419              		.cfi_offset 4, -16
 2420              		.cfi_offset 5, -12
 2421              		.cfi_offset 6, -8
 2422              		.cfi_offset 14, -4
 2423 0012 8AB0     		sub	sp, sp, #40
 2424              		.cfi_def_cfa_offset 56
 2425 0014 1446     		mov	r4, r2
 2426 0016 0D46     		mov	r5, r1
 2427 0018 0646     		mov	r6, r0
 618:minmea/minmea.c ****         return -1;
 619:minmea/minmea.c **** 
 620:minmea/minmea.c ****     struct tm tm;
 621:minmea/minmea.c ****     memset(&tm, 0, sizeof(tm));
 2428              		.loc 1 621 0
 2429 001a 2422     		movs	r2, #36
 2430              	.LVL243:
ARM GAS  C:\Users\crono\AppData\Local\Temp\ccd4dy0n.s 			page 56


 2431 001c 0021     		movs	r1, #0
 2432              	.LVL244:
 2433 001e 01A8     		add	r0, sp, #4
 2434              	.LVL245:
 2435 0020 FFF7FEFF 		bl	memset
 2436              	.LVL246:
 622:minmea/minmea.c ****     if (date->year < 80) {
 2437              		.loc 1 622 0
 2438 0024 AB68     		ldr	r3, [r5, #8]
 2439 0026 4F2B     		cmp	r3, #79
 2440 0028 02DC     		bgt	.L229
 623:minmea/minmea.c ****         tm.tm_year = 2000 + date->year - 1900;  // 2000-2079
 2441              		.loc 1 623 0
 2442 002a 6433     		adds	r3, r3, #100
 2443 002c 0693     		str	r3, [sp, #24]
 2444 002e 08E0     		b	.L230
 2445              	.L229:
 624:minmea/minmea.c ****     } else if (date->year >= 1900) {
 2446              		.loc 1 624 0
 2447 0030 40F26B72 		movw	r2, #1899
 2448 0034 9342     		cmp	r3, r2
 2449 0036 03DD     		ble	.L231
 625:minmea/minmea.c ****         tm.tm_year = date->year - 1900; // 4 digit year, use directly
 2450              		.loc 1 625 0
 2451 0038 A3F26C73 		subw	r3, r3, #1900
 2452 003c 0693     		str	r3, [sp, #24]
 2453 003e 00E0     		b	.L230
 2454              	.L231:
 626:minmea/minmea.c ****     } else {
 627:minmea/minmea.c ****         tm.tm_year = date->year;    // 1980-1999
 2455              		.loc 1 627 0
 2456 0040 0693     		str	r3, [sp, #24]
 2457              	.L230:
 628:minmea/minmea.c ****     }
 629:minmea/minmea.c ****     tm.tm_mon = date->month - 1;
 2458              		.loc 1 629 0
 2459 0042 6B68     		ldr	r3, [r5, #4]
 2460 0044 013B     		subs	r3, r3, #1
 2461 0046 0593     		str	r3, [sp, #20]
 630:minmea/minmea.c ****     tm.tm_mday = date->day;
 2462              		.loc 1 630 0
 2463 0048 2B68     		ldr	r3, [r5]
 2464 004a 0493     		str	r3, [sp, #16]
 631:minmea/minmea.c ****     tm.tm_hour = time_->hours;
 2465              		.loc 1 631 0
 2466 004c 2368     		ldr	r3, [r4]
 2467 004e 0393     		str	r3, [sp, #12]
 632:minmea/minmea.c ****     tm.tm_min = time_->minutes;
 2468              		.loc 1 632 0
 2469 0050 6368     		ldr	r3, [r4, #4]
 2470 0052 0293     		str	r3, [sp, #8]
 633:minmea/minmea.c ****     tm.tm_sec = time_->seconds;
 2471              		.loc 1 633 0
 2472 0054 A368     		ldr	r3, [r4, #8]
 2473 0056 0AA8     		add	r0, sp, #40
 2474 0058 40F8243D 		str	r3, [r0, #-36]!
 634:minmea/minmea.c **** 
ARM GAS  C:\Users\crono\AppData\Local\Temp\ccd4dy0n.s 			page 57


 635:minmea/minmea.c ****     time_t timestamp = timegm(&tm); /* See README.md if your system lacks timegm(). */
 2475              		.loc 1 635 0
 2476 005c FFF7FEFF 		bl	timegm
 2477              	.LVL247:
 636:minmea/minmea.c ****     if (timestamp != (time_t)-1) {
 2478              		.loc 1 636 0
 2479 0060 B0F1FF3F 		cmp	r0, #-1
 2480 0064 08D0     		beq	.L232
 637:minmea/minmea.c ****         ts->tv_sec = timestamp;
 2481              		.loc 1 637 0
 2482 0066 3060     		str	r0, [r6]
 638:minmea/minmea.c ****         ts->tv_nsec = time_->microseconds * 1000;
 2483              		.loc 1 638 0
 2484 0068 E268     		ldr	r2, [r4, #12]
 2485 006a 4FF47A73 		mov	r3, #1000
 2486 006e 03FB02F3 		mul	r3, r3, r2
 2487 0072 7360     		str	r3, [r6, #4]
 639:minmea/minmea.c ****         return 0;
 2488              		.loc 1 639 0
 2489 0074 0023     		movs	r3, #0
 2490 0076 01E0     		b	.L228
 2491              	.L232:
 640:minmea/minmea.c ****     } else {
 641:minmea/minmea.c ****         return -1;
 2492              		.loc 1 641 0
 2493 0078 4FF0FF33 		mov	r3, #-1
 2494              	.L228:
 642:minmea/minmea.c ****     }
 643:minmea/minmea.c **** }
 2495              		.loc 1 643 0
 2496 007c 1846     		mov	r0, r3
 2497              	.LVL248:
 2498 007e 0AB0     		add	sp, sp, #40
 2499              		.cfi_def_cfa_offset 16
 2500              		@ sp needed
 2501 0080 70BD     		pop	{r4, r5, r6, pc}
 2502              	.LVL249:
 2503              	.L234:
 2504              		.cfi_def_cfa_offset 0
 2505              		.cfi_restore 4
 2506              		.cfi_restore 5
 2507              		.cfi_restore 6
 2508              		.cfi_restore 14
 2509 0082 1846     		mov	r0, r3
 2510              	.LVL250:
 2511 0084 7047     		bx	lr
 2512              		.cfi_endproc
 2513              	.LFE19:
 2514              		.size	minmea_gettime, .-minmea_gettime
 2515 0086 00BF     		.section	.rodata.str1.4,"aMS",%progbits,1
 2516              		.align	2
 2517              	.LC0:
 2518 0000 0A00     		.ascii	"\012\000"
 2519 0002 0000     		.space	2
 2520              	.LC1:
 2521 0004 0D0A00   		.ascii	"\015\012\000"
 2522 0007 00       		.space	1
ARM GAS  C:\Users\crono\AppData\Local\Temp\ccd4dy0n.s 			page 58


 2523              	.LC2:
 2524 0008 7400     		.ascii	"t\000"
 2525 000a 0000     		.space	2
 2526              	.LC3:
 2527 000c 524D4300 		.ascii	"RMC\000"
 2528              	.LC4:
 2529 0010 47474100 		.ascii	"GGA\000"
 2530              	.LC5:
 2531 0014 47534100 		.ascii	"GSA\000"
 2532              	.LC6:
 2533 0018 474C4C00 		.ascii	"GLL\000"
 2534              	.LC7:
 2535 001c 47535400 		.ascii	"GST\000"
 2536              	.LC8:
 2537 0020 47535600 		.ascii	"GSV\000"
 2538              	.LC9:
 2539 0024 56544700 		.ascii	"VTG\000"
 2540              	.LC10:
 2541 0028 5A444100 		.ascii	"ZDA\000"
 2542              	.LC11:
 2543 002c 74546366 		.ascii	"tTcfdfdffDfd\000"
 2543      64666466 
 2543      66446664 
 2543      00
 2544 0039 000000   		.space	3
 2545              	.LC12:
 2546 003c 74546664 		.ascii	"tTfdfdiiffcfci_\000"
 2546      66646969 
 2546      66666366 
 2546      63695F00 
 2547              	.LC13:
 2548 004c 74636969 		.ascii	"tciiiiiiiiiiiiifff\000"
 2548      69696969 
 2548      69696969 
 2548      69696966 
 2548      666600
 2549 005f 00       		.space	1
 2550              	.LC14:
 2551 0060 74666466 		.ascii	"tfdfdTc;c\000"
 2551      6454633B 
 2551      6300
 2552 006a 0000     		.space	2
 2553              	.LC15:
 2554 006c 74546666 		.ascii	"tTfffffff\000"
 2554      66666666 
 2554      6600
 2555 0076 0000     		.space	2
 2556              	.LC16:
 2557 0078 74696969 		.ascii	"tiii;iiiiiiiiiiiiiiii\000"
 2557      3B696969 
 2557      69696969 
 2557      69696969 
 2557      69696969 
 2558 008e 0000     		.space	2
 2559              	.LC17:
 2560 0090 74666366 		.ascii	"tfcfcfcfc;c\000"
 2560      63666366 
ARM GAS  C:\Users\crono\AppData\Local\Temp\ccd4dy0n.s 			page 59


 2560      633B6300 
 2561              	.LC18:
 2562 009c 74546969 		.ascii	"tTiiiii\000"
 2562      69696900 
 2563              		.text
 2564              	.Letext0:
 2565              		.file 2 "c:\\program files (x86)\\cypress\\psoc creator\\4.2\\psoc creator\\import\\gnu\\arm\\5.4.
 2566              		.file 3 "c:\\program files (x86)\\cypress\\psoc creator\\4.2\\psoc creator\\import\\gnu\\arm\\5.4.
 2567              		.file 4 "c:\\program files (x86)\\cypress\\psoc creator\\4.2\\psoc creator\\import\\gnu\\arm\\5.4.
 2568              		.file 5 "c:\\program files (x86)\\cypress\\psoc creator\\4.2\\psoc creator\\import\\gnu\\arm\\5.4.
 2569              		.file 6 "<built-in>"
 2570              		.file 7 "c:\\program files (x86)\\cypress\\psoc creator\\4.2\\psoc creator\\import\\gnu\\arm\\5.4.
 2571              		.file 8 "c:\\program files (x86)\\cypress\\psoc creator\\4.2\\psoc creator\\import\\gnu\\arm\\5.4.
 2572              		.file 9 "c:\\program files (x86)\\cypress\\psoc creator\\4.2\\psoc creator\\import\\gnu\\arm\\5.4.
 2573              		.file 10 "minmea\\minmea.h"
 2574              		.file 11 "c:\\program files (x86)\\cypress\\psoc creator\\4.2\\psoc creator\\import\\gnu\\arm\\5.4
 2575              		.file 12 "c:\\program files (x86)\\cypress\\psoc creator\\4.2\\psoc creator\\import\\gnu\\arm\\5.4
 2576              		.file 13 "c:\\program files (x86)\\cypress\\psoc creator\\4.2\\psoc creator\\import\\gnu\\arm\\5.4