ARM GAS  C:\Users\crono\AppData\Local\Temp\ccLF8pjd.s 			page 1


   1              		.syntax unified
   2              		.cpu cortex-m3
   3              		.fpu softvfp
   4              		.eabi_attribute 20, 1
   5              		.eabi_attribute 21, 1
   6              		.eabi_attribute 23, 3
   7              		.eabi_attribute 24, 1
   8              		.eabi_attribute 25, 1
   9              		.eabi_attribute 26, 1
  10              		.eabi_attribute 30, 1
  11              		.eabi_attribute 34, 1
  12              		.eabi_attribute 18, 4
  13              		.thumb
  14              		.syntax unified
  15              		.file	"mmc.c"
  16              		.text
  17              	.Ltext0:
  18              		.cfi_sections	.debug_frame
  19              		.section	.text.xchg_spi,"ax",%progbits
  20              		.align	2
  21              		.thumb
  22              		.thumb_func
  23              		.type	xchg_spi, %function
  24              	xchg_spi:
  25              	.LFB64:
  26              		.file 1 "sdc\\mmc.c"
   1:sdc/mmc.c     **** /*------------------------------------------------------------------------/
   2:sdc/mmc.c     **** /  MMCv3/SDv1/SDv2 (in SPI mode) control module
   3:sdc/mmc.c     **** /-------------------------------------------------------------------------/
   4:sdc/mmc.c     **** /
   5:sdc/mmc.c     **** /  Copyright (C) 2010, ChaN, all right reserved.
   6:sdc/mmc.c     **** /
   7:sdc/mmc.c     **** / * This software is a free software and there is NO WARRANTY.
   8:sdc/mmc.c     **** / * No restriction on use. You can use, modify and redistribute it for
   9:sdc/mmc.c     **** /   personal, non-profit or commercial products UNDER YOUR RESPONSIBILITY.
  10:sdc/mmc.c     **** / * Redistributions of source code must retain the above copyright notice.
  11:sdc/mmc.c     **** /
  12:sdc/mmc.c     **** /-------------------------------------------------------------------------*/
  13:sdc/mmc.c     **** 
  14:sdc/mmc.c     **** //#include <p24FJ64GA002.h>
  15:sdc/mmc.c     **** #include "device.h"		// This file includes device configurations and API definitions for this proje
  16:sdc/mmc.c     **** #include "diskio.h"
  17:sdc/mmc.c     **** #include "../xprintf.h"
  18:sdc/mmc.c     **** 
  19:sdc/mmc.c     **** 
  20:sdc/mmc.c     **** /* Definitions for MMC/SDC command */
  21:sdc/mmc.c     **** #define CMD0   (0)			/* GO_IDLE_STATE */
  22:sdc/mmc.c     **** #define CMD1   (1)			/* SEND_OP_COND */
  23:sdc/mmc.c     **** #define ACMD41 (41|0x80)	/* SEND_OP_COND (SDC) */
  24:sdc/mmc.c     **** #define CMD8   (8)			/* SEND_IF_COND */
  25:sdc/mmc.c     **** #define CMD9   (9)			/* SEND_CSD */
  26:sdc/mmc.c     **** #define CMD10  (10)			/* SEND_CID */
  27:sdc/mmc.c     **** #define CMD12  (12)			/* STOP_TRANSMISSION */
  28:sdc/mmc.c     **** #define ACMD13 (13|0x80)	/* SD_STATUS (SDC) */
  29:sdc/mmc.c     **** #define CMD16  (16)			/* SET_BLOCKLEN */
  30:sdc/mmc.c     **** #define CMD17  (17)			/* READ_SINGLE_BLOCK */
  31:sdc/mmc.c     **** #define CMD18  (18)			/* READ_MULTIPLE_BLOCK */
ARM GAS  C:\Users\crono\AppData\Local\Temp\ccLF8pjd.s 			page 2


  32:sdc/mmc.c     **** #define CMD23  (23)			/* SET_BLOCK_COUNT */
  33:sdc/mmc.c     **** #define ACMD23 (23|0x80)	/* SET_WR_BLK_ERASE_COUNT (SDC) */
  34:sdc/mmc.c     **** #define CMD24  (24)			/* WRITE_BLOCK */
  35:sdc/mmc.c     **** #define CMD25  (25)			/* WRITE_MULTIPLE_BLOCK */
  36:sdc/mmc.c     **** #define CMD41  (41)			/* SEND_OP_COND (ACMD) */
  37:sdc/mmc.c     **** #define CMD55  (55)			/* APP_CMD */
  38:sdc/mmc.c     **** #define CMD58  (58)			/* READ_OCR */
  39:sdc/mmc.c     **** 
  40:sdc/mmc.c     **** 
  41:sdc/mmc.c     **** /* Port Controls  (Platform dependent) */
  42:sdc/mmc.c     **** #if 0
  43:sdc/mmc.c     **** #define CS_LOW()  _LATB15 = 0	/* MMC CS = L */
  44:sdc/mmc.c     **** #define CS_HIGH() _LATB15 = 1	/* MMC CS = H */
  45:sdc/mmc.c     **** 
  46:sdc/mmc.c     **** #define SOCKPORT	PORTB		/* Socket contact port */
  47:sdc/mmc.c     **** #define SOCKWP	(1<<10)		/* Write protect switch (RB10) */
  48:sdc/mmc.c     **** #define SOCKINS	(1<<11)		/* Card detect switch (RB11) */
  49:sdc/mmc.c     **** #endif
  50:sdc/mmc.c     **** //#define	FCLK_SLOW()			/* Set slow clock (100k-400k) */
  51:sdc/mmc.c     **** //#define	FCLK_FAST()			/* Set fast clock (depends on the CSD) */
  52:sdc/mmc.c     **** #define	FCLK_SLOW()			Clock_3_SetDividerValue(24)	/* Set slow clock (100k-400k) */
  53:sdc/mmc.c     **** #define	FCLK_FAST()			Clock_3_SetDividerValue(2)	/* Set fast clock (depends on the CSD) */
  54:sdc/mmc.c     **** 
  55:sdc/mmc.c     **** //#define	CS_LOW()	CS_Write(0)
  56:sdc/mmc.c     **** //#define	CS_HIGH()	CS_Write(1)
  57:sdc/mmc.c     **** #define	CS_LOW()			SD_CSn_Write(0)
  58:sdc/mmc.c     **** #define	CS_HIGH()			SD_CSn_Write(1)
  59:sdc/mmc.c     **** //#define SD_Acc_LED_ON()		SD_Access_Write(1)
  60:sdc/mmc.c     **** //#define SD_Acc_LED_OFF()	SD_Access_Write(0)
  61:sdc/mmc.c     **** 
  62:sdc/mmc.c     **** 
  63:sdc/mmc.c     **** /*--------------------------------------------------------------------------
  64:sdc/mmc.c     **** 
  65:sdc/mmc.c     ****    Module Private Functions
  66:sdc/mmc.c     **** 
  67:sdc/mmc.c     **** ---------------------------------------------------------------------------*/
  68:sdc/mmc.c     **** 
  69:sdc/mmc.c     **** static volatile
  70:sdc/mmc.c     **** DSTATUS Stat = STA_NOINIT;	/* Disk status */
  71:sdc/mmc.c     **** 
  72:sdc/mmc.c     **** //static volatile
  73:sdc/mmc.c     **** //UINT Timer1, Timer2;		/* 1000Hz decrement timer */
  74:sdc/mmc.c     **** 
  75:sdc/mmc.c     **** static
  76:sdc/mmc.c     **** UINT CardType;
  77:sdc/mmc.c     **** 
  78:sdc/mmc.c     **** 
  79:sdc/mmc.c     **** 
  80:sdc/mmc.c     **** /*-----------------------------------------------------------------------*/
  81:sdc/mmc.c     **** /* Exchange a byte between PSoC3 and MMC via SPI  (Platform dependent)   */
  82:sdc/mmc.c     **** /*-----------------------------------------------------------------------*/
  83:sdc/mmc.c     **** 
  84:sdc/mmc.c     **** #define xmit_spi(dat) 	xchg_spi(dat)
  85:sdc/mmc.c     **** #define rcvr_spi()		xchg_spi(0xFF)
  86:sdc/mmc.c     **** //#define rcvr_spi_m(p)	SPI1BUF = 0xFF; while (!_SPIRBF); *(p) = (BYTE)SPI1BUF;
  87:sdc/mmc.c     **** 
  88:sdc/mmc.c     **** static
ARM GAS  C:\Users\crono\AppData\Local\Temp\ccLF8pjd.s 			page 3


  89:sdc/mmc.c     **** void rcvr_spi_m(BYTE *dat)
  90:sdc/mmc.c     **** {
  91:sdc/mmc.c     **** 	SD_SPIM_WriteTxData(0xFF);
  92:sdc/mmc.c     **** //	while(SD_SPIM_GetTxBufferSize()) {}
  93:sdc/mmc.c     **** 	while(!(SD_SPIM_ReadStatus() & SD_SPIM_STS_BYTE_COMPLETE)) {}
  94:sdc/mmc.c     **** 	*dat = (BYTE)SD_SPIM_ReadRxData();
  95:sdc/mmc.c     **** 	return;
  96:sdc/mmc.c     **** }
  97:sdc/mmc.c     **** 
  98:sdc/mmc.c     **** static
  99:sdc/mmc.c     **** BYTE xchg_spi (BYTE dat)
 100:sdc/mmc.c     **** {
  27              		.loc 1 100 0
  28              		.cfi_startproc
  29              		@ args = 0, pretend = 0, frame = 0
  30              		@ frame_needed = 0, uses_anonymous_args = 0
  31              	.LVL0:
  32 0000 08B5     		push	{r3, lr}
  33              		.cfi_def_cfa_offset 8
  34              		.cfi_offset 3, -8
  35              		.cfi_offset 14, -4
 101:sdc/mmc.c     **** //	BYTE i;
 102:sdc/mmc.c     **** /*	SPI1BUF = dat;
 103:sdc/mmc.c     **** 	while (!_SPIRBF);
 104:sdc/mmc.c     **** 	return (BYTE)SPI1BUF;*/
 105:sdc/mmc.c     **** 	SD_SPIM_WriteTxData(dat);
  36              		.loc 1 105 0
  37 0002 FFF7FEFF 		bl	SD_SPIM_WriteTxData
  38              	.LVL1:
  39              	.L2:
 106:sdc/mmc.c     **** 	while(!(SD_SPIM_ReadStatus() & SD_SPIM_STS_BYTE_COMPLETE)) {}
  40              		.loc 1 106 0 discriminator 1
  41 0006 FFF7FEFF 		bl	SD_SPIM_ReadStatus
  42              	.LVL2:
  43 000a 10F0080F 		tst	r0, #8
  44 000e FAD0     		beq	.L2
 107:sdc/mmc.c     **** 	return(SD_SPIM_ReadRxData());
  45              		.loc 1 107 0
  46 0010 FFF7FEFF 		bl	SD_SPIM_ReadRxData
  47              	.LVL3:
 108:sdc/mmc.c     **** /*	if(SD_SPIM_GetRxBufferSize())
 109:sdc/mmc.c     **** 	{
 110:sdc/mmc.c     **** 		return(SD_SPIM_ReadRxData());
 111:sdc/mmc.c     **** 	}
 112:sdc/mmc.c     **** 	else
 113:sdc/mmc.c     **** 	{
 114:sdc/mmc.c     **** 		xprintf("No data\r\n");
 115:sdc/mmc.c     **** 		return 0;
 116:sdc/mmc.c     **** 	}*/
 117:sdc/mmc.c     **** }
  48              		.loc 1 117 0
  49 0014 08BD     		pop	{r3, pc}
  50              		.cfi_endproc
  51              	.LFE64:
  52              		.size	xchg_spi, .-xchg_spi
  53 0016 00BF     		.section	.text.rcvr_spi_m,"ax",%progbits
  54              		.align	2
ARM GAS  C:\Users\crono\AppData\Local\Temp\ccLF8pjd.s 			page 4


  55              		.thumb
  56              		.thumb_func
  57              		.type	rcvr_spi_m, %function
  58              	rcvr_spi_m:
  59              	.LFB63:
  90:sdc/mmc.c     **** 	SD_SPIM_WriteTxData(0xFF);
  60              		.loc 1 90 0
  61              		.cfi_startproc
  62              		@ args = 0, pretend = 0, frame = 0
  63              		@ frame_needed = 0, uses_anonymous_args = 0
  64              	.LVL4:
  65 0000 10B5     		push	{r4, lr}
  66              		.cfi_def_cfa_offset 8
  67              		.cfi_offset 4, -8
  68              		.cfi_offset 14, -4
  69 0002 0446     		mov	r4, r0
  91:sdc/mmc.c     **** //	while(SD_SPIM_GetTxBufferSize()) {}
  70              		.loc 1 91 0
  71 0004 FF20     		movs	r0, #255
  72              	.LVL5:
  73 0006 FFF7FEFF 		bl	SD_SPIM_WriteTxData
  74              	.LVL6:
  75              	.L5:
  93:sdc/mmc.c     **** 	*dat = (BYTE)SD_SPIM_ReadRxData();
  76              		.loc 1 93 0 discriminator 1
  77 000a FFF7FEFF 		bl	SD_SPIM_ReadStatus
  78              	.LVL7:
  79 000e 10F0080F 		tst	r0, #8
  80 0012 FAD0     		beq	.L5
  94:sdc/mmc.c     **** 	return;
  81              		.loc 1 94 0
  82 0014 FFF7FEFF 		bl	SD_SPIM_ReadRxData
  83              	.LVL8:
  84 0018 2070     		strb	r0, [r4]
  85 001a 10BD     		pop	{r4, pc}
  86              		.cfi_endproc
  87              	.LFE63:
  88              		.size	rcvr_spi_m, .-rcvr_spi_m
  89              		.section	.text.deselect,"ax",%progbits
  90              		.align	2
  91              		.thumb
  92              		.thumb_func
  93              		.type	deselect, %function
  94              	deselect:
  95              	.LFB68:
 118:sdc/mmc.c     **** 
 119:sdc/mmc.c     **** 
 120:sdc/mmc.c     **** 	void Timer2_Set(unsigned int wait)
 121:sdc/mmc.c     **** 	{
 122:sdc/mmc.c     **** 		Timer2_Reset_Write(1);
 123:sdc/mmc.c     **** 		Timer2_Reset_Write(0);
 124:sdc/mmc.c     **** 		Timer2_WriteCounter(wait);
 125:sdc/mmc.c     **** 		return;
 126:sdc/mmc.c     **** 	}
 127:sdc/mmc.c     **** 
 128:sdc/mmc.c     **** 
 129:sdc/mmc.c     **** 
ARM GAS  C:\Users\crono\AppData\Local\Temp\ccLF8pjd.s 			page 5


 130:sdc/mmc.c     **** 	void Timer1_Set(unsigned int wait)
 131:sdc/mmc.c     **** 	{
 132:sdc/mmc.c     **** 		Timer1_Reset_Write(1);
 133:sdc/mmc.c     **** 		Timer1_Reset_Write(0);
 134:sdc/mmc.c     **** 		Timer1_WriteCounter(wait);
 135:sdc/mmc.c     **** 		return;
 136:sdc/mmc.c     **** 	}
 137:sdc/mmc.c     **** 
 138:sdc/mmc.c     **** 
 139:sdc/mmc.c     **** /*-----------------------------------------------------------------------*/
 140:sdc/mmc.c     **** /* Wait for card ready                                                   */
 141:sdc/mmc.c     **** /*-----------------------------------------------------------------------*/
 142:sdc/mmc.c     **** 
 143:sdc/mmc.c     **** static
 144:sdc/mmc.c     **** BYTE wait_ready (void)
 145:sdc/mmc.c     **** {
 146:sdc/mmc.c     **** 	BYTE res;
 147:sdc/mmc.c     **** 	WORD timer;
 148:sdc/mmc.c     **** 
 149:sdc/mmc.c     **** //	Timer2 = 500;	/* Wait for ready in timeout of 500ms */
 150:sdc/mmc.c     **** 	Timer2_Set(50000);
 151:sdc/mmc.c     **** 	rcvr_spi();
 152:sdc/mmc.c     **** 	do
 153:sdc/mmc.c     **** 	{
 154:sdc/mmc.c     **** 		res = rcvr_spi();
 155:sdc/mmc.c     **** 		timer = Timer2_ReadCounter();
 156:sdc/mmc.c     **** //		xprintf("%u\r\n", timer);
 157:sdc/mmc.c     **** 	}
 158:sdc/mmc.c     **** 	while ((res != 0xFF) && timer/* Timer2 */);
 159:sdc/mmc.c     **** //	xprintf("%u, %u\r\n", timer, 0, res);
 160:sdc/mmc.c     **** 	return res;
 161:sdc/mmc.c     **** }
 162:sdc/mmc.c     **** 
 163:sdc/mmc.c     **** 
 164:sdc/mmc.c     **** 
 165:sdc/mmc.c     **** /*-----------------------------------------------------------------------*/
 166:sdc/mmc.c     **** /* Deselect the card and release SPI bus                                 */
 167:sdc/mmc.c     **** /*-----------------------------------------------------------------------*/
 168:sdc/mmc.c     **** 
 169:sdc/mmc.c     **** static
 170:sdc/mmc.c     **** void deselect (void)
 171:sdc/mmc.c     **** {
  96              		.loc 1 171 0
  97              		.cfi_startproc
  98              		@ args = 0, pretend = 0, frame = 0
  99              		@ frame_needed = 0, uses_anonymous_args = 0
 100 0000 08B5     		push	{r3, lr}
 101              		.cfi_def_cfa_offset 8
 102              		.cfi_offset 3, -8
 103              		.cfi_offset 14, -4
 172:sdc/mmc.c     **** 	CS_HIGH();
 104              		.loc 1 172 0
 105 0002 0120     		movs	r0, #1
 106 0004 FFF7FEFF 		bl	SD_CSn_Write
 107              	.LVL9:
 173:sdc/mmc.c     **** //	SD_Acc_LED_OFF();
 174:sdc/mmc.c     **** 	rcvr_spi();
ARM GAS  C:\Users\crono\AppData\Local\Temp\ccLF8pjd.s 			page 6


 108              		.loc 1 174 0
 109 0008 FF20     		movs	r0, #255
 110 000a FFF7FEFF 		bl	xchg_spi
 111              	.LVL10:
 112 000e 08BD     		pop	{r3, pc}
 113              		.cfi_endproc
 114              	.LFE68:
 115              		.size	deselect, .-deselect
 116              		.section	.text.Timer2_Set,"ax",%progbits
 117              		.align	2
 118              		.global	Timer2_Set
 119              		.thumb
 120              		.thumb_func
 121              		.type	Timer2_Set, %function
 122              	Timer2_Set:
 123              	.LFB65:
 121:sdc/mmc.c     **** 		Timer2_Reset_Write(1);
 124              		.loc 1 121 0
 125              		.cfi_startproc
 126              		@ args = 0, pretend = 0, frame = 0
 127              		@ frame_needed = 0, uses_anonymous_args = 0
 128              	.LVL11:
 129 0000 10B5     		push	{r4, lr}
 130              		.cfi_def_cfa_offset 8
 131              		.cfi_offset 4, -8
 132              		.cfi_offset 14, -4
 133 0002 0446     		mov	r4, r0
 122:sdc/mmc.c     **** 		Timer2_Reset_Write(0);
 134              		.loc 1 122 0
 135 0004 0120     		movs	r0, #1
 136              	.LVL12:
 137 0006 FFF7FEFF 		bl	Timer2_Reset_Write
 138              	.LVL13:
 123:sdc/mmc.c     **** 		Timer2_WriteCounter(wait);
 139              		.loc 1 123 0
 140 000a 0020     		movs	r0, #0
 141 000c FFF7FEFF 		bl	Timer2_Reset_Write
 142              	.LVL14:
 124:sdc/mmc.c     **** 		return;
 143              		.loc 1 124 0
 144 0010 A0B2     		uxth	r0, r4
 145 0012 FFF7FEFF 		bl	Timer2_WriteCounter
 146              	.LVL15:
 147 0016 10BD     		pop	{r4, pc}
 148              		.cfi_endproc
 149              	.LFE65:
 150              		.size	Timer2_Set, .-Timer2_Set
 151              		.section	.text.wait_ready,"ax",%progbits
 152              		.align	2
 153              		.thumb
 154              		.thumb_func
 155              		.type	wait_ready, %function
 156              	wait_ready:
 157              	.LFB67:
 145:sdc/mmc.c     **** 	BYTE res;
 158              		.loc 1 145 0
 159              		.cfi_startproc
ARM GAS  C:\Users\crono\AppData\Local\Temp\ccLF8pjd.s 			page 7


 160              		@ args = 0, pretend = 0, frame = 0
 161              		@ frame_needed = 0, uses_anonymous_args = 0
 162 0000 10B5     		push	{r4, lr}
 163              		.cfi_def_cfa_offset 8
 164              		.cfi_offset 4, -8
 165              		.cfi_offset 14, -4
 150:sdc/mmc.c     **** 	rcvr_spi();
 166              		.loc 1 150 0
 167 0002 4CF25030 		movw	r0, #50000
 168 0006 FFF7FEFF 		bl	Timer2_Set
 169              	.LVL16:
 151:sdc/mmc.c     **** 	do
 170              		.loc 1 151 0
 171 000a FF20     		movs	r0, #255
 172 000c FFF7FEFF 		bl	xchg_spi
 173              	.LVL17:
 174              	.L13:
 154:sdc/mmc.c     **** 		timer = Timer2_ReadCounter();
 175              		.loc 1 154 0 discriminator 2
 176 0010 FF20     		movs	r0, #255
 177 0012 FFF7FEFF 		bl	xchg_spi
 178              	.LVL18:
 179 0016 0446     		mov	r4, r0
 180              	.LVL19:
 155:sdc/mmc.c     **** //		xprintf("%u\r\n", timer);
 181              		.loc 1 155 0 discriminator 2
 182 0018 FFF7FEFF 		bl	Timer2_ReadCounter
 183              	.LVL20:
 158:sdc/mmc.c     **** //	xprintf("%u, %u\r\n", timer, 0, res);
 184              		.loc 1 158 0 discriminator 2
 185 001c FF2C     		cmp	r4, #255
 186 001e 01D0     		beq	.L12
 158:sdc/mmc.c     **** //	xprintf("%u, %u\r\n", timer, 0, res);
 187              		.loc 1 158 0 is_stmt 0 discriminator 1
 188 0020 0028     		cmp	r0, #0
 189 0022 F5D1     		bne	.L13
 190              	.L12:
 161:sdc/mmc.c     **** 
 191              		.loc 1 161 0 is_stmt 1
 192 0024 2046     		mov	r0, r4
 193              	.LVL21:
 194 0026 10BD     		pop	{r4, pc}
 195              		.cfi_endproc
 196              	.LFE67:
 197              		.size	wait_ready, .-wait_ready
 198              		.section	.text.select,"ax",%progbits
 199              		.align	2
 200              		.thumb
 201              		.thumb_func
 202              		.type	select, %function
 203              	select:
 204              	.LFB69:
 175:sdc/mmc.c     **** }
 176:sdc/mmc.c     **** 
 177:sdc/mmc.c     **** 
 178:sdc/mmc.c     **** 
 179:sdc/mmc.c     **** /*-----------------------------------------------------------------------*/
ARM GAS  C:\Users\crono\AppData\Local\Temp\ccLF8pjd.s 			page 8


 180:sdc/mmc.c     **** /* Select the card and wait ready                                        */
 181:sdc/mmc.c     **** /*-----------------------------------------------------------------------*/
 182:sdc/mmc.c     **** 
 183:sdc/mmc.c     **** static
 184:sdc/mmc.c     **** int select (void)	/* 1:Successful, 0:Timeout */
 185:sdc/mmc.c     **** {
 205              		.loc 1 185 0
 206              		.cfi_startproc
 207              		@ args = 0, pretend = 0, frame = 0
 208              		@ frame_needed = 0, uses_anonymous_args = 0
 209 0000 08B5     		push	{r3, lr}
 210              		.cfi_def_cfa_offset 8
 211              		.cfi_offset 3, -8
 212              		.cfi_offset 14, -4
 186:sdc/mmc.c     **** 	CS_LOW();
 213              		.loc 1 186 0
 214 0002 0020     		movs	r0, #0
 215 0004 FFF7FEFF 		bl	SD_CSn_Write
 216              	.LVL22:
 187:sdc/mmc.c     **** //	SD_Acc_LED_ON();
 188:sdc/mmc.c     **** 	if (wait_ready() != 0xFF) {
 217              		.loc 1 188 0
 218 0008 FFF7FEFF 		bl	wait_ready
 219              	.LVL23:
 220 000c FF28     		cmp	r0, #255
 221 000e 03D0     		beq	.L17
 189:sdc/mmc.c     **** 		deselect();
 222              		.loc 1 189 0
 223 0010 FFF7FEFF 		bl	deselect
 224              	.LVL24:
 190:sdc/mmc.c     **** 		return 0;
 225              		.loc 1 190 0
 226 0014 0020     		movs	r0, #0
 227 0016 08BD     		pop	{r3, pc}
 228              	.L17:
 191:sdc/mmc.c     **** 	}
 192:sdc/mmc.c     **** 	return 1;
 229              		.loc 1 192 0
 230 0018 0120     		movs	r0, #1
 193:sdc/mmc.c     **** }
 231              		.loc 1 193 0
 232 001a 08BD     		pop	{r3, pc}
 233              		.cfi_endproc
 234              	.LFE69:
 235              		.size	select, .-select
 236              		.section	.text.send_cmd,"ax",%progbits
 237              		.align	2
 238              		.thumb
 239              		.thumb_func
 240              		.type	send_cmd, %function
 241              	send_cmd:
 242              	.LFB74:
 194:sdc/mmc.c     **** 
 195:sdc/mmc.c     **** 
 196:sdc/mmc.c     **** 
 197:sdc/mmc.c     **** /*-----------------------------------------------------------------------*/
 198:sdc/mmc.c     **** /* Power Control  (Platform dependent)                                   */
ARM GAS  C:\Users\crono\AppData\Local\Temp\ccLF8pjd.s 			page 9


 199:sdc/mmc.c     **** /*-----------------------------------------------------------------------*/
 200:sdc/mmc.c     **** /* When the target system does not support socket power control, there   */
 201:sdc/mmc.c     **** /* is nothing to do in these functions and chk_power always returns 1.   */
 202:sdc/mmc.c     **** 
 203:sdc/mmc.c     **** static
 204:sdc/mmc.c     **** void power_on (void)
 205:sdc/mmc.c     **** {
 206:sdc/mmc.c     **** 						/* Enable SPI1 */
 207:sdc/mmc.c     **** /*	SPI1CON1 = 0x013B;
 208:sdc/mmc.c     **** 	SPI1CON2 = 0x0000;
 209:sdc/mmc.c     **** 	_SPIEN = 1;*/
 210:sdc/mmc.c     **** }
 211:sdc/mmc.c     **** 
 212:sdc/mmc.c     **** static
 213:sdc/mmc.c     **** void power_off (void)
 214:sdc/mmc.c     **** {
 215:sdc/mmc.c     **** 	select();			/* Wait for card ready */
 216:sdc/mmc.c     **** 	deselect();
 217:sdc/mmc.c     **** 
 218:sdc/mmc.c     **** //	_SPIEN = 0;			/* Disable SPI1 */
 219:sdc/mmc.c     **** 
 220:sdc/mmc.c     **** 	Stat |= STA_NOINIT;	/* Set STA_NOINIT */
 221:sdc/mmc.c     **** }
 222:sdc/mmc.c     **** 
 223:sdc/mmc.c     **** 
 224:sdc/mmc.c     **** 
 225:sdc/mmc.c     **** /*-----------------------------------------------------------------------*/
 226:sdc/mmc.c     **** /* Receive a data packet from MMC                                        */
 227:sdc/mmc.c     **** /*-----------------------------------------------------------------------*/
 228:sdc/mmc.c     **** 
 229:sdc/mmc.c     **** static
 230:sdc/mmc.c     **** int rcvr_datablock (	/* 1:OK, 0:Failed */
 231:sdc/mmc.c     **** 	BYTE *buff,			/* Data buffer to store received data */
 232:sdc/mmc.c     **** 	UINT btr			/* Byte count (must be multiple of 4) */
 233:sdc/mmc.c     **** )
 234:sdc/mmc.c     **** {
 235:sdc/mmc.c     **** 	BYTE token;
 236:sdc/mmc.c     **** 
 237:sdc/mmc.c     **** //	Timer1 = 100;
 238:sdc/mmc.c     **** 	Timer1_Set(5000);
 239:sdc/mmc.c     **** 	do {							/* Wait for data packet in timeout of 100ms */
 240:sdc/mmc.c     **** 		token = rcvr_spi();
 241:sdc/mmc.c     **** 	} while ((token == 0xFF) && Timer1_ReadCounter()/* Timer1 */);
 242:sdc/mmc.c     **** 
 243:sdc/mmc.c     **** 	if(token != 0xFE) return 0;		/* If not valid data token, retutn with error */
 244:sdc/mmc.c     **** 
 245:sdc/mmc.c     **** 	do {							/* Receive the data block into buffer */
 246:sdc/mmc.c     **** 		rcvr_spi_m(buff++);
 247:sdc/mmc.c     **** 		rcvr_spi_m(buff++);
 248:sdc/mmc.c     **** 		rcvr_spi_m(buff++);
 249:sdc/mmc.c     **** 		rcvr_spi_m(buff++);
 250:sdc/mmc.c     **** //		if(btr > 497) xprintf("%02X", (unsigned int)*buff);
 251:sdc/mmc.c     **** 	} while (btr -= 4);
 252:sdc/mmc.c     **** 	rcvr_spi();						/* Discard CRC */
 253:sdc/mmc.c     **** 	rcvr_spi();
 254:sdc/mmc.c     **** 
 255:sdc/mmc.c     **** 	return 1;						/* Return with success */
ARM GAS  C:\Users\crono\AppData\Local\Temp\ccLF8pjd.s 			page 10


 256:sdc/mmc.c     **** }
 257:sdc/mmc.c     **** 
 258:sdc/mmc.c     **** 
 259:sdc/mmc.c     **** 
 260:sdc/mmc.c     **** /*-----------------------------------------------------------------------*/
 261:sdc/mmc.c     **** /* Send a data packet to MMC                                             */
 262:sdc/mmc.c     **** /*-----------------------------------------------------------------------*/
 263:sdc/mmc.c     **** 
 264:sdc/mmc.c     **** #if _READONLY == 0
 265:sdc/mmc.c     **** static
 266:sdc/mmc.c     **** int xmit_datablock (	/* 1:OK, 0:Failed */
 267:sdc/mmc.c     **** 	const BYTE *buff,	/* 512 byte data block to be transmitted */
 268:sdc/mmc.c     **** 	BYTE token			/* Data token */
 269:sdc/mmc.c     **** )
 270:sdc/mmc.c     **** {
 271:sdc/mmc.c     **** 	BYTE resp;
 272:sdc/mmc.c     **** 	UINT bc = 512;
 273:sdc/mmc.c     **** 
 274:sdc/mmc.c     **** 
 275:sdc/mmc.c     **** 	if (wait_ready() != 0xFF) return 0;
 276:sdc/mmc.c     **** 
 277:sdc/mmc.c     **** 	xmit_spi(token);		/* Xmit a token */
 278:sdc/mmc.c     **** 	if (token != 0xFD) {	/* Not StopTran token */
 279:sdc/mmc.c     **** 		do {						/* Xmit the 512 byte data block to the MMC */
 280:sdc/mmc.c     **** 			xmit_spi(*buff++);
 281:sdc/mmc.c     **** 			xmit_spi(*buff++);
 282:sdc/mmc.c     **** 		} while (bc -= 2);
 283:sdc/mmc.c     **** 		xmit_spi(0xFF);				/* CRC (Dummy) */
 284:sdc/mmc.c     **** 		xmit_spi(0xFF);
 285:sdc/mmc.c     **** 		resp = rcvr_spi();			/* Receive a data response */
 286:sdc/mmc.c     **** 		if ((resp & 0x1F) != 0x05)	/* If not accepted, return with error */
 287:sdc/mmc.c     **** 			return 0;
 288:sdc/mmc.c     **** 	}
 289:sdc/mmc.c     **** 
 290:sdc/mmc.c     **** 	return 1;
 291:sdc/mmc.c     **** }
 292:sdc/mmc.c     **** #endif	/* _READONLY */
 293:sdc/mmc.c     **** 
 294:sdc/mmc.c     **** 
 295:sdc/mmc.c     **** 
 296:sdc/mmc.c     **** /*-----------------------------------------------------------------------*/
 297:sdc/mmc.c     **** /* Send a command packet to MMC                                          */
 298:sdc/mmc.c     **** /*-----------------------------------------------------------------------*/
 299:sdc/mmc.c     **** 
 300:sdc/mmc.c     **** static
 301:sdc/mmc.c     **** BYTE send_cmd (
 302:sdc/mmc.c     **** 	BYTE cmd,		/* Command byte */
 303:sdc/mmc.c     **** 	DWORD arg		/* Argument */
 304:sdc/mmc.c     **** )
 305:sdc/mmc.c     **** {
 243              		.loc 1 305 0
 244              		.cfi_startproc
 245              		@ args = 0, pretend = 0, frame = 0
 246              		@ frame_needed = 0, uses_anonymous_args = 0
 247              	.LVL25:
 248 0000 70B5     		push	{r4, r5, r6, lr}
 249              		.cfi_def_cfa_offset 16
ARM GAS  C:\Users\crono\AppData\Local\Temp\ccLF8pjd.s 			page 11


 250              		.cfi_offset 4, -16
 251              		.cfi_offset 5, -12
 252              		.cfi_offset 6, -8
 253              		.cfi_offset 14, -4
 254 0002 0446     		mov	r4, r0
 255 0004 0E46     		mov	r6, r1
 306:sdc/mmc.c     **** 	BYTE n, res;
 307:sdc/mmc.c     **** 
 308:sdc/mmc.c     **** 
 309:sdc/mmc.c     **** 	if (cmd & 0x80)
 256              		.loc 1 309 0
 257 0006 10F0800F 		tst	r0, #128
 258 000a 26D0     		beq	.L20
 310:sdc/mmc.c     **** 	{	/* ACMD<n> is the command sequense of CMD55-CMD<n> */
 311:sdc/mmc.c     **** 		cmd &= 0x7F;
 259              		.loc 1 311 0
 260 000c 00F07F04 		and	r4, r0, #127
 261              	.LVL26:
 312:sdc/mmc.c     **** //		res = send_cmd(CMD55, 0);
 313:sdc/mmc.c     **** 		/* Select the card and wait for ready */
 314:sdc/mmc.c     **** 		deselect();
 262              		.loc 1 314 0
 263 0010 FFF7FEFF 		bl	deselect
 264              	.LVL27:
 315:sdc/mmc.c     **** 		if (!select()) return 0xFF;
 265              		.loc 1 315 0
 266 0014 FFF7FEFF 		bl	select
 267              	.LVL28:
 268 0018 0028     		cmp	r0, #0
 269 001a 4FD0     		beq	.L28
 316:sdc/mmc.c     **** 		/* Send command packet */
 317:sdc/mmc.c     **** 		xmit_spi(0x40 | CMD55);			/* Start + Command index */
 270              		.loc 1 317 0
 271 001c 7720     		movs	r0, #119
 272 001e FFF7FEFF 		bl	xchg_spi
 273              	.LVL29:
 318:sdc/mmc.c     **** 		xmit_spi((BYTE)0);				/* Argument[31..24] */
 274              		.loc 1 318 0
 275 0022 0020     		movs	r0, #0
 276 0024 FFF7FEFF 		bl	xchg_spi
 277              	.LVL30:
 319:sdc/mmc.c     **** 		xmit_spi((BYTE)0);				/* Argument[23..16] */
 278              		.loc 1 319 0
 279 0028 0020     		movs	r0, #0
 280 002a FFF7FEFF 		bl	xchg_spi
 281              	.LVL31:
 320:sdc/mmc.c     **** 		xmit_spi((BYTE)0);				/* Argument[15..8] */
 282              		.loc 1 320 0
 283 002e 0020     		movs	r0, #0
 284 0030 FFF7FEFF 		bl	xchg_spi
 285              	.LVL32:
 321:sdc/mmc.c     **** 		xmit_spi((BYTE)0);				/* Argument[7..0] */
 286              		.loc 1 321 0
 287 0034 0020     		movs	r0, #0
 288 0036 FFF7FEFF 		bl	xchg_spi
 289              	.LVL33:
 322:sdc/mmc.c     **** 		xmit_spi(0x01);					/* Dummy CRC + Stop */
ARM GAS  C:\Users\crono\AppData\Local\Temp\ccLF8pjd.s 			page 12


 290              		.loc 1 322 0
 291 003a 0120     		movs	r0, #1
 292 003c FFF7FEFF 		bl	xchg_spi
 293              	.LVL34:
 323:sdc/mmc.c     **** 	
 324:sdc/mmc.c     **** 		/* Receive command response */
 325:sdc/mmc.c     **** 		n = 10;							/* Wait for a valid response in timeout of 10 attempts */
 294              		.loc 1 325 0
 295 0040 0A25     		movs	r5, #10
 296              	.LVL35:
 297              	.L23:
 326:sdc/mmc.c     **** 		do
 327:sdc/mmc.c     **** 			res = rcvr_spi();
 298              		.loc 1 327 0 discriminator 2
 299 0042 FF20     		movs	r0, #255
 300 0044 FFF7FEFF 		bl	xchg_spi
 301              	.LVL36:
 328:sdc/mmc.c     **** 		while ((res & 0x80) && --n);
 302              		.loc 1 328 0 discriminator 2
 303 0048 10F0800F 		tst	r0, #128
 304 004c 03D0     		beq	.L22
 305              		.loc 1 328 0 is_stmt 0 discriminator 1
 306 004e 6B1E     		subs	r3, r5, #1
 307              	.LVL37:
 308 0050 13F0FF05 		ands	r5, r3, #255
 309 0054 F5D1     		bne	.L23
 310              	.LVL38:
 311              	.L22:
 329:sdc/mmc.c     **** 	
 330:sdc/mmc.c     **** //		return res;			/* Return with the response value */
 331:sdc/mmc.c     **** 		if (res > 1) return res;
 312              		.loc 1 331 0 is_stmt 1
 313 0056 0128     		cmp	r0, #1
 314 0058 33D8     		bhi	.L21
 315              	.LVL39:
 316              	.L20:
 332:sdc/mmc.c     **** 	}
 333:sdc/mmc.c     **** 
 334:sdc/mmc.c     **** 	/* Select the card and wait for ready */
 335:sdc/mmc.c     **** 	deselect();
 317              		.loc 1 335 0
 318 005a FFF7FEFF 		bl	deselect
 319              	.LVL40:
 336:sdc/mmc.c     **** 	if(!select())
 320              		.loc 1 336 0
 321 005e FFF7FEFF 		bl	select
 322              	.LVL41:
 323 0062 68B3     		cbz	r0, .L30
 337:sdc/mmc.c     **** 	{
 338:sdc/mmc.c     **** 		return 0xFF;
 339:sdc/mmc.c     **** 	}
 340:sdc/mmc.c     **** 	/* Send command packet */
 341:sdc/mmc.c     **** 	xmit_spi(0x40 | cmd);			/* Start + Command index */
 324              		.loc 1 341 0
 325 0064 44F04000 		orr	r0, r4, #64
 326 0068 FFF7FEFF 		bl	xchg_spi
 327              	.LVL42:
ARM GAS  C:\Users\crono\AppData\Local\Temp\ccLF8pjd.s 			page 13


 342:sdc/mmc.c     **** 	xmit_spi((BYTE)(arg >> 24));	/* Argument[31..24] */
 328              		.loc 1 342 0
 329 006c 300E     		lsrs	r0, r6, #24
 330 006e FFF7FEFF 		bl	xchg_spi
 331              	.LVL43:
 343:sdc/mmc.c     **** 	xmit_spi((BYTE)(arg >> 16));	/* Argument[23..16] */
 332              		.loc 1 343 0
 333 0072 C6F30740 		ubfx	r0, r6, #16, #8
 334 0076 FFF7FEFF 		bl	xchg_spi
 335              	.LVL44:
 344:sdc/mmc.c     **** 	xmit_spi((BYTE)(arg >> 8));		/* Argument[15..8] */
 336              		.loc 1 344 0
 337 007a C6F30720 		ubfx	r0, r6, #8, #8
 338 007e FFF7FEFF 		bl	xchg_spi
 339              	.LVL45:
 345:sdc/mmc.c     **** 	xmit_spi((BYTE)arg);			/* Argument[7..0] */
 340              		.loc 1 345 0
 341 0082 F0B2     		uxtb	r0, r6
 342 0084 FFF7FEFF 		bl	xchg_spi
 343              	.LVL46:
 346:sdc/mmc.c     **** 	n = 0x01;						/* Dummy CRC + Stop */
 347:sdc/mmc.c     **** 	if (cmd == CMD0) n = 0x95;		/* Valid CRC for CMD0(0) */
 344              		.loc 1 347 0
 345 0088 0CB1     		cbz	r4, .L31
 346:sdc/mmc.c     **** 	n = 0x01;						/* Dummy CRC + Stop */
 346              		.loc 1 346 0
 347 008a 0120     		movs	r0, #1
 348 008c 00E0     		b	.L24
 349              	.L31:
 350              		.loc 1 347 0
 351 008e 9520     		movs	r0, #149
 352              	.L24:
 353              	.LVL47:
 348:sdc/mmc.c     **** 	if (cmd == CMD8) n = 0x87;		/* Valid CRC for CMD8(0x1AA) */
 354              		.loc 1 348 0
 355 0090 082C     		cmp	r4, #8
 356 0092 00D1     		bne	.L25
 357 0094 8720     		movs	r0, #135
 358              	.LVL48:
 359              	.L25:
 349:sdc/mmc.c     **** 	xmit_spi(n);
 360              		.loc 1 349 0
 361 0096 FFF7FEFF 		bl	xchg_spi
 362              	.LVL49:
 350:sdc/mmc.c     **** 	/* Receive command response */
 351:sdc/mmc.c     **** 	if (cmd == CMD12) rcvr_spi();	/* Skip a stuff byte when stop reading */
 363              		.loc 1 351 0
 364 009a 0C2C     		cmp	r4, #12
 365 009c 02D1     		bne	.L26
 366              		.loc 1 351 0 is_stmt 0 discriminator 1
 367 009e FF20     		movs	r0, #255
 368 00a0 FFF7FEFF 		bl	xchg_spi
 369              	.LVL50:
 370              	.L26:
 348:sdc/mmc.c     **** 	xmit_spi(n);
 371              		.loc 1 348 0 is_stmt 1 discriminator 2
 372 00a4 1424     		movs	r4, #20
ARM GAS  C:\Users\crono\AppData\Local\Temp\ccLF8pjd.s 			page 14


 373              	.LVL51:
 374              	.L27:
 352:sdc/mmc.c     **** 	n = 20;							/* Wait for a valid response in timeout of 10 attempts */
 353:sdc/mmc.c     **** 	do
 354:sdc/mmc.c     **** 		res = rcvr_spi();
 375              		.loc 1 354 0 discriminator 2
 376 00a6 FF20     		movs	r0, #255
 377 00a8 FFF7FEFF 		bl	xchg_spi
 378              	.LVL52:
 355:sdc/mmc.c     **** 	while ((res & 0x80) && --n);
 379              		.loc 1 355 0 discriminator 2
 380 00ac 10F0800F 		tst	r0, #128
 381 00b0 07D0     		beq	.L21
 382              		.loc 1 355 0 is_stmt 0 discriminator 1
 383 00b2 631E     		subs	r3, r4, #1
 384              	.LVL53:
 385 00b4 13F0FF04 		ands	r4, r3, #255
 386 00b8 F5D1     		bne	.L27
 387 00ba 70BD     		pop	{r4, r5, r6, pc}
 388              	.LVL54:
 389              	.L28:
 315:sdc/mmc.c     **** 		/* Send command packet */
 390              		.loc 1 315 0 is_stmt 1
 391 00bc FF20     		movs	r0, #255
 392 00be 70BD     		pop	{r4, r5, r6, pc}
 393              	.LVL55:
 394              	.L30:
 338:sdc/mmc.c     **** 	}
 395              		.loc 1 338 0
 396 00c0 FF20     		movs	r0, #255
 397              	.LVL56:
 398              	.L21:
 356:sdc/mmc.c     **** 
 357:sdc/mmc.c     **** 	return res;			/* Return with the response value */
 358:sdc/mmc.c     **** }
 399              		.loc 1 358 0
 400 00c2 70BD     		pop	{r4, r5, r6, pc}
 401              		.cfi_endproc
 402              	.LFE74:
 403              		.size	send_cmd, .-send_cmd
 404              		.section	.text.power_off,"ax",%progbits
 405              		.align	2
 406              		.thumb
 407              		.thumb_func
 408              		.type	power_off, %function
 409              	power_off:
 410              	.LFB71:
 214:sdc/mmc.c     **** 	select();			/* Wait for card ready */
 411              		.loc 1 214 0
 412              		.cfi_startproc
 413              		@ args = 0, pretend = 0, frame = 0
 414              		@ frame_needed = 0, uses_anonymous_args = 0
 415 0000 08B5     		push	{r3, lr}
 416              		.cfi_def_cfa_offset 8
 417              		.cfi_offset 3, -8
 418              		.cfi_offset 14, -4
 215:sdc/mmc.c     **** 	deselect();
ARM GAS  C:\Users\crono\AppData\Local\Temp\ccLF8pjd.s 			page 15


 419              		.loc 1 215 0
 420 0002 FFF7FEFF 		bl	select
 421              	.LVL57:
 216:sdc/mmc.c     **** 
 422              		.loc 1 216 0
 423 0006 FFF7FEFF 		bl	deselect
 424              	.LVL58:
 220:sdc/mmc.c     **** }
 425              		.loc 1 220 0
 426 000a 034A     		ldr	r2, .L37
 427 000c 1378     		ldrb	r3, [r2]	@ zero_extendqisi2
 428 000e 43F00103 		orr	r3, r3, #1
 429 0012 1370     		strb	r3, [r2]
 430 0014 08BD     		pop	{r3, pc}
 431              	.L38:
 432 0016 00BF     		.align	2
 433              	.L37:
 434 0018 00000000 		.word	.LANCHOR0
 435              		.cfi_endproc
 436              	.LFE71:
 437              		.size	power_off, .-power_off
 438              		.section	.text.xmit_datablock,"ax",%progbits
 439              		.align	2
 440              		.thumb
 441              		.thumb_func
 442              		.type	xmit_datablock, %function
 443              	xmit_datablock:
 444              	.LFB73:
 270:sdc/mmc.c     **** 	BYTE resp;
 445              		.loc 1 270 0
 446              		.cfi_startproc
 447              		@ args = 0, pretend = 0, frame = 0
 448              		@ frame_needed = 0, uses_anonymous_args = 0
 449              	.LVL59:
 450 0000 70B5     		push	{r4, r5, r6, lr}
 451              		.cfi_def_cfa_offset 16
 452              		.cfi_offset 4, -16
 453              		.cfi_offset 5, -12
 454              		.cfi_offset 6, -8
 455              		.cfi_offset 14, -4
 456 0002 0546     		mov	r5, r0
 457 0004 0C46     		mov	r4, r1
 458              	.LVL60:
 275:sdc/mmc.c     **** 
 459              		.loc 1 275 0
 460 0006 FFF7FEFF 		bl	wait_ready
 461              	.LVL61:
 462 000a FF28     		cmp	r0, #255
 463 000c 20D1     		bne	.L42
 277:sdc/mmc.c     **** 	if (token != 0xFD) {	/* Not StopTran token */
 464              		.loc 1 277 0
 465 000e 2046     		mov	r0, r4
 466 0010 FFF7FEFF 		bl	xchg_spi
 467              	.LVL62:
 278:sdc/mmc.c     **** 		do {						/* Xmit the 512 byte data block to the MMC */
 468              		.loc 1 278 0
 469 0014 FD2C     		cmp	r4, #253
ARM GAS  C:\Users\crono\AppData\Local\Temp\ccLF8pjd.s 			page 16


 470 0016 1DD0     		beq	.L43
 471 0018 4FF40076 		mov	r6, #512
 472              	.LVL63:
 473              	.L41:
 280:sdc/mmc.c     **** 			xmit_spi(*buff++);
 474              		.loc 1 280 0 discriminator 1
 475 001c 2C46     		mov	r4, r5
 476 001e 14F8020B 		ldrb	r0, [r4], #2	@ zero_extendqisi2
 477 0022 FFF7FEFF 		bl	xchg_spi
 478              	.LVL64:
 281:sdc/mmc.c     **** 		} while (bc -= 2);
 479              		.loc 1 281 0 discriminator 1
 480 0026 6878     		ldrb	r0, [r5, #1]	@ zero_extendqisi2
 481 0028 FFF7FEFF 		bl	xchg_spi
 482              	.LVL65:
 483 002c 2546     		mov	r5, r4
 282:sdc/mmc.c     **** 		xmit_spi(0xFF);				/* CRC (Dummy) */
 484              		.loc 1 282 0 discriminator 1
 485 002e 023E     		subs	r6, r6, #2
 486              	.LVL66:
 487 0030 F4D1     		bne	.L41
 283:sdc/mmc.c     **** 		xmit_spi(0xFF);
 488              		.loc 1 283 0
 489 0032 FF20     		movs	r0, #255
 490 0034 FFF7FEFF 		bl	xchg_spi
 491              	.LVL67:
 284:sdc/mmc.c     **** 		resp = rcvr_spi();			/* Receive a data response */
 492              		.loc 1 284 0
 493 0038 FF20     		movs	r0, #255
 494 003a FFF7FEFF 		bl	xchg_spi
 495              	.LVL68:
 285:sdc/mmc.c     **** 		if ((resp & 0x1F) != 0x05)	/* If not accepted, return with error */
 496              		.loc 1 285 0
 497 003e FF20     		movs	r0, #255
 498 0040 FFF7FEFF 		bl	xchg_spi
 499              	.LVL69:
 286:sdc/mmc.c     **** 			return 0;
 500              		.loc 1 286 0
 501 0044 00F01F00 		and	r0, r0, #31
 502              	.LVL70:
 503 0048 0528     		cmp	r0, #5
 504 004a 05D0     		beq	.L44
 287:sdc/mmc.c     **** 	}
 505              		.loc 1 287 0
 506 004c 0020     		movs	r0, #0
 507 004e 70BD     		pop	{r4, r5, r6, pc}
 508              	.LVL71:
 509              	.L42:
 275:sdc/mmc.c     **** 
 510              		.loc 1 275 0
 511 0050 0020     		movs	r0, #0
 512 0052 70BD     		pop	{r4, r5, r6, pc}
 513              	.LVL72:
 514              	.L43:
 290:sdc/mmc.c     **** }
 515              		.loc 1 290 0
 516 0054 0120     		movs	r0, #1
ARM GAS  C:\Users\crono\AppData\Local\Temp\ccLF8pjd.s 			page 17


 517 0056 70BD     		pop	{r4, r5, r6, pc}
 518              	.LVL73:
 519              	.L44:
 520 0058 0120     		movs	r0, #1
 291:sdc/mmc.c     **** #endif	/* _READONLY */
 521              		.loc 1 291 0
 522 005a 70BD     		pop	{r4, r5, r6, pc}
 523              		.cfi_endproc
 524              	.LFE73:
 525              		.size	xmit_datablock, .-xmit_datablock
 526              		.section	.text.Timer1_Set,"ax",%progbits
 527              		.align	2
 528              		.global	Timer1_Set
 529              		.thumb
 530              		.thumb_func
 531              		.type	Timer1_Set, %function
 532              	Timer1_Set:
 533              	.LFB66:
 131:sdc/mmc.c     **** 		Timer1_Reset_Write(1);
 534              		.loc 1 131 0
 535              		.cfi_startproc
 536              		@ args = 0, pretend = 0, frame = 0
 537              		@ frame_needed = 0, uses_anonymous_args = 0
 538              	.LVL74:
 539 0000 10B5     		push	{r4, lr}
 540              		.cfi_def_cfa_offset 8
 541              		.cfi_offset 4, -8
 542              		.cfi_offset 14, -4
 543 0002 0446     		mov	r4, r0
 132:sdc/mmc.c     **** 		Timer1_Reset_Write(0);
 544              		.loc 1 132 0
 545 0004 0120     		movs	r0, #1
 546              	.LVL75:
 547 0006 FFF7FEFF 		bl	Timer1_Reset_Write
 548              	.LVL76:
 133:sdc/mmc.c     **** 		Timer1_WriteCounter(wait);
 549              		.loc 1 133 0
 550 000a 0020     		movs	r0, #0
 551 000c FFF7FEFF 		bl	Timer1_Reset_Write
 552              	.LVL77:
 134:sdc/mmc.c     **** 		return;
 553              		.loc 1 134 0
 554 0010 A0B2     		uxth	r0, r4
 555 0012 FFF7FEFF 		bl	Timer1_WriteCounter
 556              	.LVL78:
 557 0016 10BD     		pop	{r4, pc}
 558              		.cfi_endproc
 559              	.LFE66:
 560              		.size	Timer1_Set, .-Timer1_Set
 561              		.section	.text.rcvr_datablock,"ax",%progbits
 562              		.align	2
 563              		.thumb
 564              		.thumb_func
 565              		.type	rcvr_datablock, %function
 566              	rcvr_datablock:
 567              	.LFB72:
 234:sdc/mmc.c     **** 	BYTE token;
ARM GAS  C:\Users\crono\AppData\Local\Temp\ccLF8pjd.s 			page 18


 568              		.loc 1 234 0
 569              		.cfi_startproc
 570              		@ args = 0, pretend = 0, frame = 0
 571              		@ frame_needed = 0, uses_anonymous_args = 0
 572              	.LVL79:
 573 0000 F8B5     		push	{r3, r4, r5, r6, r7, lr}
 574              		.cfi_def_cfa_offset 24
 575              		.cfi_offset 3, -24
 576              		.cfi_offset 4, -20
 577              		.cfi_offset 5, -16
 578              		.cfi_offset 6, -12
 579              		.cfi_offset 7, -8
 580              		.cfi_offset 14, -4
 581 0002 0446     		mov	r4, r0
 582 0004 0E46     		mov	r6, r1
 238:sdc/mmc.c     **** 	do {							/* Wait for data packet in timeout of 100ms */
 583              		.loc 1 238 0
 584 0006 41F28830 		movw	r0, #5000
 585              	.LVL80:
 586 000a FFF7FEFF 		bl	Timer1_Set
 587              	.LVL81:
 588              	.L50:
 240:sdc/mmc.c     **** 	} while ((token == 0xFF) && Timer1_ReadCounter()/* Timer1 */);
 589              		.loc 1 240 0 discriminator 2
 590 000e FF20     		movs	r0, #255
 591 0010 FFF7FEFF 		bl	xchg_spi
 592              	.LVL82:
 593 0014 0546     		mov	r5, r0
 594              	.LVL83:
 241:sdc/mmc.c     **** 
 595              		.loc 1 241 0 discriminator 2
 596 0016 FF28     		cmp	r0, #255
 597 0018 03D1     		bne	.L49
 241:sdc/mmc.c     **** 
 598              		.loc 1 241 0 is_stmt 0 discriminator 1
 599 001a FFF7FEFF 		bl	Timer1_ReadCounter
 600              	.LVL84:
 601 001e 0028     		cmp	r0, #0
 602 0020 F5D1     		bne	.L50
 603              	.L49:
 243:sdc/mmc.c     **** 
 604              		.loc 1 243 0 is_stmt 1
 605 0022 FE2D     		cmp	r5, #254
 606 0024 19D1     		bne	.L53
 607              	.LVL85:
 608              	.L52:
 246:sdc/mmc.c     **** 		rcvr_spi_m(buff++);
 609              		.loc 1 246 0 discriminator 1
 610 0026 651C     		adds	r5, r4, #1
 611              	.LVL86:
 612 0028 2046     		mov	r0, r4
 613 002a FFF7FEFF 		bl	rcvr_spi_m
 614              	.LVL87:
 247:sdc/mmc.c     **** 		rcvr_spi_m(buff++);
 615              		.loc 1 247 0 discriminator 1
 616 002e A71C     		adds	r7, r4, #2
 617              	.LVL88:
ARM GAS  C:\Users\crono\AppData\Local\Temp\ccLF8pjd.s 			page 19


 618 0030 2846     		mov	r0, r5
 619 0032 FFF7FEFF 		bl	rcvr_spi_m
 620              	.LVL89:
 248:sdc/mmc.c     **** 		rcvr_spi_m(buff++);
 621              		.loc 1 248 0 discriminator 1
 622 0036 E51C     		adds	r5, r4, #3
 623              	.LVL90:
 624 0038 3846     		mov	r0, r7
 625 003a FFF7FEFF 		bl	rcvr_spi_m
 626              	.LVL91:
 249:sdc/mmc.c     **** //		if(btr > 497) xprintf("%02X", (unsigned int)*buff);
 627              		.loc 1 249 0 discriminator 1
 628 003e 2846     		mov	r0, r5
 629 0040 0434     		adds	r4, r4, #4
 630              	.LVL92:
 631 0042 FFF7FEFF 		bl	rcvr_spi_m
 632              	.LVL93:
 251:sdc/mmc.c     **** 	rcvr_spi();						/* Discard CRC */
 633              		.loc 1 251 0 discriminator 1
 634 0046 043E     		subs	r6, r6, #4
 635              	.LVL94:
 636 0048 EDD1     		bne	.L52
 252:sdc/mmc.c     **** 	rcvr_spi();
 637              		.loc 1 252 0
 638 004a FF20     		movs	r0, #255
 639 004c FFF7FEFF 		bl	xchg_spi
 640              	.LVL95:
 253:sdc/mmc.c     **** 
 641              		.loc 1 253 0
 642 0050 FF20     		movs	r0, #255
 643 0052 FFF7FEFF 		bl	xchg_spi
 644              	.LVL96:
 255:sdc/mmc.c     **** }
 645              		.loc 1 255 0
 646 0056 0120     		movs	r0, #1
 647 0058 F8BD     		pop	{r3, r4, r5, r6, r7, pc}
 648              	.LVL97:
 649              	.L53:
 243:sdc/mmc.c     **** 
 650              		.loc 1 243 0
 651 005a 0020     		movs	r0, #0
 256:sdc/mmc.c     **** 
 652              		.loc 1 256 0
 653 005c F8BD     		pop	{r3, r4, r5, r6, r7, pc}
 654              		.cfi_endproc
 655              	.LFE72:
 656              		.size	rcvr_datablock, .-rcvr_datablock
 657 005e 00BF     		.section	.text.disk_initialize,"ax",%progbits
 658              		.align	2
 659              		.global	disk_initialize
 660              		.thumb
 661              		.thumb_func
 662              		.type	disk_initialize, %function
 663              	disk_initialize:
 664              	.LFB75:
 359:sdc/mmc.c     **** 
 360:sdc/mmc.c     **** 
ARM GAS  C:\Users\crono\AppData\Local\Temp\ccLF8pjd.s 			page 20


 361:sdc/mmc.c     **** 
 362:sdc/mmc.c     **** /*--------------------------------------------------------------------------
 363:sdc/mmc.c     **** 
 364:sdc/mmc.c     ****    Public Functions
 365:sdc/mmc.c     **** 
 366:sdc/mmc.c     **** ---------------------------------------------------------------------------*/
 367:sdc/mmc.c     **** 
 368:sdc/mmc.c     **** 
 369:sdc/mmc.c     **** /*-----------------------------------------------------------------------*/
 370:sdc/mmc.c     **** /* Initialize Disk Drive                                                 */
 371:sdc/mmc.c     **** /*-----------------------------------------------------------------------*/
 372:sdc/mmc.c     **** 
 373:sdc/mmc.c     **** DSTATUS disk_initialize (
 374:sdc/mmc.c     **** 	BYTE drv		/* Physical drive nmuber (0) */
 375:sdc/mmc.c     **** )
 376:sdc/mmc.c     **** {
 665              		.loc 1 376 0
 666              		.cfi_startproc
 667              		@ args = 0, pretend = 0, frame = 8
 668              		@ frame_needed = 0, uses_anonymous_args = 0
 669              	.LVL98:
 377:sdc/mmc.c     **** 	BYTE n, cmd, ty, ocr[4], res;
 378:sdc/mmc.c     **** 
 379:sdc/mmc.c     **** #ifdef	_DEBUG
 380:sdc/mmc.c     **** 	xprintf("INIT\r\n");
 381:sdc/mmc.c     **** #endif
 382:sdc/mmc.c     **** 	if (drv) return STA_NOINIT;			/* Supports only single drive */
 670              		.loc 1 382 0
 671 0000 0028     		cmp	r0, #0
 672 0002 40F0AE80 		bne	.L73
 383:sdc/mmc.c     **** 	if (Stat & STA_NODISK) return Stat;	/* No card in the socket */
 673              		.loc 1 383 0
 674 0006 594B     		ldr	r3, .L87
 675 0008 1B78     		ldrb	r3, [r3]	@ zero_extendqisi2
 676 000a 13F0020F 		tst	r3, #2
 677 000e 03D0     		beq	.L57
 678              		.loc 1 383 0 is_stmt 0 discriminator 1
 679 0010 564B     		ldr	r3, .L87
 680 0012 1878     		ldrb	r0, [r3]	@ zero_extendqisi2
 681              	.LVL99:
 682 0014 C0B2     		uxtb	r0, r0
 683 0016 7047     		bx	lr
 684              	.LVL100:
 685              	.L57:
 376:sdc/mmc.c     **** 	BYTE n, cmd, ty, ocr[4], res;
 686              		.loc 1 376 0 is_stmt 1
 687 0018 70B5     		push	{r4, r5, r6, lr}
 688              		.cfi_def_cfa_offset 16
 689              		.cfi_offset 4, -16
 690              		.cfi_offset 5, -12
 691              		.cfi_offset 6, -8
 692              		.cfi_offset 14, -4
 693 001a 82B0     		sub	sp, sp, #8
 694              		.cfi_def_cfa_offset 24
 384:sdc/mmc.c     **** 
 385:sdc/mmc.c     **** 
 386:sdc/mmc.c     **** 	power_on();							/* Force socket power on */
ARM GAS  C:\Users\crono\AppData\Local\Temp\ccLF8pjd.s 			page 21


 387:sdc/mmc.c     **** 	FCLK_SLOW();
 695              		.loc 1 387 0
 696 001c 0121     		movs	r1, #1
 697 001e 1720     		movs	r0, #23
 698              	.LVL101:
 699 0020 FFF7FEFF 		bl	Clock_3_SetDividerRegister
 700              	.LVL102:
 388:sdc/mmc.c     **** 	for(n = 0; n < 30; n++)
 701              		.loc 1 388 0
 702 0024 0024     		movs	r4, #0
 703 0026 04E0     		b	.L58
 704              	.LVL103:
 705              	.L59:
 389:sdc/mmc.c     **** 	{
 390:sdc/mmc.c     **** 		rcvr_spi();						/* 80 dummy clocks */
 706              		.loc 1 390 0 discriminator 3
 707 0028 FF20     		movs	r0, #255
 708 002a FFF7FEFF 		bl	xchg_spi
 709              	.LVL104:
 388:sdc/mmc.c     **** 	for(n = 0; n < 30; n++)
 710              		.loc 1 388 0 discriminator 3
 711 002e 0134     		adds	r4, r4, #1
 712              	.LVL105:
 713 0030 E4B2     		uxtb	r4, r4
 714              	.LVL106:
 715              	.L58:
 388:sdc/mmc.c     **** 	for(n = 0; n < 30; n++)
 716              		.loc 1 388 0 is_stmt 0 discriminator 1
 717 0032 1D2C     		cmp	r4, #29
 718 0034 F8D9     		bls	.L59
 719              	.LVL107:
 391:sdc/mmc.c     **** 	}
 392:sdc/mmc.c     **** //		xprintf("ST:%u\r\n", (unsigned int)m);
 393:sdc/mmc.c     **** 
 394:sdc/mmc.c     **** 	ty = 0;
 395:sdc/mmc.c     **** 	if((res = send_cmd(CMD0, 0)) == 1)
 720              		.loc 1 395 0 is_stmt 1
 721 0036 0021     		movs	r1, #0
 722 0038 0846     		mov	r0, r1
 723 003a FFF7FEFF 		bl	send_cmd
 724              	.LVL108:
 725 003e 0546     		mov	r5, r0
 726              	.LVL109:
 727 0040 0128     		cmp	r0, #1
 728 0042 67D1     		bne	.L74
 396:sdc/mmc.c     **** 	{									/* Enter Idle state */
 397:sdc/mmc.c     **** #ifdef	_DEBUG
 398:sdc/mmc.c     **** 		xprintf("CMD0 \r\n");
 399:sdc/mmc.c     **** #endif
 400:sdc/mmc.c     **** //		Timer1 = 1000;					/* Initialization timeout of 1000 msec */
 401:sdc/mmc.c     **** 		Timer1_Set(1000);
 729              		.loc 1 401 0
 730 0044 4FF47A70 		mov	r0, #1000
 731              	.LVL110:
 732 0048 FFF7FEFF 		bl	Timer1_Set
 733              	.LVL111:
 402:sdc/mmc.c     **** 		if(send_cmd(CMD8, 0x1AA) == 1)
ARM GAS  C:\Users\crono\AppData\Local\Temp\ccLF8pjd.s 			page 22


 734              		.loc 1 402 0
 735 004c 4FF4D571 		mov	r1, #426
 736 0050 0820     		movs	r0, #8
 737 0052 FFF7FEFF 		bl	send_cmd
 738              	.LVL112:
 739 0056 0128     		cmp	r0, #1
 740 0058 3ED1     		bne	.L84
 741 005a 09E0     		b	.L75
 742              	.L63:
 403:sdc/mmc.c     **** 		{								/* SDv2? */
 404:sdc/mmc.c     **** #ifdef	_DEBUG
 405:sdc/mmc.c     **** 			xprintf("CMD8 \r\n");
 406:sdc/mmc.c     **** #endif
 407:sdc/mmc.c     **** 			for(n = 0; n < 4; n++) ocr[n] = rcvr_spi();			/* Get trailing return value of R7 resp */
 743              		.loc 1 407 0 discriminator 3
 744 005c FF20     		movs	r0, #255
 745 005e FFF7FEFF 		bl	xchg_spi
 746              	.LVL113:
 747 0062 02AB     		add	r3, sp, #8
 748 0064 2344     		add	r3, r3, r4
 749 0066 03F8040C 		strb	r0, [r3, #-4]
 750 006a 0134     		adds	r4, r4, #1
 751              	.LVL114:
 752 006c E4B2     		uxtb	r4, r4
 753              	.LVL115:
 754 006e 00E0     		b	.L61
 755              	.L75:
 756 0070 0024     		movs	r4, #0
 757              	.LVL116:
 758              	.L61:
 759              		.loc 1 407 0 is_stmt 0 discriminator 1
 760 0072 032C     		cmp	r4, #3
 761 0074 F2D9     		bls	.L63
 408:sdc/mmc.c     **** 			if(ocr[2] == 0x01 && ocr[3] == 0xAA)
 762              		.loc 1 408 0 is_stmt 1
 763 0076 9DF80630 		ldrb	r3, [sp, #6]	@ zero_extendqisi2
 764 007a 012B     		cmp	r3, #1
 765 007c 4CD1     		bne	.L76
 766              		.loc 1 408 0 is_stmt 0 discriminator 1
 767 007e 9DF80730 		ldrb	r3, [sp, #7]	@ zero_extendqisi2
 768 0082 AA2B     		cmp	r3, #170
 769 0084 4AD1     		bne	.L77
 770              	.L65:
 409:sdc/mmc.c     **** 			{							/* The card can work at vdd range of 2.7-3.6V */
 410:sdc/mmc.c     **** #ifdef	_DEBUG
 411:sdc/mmc.c     **** 				xprintf("Vdd OK \r\n");
 412:sdc/mmc.c     **** #endif
 413:sdc/mmc.c     **** 				while(Timer1_ReadCounter()/* Timer1 */ && send_cmd(ACMD41, 0x40000000));	/* Wait for leaving id
 771              		.loc 1 413 0 is_stmt 1 discriminator 2
 772 0086 FFF7FEFF 		bl	Timer1_ReadCounter
 773              	.LVL117:
 774 008a 30B1     		cbz	r0, .L64
 775              		.loc 1 413 0 is_stmt 0 discriminator 1
 776 008c 4FF08041 		mov	r1, #1073741824
 777 0090 A920     		movs	r0, #169
 778 0092 FFF7FEFF 		bl	send_cmd
 779              	.LVL118:
ARM GAS  C:\Users\crono\AppData\Local\Temp\ccLF8pjd.s 			page 23


 780 0096 0028     		cmp	r0, #0
 781 0098 F5D1     		bne	.L65
 782              	.L64:
 414:sdc/mmc.c     **** 				if(Timer1_ReadCounter()/* Timer1 */ && send_cmd(CMD58, 0) == 0) {			/* Check CCS bit in the OCR
 783              		.loc 1 414 0 is_stmt 1
 784 009a FFF7FEFF 		bl	Timer1_ReadCounter
 785              	.LVL119:
 786 009e 0028     		cmp	r0, #0
 787 00a0 3ED0     		beq	.L78
 788              		.loc 1 414 0 is_stmt 0 discriminator 1
 789 00a2 0021     		movs	r1, #0
 790 00a4 3A20     		movs	r0, #58
 791 00a6 FFF7FEFF 		bl	send_cmd
 792              	.LVL120:
 793 00aa 58B1     		cbz	r0, .L79
 394:sdc/mmc.c     **** 	if((res = send_cmd(CMD0, 0)) == 1)
 794              		.loc 1 394 0 is_stmt 1
 795 00ac 0024     		movs	r4, #0
 796              	.LVL121:
 797 00ae 3EE0     		b	.L60
 798              	.LVL122:
 799              	.L67:
 415:sdc/mmc.c     **** 					for(n = 0; n < 4; n++) ocr[n] = rcvr_spi();
 800              		.loc 1 415 0 discriminator 3
 801 00b0 FF20     		movs	r0, #255
 802 00b2 FFF7FEFF 		bl	xchg_spi
 803              	.LVL123:
 804 00b6 02AB     		add	r3, sp, #8
 805 00b8 2344     		add	r3, r3, r4
 806 00ba 03F8040C 		strb	r0, [r3, #-4]
 807 00be 0134     		adds	r4, r4, #1
 808              	.LVL124:
 809 00c0 E4B2     		uxtb	r4, r4
 810              	.LVL125:
 811 00c2 00E0     		b	.L66
 812              	.L79:
 813 00c4 0024     		movs	r4, #0
 814              	.LVL126:
 815              	.L66:
 816              		.loc 1 415 0 is_stmt 0 discriminator 1
 817 00c6 032C     		cmp	r4, #3
 818 00c8 F2D9     		bls	.L67
 416:sdc/mmc.c     **** 					ty = (ocr[0] & 0x40) ? CT_SD2|CT_BLOCK : CT_SD2;	/* SDv2 */
 819              		.loc 1 416 0 is_stmt 1
 820 00ca 9DF80430 		ldrb	r3, [sp, #4]	@ zero_extendqisi2
 821 00ce 13F0400F 		tst	r3, #64
 822 00d2 27D0     		beq	.L80
 823 00d4 0C24     		movs	r4, #12
 824              	.LVL127:
 825 00d6 2AE0     		b	.L60
 826              	.LVL128:
 827              	.L84:
 417:sdc/mmc.c     **** 				}
 418:sdc/mmc.c     **** 			}
 419:sdc/mmc.c     **** 		}
 420:sdc/mmc.c     **** 		else
 421:sdc/mmc.c     **** 		{								/* SDv1 or MMCv3 */
ARM GAS  C:\Users\crono\AppData\Local\Temp\ccLF8pjd.s 			page 24


 422:sdc/mmc.c     **** #ifdef	_DEBUG
 423:sdc/mmc.c     **** 			xprintf("!CMD8 ");
 424:sdc/mmc.c     **** #endif
 425:sdc/mmc.c     **** 			if(send_cmd(ACMD41, 0) <= 1)
 828              		.loc 1 425 0
 829 00d8 0021     		movs	r1, #0
 830 00da A920     		movs	r0, #169
 831 00dc FFF7FEFF 		bl	send_cmd
 832              	.LVL129:
 833 00e0 0128     		cmp	r0, #1
 834 00e2 02D8     		bhi	.L81
 426:sdc/mmc.c     **** 			{
 427:sdc/mmc.c     **** 				ty = CT_SD1; cmd = ACMD41;	/* SDv1 */
 835              		.loc 1 427 0
 836 00e4 0224     		movs	r4, #2
 837              	.LVL130:
 838 00e6 A926     		movs	r6, #169
 839 00e8 01E0     		b	.L70
 840              	.LVL131:
 841              	.L81:
 428:sdc/mmc.c     **** 			}
 429:sdc/mmc.c     **** 			else
 430:sdc/mmc.c     **** 			{
 431:sdc/mmc.c     **** 				ty = CT_MMC; cmd = CMD1;	/* MMCv3 */
 842              		.loc 1 431 0
 843 00ea 0124     		movs	r4, #1
 844              	.LVL132:
 845 00ec 2646     		mov	r6, r4
 846              	.LVL133:
 847              	.L70:
 432:sdc/mmc.c     **** 			}
 433:sdc/mmc.c     **** 			while(Timer1_ReadCounter()/* Timer1 */ && send_cmd(cmd, 0));		/* Wait for leaving idle state */
 848              		.loc 1 433 0 discriminator 2
 849 00ee FFF7FEFF 		bl	Timer1_ReadCounter
 850              	.LVL134:
 851 00f2 28B1     		cbz	r0, .L69
 852              		.loc 1 433 0 is_stmt 0 discriminator 1
 853 00f4 0021     		movs	r1, #0
 854 00f6 3046     		mov	r0, r6
 855 00f8 FFF7FEFF 		bl	send_cmd
 856              	.LVL135:
 857 00fc 0028     		cmp	r0, #0
 858 00fe F6D1     		bne	.L70
 859              	.L69:
 434:sdc/mmc.c     **** 			if(!Timer1_ReadCounter()/* Timer1 */ || send_cmd(CMD16, 512) != 0)	/* Set read/write block lengt
 860              		.loc 1 434 0 is_stmt 1
 861 0100 FFF7FEFF 		bl	Timer1_ReadCounter
 862              	.LVL136:
 863 0104 80B1     		cbz	r0, .L82
 864              		.loc 1 434 0 is_stmt 0 discriminator 1
 865 0106 4FF40071 		mov	r1, #512
 866 010a 1020     		movs	r0, #16
 867 010c FFF7FEFF 		bl	send_cmd
 868              	.LVL137:
 869 0110 60B9     		cbnz	r0, .L83
 870 0112 0CE0     		b	.L60
 871              	.LVL138:
ARM GAS  C:\Users\crono\AppData\Local\Temp\ccLF8pjd.s 			page 25


 872              	.L74:
 394:sdc/mmc.c     **** 	if((res = send_cmd(CMD0, 0)) == 1)
 873              		.loc 1 394 0 is_stmt 1
 874 0114 0024     		movs	r4, #0
 875              	.LVL139:
 876 0116 0AE0     		b	.L60
 877              	.LVL140:
 878              	.L76:
 879 0118 0024     		movs	r4, #0
 880              	.LVL141:
 881 011a 08E0     		b	.L60
 882              	.LVL142:
 883              	.L77:
 884 011c 0024     		movs	r4, #0
 885              	.LVL143:
 886 011e 06E0     		b	.L60
 887              	.LVL144:
 888              	.L78:
 889 0120 0024     		movs	r4, #0
 890              	.LVL145:
 891 0122 04E0     		b	.L60
 892              	.LVL146:
 893              	.L80:
 416:sdc/mmc.c     **** 				}
 894              		.loc 1 416 0
 895 0124 0424     		movs	r4, #4
 896              	.LVL147:
 897 0126 02E0     		b	.L60
 898              	.LVL148:
 899              	.L82:
 435:sdc/mmc.c     **** 				ty = 0;
 900              		.loc 1 435 0
 901 0128 0024     		movs	r4, #0
 902              	.LVL149:
 903 012a 00E0     		b	.L60
 904              	.LVL150:
 905              	.L83:
 906 012c 0024     		movs	r4, #0
 907              	.LVL151:
 908              	.L60:
 436:sdc/mmc.c     **** 		}
 437:sdc/mmc.c     **** 	}
 438:sdc/mmc.c     **** 	CardType = ty;
 909              		.loc 1 438 0
 910 012e 104B     		ldr	r3, .L87+4
 911 0130 1C60     		str	r4, [r3]
 439:sdc/mmc.c     **** 	deselect();
 912              		.loc 1 439 0
 913 0132 FFF7FEFF 		bl	deselect
 914              	.LVL152:
 440:sdc/mmc.c     **** 	
 441:sdc/mmc.c     **** //	xprintf("%u\r\n", 0, res);
 442:sdc/mmc.c     **** 	
 443:sdc/mmc.c     **** 	if(ty)
 915              		.loc 1 443 0
 916 0136 4CB1     		cbz	r4, .L71
 444:sdc/mmc.c     **** 	{							/* Initialization succeded */
ARM GAS  C:\Users\crono\AppData\Local\Temp\ccLF8pjd.s 			page 26


 445:sdc/mmc.c     **** #ifdef	_DEBUG
 446:sdc/mmc.c     **** 		xprintf("NOINIT, %u\r\n", 0, res);
 447:sdc/mmc.c     **** #endif
 448:sdc/mmc.c     **** 		Stat &= ~STA_NOINIT;	/* Clear STA_NOINIT */
 917              		.loc 1 448 0
 918 0138 0C4A     		ldr	r2, .L87
 919 013a 1378     		ldrb	r3, [r2]	@ zero_extendqisi2
 920 013c 03F0FE03 		and	r3, r3, #254
 921 0140 1370     		strb	r3, [r2]
 449:sdc/mmc.c     **** 		FCLK_FAST();
 922              		.loc 1 449 0
 923 0142 0121     		movs	r1, #1
 924 0144 0846     		mov	r0, r1
 925 0146 FFF7FEFF 		bl	Clock_3_SetDividerRegister
 926              	.LVL153:
 927 014a 06E0     		b	.L72
 928              	.L71:
 450:sdc/mmc.c     **** 	}
 451:sdc/mmc.c     **** 	else
 452:sdc/mmc.c     **** 	{							/* Initialization failed */
 453:sdc/mmc.c     **** 		xprintf("FAILED!, %u\r\n", 0, res);
 929              		.loc 1 453 0
 930 014c 2A46     		mov	r2, r5
 931 014e 0021     		movs	r1, #0
 932 0150 0848     		ldr	r0, .L87+8
 933 0152 FFF7FEFF 		bl	xprintf
 934              	.LVL154:
 454:sdc/mmc.c     **** 		power_off();
 935              		.loc 1 454 0
 936 0156 FFF7FEFF 		bl	power_off
 937              	.LVL155:
 938              	.L72:
 455:sdc/mmc.c     **** 	}
 456:sdc/mmc.c     **** #ifdef	_DEBUG
 457:sdc/mmc.c     **** 	xprintf("RETRN\r\n");
 458:sdc/mmc.c     **** #endif
 459:sdc/mmc.c     **** 	return Stat;
 939              		.loc 1 459 0
 940 015a 044B     		ldr	r3, .L87
 941 015c 1878     		ldrb	r0, [r3]	@ zero_extendqisi2
 942 015e C0B2     		uxtb	r0, r0
 943 0160 01E0     		b	.L56
 944              	.LVL156:
 945              	.L73:
 946              		.cfi_def_cfa_offset 0
 947              		.cfi_restore 4
 948              		.cfi_restore 5
 949              		.cfi_restore 6
 950              		.cfi_restore 14
 382:sdc/mmc.c     **** 	if (Stat & STA_NODISK) return Stat;	/* No card in the socket */
 951              		.loc 1 382 0
 952 0162 0120     		movs	r0, #1
 953              	.LVL157:
 954 0164 7047     		bx	lr
 955              	.LVL158:
 956              	.L56:
 957              		.cfi_def_cfa_offset 24
ARM GAS  C:\Users\crono\AppData\Local\Temp\ccLF8pjd.s 			page 27


 958              		.cfi_offset 4, -16
 959              		.cfi_offset 5, -12
 960              		.cfi_offset 6, -8
 961              		.cfi_offset 14, -4
 460:sdc/mmc.c     **** }
 962              		.loc 1 460 0
 963 0166 02B0     		add	sp, sp, #8
 964              		.cfi_def_cfa_offset 16
 965              		@ sp needed
 966 0168 70BD     		pop	{r4, r5, r6, pc}
 967              	.LVL159:
 968              	.L88:
 969 016a 00BF     		.align	2
 970              	.L87:
 971 016c 00000000 		.word	.LANCHOR0
 972 0170 00000000 		.word	.LANCHOR1
 973 0174 00000000 		.word	.LC0
 974              		.cfi_endproc
 975              	.LFE75:
 976              		.size	disk_initialize, .-disk_initialize
 977              		.section	.text.disk_status,"ax",%progbits
 978              		.align	2
 979              		.global	disk_status
 980              		.thumb
 981              		.thumb_func
 982              		.type	disk_status, %function
 983              	disk_status:
 984              	.LFB76:
 461:sdc/mmc.c     **** 
 462:sdc/mmc.c     **** 
 463:sdc/mmc.c     **** 
 464:sdc/mmc.c     **** /*-----------------------------------------------------------------------*/
 465:sdc/mmc.c     **** /* Get Disk Status                                                       */
 466:sdc/mmc.c     **** /*-----------------------------------------------------------------------*/
 467:sdc/mmc.c     **** 
 468:sdc/mmc.c     **** DSTATUS disk_status (
 469:sdc/mmc.c     **** 	BYTE drv		/* Physical drive nmuber (0) */
 470:sdc/mmc.c     **** )
 471:sdc/mmc.c     **** {
 985              		.loc 1 471 0
 986              		.cfi_startproc
 987              		@ args = 0, pretend = 0, frame = 0
 988              		@ frame_needed = 0, uses_anonymous_args = 0
 989              		@ link register save eliminated.
 990              	.LVL160:
 472:sdc/mmc.c     **** 	if (drv) return STA_NOINIT;		/* Supports only single drive */
 991              		.loc 1 472 0
 992 0000 18B9     		cbnz	r0, .L91
 473:sdc/mmc.c     **** 	return Stat;
 993              		.loc 1 473 0
 994 0002 034B     		ldr	r3, .L92
 995 0004 1878     		ldrb	r0, [r3]	@ zero_extendqisi2
 996              	.LVL161:
 997 0006 C0B2     		uxtb	r0, r0
 998 0008 7047     		bx	lr
 999              	.LVL162:
 1000              	.L91:
ARM GAS  C:\Users\crono\AppData\Local\Temp\ccLF8pjd.s 			page 28


 472:sdc/mmc.c     **** 	if (drv) return STA_NOINIT;		/* Supports only single drive */
 1001              		.loc 1 472 0
 1002 000a 0120     		movs	r0, #1
 1003              	.LVL163:
 474:sdc/mmc.c     **** }
 1004              		.loc 1 474 0
 1005 000c 7047     		bx	lr
 1006              	.L93:
 1007 000e 00BF     		.align	2
 1008              	.L92:
 1009 0010 00000000 		.word	.LANCHOR0
 1010              		.cfi_endproc
 1011              	.LFE76:
 1012              		.size	disk_status, .-disk_status
 1013              		.section	.text.disk_read,"ax",%progbits
 1014              		.align	2
 1015              		.global	disk_read
 1016              		.thumb
 1017              		.thumb_func
 1018              		.type	disk_read, %function
 1019              	disk_read:
 1020              	.LFB77:
 475:sdc/mmc.c     **** 
 476:sdc/mmc.c     **** 
 477:sdc/mmc.c     **** 
 478:sdc/mmc.c     **** /*-----------------------------------------------------------------------*/
 479:sdc/mmc.c     **** /* Read Sector(s)                                                        */
 480:sdc/mmc.c     **** /*-----------------------------------------------------------------------*/
 481:sdc/mmc.c     **** 
 482:sdc/mmc.c     **** DRESULT disk_read (
 483:sdc/mmc.c     **** 	BYTE pdrv,			/* Physical drive nmuber (0) */
 484:sdc/mmc.c     **** 	BYTE *buff,			/* Pointer to the data buffer to store read data */
 485:sdc/mmc.c     **** 	DWORD sector,		/* Start sector number (LBA) */
 486:sdc/mmc.c     **** 	UINT count			/* Sector count (1..128) */
 487:sdc/mmc.c     **** )
 488:sdc/mmc.c     **** {
 1021              		.loc 1 488 0
 1022              		.cfi_startproc
 1023              		@ args = 0, pretend = 0, frame = 0
 1024              		@ frame_needed = 0, uses_anonymous_args = 0
 1025              	.LVL164:
 489:sdc/mmc.c     **** 	BYTE cmd;
 490:sdc/mmc.c     **** 
 491:sdc/mmc.c     **** 
 492:sdc/mmc.c     **** 	if (pdrv || !count) return RES_PARERR;
 1026              		.loc 1 492 0
 1027 0000 70BB     		cbnz	r0, .L101
 488:sdc/mmc.c     **** 	BYTE cmd;
 1028              		.loc 1 488 0 discriminator 2
 1029 0002 70B5     		push	{r4, r5, r6, lr}
 1030              		.cfi_def_cfa_offset 16
 1031              		.cfi_offset 4, -16
 1032              		.cfi_offset 5, -12
 1033              		.cfi_offset 6, -8
 1034              		.cfi_offset 14, -4
 1035 0004 0D46     		mov	r5, r1
 1036 0006 1C46     		mov	r4, r3
ARM GAS  C:\Users\crono\AppData\Local\Temp\ccLF8pjd.s 			page 29


 1037              		.loc 1 492 0 discriminator 2
 1038 0008 63B3     		cbz	r3, .L102
 493:sdc/mmc.c     **** 	if (Stat & STA_NOINIT) return RES_NOTRDY;
 1039              		.loc 1 493 0
 1040 000a 184B     		ldr	r3, .L106
 1041              	.LVL165:
 1042 000c 1B78     		ldrb	r3, [r3]	@ zero_extendqisi2
 1043 000e 13F0010F 		tst	r3, #1
 1044 0012 29D1     		bne	.L103
 494:sdc/mmc.c     **** 
 495:sdc/mmc.c     **** 	if (!(CardType & CT_BLOCK)) sector *= 512;	/* Convert to byte address if needed */
 1045              		.loc 1 495 0
 1046 0014 164B     		ldr	r3, .L106+4
 1047 0016 1B68     		ldr	r3, [r3]
 1048 0018 13F0080F 		tst	r3, #8
 1049 001c 00D1     		bne	.L96
 1050              		.loc 1 495 0 is_stmt 0 discriminator 1
 1051 001e 5202     		lsls	r2, r2, #9
 1052              	.LVL166:
 1053              	.L96:
 496:sdc/mmc.c     **** 
 497:sdc/mmc.c     **** 	cmd = count > 1 ? CMD18 : CMD17;			/*  READ_MULTIPLE_BLOCK : READ_SINGLE_BLOCK */
 1054              		.loc 1 497 0 is_stmt 1
 1055 0020 012C     		cmp	r4, #1
 1056 0022 01D9     		bls	.L104
 1057 0024 1226     		movs	r6, #18
 1058 0026 00E0     		b	.L97
 1059              	.L104:
 1060 0028 1126     		movs	r6, #17
 1061              	.L97:
 1062              	.LVL167:
 498:sdc/mmc.c     **** 	if (send_cmd(cmd, sector) == 0) {
 1063              		.loc 1 498 0 discriminator 4
 1064 002a 1146     		mov	r1, r2
 1065              	.LVL168:
 1066 002c 3046     		mov	r0, r6
 1067              	.LVL169:
 1068 002e FFF7FEFF 		bl	send_cmd
 1069              	.LVL170:
 1070 0032 78B9     		cbnz	r0, .L98
 1071              	.L100:
 499:sdc/mmc.c     **** 		do {
 500:sdc/mmc.c     **** 			if (!rcvr_datablock(buff, 512)) break;
 1072              		.loc 1 500 0
 1073 0034 4FF40071 		mov	r1, #512
 1074 0038 2846     		mov	r0, r5
 1075 003a FFF7FEFF 		bl	rcvr_datablock
 1076              	.LVL171:
 1077 003e 18B1     		cbz	r0, .L99
 501:sdc/mmc.c     **** 			buff += 512;
 1078              		.loc 1 501 0
 1079 0040 05F50075 		add	r5, r5, #512
 1080              	.LVL172:
 502:sdc/mmc.c     **** 		} while (--count);
 1081              		.loc 1 502 0
 1082 0044 013C     		subs	r4, r4, #1
 1083              	.LVL173:
ARM GAS  C:\Users\crono\AppData\Local\Temp\ccLF8pjd.s 			page 30


 1084 0046 F5D1     		bne	.L100
 1085              	.L99:
 503:sdc/mmc.c     **** 		if (cmd == CMD18) send_cmd(CMD12, 0);	/* STOP_TRANSMISSION */
 1086              		.loc 1 503 0
 1087 0048 122E     		cmp	r6, #18
 1088 004a 03D1     		bne	.L98
 1089              		.loc 1 503 0 is_stmt 0 discriminator 1
 1090 004c 0021     		movs	r1, #0
 1091 004e 0C20     		movs	r0, #12
 1092 0050 FFF7FEFF 		bl	send_cmd
 1093              	.LVL174:
 1094              	.L98:
 504:sdc/mmc.c     **** 	}
 505:sdc/mmc.c     **** 	deselect();
 1095              		.loc 1 505 0 is_stmt 1
 1096 0054 FFF7FEFF 		bl	deselect
 1097              	.LVL175:
 506:sdc/mmc.c     **** 
 507:sdc/mmc.c     **** 	return count ? RES_ERROR : RES_OK;
 1098              		.loc 1 507 0
 1099 0058 201C     		adds	r0, r4, #0
 1100 005a 18BF     		it	ne
 1101 005c 0120     		movne	r0, #1
 1102 005e 70BD     		pop	{r4, r5, r6, pc}
 1103              	.LVL176:
 1104              	.L101:
 1105              		.cfi_def_cfa_offset 0
 1106              		.cfi_restore 4
 1107              		.cfi_restore 5
 1108              		.cfi_restore 6
 1109              		.cfi_restore 14
 492:sdc/mmc.c     **** 	if (Stat & STA_NOINIT) return RES_NOTRDY;
 1110              		.loc 1 492 0
 1111 0060 0420     		movs	r0, #4
 1112              	.LVL177:
 508:sdc/mmc.c     **** }
 1113              		.loc 1 508 0
 1114 0062 7047     		bx	lr
 1115              	.LVL178:
 1116              	.L102:
 1117              		.cfi_def_cfa_offset 16
 1118              		.cfi_offset 4, -16
 1119              		.cfi_offset 5, -12
 1120              		.cfi_offset 6, -8
 1121              		.cfi_offset 14, -4
 492:sdc/mmc.c     **** 	if (Stat & STA_NOINIT) return RES_NOTRDY;
 1122              		.loc 1 492 0
 1123 0064 0420     		movs	r0, #4
 1124              	.LVL179:
 1125 0066 70BD     		pop	{r4, r5, r6, pc}
 1126              	.LVL180:
 1127              	.L103:
 493:sdc/mmc.c     **** 
 1128              		.loc 1 493 0
 1129 0068 0320     		movs	r0, #3
 1130              	.LVL181:
 1131              		.loc 1 508 0
ARM GAS  C:\Users\crono\AppData\Local\Temp\ccLF8pjd.s 			page 31


 1132 006a 70BD     		pop	{r4, r5, r6, pc}
 1133              	.LVL182:
 1134              	.L107:
 1135              		.align	2
 1136              	.L106:
 1137 006c 00000000 		.word	.LANCHOR0
 1138 0070 00000000 		.word	.LANCHOR1
 1139              		.cfi_endproc
 1140              	.LFE77:
 1141              		.size	disk_read, .-disk_read
 1142              		.section	.text.disk_write,"ax",%progbits
 1143              		.align	2
 1144              		.global	disk_write
 1145              		.thumb
 1146              		.thumb_func
 1147              		.type	disk_write, %function
 1148              	disk_write:
 1149              	.LFB78:
 509:sdc/mmc.c     **** 
 510:sdc/mmc.c     **** // ##### R0.09b #####
 511:sdc/mmc.c     **** //DRESULT disk_read (
 512:sdc/mmc.c     **** //	BYTE drv,		/* Physical drive nmuber (0) */
 513:sdc/mmc.c     **** //	BYTE *buff,		/* Pointer to the data buffer to store read data */
 514:sdc/mmc.c     **** //	DWORD sector,	/* Start sector number (LBA) */
 515:sdc/mmc.c     **** //	BYTE count		/* Sector count (1..255) */
 516:sdc/mmc.c     **** //)
 517:sdc/mmc.c     **** //{
 518:sdc/mmc.c     **** //	if (drv || !count) return RES_PARERR;
 519:sdc/mmc.c     **** //	if (Stat & STA_NOINIT) return RES_NOTRDY;
 520:sdc/mmc.c     **** //
 521:sdc/mmc.c     **** //	if (!(CardType & CT_BLOCK)) sector *= 512;	/* Convert to byte address if needed */
 522:sdc/mmc.c     **** //
 523:sdc/mmc.c     **** //	if (count == 1) {		/* Single block read */
 524:sdc/mmc.c     **** //		if ((send_cmd(CMD17, sector) == 0)	/* READ_SINGLE_BLOCK */
 525:sdc/mmc.c     **** //			&& rcvr_datablock(buff, 512))
 526:sdc/mmc.c     **** //			count = 0;
 527:sdc/mmc.c     **** //	}
 528:sdc/mmc.c     **** //	else {				/* Multiple block read */
 529:sdc/mmc.c     **** //		if (send_cmd(CMD18, sector) == 0) {	/* READ_MULTIPLE_BLOCK */
 530:sdc/mmc.c     **** //			do {
 531:sdc/mmc.c     **** //				if (!rcvr_datablock(buff, 512)) break;
 532:sdc/mmc.c     **** //				buff += 512;
 533:sdc/mmc.c     **** //			} while (--count);
 534:sdc/mmc.c     **** //			send_cmd(CMD12, 0);				/* STOP_TRANSMISSION */
 535:sdc/mmc.c     **** //		}
 536:sdc/mmc.c     **** //	}
 537:sdc/mmc.c     **** //	deselect();
 538:sdc/mmc.c     **** //
 539:sdc/mmc.c     **** //	return count ? RES_ERROR : RES_OK;
 540:sdc/mmc.c     **** //}
 541:sdc/mmc.c     **** 
 542:sdc/mmc.c     **** 
 543:sdc/mmc.c     **** 
 544:sdc/mmc.c     **** /*-----------------------------------------------------------------------*/
 545:sdc/mmc.c     **** /* Write Sector(s)                                                       */
 546:sdc/mmc.c     **** /*-----------------------------------------------------------------------*/
 547:sdc/mmc.c     **** 
ARM GAS  C:\Users\crono\AppData\Local\Temp\ccLF8pjd.s 			page 32


 548:sdc/mmc.c     **** #if _USE_WRITE
 549:sdc/mmc.c     **** DRESULT disk_write (
 550:sdc/mmc.c     **** 	BYTE pdrv,			/* Physical drive nmuber (0) */
 551:sdc/mmc.c     **** 	const BYTE *buff,	/* Pointer to the data to be written */
 552:sdc/mmc.c     **** 	DWORD sector,		/* Start sector number (LBA) */
 553:sdc/mmc.c     **** 	UINT count			/* Sector count (1..128) */
 554:sdc/mmc.c     **** )
 555:sdc/mmc.c     **** {
 1150              		.loc 1 555 0
 1151              		.cfi_startproc
 1152              		@ args = 0, pretend = 0, frame = 0
 1153              		@ frame_needed = 0, uses_anonymous_args = 0
 1154              	.LVL183:
 556:sdc/mmc.c     **** 	if (pdrv || !count) return RES_PARERR;
 1155              		.loc 1 556 0
 1156 0000 0028     		cmp	r0, #0
 1157 0002 46D1     		bne	.L116
 555:sdc/mmc.c     **** 	if (pdrv || !count) return RES_PARERR;
 1158              		.loc 1 555 0 discriminator 2
 1159 0004 70B5     		push	{r4, r5, r6, lr}
 1160              		.cfi_def_cfa_offset 16
 1161              		.cfi_offset 4, -16
 1162              		.cfi_offset 5, -12
 1163              		.cfi_offset 6, -8
 1164              		.cfi_offset 14, -4
 1165 0006 0D46     		mov	r5, r1
 1166 0008 1646     		mov	r6, r2
 1167 000a 1C46     		mov	r4, r3
 1168              		.loc 1 556 0 discriminator 2
 1169 000c 002B     		cmp	r3, #0
 1170 000e 42D0     		beq	.L117
 557:sdc/mmc.c     **** 	if (Stat & STA_NOINIT) return RES_NOTRDY;
 1171              		.loc 1 557 0
 1172 0010 244B     		ldr	r3, .L123
 1173              	.LVL184:
 1174 0012 1B78     		ldrb	r3, [r3]	@ zero_extendqisi2
 1175 0014 13F0010F 		tst	r3, #1
 1176 0018 3FD1     		bne	.L118
 558:sdc/mmc.c     **** 	if (Stat & STA_PROTECT) return RES_WRPRT;
 1177              		.loc 1 558 0
 1178 001a 224B     		ldr	r3, .L123
 1179 001c 1B78     		ldrb	r3, [r3]	@ zero_extendqisi2
 1180 001e 13F0040F 		tst	r3, #4
 1181 0022 3CD1     		bne	.L119
 559:sdc/mmc.c     **** 
 560:sdc/mmc.c     **** 	if (!(CardType & CT_BLOCK)) sector *= 512;	/* Convert to byte address if needed */
 1182              		.loc 1 560 0
 1183 0024 204B     		ldr	r3, .L123+4
 1184 0026 1B68     		ldr	r3, [r3]
 1185 0028 13F0080F 		tst	r3, #8
 1186 002c 00D1     		bne	.L110
 1187              		.loc 1 560 0 is_stmt 0 discriminator 1
 1188 002e 5602     		lsls	r6, r2, #9
 1189              	.LVL185:
 1190              	.L110:
 561:sdc/mmc.c     **** 
 562:sdc/mmc.c     **** 	if (count == 1) {	/* Single block write */
ARM GAS  C:\Users\crono\AppData\Local\Temp\ccLF8pjd.s 			page 33


 1191              		.loc 1 562 0 is_stmt 1
 1192 0030 012C     		cmp	r4, #1
 1193 0032 0AD1     		bne	.L111
 563:sdc/mmc.c     **** 		if ((send_cmd(CMD24, sector) == 0)	/* WRITE_BLOCK */
 1194              		.loc 1 563 0
 1195 0034 3146     		mov	r1, r6
 1196              	.LVL186:
 1197 0036 1820     		movs	r0, #24
 1198              	.LVL187:
 1199 0038 FFF7FEFF 		bl	send_cmd
 1200              	.LVL188:
 1201 003c 18BB     		cbnz	r0, .L112
 564:sdc/mmc.c     **** 			&& xmit_datablock(buff, 0xFE))
 1202              		.loc 1 564 0
 1203 003e FE21     		movs	r1, #254
 1204 0040 2846     		mov	r0, r5
 1205 0042 FFF7FEFF 		bl	xmit_datablock
 1206              	.LVL189:
 1207 0046 D8B9     		cbnz	r0, .L120
 1208 0048 1DE0     		b	.L112
 1209              	.LVL190:
 1210              	.L111:
 565:sdc/mmc.c     **** 			count = 0;
 566:sdc/mmc.c     **** 	}
 567:sdc/mmc.c     **** 	else {				/* Multiple block write */
 568:sdc/mmc.c     **** 		if (CardType & CT_SDC) send_cmd(ACMD23, count);
 1211              		.loc 1 568 0
 1212 004a 13F0060F 		tst	r3, #6
 1213 004e 03D0     		beq	.L113
 1214              		.loc 1 568 0 is_stmt 0 discriminator 1
 1215 0050 2146     		mov	r1, r4
 1216              	.LVL191:
 1217 0052 9720     		movs	r0, #151
 1218              	.LVL192:
 1219 0054 FFF7FEFF 		bl	send_cmd
 1220              	.LVL193:
 1221              	.L113:
 569:sdc/mmc.c     **** 		if (send_cmd(CMD25, sector) == 0) {	/* WRITE_MULTIPLE_BLOCK */
 1222              		.loc 1 569 0 is_stmt 1
 1223 0058 3146     		mov	r1, r6
 1224 005a 1920     		movs	r0, #25
 1225 005c FFF7FEFF 		bl	send_cmd
 1226              	.LVL194:
 1227 0060 88B9     		cbnz	r0, .L112
 1228              	.L115:
 570:sdc/mmc.c     **** 			do {
 571:sdc/mmc.c     **** 				if (!xmit_datablock(buff, 0xFC)) break;
 1229              		.loc 1 571 0
 1230 0062 FC21     		movs	r1, #252
 1231 0064 2846     		mov	r0, r5
 1232 0066 FFF7FEFF 		bl	xmit_datablock
 1233              	.LVL195:
 1234 006a 18B1     		cbz	r0, .L114
 572:sdc/mmc.c     **** 				buff += 512;
 1235              		.loc 1 572 0
 1236 006c 05F50075 		add	r5, r5, #512
 1237              	.LVL196:
ARM GAS  C:\Users\crono\AppData\Local\Temp\ccLF8pjd.s 			page 34


 573:sdc/mmc.c     **** 			} while (--count);
 1238              		.loc 1 573 0
 1239 0070 013C     		subs	r4, r4, #1
 1240              	.LVL197:
 1241 0072 F6D1     		bne	.L115
 1242              	.L114:
 574:sdc/mmc.c     **** 			if (!xmit_datablock(0, 0xFD))	/* STOP_TRAN token */
 1243              		.loc 1 574 0
 1244 0074 FD21     		movs	r1, #253
 1245 0076 0020     		movs	r0, #0
 1246 0078 FFF7FEFF 		bl	xmit_datablock
 1247              	.LVL198:
 1248 007c 10B1     		cbz	r0, .L121
 1249 007e 02E0     		b	.L112
 1250              	.L120:
 565:sdc/mmc.c     **** 	}
 1251              		.loc 1 565 0
 1252 0080 0024     		movs	r4, #0
 1253              	.LVL199:
 1254 0082 00E0     		b	.L112
 1255              	.LVL200:
 1256              	.L121:
 575:sdc/mmc.c     **** 				count = 1;
 1257              		.loc 1 575 0
 1258 0084 0124     		movs	r4, #1
 1259              	.LVL201:
 1260              	.L112:
 576:sdc/mmc.c     **** 		}
 577:sdc/mmc.c     **** 	}
 578:sdc/mmc.c     **** 	deselect();
 1261              		.loc 1 578 0
 1262 0086 FFF7FEFF 		bl	deselect
 1263              	.LVL202:
 579:sdc/mmc.c     **** 
 580:sdc/mmc.c     **** 	return count ? RES_ERROR : RES_OK;
 1264              		.loc 1 580 0
 1265 008a 201C     		adds	r0, r4, #0
 1266 008c 18BF     		it	ne
 1267 008e 0120     		movne	r0, #1
 1268 0090 70BD     		pop	{r4, r5, r6, pc}
 1269              	.LVL203:
 1270              	.L116:
 1271              		.cfi_def_cfa_offset 0
 1272              		.cfi_restore 4
 1273              		.cfi_restore 5
 1274              		.cfi_restore 6
 1275              		.cfi_restore 14
 556:sdc/mmc.c     **** 	if (Stat & STA_NOINIT) return RES_NOTRDY;
 1276              		.loc 1 556 0
 1277 0092 0420     		movs	r0, #4
 1278              	.LVL204:
 581:sdc/mmc.c     **** }
 1279              		.loc 1 581 0
 1280 0094 7047     		bx	lr
 1281              	.LVL205:
 1282              	.L117:
 1283              		.cfi_def_cfa_offset 16
ARM GAS  C:\Users\crono\AppData\Local\Temp\ccLF8pjd.s 			page 35


 1284              		.cfi_offset 4, -16
 1285              		.cfi_offset 5, -12
 1286              		.cfi_offset 6, -8
 1287              		.cfi_offset 14, -4
 556:sdc/mmc.c     **** 	if (Stat & STA_NOINIT) return RES_NOTRDY;
 1288              		.loc 1 556 0
 1289 0096 0420     		movs	r0, #4
 1290              	.LVL206:
 1291 0098 70BD     		pop	{r4, r5, r6, pc}
 1292              	.LVL207:
 1293              	.L118:
 557:sdc/mmc.c     **** 	if (Stat & STA_PROTECT) return RES_WRPRT;
 1294              		.loc 1 557 0
 1295 009a 0320     		movs	r0, #3
 1296              	.LVL208:
 1297 009c 70BD     		pop	{r4, r5, r6, pc}
 1298              	.LVL209:
 1299              	.L119:
 558:sdc/mmc.c     **** 
 1300              		.loc 1 558 0
 1301 009e 0220     		movs	r0, #2
 1302              	.LVL210:
 1303              		.loc 1 581 0
 1304 00a0 70BD     		pop	{r4, r5, r6, pc}
 1305              	.LVL211:
 1306              	.L124:
 1307 00a2 00BF     		.align	2
 1308              	.L123:
 1309 00a4 00000000 		.word	.LANCHOR0
 1310 00a8 00000000 		.word	.LANCHOR1
 1311              		.cfi_endproc
 1312              	.LFE78:
 1313              		.size	disk_write, .-disk_write
 1314              		.section	.text.disk_ioctl,"ax",%progbits
 1315              		.align	2
 1316              		.global	disk_ioctl
 1317              		.thumb
 1318              		.thumb_func
 1319              		.type	disk_ioctl, %function
 1320              	disk_ioctl:
 1321              	.LFB79:
 582:sdc/mmc.c     **** #endif
 583:sdc/mmc.c     **** 
 584:sdc/mmc.c     **** // ##### R0.09b #####
 585:sdc/mmc.c     **** //#if _READONLY == 0
 586:sdc/mmc.c     **** //DRESULT disk_write (
 587:sdc/mmc.c     **** //	BYTE drv,				/* Physical drive nmuber (0) */
 588:sdc/mmc.c     **** //	const BYTE *buff,		/* Pointer to the data to be written */
 589:sdc/mmc.c     **** //	DWORD sector,			/* Start sector number (LBA) */
 590:sdc/mmc.c     **** //	BYTE count				/* Sector count (1..255) */
 591:sdc/mmc.c     **** //)
 592:sdc/mmc.c     **** //{
 593:sdc/mmc.c     **** //	if (drv || !count) return RES_PARERR;
 594:sdc/mmc.c     **** //	if (Stat & STA_NOINIT) return RES_NOTRDY;
 595:sdc/mmc.c     **** //	if (Stat & STA_PROTECT) return RES_WRPRT;
 596:sdc/mmc.c     **** //
 597:sdc/mmc.c     **** //	if (!(CardType & CT_BLOCK)) sector *= 512;	/* Convert to byte address if needed */
ARM GAS  C:\Users\crono\AppData\Local\Temp\ccLF8pjd.s 			page 36


 598:sdc/mmc.c     **** //
 599:sdc/mmc.c     **** //	if (count == 1) {		/* Single block write */
 600:sdc/mmc.c     **** //		if ((send_cmd(CMD24, sector) == 0)	/* WRITE_BLOCK */
 601:sdc/mmc.c     **** //			&& xmit_datablock(buff, 0xFE))
 602:sdc/mmc.c     **** //			count = 0;
 603:sdc/mmc.c     **** //	}
 604:sdc/mmc.c     **** //	else {				/* Multiple block write */
 605:sdc/mmc.c     **** //		if (CardType & CT_SDC) send_cmd(ACMD23, count);
 606:sdc/mmc.c     **** //		if (send_cmd(CMD25, sector) == 0) {	/* WRITE_MULTIPLE_BLOCK */
 607:sdc/mmc.c     **** //			do {
 608:sdc/mmc.c     **** //				if (!xmit_datablock(buff, 0xFC)) break;
 609:sdc/mmc.c     **** //				buff += 512;
 610:sdc/mmc.c     **** //			} while (--count);
 611:sdc/mmc.c     **** //			if (!xmit_datablock(0, 0xFD))	/* STOP_TRAN token */
 612:sdc/mmc.c     **** //				count = 1;
 613:sdc/mmc.c     **** //		}
 614:sdc/mmc.c     **** //	}
 615:sdc/mmc.c     **** //	deselect();
 616:sdc/mmc.c     **** //
 617:sdc/mmc.c     **** //	return count ? RES_ERROR : RES_OK;
 618:sdc/mmc.c     **** //}
 619:sdc/mmc.c     **** //#endif /* _READONLY */
 620:sdc/mmc.c     **** 
 621:sdc/mmc.c     **** 
 622:sdc/mmc.c     **** 
 623:sdc/mmc.c     **** /*-----------------------------------------------------------------------*/
 624:sdc/mmc.c     **** /* Miscellaneous Functions                                               */
 625:sdc/mmc.c     **** /*-----------------------------------------------------------------------*/
 626:sdc/mmc.c     **** 
 627:sdc/mmc.c     **** DRESULT disk_ioctl (
 628:sdc/mmc.c     **** 	BYTE drv,		/* Physical drive nmuber (0) */
 629:sdc/mmc.c     **** 	BYTE ctrl,		/* Control code */
 630:sdc/mmc.c     **** 	void *buff		/* Buffer to send/receive data block */
 631:sdc/mmc.c     **** )
 632:sdc/mmc.c     **** {
 1322              		.loc 1 632 0
 1323              		.cfi_startproc
 1324              		@ args = 0, pretend = 0, frame = 16
 1325              		@ frame_needed = 0, uses_anonymous_args = 0
 1326              	.LVL212:
 633:sdc/mmc.c     **** 	DRESULT res;
 634:sdc/mmc.c     **** 	BYTE n, csd[16], *ptr = buff;
 635:sdc/mmc.c     **** 	DWORD csize;
 636:sdc/mmc.c     **** 
 637:sdc/mmc.c     **** 
 638:sdc/mmc.c     **** 	if (drv) return RES_PARERR;
 1327              		.loc 1 638 0
 1328 0000 0028     		cmp	r0, #0
 1329 0002 40F02681 		bne	.L145
 639:sdc/mmc.c     **** 	if (Stat & STA_NOINIT) return RES_NOTRDY;
 1330              		.loc 1 639 0
 1331 0006 964B     		ldr	r3, .L164
 1332 0008 1B78     		ldrb	r3, [r3]	@ zero_extendqisi2
 1333 000a 13F0010F 		tst	r3, #1
 1334 000e 40F02281 		bne	.L146
 632:sdc/mmc.c     **** 	DRESULT res;
 1335              		.loc 1 632 0
ARM GAS  C:\Users\crono\AppData\Local\Temp\ccLF8pjd.s 			page 37


 1336 0012 30B5     		push	{r4, r5, lr}
 1337              		.cfi_def_cfa_offset 12
 1338              		.cfi_offset 4, -12
 1339              		.cfi_offset 5, -8
 1340              		.cfi_offset 14, -4
 1341 0014 85B0     		sub	sp, sp, #20
 1342              		.cfi_def_cfa_offset 32
 1343 0016 1446     		mov	r4, r2
 1344              	.LVL213:
 640:sdc/mmc.c     **** 
 641:sdc/mmc.c     **** 	res = RES_ERROR;
 642:sdc/mmc.c     **** 	switch (ctrl) {
 1345              		.loc 1 642 0
 1346 0018 0E29     		cmp	r1, #14
 1347 001a 00F2FD80 		bhi	.L147
 1348 001e DFE811F0 		tbh	[pc, r1, lsl #1]
 1349              	.L129:
 1350 0022 0F00     		.2byte	(.L128-.L129)/2
 1351 0024 1800     		.2byte	(.L130-.L129)/2
 1352 0026 5A00     		.2byte	(.L131-.L129)/2
 1353 0028 5F00     		.2byte	(.L132-.L129)/2
 1354 002a FB00     		.2byte	(.L147-.L129)/2
 1355 002c FB00     		.2byte	(.L147-.L129)/2
 1356 002e FB00     		.2byte	(.L147-.L129)/2
 1357 0030 FB00     		.2byte	(.L147-.L129)/2
 1358 0032 FB00     		.2byte	(.L147-.L129)/2
 1359 0034 FB00     		.2byte	(.L147-.L129)/2
 1360 0036 BA00     		.2byte	(.L133-.L129)/2
 1361 0038 BF00     		.2byte	(.L134-.L129)/2
 1362 003a CD00     		.2byte	(.L135-.L129)/2
 1363 003c D900     		.2byte	(.L136-.L129)/2
 1364 003e EC00     		.2byte	(.L137-.L129)/2
 1365              		.p2align 1
 1366              	.L128:
 643:sdc/mmc.c     **** 		case CTRL_SYNC :	/* Flush dirty buffer if present */
 644:sdc/mmc.c     **** 			if (select()) {
 1367              		.loc 1 644 0
 1368 0040 FFF7FEFF 		bl	select
 1369              	.LVL214:
 1370 0044 0028     		cmp	r0, #0
 1371 0046 00F0E980 		beq	.L148
 645:sdc/mmc.c     **** 				deselect();
 1372              		.loc 1 645 0
 1373 004a FFF7FEFF 		bl	deselect
 1374              	.LVL215:
 646:sdc/mmc.c     **** 				res = RES_OK;
 1375              		.loc 1 646 0
 1376 004e 0024     		movs	r4, #0
 1377              	.LVL216:
 1378 0050 FBE0     		b	.L127
 1379              	.LVL217:
 1380              	.L130:
 647:sdc/mmc.c     **** 			}
 648:sdc/mmc.c     **** 			break;
 649:sdc/mmc.c     **** 
 650:sdc/mmc.c     **** 		case GET_SECTOR_COUNT :	/* Get number of sectors on the disk (WORD) */
 651:sdc/mmc.c     **** 			if ((send_cmd(CMD9, 0) == 0) && rcvr_datablock(csd, 16)) {
ARM GAS  C:\Users\crono\AppData\Local\Temp\ccLF8pjd.s 			page 38


 1381              		.loc 1 651 0
 1382 0052 0021     		movs	r1, #0
 1383              	.LVL218:
 1384 0054 0920     		movs	r0, #9
 1385              	.LVL219:
 1386 0056 FFF7FEFF 		bl	send_cmd
 1387              	.LVL220:
 1388 005a 0028     		cmp	r0, #0
 1389 005c 40F0E080 		bne	.L149
 1390              		.loc 1 651 0 is_stmt 0 discriminator 1
 1391 0060 1021     		movs	r1, #16
 1392 0062 6846     		mov	r0, sp
 1393 0064 FFF7FEFF 		bl	rcvr_datablock
 1394              	.LVL221:
 1395 0068 0028     		cmp	r0, #0
 1396 006a 00F0DB80 		beq	.L150
 652:sdc/mmc.c     **** 				if ((csd[0] >> 6) == 1) {	/* SDv2? */
 1397              		.loc 1 652 0 is_stmt 1
 1398 006e 9DF80030 		ldrb	r3, [sp]	@ zero_extendqisi2
 1399 0072 9B09     		lsrs	r3, r3, #6
 1400 0074 012B     		cmp	r3, #1
 1401 0076 0AD1     		bne	.L138
 653:sdc/mmc.c     **** 					csize = csd[9] + ((WORD)csd[8] << 8) + 1;
 1402              		.loc 1 653 0
 1403 0078 9DF80930 		ldrb	r3, [sp, #9]	@ zero_extendqisi2
 1404 007c 9DF80820 		ldrb	r2, [sp, #8]	@ zero_extendqisi2
 1405 0080 03EB0223 		add	r3, r3, r2, lsl #8
 1406 0084 0133     		adds	r3, r3, #1
 1407              	.LVL222:
 654:sdc/mmc.c     **** 					*(DWORD*)buff = (DWORD)csize << 10;
 1408              		.loc 1 654 0
 1409 0086 9B02     		lsls	r3, r3, #10
 1410              	.LVL223:
 1411 0088 2360     		str	r3, [r4]
 1412              	.LVL224:
 655:sdc/mmc.c     **** 				} else {					/* SDv1 or MMCv2 */
 656:sdc/mmc.c     **** 					n = (csd[5] & 15) + ((csd[10] & 128) >> 7) + ((csd[9] & 3) << 1) + 2;
 657:sdc/mmc.c     **** 					csize = (csd[8] >> 6) + ((WORD)csd[7] << 2) + ((WORD)(csd[6] & 3) << 10) + 1;
 658:sdc/mmc.c     **** 					*(DWORD*)buff = (DWORD)csize << (n - 9);
 659:sdc/mmc.c     **** 				}
 660:sdc/mmc.c     **** 				res = RES_OK;
 1413              		.loc 1 660 0
 1414 008a 0024     		movs	r4, #0
 1415              	.LVL225:
 1416 008c DDE0     		b	.L127
 1417              	.LVL226:
 1418              	.L138:
 656:sdc/mmc.c     **** 					csize = (csd[8] >> 6) + ((WORD)csd[7] << 2) + ((WORD)(csd[6] & 3) << 10) + 1;
 1419              		.loc 1 656 0
 1420 008e 9DF80520 		ldrb	r2, [sp, #5]	@ zero_extendqisi2
 1421 0092 9DF80A10 		ldrb	r1, [sp, #10]	@ zero_extendqisi2
 1422 0096 9DF80930 		ldrb	r3, [sp, #9]	@ zero_extendqisi2
 1423 009a 5B00     		lsls	r3, r3, #1
 1424 009c 02F00F02 		and	r2, r2, #15
 1425 00a0 02EBD112 		add	r2, r2, r1, lsr #7
 1426 00a4 03F00603 		and	r3, r3, #6
 1427 00a8 1344     		add	r3, r3, r2
ARM GAS  C:\Users\crono\AppData\Local\Temp\ccLF8pjd.s 			page 39


 1428 00aa 0233     		adds	r3, r3, #2
 1429 00ac DBB2     		uxtb	r3, r3
 1430              	.LVL227:
 657:sdc/mmc.c     **** 					*(DWORD*)buff = (DWORD)csize << (n - 9);
 1431              		.loc 1 657 0
 1432 00ae 9DF80810 		ldrb	r1, [sp, #8]	@ zero_extendqisi2
 1433 00b2 9DF80720 		ldrb	r2, [sp, #7]	@ zero_extendqisi2
 1434 00b6 9200     		lsls	r2, r2, #2
 1435 00b8 02EB9111 		add	r1, r2, r1, lsr #6
 1436 00bc 9DF80620 		ldrb	r2, [sp, #6]	@ zero_extendqisi2
 1437 00c0 9202     		lsls	r2, r2, #10
 1438 00c2 02F44062 		and	r2, r2, #3072
 1439 00c6 0A44     		add	r2, r2, r1
 1440 00c8 0132     		adds	r2, r2, #1
 1441              	.LVL228:
 658:sdc/mmc.c     **** 				}
 1442              		.loc 1 658 0
 1443 00ca 093B     		subs	r3, r3, #9
 1444              	.LVL229:
 1445 00cc 02FA03F3 		lsl	r3, r2, r3
 1446              	.LVL230:
 1447 00d0 2360     		str	r3, [r4]
 1448              	.LVL231:
 1449              		.loc 1 660 0
 1450 00d2 0024     		movs	r4, #0
 1451              	.LVL232:
 1452 00d4 B9E0     		b	.L127
 1453              	.LVL233:
 1454              	.L131:
 661:sdc/mmc.c     **** 			}
 662:sdc/mmc.c     **** 			break;
 663:sdc/mmc.c     **** 
 664:sdc/mmc.c     **** 		case GET_SECTOR_SIZE :	/* Get sectors on the disk (WORD) */
 665:sdc/mmc.c     **** 			*(WORD*)buff = 512;
 1455              		.loc 1 665 0
 1456 00d6 4FF40073 		mov	r3, #512
 1457 00da 1380     		strh	r3, [r2]	@ movhi
 1458              	.LVL234:
 666:sdc/mmc.c     **** 			res = RES_OK;
 1459              		.loc 1 666 0
 1460 00dc 0024     		movs	r4, #0
 667:sdc/mmc.c     **** 			break;
 1461              		.loc 1 667 0
 1462 00de B4E0     		b	.L127
 1463              	.LVL235:
 1464              	.L132:
 668:sdc/mmc.c     **** 
 669:sdc/mmc.c     **** 		case GET_BLOCK_SIZE :	/* Get erase block size in unit of sectors (DWORD) */
 670:sdc/mmc.c     **** 			if (CardType & CT_SD2) {	/* SDv2? */
 1465              		.loc 1 670 0
 1466 00e0 604B     		ldr	r3, .L164+4
 1467 00e2 1B68     		ldr	r3, [r3]
 1468 00e4 13F0040F 		tst	r3, #4
 1469 00e8 21D0     		beq	.L139
 671:sdc/mmc.c     **** 				if (send_cmd(ACMD13, 0) == 0) {		/* Read SD status */
 1470              		.loc 1 671 0
 1471 00ea 0021     		movs	r1, #0
ARM GAS  C:\Users\crono\AppData\Local\Temp\ccLF8pjd.s 			page 40


 1472              	.LVL236:
 1473 00ec 8D20     		movs	r0, #141
 1474              	.LVL237:
 1475 00ee FFF7FEFF 		bl	send_cmd
 1476              	.LVL238:
 1477 00f2 0028     		cmp	r0, #0
 1478 00f4 40F09880 		bne	.L151
 672:sdc/mmc.c     **** 					rcvr_spi();
 1479              		.loc 1 672 0
 1480 00f8 FF20     		movs	r0, #255
 1481 00fa FFF7FEFF 		bl	xchg_spi
 1482              	.LVL239:
 673:sdc/mmc.c     **** 					if (rcvr_datablock(csd, 16)) {				/* Read partial block */
 1483              		.loc 1 673 0
 1484 00fe 1021     		movs	r1, #16
 1485 0100 6846     		mov	r0, sp
 1486 0102 FFF7FEFF 		bl	rcvr_datablock
 1487              	.LVL240:
 1488 0106 38B9     		cbnz	r0, .L152
 641:sdc/mmc.c     **** 	switch (ctrl) {
 1489              		.loc 1 641 0
 1490 0108 0124     		movs	r4, #1
 1491              	.LVL241:
 1492 010a 9EE0     		b	.L127
 1493              	.LVL242:
 1494              	.L141:
 674:sdc/mmc.c     **** 						for (n = 64 - 16; n; n--) rcvr_spi();	/* Purge trailing data */
 1495              		.loc 1 674 0 discriminator 3
 1496 010c FF20     		movs	r0, #255
 1497 010e FFF7FEFF 		bl	xchg_spi
 1498              	.LVL243:
 1499 0112 013D     		subs	r5, r5, #1
 1500              	.LVL244:
 1501 0114 EDB2     		uxtb	r5, r5
 1502              	.LVL245:
 1503 0116 00E0     		b	.L140
 1504              	.LVL246:
 1505              	.L152:
 1506 0118 3025     		movs	r5, #48
 1507              	.L140:
 1508              	.LVL247:
 1509              		.loc 1 674 0 is_stmt 0 discriminator 1
 1510 011a 002D     		cmp	r5, #0
 1511 011c F6D1     		bne	.L141
 675:sdc/mmc.c     **** 						*(DWORD*)buff = 16UL << (csd[10] >> 4);
 1512              		.loc 1 675 0 is_stmt 1
 1513 011e 9DF80A30 		ldrb	r3, [sp, #10]	@ zero_extendqisi2
 1514 0122 1A09     		lsrs	r2, r3, #4
 1515 0124 1023     		movs	r3, #16
 1516 0126 9340     		lsls	r3, r3, r2
 1517 0128 2360     		str	r3, [r4]
 1518              	.LVL248:
 676:sdc/mmc.c     **** 						res = RES_OK;
 1519              		.loc 1 676 0
 1520 012a 0024     		movs	r4, #0
 1521              	.LVL249:
 1522 012c 8DE0     		b	.L127
ARM GAS  C:\Users\crono\AppData\Local\Temp\ccLF8pjd.s 			page 41


 1523              	.LVL250:
 1524              	.L139:
 677:sdc/mmc.c     **** 					}
 678:sdc/mmc.c     **** 				}
 679:sdc/mmc.c     **** 			} else {					/* SDv1 or MMCv3 */
 680:sdc/mmc.c     **** 				if ((send_cmd(CMD9, 0) == 0) && rcvr_datablock(csd, 16)) {	/* Read CSD */
 1525              		.loc 1 680 0
 1526 012e 0021     		movs	r1, #0
 1527              	.LVL251:
 1528 0130 0920     		movs	r0, #9
 1529              	.LVL252:
 1530 0132 FFF7FEFF 		bl	send_cmd
 1531              	.LVL253:
 1532 0136 0028     		cmp	r0, #0
 1533 0138 78D1     		bne	.L153
 1534              		.loc 1 680 0 is_stmt 0 discriminator 1
 1535 013a 1021     		movs	r1, #16
 1536 013c 6846     		mov	r0, sp
 1537 013e FFF7FEFF 		bl	rcvr_datablock
 1538              	.LVL254:
 1539 0142 0028     		cmp	r0, #0
 1540 0144 74D0     		beq	.L154
 681:sdc/mmc.c     **** 					if (CardType & CT_SD1) {	/* SDv1 */
 1541              		.loc 1 681 0 is_stmt 1
 1542 0146 474B     		ldr	r3, .L164+4
 1543 0148 1B68     		ldr	r3, [r3]
 1544 014a 13F0020F 		tst	r3, #2
 1545 014e 11D0     		beq	.L142
 682:sdc/mmc.c     **** 						*(DWORD*)buff = (((csd[10] & 63) << 1) + ((WORD)(csd[11] & 128) >> 7) + 1) << ((csd[13] >> 6)
 1546              		.loc 1 682 0
 1547 0150 9DF80A30 		ldrb	r3, [sp, #10]	@ zero_extendqisi2
 1548 0154 5B00     		lsls	r3, r3, #1
 1549 0156 03F07E03 		and	r3, r3, #126
 1550 015a 9DF80B20 		ldrb	r2, [sp, #11]	@ zero_extendqisi2
 1551 015e 03EBD213 		add	r3, r3, r2, lsr #7
 1552 0162 0133     		adds	r3, r3, #1
 1553 0164 9DF80D20 		ldrb	r2, [sp, #13]	@ zero_extendqisi2
 1554 0168 9209     		lsrs	r2, r2, #6
 1555 016a 013A     		subs	r2, r2, #1
 1556 016c 9340     		lsls	r3, r3, r2
 1557 016e 2360     		str	r3, [r4]
 683:sdc/mmc.c     **** 					} else {					/* MMCv3 */
 684:sdc/mmc.c     **** 						*(DWORD*)buff = ((WORD)((csd[10] & 124) >> 2) + 1) * (((csd[11] & 3) << 3) + ((csd[11] & 224)
 685:sdc/mmc.c     **** 					}
 686:sdc/mmc.c     **** 					res = RES_OK;
 1558              		.loc 1 686 0
 1559 0170 0024     		movs	r4, #0
 1560              	.LVL255:
 1561 0172 6AE0     		b	.L127
 1562              	.LVL256:
 1563              	.L142:
 684:sdc/mmc.c     **** 					}
 1564              		.loc 1 684 0
 1565 0174 9DF80A30 		ldrb	r3, [sp, #10]	@ zero_extendqisi2
 1566 0178 C3F38401 		ubfx	r1, r3, #2, #5
 1567 017c 9DF80B30 		ldrb	r3, [sp, #11]	@ zero_extendqisi2
 1568 0180 DA00     		lsls	r2, r3, #3
ARM GAS  C:\Users\crono\AppData\Local\Temp\ccLF8pjd.s 			page 42


 1569 0182 02F01802 		and	r2, r2, #24
 1570 0186 02EB5312 		add	r2, r2, r3, lsr #5
 1571 018a 531C     		adds	r3, r2, #1
 1572 018c 01FB0333 		mla	r3, r1, r3, r3
 1573 0190 2360     		str	r3, [r4]
 1574              		.loc 1 686 0
 1575 0192 0024     		movs	r4, #0
 1576              	.LVL257:
 1577 0194 59E0     		b	.L127
 1578              	.LVL258:
 1579              	.L133:
 687:sdc/mmc.c     **** 				}
 688:sdc/mmc.c     **** 			}
 689:sdc/mmc.c     **** 			break;
 690:sdc/mmc.c     **** 
 691:sdc/mmc.c     **** 		case MMC_GET_TYPE :		/* Get card type flags (1 byte) */
 692:sdc/mmc.c     **** 			*ptr = CardType;
 1580              		.loc 1 692 0
 1581 0196 334B     		ldr	r3, .L164+4
 1582 0198 1B68     		ldr	r3, [r3]
 1583 019a 1370     		strb	r3, [r2]
 1584              	.LVL259:
 693:sdc/mmc.c     **** 			res = RES_OK;
 1585              		.loc 1 693 0
 1586 019c 0024     		movs	r4, #0
 694:sdc/mmc.c     **** 			break;
 1587              		.loc 1 694 0
 1588 019e 54E0     		b	.L127
 1589              	.LVL260:
 1590              	.L134:
 695:sdc/mmc.c     **** 
 696:sdc/mmc.c     **** 		case MMC_GET_CSD :	/* Receive CSD as a data block (16 bytes) */
 697:sdc/mmc.c     **** 			if ((send_cmd(CMD9, 0) == 0)	/* READ_CSD */
 1591              		.loc 1 697 0
 1592 01a0 0021     		movs	r1, #0
 1593              	.LVL261:
 1594 01a2 0920     		movs	r0, #9
 1595              	.LVL262:
 1596 01a4 FFF7FEFF 		bl	send_cmd
 1597              	.LVL263:
 1598 01a8 0028     		cmp	r0, #0
 1599 01aa 43D1     		bne	.L155
 698:sdc/mmc.c     **** 				&& rcvr_datablock(buff, 16))
 1600              		.loc 1 698 0
 1601 01ac 1021     		movs	r1, #16
 1602 01ae 2046     		mov	r0, r4
 1603 01b0 FFF7FEFF 		bl	rcvr_datablock
 1604              	.LVL264:
 1605 01b4 0028     		cmp	r0, #0
 1606 01b6 3FD1     		bne	.L156
 641:sdc/mmc.c     **** 	switch (ctrl) {
 1607              		.loc 1 641 0
 1608 01b8 0124     		movs	r4, #1
 1609              	.LVL265:
 1610 01ba 46E0     		b	.L127
 1611              	.LVL266:
 1612              	.L135:
ARM GAS  C:\Users\crono\AppData\Local\Temp\ccLF8pjd.s 			page 43


 699:sdc/mmc.c     **** 				res = RES_OK;
 700:sdc/mmc.c     **** 			break;
 701:sdc/mmc.c     **** 
 702:sdc/mmc.c     **** 		case MMC_GET_CID :	/* Receive CID as a data block (16 bytes) */
 703:sdc/mmc.c     **** 			if ((send_cmd(CMD10, 0) == 0)	/* READ_CID */
 1613              		.loc 1 703 0
 1614 01bc 0021     		movs	r1, #0
 1615              	.LVL267:
 1616 01be 0A20     		movs	r0, #10
 1617              	.LVL268:
 1618 01c0 FFF7FEFF 		bl	send_cmd
 1619              	.LVL269:
 1620 01c4 D0BB     		cbnz	r0, .L157
 704:sdc/mmc.c     **** 				&& rcvr_datablock(buff, 16))
 1621              		.loc 1 704 0
 1622 01c6 1021     		movs	r1, #16
 1623 01c8 2046     		mov	r0, r4
 1624 01ca FFF7FEFF 		bl	rcvr_datablock
 1625              	.LVL270:
 1626 01ce B8BB     		cbnz	r0, .L158
 641:sdc/mmc.c     **** 	switch (ctrl) {
 1627              		.loc 1 641 0
 1628 01d0 0124     		movs	r4, #1
 1629              	.LVL271:
 1630 01d2 3AE0     		b	.L127
 1631              	.LVL272:
 1632              	.L136:
 705:sdc/mmc.c     **** 				res = RES_OK;
 706:sdc/mmc.c     **** 			break;
 707:sdc/mmc.c     **** 
 708:sdc/mmc.c     **** 		case MMC_GET_OCR :	/* Receive OCR as an R3 resp (4 bytes) */
 709:sdc/mmc.c     **** 			if (send_cmd(CMD58, 0) == 0) {	/* READ_OCR */
 1633              		.loc 1 709 0
 1634 01d4 0021     		movs	r1, #0
 1635              	.LVL273:
 1636 01d6 3A20     		movs	r0, #58
 1637              	.LVL274:
 1638 01d8 FFF7FEFF 		bl	send_cmd
 1639              	.LVL275:
 1640 01dc 40B1     		cbz	r0, .L159
 641:sdc/mmc.c     **** 	switch (ctrl) {
 1641              		.loc 1 641 0
 1642 01de 0124     		movs	r4, #1
 1643              	.LVL276:
 1644 01e0 33E0     		b	.L127
 1645              	.LVL277:
 1646              	.L144:
 710:sdc/mmc.c     **** 				for (n = 0; n < 4; n++)
 711:sdc/mmc.c     **** 					*((BYTE*)buff+n) = rcvr_spi();
 1647              		.loc 1 711 0 discriminator 3
 1648 01e2 FF20     		movs	r0, #255
 1649 01e4 FFF7FEFF 		bl	xchg_spi
 1650              	.LVL278:
 1651 01e8 6055     		strb	r0, [r4, r5]
 710:sdc/mmc.c     **** 				for (n = 0; n < 4; n++)
 1652              		.loc 1 710 0 discriminator 3
 1653 01ea 0135     		adds	r5, r5, #1
ARM GAS  C:\Users\crono\AppData\Local\Temp\ccLF8pjd.s 			page 44


 1654              	.LVL279:
 1655 01ec EDB2     		uxtb	r5, r5
 1656              	.LVL280:
 1657 01ee 00E0     		b	.L143
 1658              	.LVL281:
 1659              	.L159:
 1660 01f0 0025     		movs	r5, #0
 1661              	.L143:
 1662              	.LVL282:
 710:sdc/mmc.c     **** 				for (n = 0; n < 4; n++)
 1663              		.loc 1 710 0 is_stmt 0 discriminator 1
 1664 01f2 032D     		cmp	r5, #3
 1665 01f4 F5D9     		bls	.L144
 712:sdc/mmc.c     **** 				res = RES_OK;
 1666              		.loc 1 712 0 is_stmt 1
 1667 01f6 0024     		movs	r4, #0
 1668              	.LVL283:
 1669 01f8 27E0     		b	.L127
 1670              	.LVL284:
 1671              	.L137:
 713:sdc/mmc.c     **** 			}
 714:sdc/mmc.c     **** 			break;
 715:sdc/mmc.c     **** 
 716:sdc/mmc.c     **** 		case MMC_GET_SDSTAT :	/* Receive SD statsu as a data block (64 bytes) */
 717:sdc/mmc.c     **** 			if (send_cmd(ACMD13, 0) == 0) {	/* SD_STATUS */
 1672              		.loc 1 717 0
 1673 01fa 0021     		movs	r1, #0
 1674              	.LVL285:
 1675 01fc 8D20     		movs	r0, #141
 1676              	.LVL286:
 1677 01fe FFF7FEFF 		bl	send_cmd
 1678              	.LVL287:
 1679 0202 F8B9     		cbnz	r0, .L160
 718:sdc/mmc.c     **** 				rcvr_spi();
 1680              		.loc 1 718 0
 1681 0204 FF20     		movs	r0, #255
 1682 0206 FFF7FEFF 		bl	xchg_spi
 1683              	.LVL288:
 719:sdc/mmc.c     **** 				if (rcvr_datablock(buff, 64))
 1684              		.loc 1 719 0
 1685 020a 4021     		movs	r1, #64
 1686 020c 2046     		mov	r0, r4
 1687 020e FFF7FEFF 		bl	rcvr_datablock
 1688              	.LVL289:
 1689 0212 C8B9     		cbnz	r0, .L161
 641:sdc/mmc.c     **** 	switch (ctrl) {
 1690              		.loc 1 641 0
 1691 0214 0124     		movs	r4, #1
 1692              	.LVL290:
 1693 0216 18E0     		b	.L127
 1694              	.LVL291:
 1695              	.L147:
 720:sdc/mmc.c     **** 					res = RES_OK;
 721:sdc/mmc.c     **** 			}
 722:sdc/mmc.c     **** 			break;
 723:sdc/mmc.c     **** 
 724:sdc/mmc.c     **** 		default:
ARM GAS  C:\Users\crono\AppData\Local\Temp\ccLF8pjd.s 			page 45


 725:sdc/mmc.c     **** 			res = RES_PARERR;
 1696              		.loc 1 725 0
 1697 0218 0424     		movs	r4, #4
 1698 021a 16E0     		b	.L127
 1699              	.LVL292:
 1700              	.L148:
 641:sdc/mmc.c     **** 	switch (ctrl) {
 1701              		.loc 1 641 0
 1702 021c 0124     		movs	r4, #1
 1703              	.LVL293:
 1704 021e 14E0     		b	.L127
 1705              	.LVL294:
 1706              	.L149:
 1707 0220 0124     		movs	r4, #1
 1708              	.LVL295:
 1709 0222 12E0     		b	.L127
 1710              	.LVL296:
 1711              	.L150:
 1712 0224 0124     		movs	r4, #1
 1713              	.LVL297:
 1714 0226 10E0     		b	.L127
 1715              	.LVL298:
 1716              	.L151:
 1717 0228 0124     		movs	r4, #1
 1718              	.LVL299:
 1719 022a 0EE0     		b	.L127
 1720              	.LVL300:
 1721              	.L153:
 1722 022c 0124     		movs	r4, #1
 1723              	.LVL301:
 1724 022e 0CE0     		b	.L127
 1725              	.LVL302:
 1726              	.L154:
 1727 0230 0124     		movs	r4, #1
 1728              	.LVL303:
 1729 0232 0AE0     		b	.L127
 1730              	.LVL304:
 1731              	.L155:
 1732 0234 0124     		movs	r4, #1
 1733              	.LVL305:
 1734 0236 08E0     		b	.L127
 1735              	.LVL306:
 1736              	.L156:
 699:sdc/mmc.c     **** 			break;
 1737              		.loc 1 699 0
 1738 0238 0024     		movs	r4, #0
 1739              	.LVL307:
 1740 023a 06E0     		b	.L127
 1741              	.LVL308:
 1742              	.L157:
 641:sdc/mmc.c     **** 	switch (ctrl) {
 1743              		.loc 1 641 0
 1744 023c 0124     		movs	r4, #1
 1745              	.LVL309:
 1746 023e 04E0     		b	.L127
 1747              	.LVL310:
 1748              	.L158:
ARM GAS  C:\Users\crono\AppData\Local\Temp\ccLF8pjd.s 			page 46


 705:sdc/mmc.c     **** 			break;
 1749              		.loc 1 705 0
 1750 0240 0024     		movs	r4, #0
 1751              	.LVL311:
 1752 0242 02E0     		b	.L127
 1753              	.LVL312:
 1754              	.L160:
 641:sdc/mmc.c     **** 	switch (ctrl) {
 1755              		.loc 1 641 0
 1756 0244 0124     		movs	r4, #1
 1757              	.LVL313:
 1758 0246 00E0     		b	.L127
 1759              	.LVL314:
 1760              	.L161:
 720:sdc/mmc.c     **** 			}
 1761              		.loc 1 720 0
 1762 0248 0024     		movs	r4, #0
 1763              	.LVL315:
 1764              	.L127:
 726:sdc/mmc.c     **** 	}
 727:sdc/mmc.c     **** 
 728:sdc/mmc.c     **** 	deselect();
 1765              		.loc 1 728 0
 1766 024a FFF7FEFF 		bl	deselect
 1767              	.LVL316:
 729:sdc/mmc.c     **** 
 730:sdc/mmc.c     **** 	return res;
 1768              		.loc 1 730 0
 1769 024e 2046     		mov	r0, r4
 1770 0250 03E0     		b	.L126
 1771              	.LVL317:
 1772              	.L145:
 1773              		.cfi_def_cfa_offset 0
 1774              		.cfi_restore 4
 1775              		.cfi_restore 5
 1776              		.cfi_restore 14
 638:sdc/mmc.c     **** 	if (Stat & STA_NOINIT) return RES_NOTRDY;
 1777              		.loc 1 638 0
 1778 0252 0420     		movs	r0, #4
 1779              	.LVL318:
 1780 0254 7047     		bx	lr
 1781              	.LVL319:
 1782              	.L146:
 639:sdc/mmc.c     **** 
 1783              		.loc 1 639 0
 1784 0256 0320     		movs	r0, #3
 1785              	.LVL320:
 1786 0258 7047     		bx	lr
 1787              	.LVL321:
 1788              	.L126:
 1789              		.cfi_def_cfa_offset 32
 1790              		.cfi_offset 4, -12
 1791              		.cfi_offset 5, -8
 1792              		.cfi_offset 14, -4
 731:sdc/mmc.c     **** }
 1793              		.loc 1 731 0
 1794 025a 05B0     		add	sp, sp, #20
ARM GAS  C:\Users\crono\AppData\Local\Temp\ccLF8pjd.s 			page 47


 1795              		.cfi_def_cfa_offset 12
 1796              		@ sp needed
 1797 025c 30BD     		pop	{r4, r5, pc}
 1798              	.LVL322:
 1799              	.L165:
 1800 025e 00BF     		.align	2
 1801              	.L164:
 1802 0260 00000000 		.word	.LANCHOR0
 1803 0264 00000000 		.word	.LANCHOR1
 1804              		.cfi_endproc
 1805              	.LFE79:
 1806              		.size	disk_ioctl, .-disk_ioctl
 1807              		.data
 1808              		.set	.LANCHOR0,. + 0
 1809              		.type	Stat, %object
 1810              		.size	Stat, 1
 1811              	Stat:
 1812 0000 01       		.byte	1
 1813              		.section	.rodata.str1.4,"aMS",%progbits,1
 1814              		.align	2
 1815              	.LC0:
 1816 0000 4641494C 		.ascii	"FAILED!, %u\015\012\000"
 1816      4544212C 
 1816      2025750D 
 1816      0A00
 1817              		.bss
 1818              		.align	2
 1819              		.set	.LANCHOR1,. + 0
 1820              		.type	CardType, %object
 1821              		.size	CardType, 4
 1822              	CardType:
 1823 0000 00000000 		.space	4
 1824              		.text
 1825              	.Letext0:
 1826              		.file 2 "c:\\program files (x86)\\cypress\\psoc creator\\4.2\\psoc creator\\import\\gnu\\arm\\5.4.
 1827              		.file 3 "c:\\program files (x86)\\cypress\\psoc creator\\4.2\\psoc creator\\import\\gnu\\arm\\5.4.
 1828              		.file 4 "Generated_Source\\PSoC5/cytypes.h"
 1829              		.file 5 "sdc\\integer.h"
 1830              		.file 6 "sdc\\diskio.h"
 1831              		.file 7 "Generated_Source\\PSoC5/SD_SPIM.h"
 1832              		.file 8 "Generated_Source\\PSoC5/SD_CSn.h"
 1833              		.file 9 "Generated_Source\\PSoC5/Timer2_Reset.h"
 1834              		.file 10 "Generated_Source\\PSoC5/Timer2.h"
 1835              		.file 11 "Generated_Source\\PSoC5/Timer1_Reset.h"
 1836              		.file 12 "Generated_Source\\PSoC5/Timer1.h"
 1837              		.file 13 "Generated_Source\\PSoC5/Clock_3.h"
 1838              		.file 14 "sdc\\../xprintf.h"
 1839              		.file 15 "Generated_Source\\PSoC5/core_cm3.h"