ARM GAS  C:\Users\cronos\AppData\Local\Temp\ccrG4qtQ.s 			page 1


   1              		.syntax unified
   2              		.cpu cortex-m3
   3              		.fpu softvfp
   4              		.eabi_attribute 20, 1
   5              		.eabi_attribute 21, 1
   6              		.eabi_attribute 23, 3
   7              		.eabi_attribute 24, 1
   8              		.eabi_attribute 25, 1
   9              		.eabi_attribute 26, 1
  10              		.eabi_attribute 30, 1
  11              		.eabi_attribute 34, 1
  12              		.eabi_attribute 18, 4
  13              		.thumb
  14              		.syntax unified
  15              		.file	"SakuraIOc.c"
  16              		.text
  17              	.Ltext0:
  18              		.cfi_sections	.debug_frame
  19              		.section	.text.executeCommand,"ax",%progbits
  20              		.align	2
  21              		.thumb
  22              		.thumb_func
  23              		.type	executeCommand, %function
  24              	executeCommand:
  25              	.LFB0:
  26              		.file 1 "SakuraIO\\SakuraIOc.c"
   1:SakuraIO/SakuraIOc.c **** #include "SakuraIOc.h"
   2:SakuraIO/SakuraIOc.c **** #include "SakuraIOc_spi.h"
   3:SakuraIO/SakuraIOc.c **** #include "commands.h"
   4:SakuraIO/SakuraIOc.c **** #include "xprintf.h"
   5:SakuraIO/SakuraIOc.c **** 
   6:SakuraIO/SakuraIOc.c **** static uint8_t executeCommand(uint8_t cmd,uint8_t requestLength, uint8_t *request, uint8_t *respons
   7:SakuraIO/SakuraIOc.c **** {
  27              		.loc 1 7 0
  28              		.cfi_startproc
  29              		@ args = 4, pretend = 0, frame = 0
  30              		@ frame_needed = 0, uses_anonymous_args = 0
  31              	.LVL0:
  32 0000 2DE9F047 		push	{r4, r5, r6, r7, r8, r9, r10, lr}
  33              		.cfi_def_cfa_offset 32
  34              		.cfi_offset 4, -32
  35              		.cfi_offset 5, -28
  36              		.cfi_offset 6, -24
  37              		.cfi_offset 7, -20
  38              		.cfi_offset 8, -16
  39              		.cfi_offset 9, -12
  40              		.cfi_offset 10, -8
  41              		.cfi_offset 14, -4
  42 0004 0546     		mov	r5, r0
  43 0006 0E46     		mov	r6, r1
  44 0008 1746     		mov	r7, r2
  45 000a 9846     		mov	r8, r3
  46 000c DDF82090 		ldr	r9, [sp, #32]
  47              	.LVL1:
   8:SakuraIO/SakuraIOc.c ****   uint8_t parity = 0x00;
   9:SakuraIO/SakuraIOc.c ****   uint8_t result = 0x00;
  10:SakuraIO/SakuraIOc.c ****   uint8_t reservedResponseLength, tmpResponse, receivedResponseLength;
ARM GAS  C:\Users\cronos\AppData\Local\Temp\ccrG4qtQ.s 			page 2


  11:SakuraIO/SakuraIOc.c **** 
  12:SakuraIO/SakuraIOc.c ****   dbgln("executeCommand");
  13:SakuraIO/SakuraIOc.c **** 
  14:SakuraIO/SakuraIOc.c ****   SakuraIOc_hw_begin();
  48              		.loc 1 14 0
  49 0010 FFF7FEFF 		bl	SakuraIOc_hw_begin
  50              	.LVL2:
  15:SakuraIO/SakuraIOc.c **** 
  16:SakuraIO/SakuraIOc.c ****   // request
  17:SakuraIO/SakuraIOc.c ****   SakuraIOc_hw_sendByte(cmd);
  51              		.loc 1 17 0
  52 0014 2846     		mov	r0, r5
  53 0016 FFF7FEFF 		bl	SakuraIOc_hw_sendByte
  54              	.LVL3:
  18:SakuraIO/SakuraIOc.c ****   SakuraIOc_hw_sendByte(requestLength);
  55              		.loc 1 18 0
  56 001a 3046     		mov	r0, r6
  57 001c FFF7FEFF 		bl	SakuraIOc_hw_sendByte
  58              	.LVL4:
  19:SakuraIO/SakuraIOc.c ****   parity = cmd ^ requestLength;
  59              		.loc 1 19 0
  60 0020 7540     		eors	r5, r5, r6
  61              	.LVL5:
  62              	.LBB2:
  20:SakuraIO/SakuraIOc.c ****   for(int16_t i=0; i<requestLength; i++){
  63              		.loc 1 20 0
  64 0022 0024     		movs	r4, #0
  65 0024 05E0     		b	.L2
  66              	.LVL6:
  67              	.L3:
  21:SakuraIO/SakuraIOc.c ****     parity ^= request[i];
  68              		.loc 1 21 0 discriminator 3
  69 0026 385D     		ldrb	r0, [r7, r4]	@ zero_extendqisi2
  70 0028 4540     		eors	r5, r5, r0
  71              	.LVL7:
  22:SakuraIO/SakuraIOc.c ****     SakuraIOc_hw_sendByte(request[i]);
  72              		.loc 1 22 0 discriminator 3
  73 002a FFF7FEFF 		bl	SakuraIOc_hw_sendByte
  74              	.LVL8:
  20:SakuraIO/SakuraIOc.c ****   for(int16_t i=0; i<requestLength; i++){
  75              		.loc 1 20 0 discriminator 3
  76 002e 0134     		adds	r4, r4, #1
  77              	.LVL9:
  78 0030 24B2     		sxth	r4, r4
  79              	.LVL10:
  80              	.L2:
  20:SakuraIO/SakuraIOc.c ****   for(int16_t i=0; i<requestLength; i++){
  81              		.loc 1 20 0 is_stmt 0 discriminator 1
  82 0032 B442     		cmp	r4, r6
  83 0034 F7DB     		blt	.L3
  84              	.LBE2:
  23:SakuraIO/SakuraIOc.c ****   }
  24:SakuraIO/SakuraIOc.c ****   SakuraIOc_hw_sendByte(parity);
  85              		.loc 1 24 0 is_stmt 1
  86 0036 2846     		mov	r0, r5
  87 0038 FFF7FEFF 		bl	SakuraIOc_hw_sendByte
  88              	.LVL11:
ARM GAS  C:\Users\cronos\AppData\Local\Temp\ccrG4qtQ.s 			page 3


  25:SakuraIO/SakuraIOc.c ****   //definishSending();
  26:SakuraIO/SakuraIOc.c **** 
  27:SakuraIO/SakuraIOc.c ****   reservedResponseLength = 0;
  28:SakuraIO/SakuraIOc.c ****   if(responseLength != NULL){
  89              		.loc 1 28 0
  90 003c B8F1000F 		cmp	r8, #0
  91 0040 02D0     		beq	.L21
  29:SakuraIO/SakuraIOc.c ****     reservedResponseLength = *responseLength;
  92              		.loc 1 29 0
  93 0042 98F80060 		ldrb	r6, [r8]	@ zero_extendqisi2
  94              	.LVL12:
  95 0046 00E0     		b	.L4
  96              	.LVL13:
  97              	.L21:
  27:SakuraIO/SakuraIOc.c ****   if(responseLength != NULL){
  98              		.loc 1 27 0
  99 0048 0026     		movs	r6, #0
 100              	.LVL14:
 101              	.L4:
  30:SakuraIO/SakuraIOc.c ****   }
  31:SakuraIO/SakuraIOc.c **** 
  32:SakuraIO/SakuraIOc.c ****   delay(10);
 102              		.loc 1 32 0
 103 004a 0A20     		movs	r0, #10
 104 004c FFF7FEFF 		bl	delay
 105              	.LVL15:
  33:SakuraIO/SakuraIOc.c ****   SAKURA_SPIM_ClearRxBuffer();  // ###DBG 180705
 106              		.loc 1 33 0
 107 0050 FFF7FEFF 		bl	SAKURA_SPIM_ClearRxBuffer
 108              	.LVL16:
  34:SakuraIO/SakuraIOc.c ****   // response
  35:SakuraIO/SakuraIOc.c ****   SakuraIOc_hw_startReceive(reservedResponseLength+3);
 109              		.loc 1 35 0
 110 0054 F01C     		adds	r0, r6, #3
 111 0056 C0B2     		uxtb	r0, r0
 112 0058 FFF7FEFF 		bl	SakuraIOc_hw_startReceive
 113              	.LVL17:
  36:SakuraIO/SakuraIOc.c ****   result = SakuraIOc_hw_receiveByte();
 114              		.loc 1 36 0
 115 005c FFF7FEFF 		bl	SakuraIOc_hw_receiveByte
 116              	.LVL18:
 117 0060 0546     		mov	r5, r0
 118              	.LVL19:
  37:SakuraIO/SakuraIOc.c ****   if(result != CMD_ERROR_NONE){
 119              		.loc 1 37 0
 120 0062 0128     		cmp	r0, #1
 121 0064 26D0     		beq	.L5
  38:SakuraIO/SakuraIOc.c ****     dbgln("Invalid status");
  39:SakuraIO/SakuraIOc.c **** //    #ifdef	_DEBUG
  40:SakuraIO/SakuraIOc.c ****       switch(result)
 122              		.loc 1 40 0
 123 0066 831E     		subs	r3, r0, #2
 124 0068 052B     		cmp	r3, #5
 125 006a 1CD8     		bhi	.L6
 126 006c DFE803F0 		tbb	[pc, r3]
 127              	.L8:
 128 0070 03       		.byte	(.L7-.L8)/2
ARM GAS  C:\Users\cronos\AppData\Local\Temp\ccrG4qtQ.s 			page 4


 129 0071 07       		.byte	(.L9-.L8)/2
 130 0072 0B       		.byte	(.L10-.L8)/2
 131 0073 0F       		.byte	(.L11-.L8)/2
 132 0074 13       		.byte	(.L12-.L8)/2
 133 0075 17       		.byte	(.L13-.L8)/2
 134              		.p2align 1
 135              	.L7:
  41:SakuraIO/SakuraIOc.c ****       {
  42:SakuraIO/SakuraIOc.c ****         case CMD_ERROR_PARITY:
  43:SakuraIO/SakuraIOc.c ****           xputs("CMD_ERROR_PARITY\n");
 136              		.loc 1 43 0
 137 0076 2548     		ldr	r0, .L24
 138              	.LVL20:
 139 0078 FFF7FEFF 		bl	xputs
 140              	.LVL21:
  44:SakuraIO/SakuraIOc.c ****           break;
 141              		.loc 1 44 0
 142 007c 17E0     		b	.L14
 143              	.LVL22:
 144              	.L9:
  45:SakuraIO/SakuraIOc.c **** 
  46:SakuraIO/SakuraIOc.c ****         case CMD_ERROR_MISSING:
  47:SakuraIO/SakuraIOc.c ****           xputs("CMD_ERROR_MISSING\n");
 145              		.loc 1 47 0
 146 007e 2448     		ldr	r0, .L24+4
 147              	.LVL23:
 148 0080 FFF7FEFF 		bl	xputs
 149              	.LVL24:
  48:SakuraIO/SakuraIOc.c ****           break;
 150              		.loc 1 48 0
 151 0084 13E0     		b	.L14
 152              	.LVL25:
 153              	.L10:
  49:SakuraIO/SakuraIOc.c **** 
  50:SakuraIO/SakuraIOc.c ****         case CMD_ERROR_INVALID_SYNTAX:
  51:SakuraIO/SakuraIOc.c ****           xputs("CMD_ERROR_INVALID_SYNTAX\n");
 154              		.loc 1 51 0
 155 0086 2348     		ldr	r0, .L24+8
 156              	.LVL26:
 157 0088 FFF7FEFF 		bl	xputs
 158              	.LVL27:
  52:SakuraIO/SakuraIOc.c ****           break;
 159              		.loc 1 52 0
 160 008c 0FE0     		b	.L14
 161              	.LVL28:
 162              	.L11:
  53:SakuraIO/SakuraIOc.c **** 
  54:SakuraIO/SakuraIOc.c ****         case CMD_ERROR_RUNTIME:
  55:SakuraIO/SakuraIOc.c ****           xputs("CMD_ERROR_RUNTIME\n");
 163              		.loc 1 55 0
 164 008e 2248     		ldr	r0, .L24+12
 165              	.LVL29:
 166 0090 FFF7FEFF 		bl	xputs
 167              	.LVL30:
  56:SakuraIO/SakuraIOc.c ****           break;
 168              		.loc 1 56 0
 169 0094 0BE0     		b	.L14
ARM GAS  C:\Users\cronos\AppData\Local\Temp\ccrG4qtQ.s 			page 5


 170              	.LVL31:
 171              	.L12:
  57:SakuraIO/SakuraIOc.c **** 
  58:SakuraIO/SakuraIOc.c ****         case CMD_ERROR_LOCKED:
  59:SakuraIO/SakuraIOc.c ****           xputs("CMD_ERROR_LOCKED\n");
 172              		.loc 1 59 0
 173 0096 2148     		ldr	r0, .L24+16
 174              	.LVL32:
 175 0098 FFF7FEFF 		bl	xputs
 176              	.LVL33:
  60:SakuraIO/SakuraIOc.c ****           break;
 177              		.loc 1 60 0
 178 009c 07E0     		b	.L14
 179              	.LVL34:
 180              	.L13:
  61:SakuraIO/SakuraIOc.c **** 
  62:SakuraIO/SakuraIOc.c ****         case CMD_ERROR_BUSY:
  63:SakuraIO/SakuraIOc.c ****           xputs("CMD_ERROR_BUSY\n");
 181              		.loc 1 63 0
 182 009e 2048     		ldr	r0, .L24+20
 183              	.LVL35:
 184 00a0 FFF7FEFF 		bl	xputs
 185              	.LVL36:
  64:SakuraIO/SakuraIOc.c ****           break;
 186              		.loc 1 64 0
 187 00a4 03E0     		b	.L14
 188              	.LVL37:
 189              	.L6:
  65:SakuraIO/SakuraIOc.c **** 
  66:SakuraIO/SakuraIOc.c ****         default:
  67:SakuraIO/SakuraIOc.c ****             xprintf("Err: 0x%02X ",result);
 190              		.loc 1 67 0
 191 00a6 0146     		mov	r1, r0
 192 00a8 1E48     		ldr	r0, .L24+24
 193              	.LVL38:
 194 00aa FFF7FEFF 		bl	xprintf
 195              	.LVL39:
 196              	.L14:
  68:SakuraIO/SakuraIOc.c ****         break;
  69:SakuraIO/SakuraIOc.c ****       }
  70:SakuraIO/SakuraIOc.c **** //    #endif
  71:SakuraIO/SakuraIOc.c ****     SakuraIOc_hw_end();
 197              		.loc 1 71 0
 198 00ae FFF7FEFF 		bl	SakuraIOc_hw_end
 199              	.LVL40:
  72:SakuraIO/SakuraIOc.c ****     return result;
 200              		.loc 1 72 0
 201 00b2 27E0     		b	.L15
 202              	.LVL41:
 203              	.L5:
  73:SakuraIO/SakuraIOc.c ****   }
  74:SakuraIO/SakuraIOc.c **** 
  75:SakuraIO/SakuraIOc.c ****   receivedResponseLength = SakuraIOc_hw_receiveByte();
 204              		.loc 1 75 0
 205 00b4 FFF7FEFF 		bl	SakuraIOc_hw_receiveByte
 206              	.LVL42:
 207 00b8 0746     		mov	r7, r0
ARM GAS  C:\Users\cronos\AppData\Local\Temp\ccrG4qtQ.s 			page 6


 208              	.LVL43:
  76:SakuraIO/SakuraIOc.c ****   if(responseLength != NULL){
 209              		.loc 1 76 0
 210 00ba B8F1000F 		cmp	r8, #0
 211 00be 01D0     		beq	.L16
  77:SakuraIO/SakuraIOc.c ****     *responseLength = receivedResponseLength;
 212              		.loc 1 77 0
 213 00c0 88F80000 		strb	r0, [r8]
 214              	.L16:
  78:SakuraIO/SakuraIOc.c ****   }
  79:SakuraIO/SakuraIOc.c **** 
  80:SakuraIO/SakuraIOc.c ****   parity = result ^ receivedResponseLength;
 215              		.loc 1 80 0
 216 00c4 85EA0708 		eor	r8, r5, r7
 217              	.LVL44:
 218 00c8 5FFA88F8 		uxtb	r8, r8
 219              	.LVL45:
 220              	.LBB3:
  81:SakuraIO/SakuraIOc.c ****   for(int16_t i=0; i<receivedResponseLength; i++){
 221              		.loc 1 81 0
 222 00cc 0024     		movs	r4, #0
 223              	.LVL46:
 224 00ce 0EE0     		b	.L17
 225              	.LVL47:
 226              	.L19:
  82:SakuraIO/SakuraIOc.c ****     tmpResponse = SakuraIOc_hw_receiveByte();
 227              		.loc 1 82 0
 228 00d0 FFF7FEFF 		bl	SakuraIOc_hw_receiveByte
 229              	.LVL48:
  83:SakuraIO/SakuraIOc.c ****     parity ^= tmpResponse;
 230              		.loc 1 83 0
 231 00d4 88EA0008 		eor	r8, r8, r0
 232              	.LVL49:
 233 00d8 5FFA88F8 		uxtb	r8, r8
 234              	.LVL50:
  84:SakuraIO/SakuraIOc.c ****     if(response != NULL && i<reservedResponseLength){
 235              		.loc 1 84 0
 236 00dc B9F1000F 		cmp	r9, #0
 237 00e0 03D0     		beq	.L18
 238              		.loc 1 84 0 is_stmt 0 discriminator 1
 239 00e2 B245     		cmp	r10, r6
 240 00e4 01DA     		bge	.L18
  85:SakuraIO/SakuraIOc.c ****       response[i] = tmpResponse;
 241              		.loc 1 85 0 is_stmt 1
 242 00e6 09F80400 		strb	r0, [r9, r4]
 243              	.L18:
  81:SakuraIO/SakuraIOc.c ****     tmpResponse = SakuraIOc_hw_receiveByte();
 244              		.loc 1 81 0 discriminator 2
 245 00ea 0134     		adds	r4, r4, #1
 246              	.LVL51:
 247 00ec 24B2     		sxth	r4, r4
 248              	.LVL52:
 249              	.L17:
  81:SakuraIO/SakuraIOc.c ****     tmpResponse = SakuraIOc_hw_receiveByte();
 250              		.loc 1 81 0 is_stmt 0 discriminator 1
 251 00ee A246     		mov	r10, r4
 252 00f0 BC42     		cmp	r4, r7
ARM GAS  C:\Users\cronos\AppData\Local\Temp\ccrG4qtQ.s 			page 7


 253 00f2 EDDB     		blt	.L19
 254              	.LBE3:
  86:SakuraIO/SakuraIOc.c ****     }
  87:SakuraIO/SakuraIOc.c ****   }
  88:SakuraIO/SakuraIOc.c ****   dbgln("Parity");
  89:SakuraIO/SakuraIOc.c ****   uint8_t p = SakuraIOc_hw_receiveByte(true);
 255              		.loc 1 89 0 is_stmt 1
 256 00f4 0120     		movs	r0, #1
 257 00f6 FFF7FEFF 		bl	SakuraIOc_hw_receiveByte
 258              	.LVL53:
  90:SakuraIO/SakuraIOc.c ****   parity ^= p;
  91:SakuraIO/SakuraIOc.c ****   dbg("Parity=");
  92:SakuraIO/SakuraIOc.c ****   dbgln(p);
  93:SakuraIO/SakuraIOc.c ****   if(parity != 0x00){
 259              		.loc 1 93 0
 260 00fa 8045     		cmp	r8, r0
 261 00fc 00D0     		beq	.L20
  94:SakuraIO/SakuraIOc.c ****     result = CMD_ERROR_PARITY;
 262              		.loc 1 94 0
 263 00fe 0225     		movs	r5, #2
 264              	.L20:
 265              	.LVL54:
  95:SakuraIO/SakuraIOc.c ****     dbgln("Invalid parity\n");
  96:SakuraIO/SakuraIOc.c ****   }else{
  97:SakuraIO/SakuraIOc.c ****     dbgln("Success");
  98:SakuraIO/SakuraIOc.c ****   }
  99:SakuraIO/SakuraIOc.c ****   //finishReceiving();
 100:SakuraIO/SakuraIOc.c **** 
 101:SakuraIO/SakuraIOc.c ****   SakuraIOc_hw_end();
 266              		.loc 1 101 0
 267 0100 FFF7FEFF 		bl	SakuraIOc_hw_end
 268              	.LVL55:
 269              	.L15:
 102:SakuraIO/SakuraIOc.c ****   return result;
 103:SakuraIO/SakuraIOc.c **** }
 270              		.loc 1 103 0
 271 0104 2846     		mov	r0, r5
 272 0106 BDE8F087 		pop	{r4, r5, r6, r7, r8, r9, r10, pc}
 273              	.LVL56:
 274              	.L25:
 275 010a 00BF     		.align	2
 276              	.L24:
 277 010c 00000000 		.word	.LC1
 278 0110 14000000 		.word	.LC2
 279 0114 28000000 		.word	.LC3
 280 0118 44000000 		.word	.LC4
 281 011c 58000000 		.word	.LC5
 282 0120 6C000000 		.word	.LC6
 283 0124 7C000000 		.word	.LC7
 284              		.cfi_endproc
 285              	.LFE0:
 286              		.size	executeCommand, .-executeCommand
 287              		.section	.text.getConnectionStatus,"ax",%progbits
 288              		.align	2
 289              		.global	getConnectionStatus
 290              		.thumb
 291              		.thumb_func
ARM GAS  C:\Users\cronos\AppData\Local\Temp\ccrG4qtQ.s 			page 8


 292              		.type	getConnectionStatus, %function
 293              	getConnectionStatus:
 294              	.LFB1:
 104:SakuraIO/SakuraIOc.c **** 
 105:SakuraIO/SakuraIOc.c **** /* Common Commands */
 106:SakuraIO/SakuraIOc.c **** 
 107:SakuraIO/SakuraIOc.c **** uint8_t getConnectionStatus(){
 295              		.loc 1 107 0
 296              		.cfi_startproc
 297              		@ args = 0, pretend = 0, frame = 8
 298              		@ frame_needed = 0, uses_anonymous_args = 0
 299 0000 00B5     		push	{lr}
 300              		.cfi_def_cfa_offset 4
 301              		.cfi_offset 14, -4
 302 0002 85B0     		sub	sp, sp, #20
 303              		.cfi_def_cfa_offset 24
 108:SakuraIO/SakuraIOc.c ****   uint8_t responseLength = 1;
 304              		.loc 1 108 0
 305 0004 0120     		movs	r0, #1
 306 0006 8DF80F00 		strb	r0, [sp, #15]
 109:SakuraIO/SakuraIOc.c ****   uint8_t response[1] = {0x00};
 307              		.loc 1 109 0
 308 000a 0021     		movs	r1, #0
 309 000c 8DF80C10 		strb	r1, [sp, #12]
 110:SakuraIO/SakuraIOc.c ****   if(executeCommand(CMD_GET_CONNECTION_STATUS, 0, NULL, &responseLength, response) != CMD_ERROR_NON
 310              		.loc 1 110 0
 311 0010 03AB     		add	r3, sp, #12
 312 0012 0093     		str	r3, [sp]
 313 0014 0DF10F03 		add	r3, sp, #15
 314 0018 0A46     		mov	r2, r1
 315 001a FFF7FEFF 		bl	executeCommand
 316              	.LVL57:
 317 001e 0128     		cmp	r0, #1
 318 0020 02D1     		bne	.L28
 111:SakuraIO/SakuraIOc.c ****     return 0x7F;
 112:SakuraIO/SakuraIOc.c ****   }
 113:SakuraIO/SakuraIOc.c ****   return response[0];
 319              		.loc 1 113 0
 320 0022 9DF80C00 		ldrb	r0, [sp, #12]	@ zero_extendqisi2
 321 0026 00E0     		b	.L27
 322              	.L28:
 111:SakuraIO/SakuraIOc.c ****     return 0x7F;
 323              		.loc 1 111 0
 324 0028 7F20     		movs	r0, #127
 325              	.L27:
 114:SakuraIO/SakuraIOc.c **** }
 326              		.loc 1 114 0
 327 002a 05B0     		add	sp, sp, #20
 328              		.cfi_def_cfa_offset 4
 329              		@ sp needed
 330 002c 5DF804FB 		ldr	pc, [sp], #4
 331              		.cfi_endproc
 332              	.LFE1:
 333              		.size	getConnectionStatus, .-getConnectionStatus
 334              		.section	.text.getSignalQuality,"ax",%progbits
 335              		.align	2
 336              		.global	getSignalQuality
ARM GAS  C:\Users\cronos\AppData\Local\Temp\ccrG4qtQ.s 			page 9


 337              		.thumb
 338              		.thumb_func
 339              		.type	getSignalQuality, %function
 340              	getSignalQuality:
 341              	.LFB2:
 115:SakuraIO/SakuraIOc.c **** 
 116:SakuraIO/SakuraIOc.c **** uint8_t getSignalQuality(){
 342              		.loc 1 116 0
 343              		.cfi_startproc
 344              		@ args = 0, pretend = 0, frame = 8
 345              		@ frame_needed = 0, uses_anonymous_args = 0
 346 0000 00B5     		push	{lr}
 347              		.cfi_def_cfa_offset 4
 348              		.cfi_offset 14, -4
 349 0002 85B0     		sub	sp, sp, #20
 350              		.cfi_def_cfa_offset 24
 117:SakuraIO/SakuraIOc.c ****   uint8_t responseLength = 1;
 351              		.loc 1 117 0
 352 0004 0123     		movs	r3, #1
 353 0006 8DF80F30 		strb	r3, [sp, #15]
 118:SakuraIO/SakuraIOc.c ****   uint8_t response[1] = {0x00};
 354              		.loc 1 118 0
 355 000a 0021     		movs	r1, #0
 356 000c 8DF80C10 		strb	r1, [sp, #12]
 119:SakuraIO/SakuraIOc.c **** 
 120:SakuraIO/SakuraIOc.c ****   if(executeCommand(CMD_GET_SIGNAL_QUALITY, 0, NULL, &responseLength, response) != CMD_ERROR_NONE){
 357              		.loc 1 120 0
 358 0010 03AB     		add	r3, sp, #12
 359 0012 0093     		str	r3, [sp]
 360 0014 0DF10F03 		add	r3, sp, #15
 361 0018 0A46     		mov	r2, r1
 362 001a 0220     		movs	r0, #2
 363 001c FFF7FEFF 		bl	executeCommand
 364              	.LVL58:
 365 0020 0128     		cmp	r0, #1
 366 0022 02D1     		bne	.L32
 121:SakuraIO/SakuraIOc.c ****     return 0x00;
 122:SakuraIO/SakuraIOc.c ****   }
 123:SakuraIO/SakuraIOc.c ****   return response[0];
 367              		.loc 1 123 0
 368 0024 9DF80C00 		ldrb	r0, [sp, #12]	@ zero_extendqisi2
 369 0028 00E0     		b	.L31
 370              	.L32:
 121:SakuraIO/SakuraIOc.c ****     return 0x00;
 371              		.loc 1 121 0
 372 002a 0020     		movs	r0, #0
 373              	.L31:
 124:SakuraIO/SakuraIOc.c **** }
 374              		.loc 1 124 0
 375 002c 05B0     		add	sp, sp, #20
 376              		.cfi_def_cfa_offset 4
 377              		@ sp needed
 378 002e 5DF804FB 		ldr	pc, [sp], #4
 379              		.cfi_endproc
 380              	.LFE2:
 381              		.size	getSignalQuality, .-getSignalQuality
 382 0032 00BF     		.section	.text.getSignalQuarity,"ax",%progbits
ARM GAS  C:\Users\cronos\AppData\Local\Temp\ccrG4qtQ.s 			page 10


 383              		.align	2
 384              		.global	getSignalQuarity
 385              		.thumb
 386              		.thumb_func
 387              		.type	getSignalQuarity, %function
 388              	getSignalQuarity:
 389              	.LFB3:
 125:SakuraIO/SakuraIOc.c **** 
 126:SakuraIO/SakuraIOc.c **** uint8_t getSignalQuarity(){
 390              		.loc 1 126 0
 391              		.cfi_startproc
 392              		@ args = 0, pretend = 0, frame = 0
 393              		@ frame_needed = 0, uses_anonymous_args = 0
 394 0000 08B5     		push	{r3, lr}
 395              		.cfi_def_cfa_offset 8
 396              		.cfi_offset 3, -8
 397              		.cfi_offset 14, -4
 127:SakuraIO/SakuraIOc.c ****   // deprecated
 128:SakuraIO/SakuraIOc.c ****   return getSignalQuality();
 398              		.loc 1 128 0
 399 0002 FFF7FEFF 		bl	getSignalQuality
 400              	.LVL59:
 129:SakuraIO/SakuraIOc.c **** }
 401              		.loc 1 129 0
 402 0006 08BD     		pop	{r3, pc}
 403              		.cfi_endproc
 404              	.LFE3:
 405              		.size	getSignalQuarity, .-getSignalQuarity
 406              		.section	.text.getUnixtime,"ax",%progbits
 407              		.align	2
 408              		.global	getUnixtime
 409              		.thumb
 410              		.thumb_func
 411              		.type	getUnixtime, %function
 412              	getUnixtime:
 413              	.LFB4:
 130:SakuraIO/SakuraIOc.c **** 
 131:SakuraIO/SakuraIOc.c **** uint64_t getUnixtime(){
 414              		.loc 1 131 0
 415              		.cfi_startproc
 416              		@ args = 0, pretend = 0, frame = 16
 417              		@ frame_needed = 0, uses_anonymous_args = 0
 418 0000 00B5     		push	{lr}
 419              		.cfi_def_cfa_offset 4
 420              		.cfi_offset 14, -4
 421 0002 87B0     		sub	sp, sp, #28
 422              		.cfi_def_cfa_offset 32
 132:SakuraIO/SakuraIOc.c ****   uint8_t responseLength = 8;
 423              		.loc 1 132 0
 424 0004 0823     		movs	r3, #8
 425 0006 8DF81730 		strb	r3, [sp, #23]
 133:SakuraIO/SakuraIOc.c ****   uint8_t response[8] = {0x00};
 426              		.loc 1 133 0
 427 000a 03AB     		add	r3, sp, #12
 428 000c 0021     		movs	r1, #0
 429 000e 0391     		str	r1, [sp, #12]
 430 0010 0491     		str	r1, [sp, #16]
ARM GAS  C:\Users\cronos\AppData\Local\Temp\ccrG4qtQ.s 			page 11


 134:SakuraIO/SakuraIOc.c ****   if(executeCommand(CMD_GET_DATETIME, 0, NULL, &responseLength, response) != CMD_ERROR_NONE){
 431              		.loc 1 134 0
 432 0012 0093     		str	r3, [sp]
 433 0014 0DF11703 		add	r3, sp, #23
 434 0018 0A46     		mov	r2, r1
 435 001a 0320     		movs	r0, #3
 436 001c FFF7FEFF 		bl	executeCommand
 437              	.LVL60:
 438 0020 0128     		cmp	r0, #1
 439 0022 02D1     		bne	.L38
 135:SakuraIO/SakuraIOc.c ****     return 0x00;
 136:SakuraIO/SakuraIOc.c ****   }
 137:SakuraIO/SakuraIOc.c ****   return *((uint64_t *)response);
 440              		.loc 1 137 0
 441 0024 0398     		ldr	r0, [sp, #12]
 442 0026 0499     		ldr	r1, [sp, #16]
 443 0028 01E0     		b	.L37
 444              	.L38:
 135:SakuraIO/SakuraIOc.c ****     return 0x00;
 445              		.loc 1 135 0
 446 002a 0020     		movs	r0, #0
 447 002c 0146     		mov	r1, r0
 448              	.L37:
 138:SakuraIO/SakuraIOc.c **** }
 449              		.loc 1 138 0
 450 002e 07B0     		add	sp, sp, #28
 451              		.cfi_def_cfa_offset 4
 452              		@ sp needed
 453 0030 5DF804FB 		ldr	pc, [sp], #4
 454              		.cfi_endproc
 455              	.LFE4:
 456              		.size	getUnixtime, .-getUnixtime
 457              		.section	.text.echoback,"ax",%progbits
 458              		.align	2
 459              		.global	echoback
 460              		.thumb
 461              		.thumb_func
 462              		.type	echoback, %function
 463              	echoback:
 464              	.LFB5:
 139:SakuraIO/SakuraIOc.c **** 
 140:SakuraIO/SakuraIOc.c **** uint8_t echoback(uint8_t length, uint8_t *data, uint8_t *response){
 465              		.loc 1 140 0
 466              		.cfi_startproc
 467              		@ args = 0, pretend = 0, frame = 8
 468              		@ frame_needed = 0, uses_anonymous_args = 0
 469              	.LVL61:
 470 0000 00B5     		push	{lr}
 471              		.cfi_def_cfa_offset 4
 472              		.cfi_offset 14, -4
 473 0002 85B0     		sub	sp, sp, #20
 474              		.cfi_def_cfa_offset 24
 141:SakuraIO/SakuraIOc.c ****   uint8_t responseLength = length;
 475              		.loc 1 141 0
 476 0004 04AB     		add	r3, sp, #16
 477 0006 03F8010D 		strb	r0, [r3, #-1]!
 142:SakuraIO/SakuraIOc.c ****   if(executeCommand(CMD_ECHO_BACK, length, data, &responseLength, response) != CMD_ERROR_NONE){
ARM GAS  C:\Users\cronos\AppData\Local\Temp\ccrG4qtQ.s 			page 12


 478              		.loc 1 142 0
 479 000a 0092     		str	r2, [sp]
 480 000c 0A46     		mov	r2, r1
 481              	.LVL62:
 482 000e 0146     		mov	r1, r0
 483              	.LVL63:
 484 0010 0F20     		movs	r0, #15
 485              	.LVL64:
 486 0012 FFF7FEFF 		bl	executeCommand
 487              	.LVL65:
 488 0016 0128     		cmp	r0, #1
 489 0018 02D1     		bne	.L42
 143:SakuraIO/SakuraIOc.c ****     return 0x00;
 144:SakuraIO/SakuraIOc.c ****   }
 145:SakuraIO/SakuraIOc.c ****   return responseLength;
 490              		.loc 1 145 0
 491 001a 9DF80F00 		ldrb	r0, [sp, #15]	@ zero_extendqisi2
 492 001e 00E0     		b	.L41
 493              	.L42:
 143:SakuraIO/SakuraIOc.c ****     return 0x00;
 494              		.loc 1 143 0
 495 0020 0020     		movs	r0, #0
 496              	.L41:
 146:SakuraIO/SakuraIOc.c **** }
 497              		.loc 1 146 0
 498 0022 05B0     		add	sp, sp, #20
 499              		.cfi_def_cfa_offset 4
 500              		@ sp needed
 501 0024 5DF804FB 		ldr	pc, [sp], #4
 502              		.cfi_endproc
 503              	.LFE5:
 504              		.size	echoback, .-echoback
 505              		.section	.text.getADC,"ax",%progbits
 506              		.align	2
 507              		.global	getADC
 508              		.thumb
 509              		.thumb_func
 510              		.type	getADC, %function
 511              	getADC:
 512              	.LFB6:
 147:SakuraIO/SakuraIOc.c **** 
 148:SakuraIO/SakuraIOc.c **** /* IO Commands */
 149:SakuraIO/SakuraIOc.c **** 
 150:SakuraIO/SakuraIOc.c **** uint16_t getADC(uint8_t channel){
 513              		.loc 1 150 0
 514              		.cfi_startproc
 515              		@ args = 0, pretend = 0, frame = 16
 516              		@ frame_needed = 0, uses_anonymous_args = 0
 517              	.LVL66:
 518 0000 00B5     		push	{lr}
 519              		.cfi_def_cfa_offset 4
 520              		.cfi_offset 14, -4
 521 0002 87B0     		sub	sp, sp, #28
 522              		.cfi_def_cfa_offset 32
 151:SakuraIO/SakuraIOc.c ****   uint8_t request[1] = {channel};
 523              		.loc 1 151 0
 524 0004 8DF81400 		strb	r0, [sp, #20]
ARM GAS  C:\Users\cronos\AppData\Local\Temp\ccrG4qtQ.s 			page 13


 152:SakuraIO/SakuraIOc.c ****   uint8_t response[2] = {0x00};
 525              		.loc 1 152 0
 526 0008 0023     		movs	r3, #0
 527 000a ADF81030 		strh	r3, [sp, #16]	@ movhi
 153:SakuraIO/SakuraIOc.c ****   uint8_t responseLength = sizeof(response);
 528              		.loc 1 153 0
 529 000e 06AB     		add	r3, sp, #24
 530 0010 0222     		movs	r2, #2
 531 0012 03F8092D 		strb	r2, [r3, #-9]!
 154:SakuraIO/SakuraIOc.c ****   if(executeCommand(CMD_READ_ADC, 1, request, &responseLength, response) != CMD_ERROR_NONE){
 532              		.loc 1 154 0
 533 0016 04AA     		add	r2, sp, #16
 534 0018 0092     		str	r2, [sp]
 535 001a 05AA     		add	r2, sp, #20
 536 001c 0121     		movs	r1, #1
 537 001e 1020     		movs	r0, #16
 538              	.LVL67:
 539 0020 FFF7FEFF 		bl	executeCommand
 540              	.LVL68:
 541 0024 0128     		cmp	r0, #1
 542 0026 02D1     		bne	.L46
 155:SakuraIO/SakuraIOc.c ****     return 0xffff;
 156:SakuraIO/SakuraIOc.c ****   }
 157:SakuraIO/SakuraIOc.c ****   return *((uint16_t *)response);
 543              		.loc 1 157 0
 544 0028 BDF81000 		ldrh	r0, [sp, #16]
 545 002c 01E0     		b	.L45
 546              	.L46:
 155:SakuraIO/SakuraIOc.c ****     return 0xffff;
 547              		.loc 1 155 0
 548 002e 4FF6FF70 		movw	r0, #65535
 549              	.L45:
 158:SakuraIO/SakuraIOc.c **** }
 550              		.loc 1 158 0
 551 0032 07B0     		add	sp, sp, #28
 552              		.cfi_def_cfa_offset 4
 553              		@ sp needed
 554 0034 5DF804FB 		ldr	pc, [sp], #4
 555              		.cfi_endproc
 556              	.LFE6:
 557              		.size	getADC, .-getADC
 558              		.section	.text.enqueueTxRaw,"ax",%progbits
 559              		.align	2
 560              		.global	enqueueTxRaw
 561              		.thumb
 562              		.thumb_func
 563              		.type	enqueueTxRaw, %function
 564              	enqueueTxRaw:
 565              	.LFB7:
 159:SakuraIO/SakuraIOc.c **** 
 160:SakuraIO/SakuraIOc.c **** /* TX Commands */
 161:SakuraIO/SakuraIOc.c **** uint8_t enqueueTxRaw(uint8_t ch, uint8_t type, uint8_t length, uint8_t *data, uint64_t offset){
 566              		.loc 1 161 0
 567              		.cfi_startproc
 568              		@ args = 8, pretend = 0, frame = 24
 569              		@ frame_needed = 0, uses_anonymous_args = 0
 570              	.LVL69:
ARM GAS  C:\Users\cronos\AppData\Local\Temp\ccrG4qtQ.s 			page 14


 571 0000 10B5     		push	{r4, lr}
 572              		.cfi_def_cfa_offset 8
 573              		.cfi_offset 4, -8
 574              		.cfi_offset 14, -4
 575 0002 88B0     		sub	sp, sp, #32
 576              		.cfi_def_cfa_offset 40
 162:SakuraIO/SakuraIOc.c ****   uint8_t request[18] = {0x00};
 577              		.loc 1 162 0
 578 0004 0024     		movs	r4, #0
 579 0006 0394     		str	r4, [sp, #12]
 580 0008 0494     		str	r4, [sp, #16]
 581 000a 0594     		str	r4, [sp, #20]
 582 000c 0694     		str	r4, [sp, #24]
 583 000e ADF81C40 		strh	r4, [sp, #28]	@ movhi
 584              	.LVL70:
 163:SakuraIO/SakuraIOc.c ****   uint8_t requestLength = 10;
 164:SakuraIO/SakuraIOc.c ****   request[0] = ch;
 585              		.loc 1 164 0
 586 0012 8DF80C00 		strb	r0, [sp, #12]
 165:SakuraIO/SakuraIOc.c ****   request[1] = type;
 587              		.loc 1 165 0
 588 0016 8DF80D10 		strb	r1, [sp, #13]
 589              	.LVL71:
 590              	.LBB4:
 166:SakuraIO/SakuraIOc.c ****   for(uint8_t i=0;i<length;i++){
 591              		.loc 1 166 0
 592 001a 2146     		mov	r1, r4
 593              	.LVL72:
 594 001c 08E0     		b	.L49
 595              	.LVL73:
 596              	.L50:
 167:SakuraIO/SakuraIOc.c ****     request[2+i] = data[i];
 597              		.loc 1 167 0 discriminator 3
 598 001e 881C     		adds	r0, r1, #2
 599 0020 5C5C     		ldrb	r4, [r3, r1]	@ zero_extendqisi2
 600 0022 0DF1200E 		add	lr, sp, #32
 601 0026 7044     		add	r0, r0, lr
 602 0028 00F8144C 		strb	r4, [r0, #-20]
 166:SakuraIO/SakuraIOc.c ****   for(uint8_t i=0;i<length;i++){
 603              		.loc 1 166 0 discriminator 3
 604 002c 0131     		adds	r1, r1, #1
 605              	.LVL74:
 606 002e C9B2     		uxtb	r1, r1
 607              	.LVL75:
 608              	.L49:
 166:SakuraIO/SakuraIOc.c ****   for(uint8_t i=0;i<length;i++){
 609              		.loc 1 166 0 is_stmt 0 discriminator 1
 610 0030 9142     		cmp	r1, r2
 611 0032 F4D3     		bcc	.L50
 612              	.LBE4:
 168:SakuraIO/SakuraIOc.c ****   }
 169:SakuraIO/SakuraIOc.c ****   if(offset != 0){
 613              		.loc 1 169 0 is_stmt 1
 614 0034 DDE90A23 		ldrd	r2, [sp, #40]
 615              	.LVL76:
 616 0038 1343     		orrs	r3, r2, r3
 617              	.LVL77:
ARM GAS  C:\Users\cronos\AppData\Local\Temp\ccrG4qtQ.s 			page 15


 618 003a 0CD1     		bne	.L54
 163:SakuraIO/SakuraIOc.c ****   request[0] = ch;
 619              		.loc 1 163 0
 620 003c 0A21     		movs	r1, #10
 621              	.LVL78:
 622 003e 0EE0     		b	.L52
 623              	.LVL79:
 624              	.L53:
 625              	.LBB5:
 170:SakuraIO/SakuraIOc.c ****     requestLength = 18;
 171:SakuraIO/SakuraIOc.c ****     for(uint8_t i=0;i<8;i++){
 172:SakuraIO/SakuraIOc.c ****       request[10+i] = ((uint8_t *)&offset)[i];
 626              		.loc 1 172 0 discriminator 3
 627 0040 03F10A02 		add	r2, r3, #10
 628 0044 0AA9     		add	r1, sp, #40
 629              	.LVL80:
 630 0046 C95C     		ldrb	r1, [r1, r3]	@ zero_extendqisi2
 631              	.LVL81:
 632 0048 08A8     		add	r0, sp, #32
 633 004a 0244     		add	r2, r2, r0
 634 004c 02F8141C 		strb	r1, [r2, #-20]
 171:SakuraIO/SakuraIOc.c ****       request[10+i] = ((uint8_t *)&offset)[i];
 635              		.loc 1 171 0 discriminator 3
 636 0050 0133     		adds	r3, r3, #1
 637              	.LVL82:
 638 0052 DBB2     		uxtb	r3, r3
 639              	.LVL83:
 640 0054 00E0     		b	.L51
 641              	.LVL84:
 642              	.L54:
 643              	.LBE5:
 644 0056 0023     		movs	r3, #0
 645              	.LVL85:
 646              	.L51:
 647              	.LBB6:
 171:SakuraIO/SakuraIOc.c ****       request[10+i] = ((uint8_t *)&offset)[i];
 648              		.loc 1 171 0 is_stmt 0 discriminator 1
 649 0058 072B     		cmp	r3, #7
 650 005a F1D9     		bls	.L53
 651              	.LBE6:
 170:SakuraIO/SakuraIOc.c ****     requestLength = 18;
 652              		.loc 1 170 0 is_stmt 1
 653 005c 1221     		movs	r1, #18
 654              	.LVL86:
 655              	.L52:
 173:SakuraIO/SakuraIOc.c ****     }
 174:SakuraIO/SakuraIOc.c ****   }
 175:SakuraIO/SakuraIOc.c ****   return executeCommand(CMD_TX_ENQUEUE, requestLength, request, NULL, NULL);
 656              		.loc 1 175 0
 657 005e 0023     		movs	r3, #0
 658 0060 0093     		str	r3, [sp]
 659 0062 03AA     		add	r2, sp, #12
 660 0064 2020     		movs	r0, #32
 661 0066 FFF7FEFF 		bl	executeCommand
 662              	.LVL87:
 176:SakuraIO/SakuraIOc.c **** }
 663              		.loc 1 176 0
ARM GAS  C:\Users\cronos\AppData\Local\Temp\ccrG4qtQ.s 			page 16


 664 006a 08B0     		add	sp, sp, #32
 665              		.cfi_def_cfa_offset 8
 666              		@ sp needed
 667 006c 10BD     		pop	{r4, pc}
 668              		.cfi_endproc
 669              	.LFE7:
 670              		.size	enqueueTxRaw, .-enqueueTxRaw
 671 006e 00BF     		.section	.text.enqueueTx2_i32,"ax",%progbits
 672              		.align	2
 673              		.global	enqueueTx2_i32
 674              		.thumb
 675              		.thumb_func
 676              		.type	enqueueTx2_i32, %function
 677              	enqueueTx2_i32:
 678              	.LFB8:
 177:SakuraIO/SakuraIOc.c **** 
 178:SakuraIO/SakuraIOc.c **** uint8_t enqueueTx2_i32(uint8_t ch, int32_t value, uint64_t offset){
 679              		.loc 1 178 0
 680              		.cfi_startproc
 681              		@ args = 0, pretend = 0, frame = 8
 682              		@ frame_needed = 0, uses_anonymous_args = 0
 683              	.LVL88:
 684 0000 10B5     		push	{r4, lr}
 685              		.cfi_def_cfa_offset 8
 686              		.cfi_offset 4, -8
 687              		.cfi_offset 14, -4
 688 0002 84B0     		sub	sp, sp, #16
 689              		.cfi_def_cfa_offset 24
 690 0004 04AC     		add	r4, sp, #16
 691 0006 44F8041D 		str	r1, [r4, #-4]!
 179:SakuraIO/SakuraIOc.c ****   return enqueueTxRaw(ch, 'i', 4, (uint8_t *)&value, offset);
 692              		.loc 1 179 0
 693 000a CDE90023 		strd	r2, [sp]
 694 000e 2346     		mov	r3, r4
 695 0010 0422     		movs	r2, #4
 696              	.LVL89:
 697 0012 6921     		movs	r1, #105
 698              	.LVL90:
 699 0014 FFF7FEFF 		bl	enqueueTxRaw
 700              	.LVL91:
 180:SakuraIO/SakuraIOc.c **** }
 701              		.loc 1 180 0
 702 0018 04B0     		add	sp, sp, #16
 703              		.cfi_def_cfa_offset 8
 704              		@ sp needed
 705 001a 10BD     		pop	{r4, pc}
 706              		.cfi_endproc
 707              	.LFE8:
 708              		.size	enqueueTx2_i32, .-enqueueTx2_i32
 709              		.section	.text.enqueueTx2_ui32,"ax",%progbits
 710              		.align	2
 711              		.global	enqueueTx2_ui32
 712              		.thumb
 713              		.thumb_func
 714              		.type	enqueueTx2_ui32, %function
 715              	enqueueTx2_ui32:
 716              	.LFB9:
ARM GAS  C:\Users\cronos\AppData\Local\Temp\ccrG4qtQ.s 			page 17


 181:SakuraIO/SakuraIOc.c **** 
 182:SakuraIO/SakuraIOc.c **** uint8_t enqueueTx2_ui32(uint8_t ch, uint32_t value, uint64_t offset){
 717              		.loc 1 182 0
 718              		.cfi_startproc
 719              		@ args = 0, pretend = 0, frame = 8
 720              		@ frame_needed = 0, uses_anonymous_args = 0
 721              	.LVL92:
 722 0000 10B5     		push	{r4, lr}
 723              		.cfi_def_cfa_offset 8
 724              		.cfi_offset 4, -8
 725              		.cfi_offset 14, -4
 726 0002 84B0     		sub	sp, sp, #16
 727              		.cfi_def_cfa_offset 24
 728 0004 04AC     		add	r4, sp, #16
 729 0006 44F8041D 		str	r1, [r4, #-4]!
 183:SakuraIO/SakuraIOc.c ****   return enqueueTxRaw(ch, 'I', 4, (uint8_t *)&value, offset);
 730              		.loc 1 183 0
 731 000a CDE90023 		strd	r2, [sp]
 732 000e 2346     		mov	r3, r4
 733 0010 0422     		movs	r2, #4
 734              	.LVL93:
 735 0012 4921     		movs	r1, #73
 736              	.LVL94:
 737 0014 FFF7FEFF 		bl	enqueueTxRaw
 738              	.LVL95:
 184:SakuraIO/SakuraIOc.c **** }
 739              		.loc 1 184 0
 740 0018 04B0     		add	sp, sp, #16
 741              		.cfi_def_cfa_offset 8
 742              		@ sp needed
 743 001a 10BD     		pop	{r4, pc}
 744              		.cfi_endproc
 745              	.LFE9:
 746              		.size	enqueueTx2_ui32, .-enqueueTx2_ui32
 747              		.section	.text.enqueueTx2_i64,"ax",%progbits
 748              		.align	2
 749              		.global	enqueueTx2_i64
 750              		.thumb
 751              		.thumb_func
 752              		.type	enqueueTx2_i64, %function
 753              	enqueueTx2_i64:
 754              	.LFB10:
 185:SakuraIO/SakuraIOc.c **** 
 186:SakuraIO/SakuraIOc.c **** uint8_t enqueueTx2_i64(uint8_t ch, int64_t value, uint64_t offset){
 755              		.loc 1 186 0
 756              		.cfi_startproc
 757              		@ args = 8, pretend = 0, frame = 8
 758              		@ frame_needed = 0, uses_anonymous_args = 0
 759              	.LVL96:
 760 0000 00B5     		push	{lr}
 761              		.cfi_def_cfa_offset 4
 762              		.cfi_offset 14, -4
 763 0002 85B0     		sub	sp, sp, #20
 764              		.cfi_def_cfa_offset 24
 765 0004 04A9     		add	r1, sp, #16
 766 0006 61E90223 		strd	r2, [r1, #-8]!
 187:SakuraIO/SakuraIOc.c ****   return enqueueTxRaw(ch, 'l', 8, (uint8_t *)&value, offset);
ARM GAS  C:\Users\cronos\AppData\Local\Temp\ccrG4qtQ.s 			page 18


 767              		.loc 1 187 0
 768 000a DDE90623 		ldrd	r2, [sp, #24]
 769              	.LVL97:
 770 000e CDE90023 		strd	r2, [sp]
 771 0012 0B46     		mov	r3, r1
 772 0014 0822     		movs	r2, #8
 773 0016 6C21     		movs	r1, #108
 774              	.LVL98:
 775 0018 FFF7FEFF 		bl	enqueueTxRaw
 776              	.LVL99:
 188:SakuraIO/SakuraIOc.c **** }
 777              		.loc 1 188 0
 778 001c 05B0     		add	sp, sp, #20
 779              		.cfi_def_cfa_offset 4
 780              		@ sp needed
 781 001e 5DF804FB 		ldr	pc, [sp], #4
 782              		.cfi_endproc
 783              	.LFE10:
 784              		.size	enqueueTx2_i64, .-enqueueTx2_i64
 785 0022 00BF     		.section	.text.enqueueTx2_ui64,"ax",%progbits
 786              		.align	2
 787              		.global	enqueueTx2_ui64
 788              		.thumb
 789              		.thumb_func
 790              		.type	enqueueTx2_ui64, %function
 791              	enqueueTx2_ui64:
 792              	.LFB11:
 189:SakuraIO/SakuraIOc.c **** 
 190:SakuraIO/SakuraIOc.c **** uint8_t enqueueTx2_ui64(uint8_t ch, uint64_t value, uint64_t offset){
 793              		.loc 1 190 0
 794              		.cfi_startproc
 795              		@ args = 8, pretend = 0, frame = 8
 796              		@ frame_needed = 0, uses_anonymous_args = 0
 797              	.LVL100:
 798 0000 00B5     		push	{lr}
 799              		.cfi_def_cfa_offset 4
 800              		.cfi_offset 14, -4
 801 0002 85B0     		sub	sp, sp, #20
 802              		.cfi_def_cfa_offset 24
 803 0004 04A9     		add	r1, sp, #16
 804 0006 61E90223 		strd	r2, [r1, #-8]!
 191:SakuraIO/SakuraIOc.c ****   return enqueueTxRaw(ch, 'L', 8, (uint8_t *)&value, offset);
 805              		.loc 1 191 0
 806 000a DDE90623 		ldrd	r2, [sp, #24]
 807              	.LVL101:
 808 000e CDE90023 		strd	r2, [sp]
 809 0012 0B46     		mov	r3, r1
 810 0014 0822     		movs	r2, #8
 811 0016 4C21     		movs	r1, #76
 812              	.LVL102:
 813 0018 FFF7FEFF 		bl	enqueueTxRaw
 814              	.LVL103:
 192:SakuraIO/SakuraIOc.c **** }
 815              		.loc 1 192 0
 816 001c 05B0     		add	sp, sp, #20
 817              		.cfi_def_cfa_offset 4
 818              		@ sp needed
ARM GAS  C:\Users\cronos\AppData\Local\Temp\ccrG4qtQ.s 			page 19


 819 001e 5DF804FB 		ldr	pc, [sp], #4
 820              		.cfi_endproc
 821              	.LFE11:
 822              		.size	enqueueTx2_ui64, .-enqueueTx2_ui64
 823 0022 00BF     		.section	.text.enqueueTx2_f,"ax",%progbits
 824              		.align	2
 825              		.global	enqueueTx2_f
 826              		.thumb
 827              		.thumb_func
 828              		.type	enqueueTx2_f, %function
 829              	enqueueTx2_f:
 830              	.LFB12:
 193:SakuraIO/SakuraIOc.c **** 
 194:SakuraIO/SakuraIOc.c **** uint8_t enqueueTx2_f(uint8_t ch, float value, uint64_t offset){
 831              		.loc 1 194 0
 832              		.cfi_startproc
 833              		@ args = 0, pretend = 0, frame = 8
 834              		@ frame_needed = 0, uses_anonymous_args = 0
 835              	.LVL104:
 836 0000 10B5     		push	{r4, lr}
 837              		.cfi_def_cfa_offset 8
 838              		.cfi_offset 4, -8
 839              		.cfi_offset 14, -4
 840 0002 84B0     		sub	sp, sp, #16
 841              		.cfi_def_cfa_offset 24
 842 0004 04AC     		add	r4, sp, #16
 843 0006 44F8041D 		str	r1, [r4, #-4]!	@ float
 195:SakuraIO/SakuraIOc.c ****   return enqueueTxRaw(ch, 'f', 4, (uint8_t *)&value, offset);
 844              		.loc 1 195 0
 845 000a CDE90023 		strd	r2, [sp]
 846 000e 2346     		mov	r3, r4
 847 0010 0422     		movs	r2, #4
 848              	.LVL105:
 849 0012 6621     		movs	r1, #102
 850              	.LVL106:
 851 0014 FFF7FEFF 		bl	enqueueTxRaw
 852              	.LVL107:
 196:SakuraIO/SakuraIOc.c **** }
 853              		.loc 1 196 0
 854 0018 04B0     		add	sp, sp, #16
 855              		.cfi_def_cfa_offset 8
 856              		@ sp needed
 857 001a 10BD     		pop	{r4, pc}
 858              		.cfi_endproc
 859              	.LFE12:
 860              		.size	enqueueTx2_f, .-enqueueTx2_f
 861              		.section	.text.enqueueTx2_d,"ax",%progbits
 862              		.align	2
 863              		.global	enqueueTx2_d
 864              		.thumb
 865              		.thumb_func
 866              		.type	enqueueTx2_d, %function
 867              	enqueueTx2_d:
 868              	.LFB13:
 197:SakuraIO/SakuraIOc.c **** 
 198:SakuraIO/SakuraIOc.c **** uint8_t enqueueTx2_d(uint8_t ch, double value, uint64_t offset){
 869              		.loc 1 198 0
ARM GAS  C:\Users\cronos\AppData\Local\Temp\ccrG4qtQ.s 			page 20


 870              		.cfi_startproc
 871              		@ args = 8, pretend = 0, frame = 8
 872              		@ frame_needed = 0, uses_anonymous_args = 0
 873              	.LVL108:
 874 0000 00B5     		push	{lr}
 875              		.cfi_def_cfa_offset 4
 876              		.cfi_offset 14, -4
 877 0002 85B0     		sub	sp, sp, #20
 878              		.cfi_def_cfa_offset 24
 879 0004 04A9     		add	r1, sp, #16
 880 0006 61E90223 		strd	r2, [r1, #-8]!
 199:SakuraIO/SakuraIOc.c ****   return enqueueTxRaw(ch, 'd', 8, (uint8_t *)&value, offset);
 881              		.loc 1 199 0
 882 000a DDE90623 		ldrd	r2, [sp, #24]
 883              	.LVL109:
 884 000e CDE90023 		strd	r2, [sp]
 885 0012 0B46     		mov	r3, r1
 886 0014 0822     		movs	r2, #8
 887 0016 6421     		movs	r1, #100
 888              	.LVL110:
 889 0018 FFF7FEFF 		bl	enqueueTxRaw
 890              	.LVL111:
 200:SakuraIO/SakuraIOc.c **** }
 891              		.loc 1 200 0
 892 001c 05B0     		add	sp, sp, #20
 893              		.cfi_def_cfa_offset 4
 894              		@ sp needed
 895 001e 5DF804FB 		ldr	pc, [sp], #4
 896              		.cfi_endproc
 897              	.LFE13:
 898              		.size	enqueueTx2_d, .-enqueueTx2_d
 899 0022 00BF     		.section	.text.enqueueTx2_ui8a,"ax",%progbits
 900              		.align	2
 901              		.global	enqueueTx2_ui8a
 902              		.thumb
 903              		.thumb_func
 904              		.type	enqueueTx2_ui8a, %function
 905              	enqueueTx2_ui8a:
 906              	.LFB14:
 201:SakuraIO/SakuraIOc.c **** 
 202:SakuraIO/SakuraIOc.c **** uint8_t enqueueTx2_ui8a(uint8_t ch, uint8_t value[8], uint64_t offset){
 907              		.loc 1 202 0
 908              		.cfi_startproc
 909              		@ args = 0, pretend = 0, frame = 0
 910              		@ frame_needed = 0, uses_anonymous_args = 0
 911              	.LVL112:
 912 0000 00B5     		push	{lr}
 913              		.cfi_def_cfa_offset 4
 914              		.cfi_offset 14, -4
 915 0002 83B0     		sub	sp, sp, #12
 916              		.cfi_def_cfa_offset 16
 203:SakuraIO/SakuraIOc.c ****   return enqueueTxRaw(ch, 'b', 8, (uint8_t *)value, offset);
 917              		.loc 1 203 0
 918 0004 CDE90023 		strd	r2, [sp]
 919 0008 0B46     		mov	r3, r1
 920 000a 0822     		movs	r2, #8
 921              	.LVL113:
ARM GAS  C:\Users\cronos\AppData\Local\Temp\ccrG4qtQ.s 			page 21


 922 000c 6221     		movs	r1, #98
 923              	.LVL114:
 924 000e FFF7FEFF 		bl	enqueueTxRaw
 925              	.LVL115:
 204:SakuraIO/SakuraIOc.c **** }
 926              		.loc 1 204 0
 927 0012 03B0     		add	sp, sp, #12
 928              		.cfi_def_cfa_offset 4
 929              		@ sp needed
 930 0014 5DF804FB 		ldr	pc, [sp], #4
 931              		.cfi_endproc
 932              	.LFE14:
 933              		.size	enqueueTx2_ui8a, .-enqueueTx2_ui8a
 934              		.section	.text.enqueueTx_i32,"ax",%progbits
 935              		.align	2
 936              		.global	enqueueTx_i32
 937              		.thumb
 938              		.thumb_func
 939              		.type	enqueueTx_i32, %function
 940              	enqueueTx_i32:
 941              	.LFB15:
 205:SakuraIO/SakuraIOc.c **** 
 206:SakuraIO/SakuraIOc.c **** uint8_t enqueueTx_i32(uint8_t ch, int32_t value){
 942              		.loc 1 206 0
 943              		.cfi_startproc
 944              		@ args = 0, pretend = 0, frame = 0
 945              		@ frame_needed = 0, uses_anonymous_args = 0
 946              	.LVL116:
 947 0000 08B5     		push	{r3, lr}
 948              		.cfi_def_cfa_offset 8
 949              		.cfi_offset 3, -8
 950              		.cfi_offset 14, -4
 207:SakuraIO/SakuraIOc.c ****   return enqueueTx2_i32(ch, value, UINT32_C(0));
 951              		.loc 1 207 0
 952 0002 0022     		movs	r2, #0
 953 0004 0023     		movs	r3, #0
 954 0006 FFF7FEFF 		bl	enqueueTx2_i32
 955              	.LVL117:
 208:SakuraIO/SakuraIOc.c **** }
 956              		.loc 1 208 0
 957 000a 08BD     		pop	{r3, pc}
 958              		.cfi_endproc
 959              	.LFE15:
 960              		.size	enqueueTx_i32, .-enqueueTx_i32
 961              		.section	.text.enqueueTx_ui32,"ax",%progbits
 962              		.align	2
 963              		.global	enqueueTx_ui32
 964              		.thumb
 965              		.thumb_func
 966              		.type	enqueueTx_ui32, %function
 967              	enqueueTx_ui32:
 968              	.LFB16:
 209:SakuraIO/SakuraIOc.c **** 
 210:SakuraIO/SakuraIOc.c **** uint8_t enqueueTx_ui32(uint8_t ch, uint32_t value){
 969              		.loc 1 210 0
 970              		.cfi_startproc
 971              		@ args = 0, pretend = 0, frame = 0
ARM GAS  C:\Users\cronos\AppData\Local\Temp\ccrG4qtQ.s 			page 22


 972              		@ frame_needed = 0, uses_anonymous_args = 0
 973              	.LVL118:
 974 0000 08B5     		push	{r3, lr}
 975              		.cfi_def_cfa_offset 8
 976              		.cfi_offset 3, -8
 977              		.cfi_offset 14, -4
 211:SakuraIO/SakuraIOc.c ****   return enqueueTx2_ui32(ch, value, UINT32_C(0));
 978              		.loc 1 211 0
 979 0002 0022     		movs	r2, #0
 980 0004 0023     		movs	r3, #0
 981 0006 FFF7FEFF 		bl	enqueueTx2_ui32
 982              	.LVL119:
 212:SakuraIO/SakuraIOc.c **** }
 983              		.loc 1 212 0
 984 000a 08BD     		pop	{r3, pc}
 985              		.cfi_endproc
 986              	.LFE16:
 987              		.size	enqueueTx_ui32, .-enqueueTx_ui32
 988              		.section	.text.enqueueTx_i64,"ax",%progbits
 989              		.align	2
 990              		.global	enqueueTx_i64
 991              		.thumb
 992              		.thumb_func
 993              		.type	enqueueTx_i64, %function
 994              	enqueueTx_i64:
 995              	.LFB17:
 213:SakuraIO/SakuraIOc.c **** 
 214:SakuraIO/SakuraIOc.c **** uint8_t enqueueTx_i64(uint8_t ch, int64_t value){
 996              		.loc 1 214 0
 997              		.cfi_startproc
 998              		@ args = 0, pretend = 0, frame = 0
 999              		@ frame_needed = 0, uses_anonymous_args = 0
 1000              	.LVL120:
 1001 0000 30B5     		push	{r4, r5, lr}
 1002              		.cfi_def_cfa_offset 12
 1003              		.cfi_offset 4, -12
 1004              		.cfi_offset 5, -8
 1005              		.cfi_offset 14, -4
 1006 0002 83B0     		sub	sp, sp, #12
 1007              		.cfi_def_cfa_offset 24
 215:SakuraIO/SakuraIOc.c ****   return enqueueTx2_i64(ch, value, UINT32_C(0));
 1008              		.loc 1 215 0
 1009 0004 0024     		movs	r4, #0
 1010 0006 0025     		movs	r5, #0
 1011 0008 CDE90045 		strd	r4, [sp]
 1012 000c FFF7FEFF 		bl	enqueueTx2_i64
 1013              	.LVL121:
 216:SakuraIO/SakuraIOc.c **** }
 1014              		.loc 1 216 0
 1015 0010 03B0     		add	sp, sp, #12
 1016              		.cfi_def_cfa_offset 12
 1017              		@ sp needed
 1018 0012 30BD     		pop	{r4, r5, pc}
 1019              		.cfi_endproc
 1020              	.LFE17:
 1021              		.size	enqueueTx_i64, .-enqueueTx_i64
 1022              		.section	.text.enqueueTx_ui64,"ax",%progbits
ARM GAS  C:\Users\cronos\AppData\Local\Temp\ccrG4qtQ.s 			page 23


 1023              		.align	2
 1024              		.global	enqueueTx_ui64
 1025              		.thumb
 1026              		.thumb_func
 1027              		.type	enqueueTx_ui64, %function
 1028              	enqueueTx_ui64:
 1029              	.LFB18:
 217:SakuraIO/SakuraIOc.c **** 
 218:SakuraIO/SakuraIOc.c **** uint8_t enqueueTx_ui64(uint8_t ch, uint64_t value){
 1030              		.loc 1 218 0
 1031              		.cfi_startproc
 1032              		@ args = 0, pretend = 0, frame = 0
 1033              		@ frame_needed = 0, uses_anonymous_args = 0
 1034              	.LVL122:
 1035 0000 30B5     		push	{r4, r5, lr}
 1036              		.cfi_def_cfa_offset 12
 1037              		.cfi_offset 4, -12
 1038              		.cfi_offset 5, -8
 1039              		.cfi_offset 14, -4
 1040 0002 83B0     		sub	sp, sp, #12
 1041              		.cfi_def_cfa_offset 24
 219:SakuraIO/SakuraIOc.c ****   return enqueueTx2_ui64(ch, value, UINT32_C(0));
 1042              		.loc 1 219 0
 1043 0004 0024     		movs	r4, #0
 1044 0006 0025     		movs	r5, #0
 1045 0008 CDE90045 		strd	r4, [sp]
 1046 000c FFF7FEFF 		bl	enqueueTx2_ui64
 1047              	.LVL123:
 220:SakuraIO/SakuraIOc.c **** }
 1048              		.loc 1 220 0
 1049 0010 03B0     		add	sp, sp, #12
 1050              		.cfi_def_cfa_offset 12
 1051              		@ sp needed
 1052 0012 30BD     		pop	{r4, r5, pc}
 1053              		.cfi_endproc
 1054              	.LFE18:
 1055              		.size	enqueueTx_ui64, .-enqueueTx_ui64
 1056              		.section	.text.enqueueTx_f,"ax",%progbits
 1057              		.align	2
 1058              		.global	enqueueTx_f
 1059              		.thumb
 1060              		.thumb_func
 1061              		.type	enqueueTx_f, %function
 1062              	enqueueTx_f:
 1063              	.LFB19:
 221:SakuraIO/SakuraIOc.c **** 
 222:SakuraIO/SakuraIOc.c **** uint8_t enqueueTx_f(uint8_t ch, float value){
 1064              		.loc 1 222 0
 1065              		.cfi_startproc
 1066              		@ args = 0, pretend = 0, frame = 0
 1067              		@ frame_needed = 0, uses_anonymous_args = 0
 1068              	.LVL124:
 1069 0000 08B5     		push	{r3, lr}
 1070              		.cfi_def_cfa_offset 8
 1071              		.cfi_offset 3, -8
 1072              		.cfi_offset 14, -4
 223:SakuraIO/SakuraIOc.c ****   return enqueueTx2_f(ch, value, UINT32_C(0));
ARM GAS  C:\Users\cronos\AppData\Local\Temp\ccrG4qtQ.s 			page 24


 1073              		.loc 1 223 0
 1074 0002 0022     		movs	r2, #0
 1075 0004 0023     		movs	r3, #0
 1076 0006 FFF7FEFF 		bl	enqueueTx2_f
 1077              	.LVL125:
 224:SakuraIO/SakuraIOc.c **** }
 1078              		.loc 1 224 0
 1079 000a 08BD     		pop	{r3, pc}
 1080              		.cfi_endproc
 1081              	.LFE19:
 1082              		.size	enqueueTx_f, .-enqueueTx_f
 1083              		.section	.text.enqueueTx_d,"ax",%progbits
 1084              		.align	2
 1085              		.global	enqueueTx_d
 1086              		.thumb
 1087              		.thumb_func
 1088              		.type	enqueueTx_d, %function
 1089              	enqueueTx_d:
 1090              	.LFB20:
 225:SakuraIO/SakuraIOc.c **** 
 226:SakuraIO/SakuraIOc.c **** uint8_t enqueueTx_d(uint8_t ch, double value){
 1091              		.loc 1 226 0
 1092              		.cfi_startproc
 1093              		@ args = 0, pretend = 0, frame = 0
 1094              		@ frame_needed = 0, uses_anonymous_args = 0
 1095              	.LVL126:
 1096 0000 30B5     		push	{r4, r5, lr}
 1097              		.cfi_def_cfa_offset 12
 1098              		.cfi_offset 4, -12
 1099              		.cfi_offset 5, -8
 1100              		.cfi_offset 14, -4
 1101 0002 83B0     		sub	sp, sp, #12
 1102              		.cfi_def_cfa_offset 24
 227:SakuraIO/SakuraIOc.c ****   return enqueueTx2_d(ch, value, UINT32_C(0));
 1103              		.loc 1 227 0
 1104 0004 0024     		movs	r4, #0
 1105 0006 0025     		movs	r5, #0
 1106 0008 CDE90045 		strd	r4, [sp]
 1107 000c FFF7FEFF 		bl	enqueueTx2_d
 1108              	.LVL127:
 228:SakuraIO/SakuraIOc.c **** }
 1109              		.loc 1 228 0
 1110 0010 03B0     		add	sp, sp, #12
 1111              		.cfi_def_cfa_offset 12
 1112              		@ sp needed
 1113 0012 30BD     		pop	{r4, r5, pc}
 1114              		.cfi_endproc
 1115              	.LFE20:
 1116              		.size	enqueueTx_d, .-enqueueTx_d
 1117              		.section	.text.enqueueTx_ui8a,"ax",%progbits
 1118              		.align	2
 1119              		.global	enqueueTx_ui8a
 1120              		.thumb
 1121              		.thumb_func
 1122              		.type	enqueueTx_ui8a, %function
 1123              	enqueueTx_ui8a:
 1124              	.LFB21:
ARM GAS  C:\Users\cronos\AppData\Local\Temp\ccrG4qtQ.s 			page 25


 229:SakuraIO/SakuraIOc.c **** 
 230:SakuraIO/SakuraIOc.c **** uint8_t enqueueTx_ui8a(uint8_t ch, uint8_t value[8]){
 1125              		.loc 1 230 0
 1126              		.cfi_startproc
 1127              		@ args = 0, pretend = 0, frame = 0
 1128              		@ frame_needed = 0, uses_anonymous_args = 0
 1129              	.LVL128:
 1130 0000 08B5     		push	{r3, lr}
 1131              		.cfi_def_cfa_offset 8
 1132              		.cfi_offset 3, -8
 1133              		.cfi_offset 14, -4
 231:SakuraIO/SakuraIOc.c ****   return enqueueTx2_ui8a(ch, value, UINT32_C(0));
 1134              		.loc 1 231 0
 1135 0002 0022     		movs	r2, #0
 1136 0004 0023     		movs	r3, #0
 1137 0006 FFF7FEFF 		bl	enqueueTx2_ui8a
 1138              	.LVL129:
 232:SakuraIO/SakuraIOc.c **** }
 1139              		.loc 1 232 0
 1140 000a 08BD     		pop	{r3, pc}
 1141              		.cfi_endproc
 1142              	.LFE21:
 1143              		.size	enqueueTx_ui8a, .-enqueueTx_ui8a
 1144              		.section	.text.sendImmediatelyRaw,"ax",%progbits
 1145              		.align	2
 1146              		.global	sendImmediatelyRaw
 1147              		.thumb
 1148              		.thumb_func
 1149              		.type	sendImmediatelyRaw, %function
 1150              	sendImmediatelyRaw:
 1151              	.LFB22:
 233:SakuraIO/SakuraIOc.c **** 
 234:SakuraIO/SakuraIOc.c **** uint8_t sendImmediatelyRaw(uint8_t ch, uint8_t type, uint8_t length, uint8_t *data, uint64_t offset
 1152              		.loc 1 234 0
 1153              		.cfi_startproc
 1154              		@ args = 8, pretend = 0, frame = 24
 1155              		@ frame_needed = 0, uses_anonymous_args = 0
 1156              	.LVL130:
 1157 0000 10B5     		push	{r4, lr}
 1158              		.cfi_def_cfa_offset 8
 1159              		.cfi_offset 4, -8
 1160              		.cfi_offset 14, -4
 1161 0002 88B0     		sub	sp, sp, #32
 1162              		.cfi_def_cfa_offset 40
 235:SakuraIO/SakuraIOc.c ****   uint8_t request[18] = {0x00};
 1163              		.loc 1 235 0
 1164 0004 0024     		movs	r4, #0
 1165 0006 0394     		str	r4, [sp, #12]
 1166 0008 0494     		str	r4, [sp, #16]
 1167 000a 0594     		str	r4, [sp, #20]
 1168 000c 0694     		str	r4, [sp, #24]
 1169 000e ADF81C40 		strh	r4, [sp, #28]	@ movhi
 1170              	.LVL131:
 236:SakuraIO/SakuraIOc.c ****   uint8_t requestLength = 10;
 237:SakuraIO/SakuraIOc.c ****   request[0] = ch;
 1171              		.loc 1 237 0
 1172 0012 8DF80C00 		strb	r0, [sp, #12]
ARM GAS  C:\Users\cronos\AppData\Local\Temp\ccrG4qtQ.s 			page 26


 238:SakuraIO/SakuraIOc.c ****   request[1] = type;
 1173              		.loc 1 238 0
 1174 0016 8DF80D10 		strb	r1, [sp, #13]
 1175              	.LVL132:
 1176              	.LBB7:
 239:SakuraIO/SakuraIOc.c ****   for(uint8_t i=0;i<length;i++){
 1177              		.loc 1 239 0
 1178 001a 2146     		mov	r1, r4
 1179              	.LVL133:
 1180 001c 08E0     		b	.L85
 1181              	.LVL134:
 1182              	.L86:
 240:SakuraIO/SakuraIOc.c ****     request[2+i] = data[i];
 1183              		.loc 1 240 0 discriminator 3
 1184 001e 881C     		adds	r0, r1, #2
 1185 0020 5C5C     		ldrb	r4, [r3, r1]	@ zero_extendqisi2
 1186 0022 0DF1200E 		add	lr, sp, #32
 1187 0026 7044     		add	r0, r0, lr
 1188 0028 00F8144C 		strb	r4, [r0, #-20]
 239:SakuraIO/SakuraIOc.c ****   for(uint8_t i=0;i<length;i++){
 1189              		.loc 1 239 0 discriminator 3
 1190 002c 0131     		adds	r1, r1, #1
 1191              	.LVL135:
 1192 002e C9B2     		uxtb	r1, r1
 1193              	.LVL136:
 1194              	.L85:
 239:SakuraIO/SakuraIOc.c ****   for(uint8_t i=0;i<length;i++){
 1195              		.loc 1 239 0 is_stmt 0 discriminator 1
 1196 0030 9142     		cmp	r1, r2
 1197 0032 F4D3     		bcc	.L86
 1198              	.LBE7:
 241:SakuraIO/SakuraIOc.c ****   }
 242:SakuraIO/SakuraIOc.c ****   if(offset != 0){
 1199              		.loc 1 242 0 is_stmt 1
 1200 0034 DDE90A23 		ldrd	r2, [sp, #40]
 1201              	.LVL137:
 1202 0038 1343     		orrs	r3, r2, r3
 1203              	.LVL138:
 1204 003a 0CD1     		bne	.L90
 236:SakuraIO/SakuraIOc.c ****   request[0] = ch;
 1205              		.loc 1 236 0
 1206 003c 0A21     		movs	r1, #10
 1207              	.LVL139:
 1208 003e 0EE0     		b	.L88
 1209              	.LVL140:
 1210              	.L89:
 1211              	.LBB8:
 243:SakuraIO/SakuraIOc.c ****     requestLength = 18;
 244:SakuraIO/SakuraIOc.c ****     for(uint8_t i=0;i<8;i++){
 245:SakuraIO/SakuraIOc.c ****       request[10+i] = ((uint8_t *)&offset)[i];
 1212              		.loc 1 245 0 discriminator 3
 1213 0040 03F10A02 		add	r2, r3, #10
 1214 0044 0AA9     		add	r1, sp, #40
 1215              	.LVL141:
 1216 0046 C95C     		ldrb	r1, [r1, r3]	@ zero_extendqisi2
 1217              	.LVL142:
 1218 0048 08A8     		add	r0, sp, #32
ARM GAS  C:\Users\cronos\AppData\Local\Temp\ccrG4qtQ.s 			page 27


 1219 004a 0244     		add	r2, r2, r0
 1220 004c 02F8141C 		strb	r1, [r2, #-20]
 244:SakuraIO/SakuraIOc.c ****       request[10+i] = ((uint8_t *)&offset)[i];
 1221              		.loc 1 244 0 discriminator 3
 1222 0050 0133     		adds	r3, r3, #1
 1223              	.LVL143:
 1224 0052 DBB2     		uxtb	r3, r3
 1225              	.LVL144:
 1226 0054 00E0     		b	.L87
 1227              	.LVL145:
 1228              	.L90:
 1229              	.LBE8:
 1230 0056 0023     		movs	r3, #0
 1231              	.LVL146:
 1232              	.L87:
 1233              	.LBB9:
 244:SakuraIO/SakuraIOc.c ****       request[10+i] = ((uint8_t *)&offset)[i];
 1234              		.loc 1 244 0 is_stmt 0 discriminator 1
 1235 0058 072B     		cmp	r3, #7
 1236 005a F1D9     		bls	.L89
 1237              	.LBE9:
 243:SakuraIO/SakuraIOc.c ****     requestLength = 18;
 1238              		.loc 1 243 0 is_stmt 1
 1239 005c 1221     		movs	r1, #18
 1240              	.LVL147:
 1241              	.L88:
 246:SakuraIO/SakuraIOc.c ****     }
 247:SakuraIO/SakuraIOc.c ****   }
 248:SakuraIO/SakuraIOc.c ****   return executeCommand(CMD_TX_SENDIMMED, requestLength, request, NULL, NULL);
 1242              		.loc 1 248 0
 1243 005e 0023     		movs	r3, #0
 1244 0060 0093     		str	r3, [sp]
 1245 0062 03AA     		add	r2, sp, #12
 1246 0064 2120     		movs	r0, #33
 1247 0066 FFF7FEFF 		bl	executeCommand
 1248              	.LVL148:
 249:SakuraIO/SakuraIOc.c **** }
 1249              		.loc 1 249 0
 1250 006a 08B0     		add	sp, sp, #32
 1251              		.cfi_def_cfa_offset 8
 1252              		@ sp needed
 1253 006c 10BD     		pop	{r4, pc}
 1254              		.cfi_endproc
 1255              	.LFE22:
 1256              		.size	sendImmediatelyRaw, .-sendImmediatelyRaw
 1257 006e 00BF     		.section	.text.sendImmediately2_i32,"ax",%progbits
 1258              		.align	2
 1259              		.global	sendImmediately2_i32
 1260              		.thumb
 1261              		.thumb_func
 1262              		.type	sendImmediately2_i32, %function
 1263              	sendImmediately2_i32:
 1264              	.LFB23:
 250:SakuraIO/SakuraIOc.c **** 
 251:SakuraIO/SakuraIOc.c **** uint8_t sendImmediately2_i32(uint8_t ch, int32_t value, uint64_t offset){
 1265              		.loc 1 251 0
 1266              		.cfi_startproc
ARM GAS  C:\Users\cronos\AppData\Local\Temp\ccrG4qtQ.s 			page 28


 1267              		@ args = 0, pretend = 0, frame = 8
 1268              		@ frame_needed = 0, uses_anonymous_args = 0
 1269              	.LVL149:
 1270 0000 10B5     		push	{r4, lr}
 1271              		.cfi_def_cfa_offset 8
 1272              		.cfi_offset 4, -8
 1273              		.cfi_offset 14, -4
 1274 0002 84B0     		sub	sp, sp, #16
 1275              		.cfi_def_cfa_offset 24
 1276 0004 04AC     		add	r4, sp, #16
 1277 0006 44F8041D 		str	r1, [r4, #-4]!
 252:SakuraIO/SakuraIOc.c ****   return sendImmediatelyRaw(ch, 'i', 4, (uint8_t *)&value, offset);
 1278              		.loc 1 252 0
 1279 000a CDE90023 		strd	r2, [sp]
 1280 000e 2346     		mov	r3, r4
 1281 0010 0422     		movs	r2, #4
 1282              	.LVL150:
 1283 0012 6921     		movs	r1, #105
 1284              	.LVL151:
 1285 0014 FFF7FEFF 		bl	sendImmediatelyRaw
 1286              	.LVL152:
 253:SakuraIO/SakuraIOc.c **** }
 1287              		.loc 1 253 0
 1288 0018 04B0     		add	sp, sp, #16
 1289              		.cfi_def_cfa_offset 8
 1290              		@ sp needed
 1291 001a 10BD     		pop	{r4, pc}
 1292              		.cfi_endproc
 1293              	.LFE23:
 1294              		.size	sendImmediately2_i32, .-sendImmediately2_i32
 1295              		.section	.text.sendImmediately2_ui32,"ax",%progbits
 1296              		.align	2
 1297              		.global	sendImmediately2_ui32
 1298              		.thumb
 1299              		.thumb_func
 1300              		.type	sendImmediately2_ui32, %function
 1301              	sendImmediately2_ui32:
 1302              	.LFB24:
 254:SakuraIO/SakuraIOc.c **** 
 255:SakuraIO/SakuraIOc.c **** uint8_t sendImmediately2_ui32(uint8_t ch, uint32_t value, uint64_t offset){
 1303              		.loc 1 255 0
 1304              		.cfi_startproc
 1305              		@ args = 0, pretend = 0, frame = 8
 1306              		@ frame_needed = 0, uses_anonymous_args = 0
 1307              	.LVL153:
 1308 0000 10B5     		push	{r4, lr}
 1309              		.cfi_def_cfa_offset 8
 1310              		.cfi_offset 4, -8
 1311              		.cfi_offset 14, -4
 1312 0002 84B0     		sub	sp, sp, #16
 1313              		.cfi_def_cfa_offset 24
 1314 0004 04AC     		add	r4, sp, #16
 1315 0006 44F8041D 		str	r1, [r4, #-4]!
 256:SakuraIO/SakuraIOc.c ****   return sendImmediatelyRaw(ch, 'I', 4, (uint8_t *)&value, offset);
 1316              		.loc 1 256 0
 1317 000a CDE90023 		strd	r2, [sp]
 1318 000e 2346     		mov	r3, r4
ARM GAS  C:\Users\cronos\AppData\Local\Temp\ccrG4qtQ.s 			page 29


 1319 0010 0422     		movs	r2, #4
 1320              	.LVL154:
 1321 0012 4921     		movs	r1, #73
 1322              	.LVL155:
 1323 0014 FFF7FEFF 		bl	sendImmediatelyRaw
 1324              	.LVL156:
 257:SakuraIO/SakuraIOc.c **** }
 1325              		.loc 1 257 0
 1326 0018 04B0     		add	sp, sp, #16
 1327              		.cfi_def_cfa_offset 8
 1328              		@ sp needed
 1329 001a 10BD     		pop	{r4, pc}
 1330              		.cfi_endproc
 1331              	.LFE24:
 1332              		.size	sendImmediately2_ui32, .-sendImmediately2_ui32
 1333              		.section	.text.sendImmediately2_i64,"ax",%progbits
 1334              		.align	2
 1335              		.global	sendImmediately2_i64
 1336              		.thumb
 1337              		.thumb_func
 1338              		.type	sendImmediately2_i64, %function
 1339              	sendImmediately2_i64:
 1340              	.LFB25:
 258:SakuraIO/SakuraIOc.c **** 
 259:SakuraIO/SakuraIOc.c **** uint8_t sendImmediately2_i64(uint8_t ch, int64_t value, uint64_t offset){
 1341              		.loc 1 259 0
 1342              		.cfi_startproc
 1343              		@ args = 8, pretend = 0, frame = 8
 1344              		@ frame_needed = 0, uses_anonymous_args = 0
 1345              	.LVL157:
 1346 0000 00B5     		push	{lr}
 1347              		.cfi_def_cfa_offset 4
 1348              		.cfi_offset 14, -4
 1349 0002 85B0     		sub	sp, sp, #20
 1350              		.cfi_def_cfa_offset 24
 1351 0004 04A9     		add	r1, sp, #16
 1352 0006 61E90223 		strd	r2, [r1, #-8]!
 260:SakuraIO/SakuraIOc.c ****   return sendImmediatelyRaw(ch, 'l', 8, (uint8_t *)&value, offset);
 1353              		.loc 1 260 0
 1354 000a DDE90623 		ldrd	r2, [sp, #24]
 1355              	.LVL158:
 1356 000e CDE90023 		strd	r2, [sp]
 1357 0012 0B46     		mov	r3, r1
 1358 0014 0822     		movs	r2, #8
 1359 0016 6C21     		movs	r1, #108
 1360              	.LVL159:
 1361 0018 FFF7FEFF 		bl	sendImmediatelyRaw
 1362              	.LVL160:
 261:SakuraIO/SakuraIOc.c **** }
 1363              		.loc 1 261 0
 1364 001c 05B0     		add	sp, sp, #20
 1365              		.cfi_def_cfa_offset 4
 1366              		@ sp needed
 1367 001e 5DF804FB 		ldr	pc, [sp], #4
 1368              		.cfi_endproc
 1369              	.LFE25:
 1370              		.size	sendImmediately2_i64, .-sendImmediately2_i64
ARM GAS  C:\Users\cronos\AppData\Local\Temp\ccrG4qtQ.s 			page 30


 1371 0022 00BF     		.section	.text.sendImmediately2_ui64,"ax",%progbits
 1372              		.align	2
 1373              		.global	sendImmediately2_ui64
 1374              		.thumb
 1375              		.thumb_func
 1376              		.type	sendImmediately2_ui64, %function
 1377              	sendImmediately2_ui64:
 1378              	.LFB26:
 262:SakuraIO/SakuraIOc.c **** 
 263:SakuraIO/SakuraIOc.c **** uint8_t sendImmediately2_ui64(uint8_t ch, uint64_t value, uint64_t offset){
 1379              		.loc 1 263 0
 1380              		.cfi_startproc
 1381              		@ args = 8, pretend = 0, frame = 8
 1382              		@ frame_needed = 0, uses_anonymous_args = 0
 1383              	.LVL161:
 1384 0000 00B5     		push	{lr}
 1385              		.cfi_def_cfa_offset 4
 1386              		.cfi_offset 14, -4
 1387 0002 85B0     		sub	sp, sp, #20
 1388              		.cfi_def_cfa_offset 24
 1389 0004 04A9     		add	r1, sp, #16
 1390 0006 61E90223 		strd	r2, [r1, #-8]!
 264:SakuraIO/SakuraIOc.c ****   return sendImmediatelyRaw(ch, 'L', 8, (uint8_t *)&value, offset);
 1391              		.loc 1 264 0
 1392 000a DDE90623 		ldrd	r2, [sp, #24]
 1393              	.LVL162:
 1394 000e CDE90023 		strd	r2, [sp]
 1395 0012 0B46     		mov	r3, r1
 1396 0014 0822     		movs	r2, #8
 1397 0016 4C21     		movs	r1, #76
 1398              	.LVL163:
 1399 0018 FFF7FEFF 		bl	sendImmediatelyRaw
 1400              	.LVL164:
 265:SakuraIO/SakuraIOc.c **** }
 1401              		.loc 1 265 0
 1402 001c 05B0     		add	sp, sp, #20
 1403              		.cfi_def_cfa_offset 4
 1404              		@ sp needed
 1405 001e 5DF804FB 		ldr	pc, [sp], #4
 1406              		.cfi_endproc
 1407              	.LFE26:
 1408              		.size	sendImmediately2_ui64, .-sendImmediately2_ui64
 1409 0022 00BF     		.section	.text.sendImmediately2_f,"ax",%progbits
 1410              		.align	2
 1411              		.global	sendImmediately2_f
 1412              		.thumb
 1413              		.thumb_func
 1414              		.type	sendImmediately2_f, %function
 1415              	sendImmediately2_f:
 1416              	.LFB27:
 266:SakuraIO/SakuraIOc.c **** 
 267:SakuraIO/SakuraIOc.c **** uint8_t sendImmediately2_f(uint8_t ch, float value, uint64_t offset){
 1417              		.loc 1 267 0
 1418              		.cfi_startproc
 1419              		@ args = 0, pretend = 0, frame = 8
 1420              		@ frame_needed = 0, uses_anonymous_args = 0
 1421              	.LVL165:
ARM GAS  C:\Users\cronos\AppData\Local\Temp\ccrG4qtQ.s 			page 31


 1422 0000 10B5     		push	{r4, lr}
 1423              		.cfi_def_cfa_offset 8
 1424              		.cfi_offset 4, -8
 1425              		.cfi_offset 14, -4
 1426 0002 84B0     		sub	sp, sp, #16
 1427              		.cfi_def_cfa_offset 24
 1428 0004 04AC     		add	r4, sp, #16
 1429 0006 44F8041D 		str	r1, [r4, #-4]!	@ float
 268:SakuraIO/SakuraIOc.c ****   return sendImmediatelyRaw(ch, 'f', 4, (uint8_t *)&value, offset);
 1430              		.loc 1 268 0
 1431 000a CDE90023 		strd	r2, [sp]
 1432 000e 2346     		mov	r3, r4
 1433 0010 0422     		movs	r2, #4
 1434              	.LVL166:
 1435 0012 6621     		movs	r1, #102
 1436              	.LVL167:
 1437 0014 FFF7FEFF 		bl	sendImmediatelyRaw
 1438              	.LVL168:
 269:SakuraIO/SakuraIOc.c **** }
 1439              		.loc 1 269 0
 1440 0018 04B0     		add	sp, sp, #16
 1441              		.cfi_def_cfa_offset 8
 1442              		@ sp needed
 1443 001a 10BD     		pop	{r4, pc}
 1444              		.cfi_endproc
 1445              	.LFE27:
 1446              		.size	sendImmediately2_f, .-sendImmediately2_f
 1447              		.section	.text.sendImmediately2_d,"ax",%progbits
 1448              		.align	2
 1449              		.global	sendImmediately2_d
 1450              		.thumb
 1451              		.thumb_func
 1452              		.type	sendImmediately2_d, %function
 1453              	sendImmediately2_d:
 1454              	.LFB28:
 270:SakuraIO/SakuraIOc.c **** 
 271:SakuraIO/SakuraIOc.c **** uint8_t sendImmediately2_d(uint8_t ch, double value, uint64_t offset){
 1455              		.loc 1 271 0
 1456              		.cfi_startproc
 1457              		@ args = 8, pretend = 0, frame = 8
 1458              		@ frame_needed = 0, uses_anonymous_args = 0
 1459              	.LVL169:
 1460 0000 00B5     		push	{lr}
 1461              		.cfi_def_cfa_offset 4
 1462              		.cfi_offset 14, -4
 1463 0002 85B0     		sub	sp, sp, #20
 1464              		.cfi_def_cfa_offset 24
 1465 0004 04A9     		add	r1, sp, #16
 1466 0006 61E90223 		strd	r2, [r1, #-8]!
 272:SakuraIO/SakuraIOc.c ****   return sendImmediatelyRaw(ch, 'd', 8, (uint8_t *)&value, offset);
 1467              		.loc 1 272 0
 1468 000a DDE90623 		ldrd	r2, [sp, #24]
 1469              	.LVL170:
 1470 000e CDE90023 		strd	r2, [sp]
 1471 0012 0B46     		mov	r3, r1
 1472 0014 0822     		movs	r2, #8
 1473 0016 6421     		movs	r1, #100
ARM GAS  C:\Users\cronos\AppData\Local\Temp\ccrG4qtQ.s 			page 32


 1474              	.LVL171:
 1475 0018 FFF7FEFF 		bl	sendImmediatelyRaw
 1476              	.LVL172:
 273:SakuraIO/SakuraIOc.c **** }
 1477              		.loc 1 273 0
 1478 001c 05B0     		add	sp, sp, #20
 1479              		.cfi_def_cfa_offset 4
 1480              		@ sp needed
 1481 001e 5DF804FB 		ldr	pc, [sp], #4
 1482              		.cfi_endproc
 1483              	.LFE28:
 1484              		.size	sendImmediately2_d, .-sendImmediately2_d
 1485 0022 00BF     		.section	.text.sendImmediately2_ui8a,"ax",%progbits
 1486              		.align	2
 1487              		.global	sendImmediately2_ui8a
 1488              		.thumb
 1489              		.thumb_func
 1490              		.type	sendImmediately2_ui8a, %function
 1491              	sendImmediately2_ui8a:
 1492              	.LFB29:
 274:SakuraIO/SakuraIOc.c **** 
 275:SakuraIO/SakuraIOc.c **** uint8_t sendImmediately2_ui8a(uint8_t ch, uint8_t value[8], uint64_t offset){
 1493              		.loc 1 275 0
 1494              		.cfi_startproc
 1495              		@ args = 0, pretend = 0, frame = 0
 1496              		@ frame_needed = 0, uses_anonymous_args = 0
 1497              	.LVL173:
 1498 0000 00B5     		push	{lr}
 1499              		.cfi_def_cfa_offset 4
 1500              		.cfi_offset 14, -4
 1501 0002 83B0     		sub	sp, sp, #12
 1502              		.cfi_def_cfa_offset 16
 276:SakuraIO/SakuraIOc.c ****   return sendImmediatelyRaw(ch, 'b', 8, (uint8_t *)value, offset);
 1503              		.loc 1 276 0
 1504 0004 CDE90023 		strd	r2, [sp]
 1505 0008 0B46     		mov	r3, r1
 1506 000a 0822     		movs	r2, #8
 1507              	.LVL174:
 1508 000c 6221     		movs	r1, #98
 1509              	.LVL175:
 1510 000e FFF7FEFF 		bl	sendImmediatelyRaw
 1511              	.LVL176:
 277:SakuraIO/SakuraIOc.c **** }
 1512              		.loc 1 277 0
 1513 0012 03B0     		add	sp, sp, #12
 1514              		.cfi_def_cfa_offset 4
 1515              		@ sp needed
 1516 0014 5DF804FB 		ldr	pc, [sp], #4
 1517              		.cfi_endproc
 1518              	.LFE29:
 1519              		.size	sendImmediately2_ui8a, .-sendImmediately2_ui8a
 1520              		.section	.text.sendImmediately_i32,"ax",%progbits
 1521              		.align	2
 1522              		.global	sendImmediately_i32
 1523              		.thumb
 1524              		.thumb_func
 1525              		.type	sendImmediately_i32, %function
ARM GAS  C:\Users\cronos\AppData\Local\Temp\ccrG4qtQ.s 			page 33


 1526              	sendImmediately_i32:
 1527              	.LFB30:
 278:SakuraIO/SakuraIOc.c **** 
 279:SakuraIO/SakuraIOc.c **** uint8_t sendImmediately_i32(uint8_t ch, int32_t value){
 1528              		.loc 1 279 0
 1529              		.cfi_startproc
 1530              		@ args = 0, pretend = 0, frame = 0
 1531              		@ frame_needed = 0, uses_anonymous_args = 0
 1532              	.LVL177:
 1533 0000 08B5     		push	{r3, lr}
 1534              		.cfi_def_cfa_offset 8
 1535              		.cfi_offset 3, -8
 1536              		.cfi_offset 14, -4
 280:SakuraIO/SakuraIOc.c ****   return sendImmediately2_i32(ch, value, UINT32_C(0));
 1537              		.loc 1 280 0
 1538 0002 0022     		movs	r2, #0
 1539 0004 0023     		movs	r3, #0
 1540 0006 FFF7FEFF 		bl	sendImmediately2_i32
 1541              	.LVL178:
 281:SakuraIO/SakuraIOc.c **** }
 1542              		.loc 1 281 0
 1543 000a 08BD     		pop	{r3, pc}
 1544              		.cfi_endproc
 1545              	.LFE30:
 1546              		.size	sendImmediately_i32, .-sendImmediately_i32
 1547              		.section	.text.sendImmediately_ui32,"ax",%progbits
 1548              		.align	2
 1549              		.global	sendImmediately_ui32
 1550              		.thumb
 1551              		.thumb_func
 1552              		.type	sendImmediately_ui32, %function
 1553              	sendImmediately_ui32:
 1554              	.LFB31:
 282:SakuraIO/SakuraIOc.c **** 
 283:SakuraIO/SakuraIOc.c **** uint8_t sendImmediately_ui32(uint8_t ch, uint32_t value){
 1555              		.loc 1 283 0
 1556              		.cfi_startproc
 1557              		@ args = 0, pretend = 0, frame = 0
 1558              		@ frame_needed = 0, uses_anonymous_args = 0
 1559              	.LVL179:
 1560 0000 08B5     		push	{r3, lr}
 1561              		.cfi_def_cfa_offset 8
 1562              		.cfi_offset 3, -8
 1563              		.cfi_offset 14, -4
 284:SakuraIO/SakuraIOc.c ****   return sendImmediately2_ui32(ch, value, UINT32_C(0));
 1564              		.loc 1 284 0
 1565 0002 0022     		movs	r2, #0
 1566 0004 0023     		movs	r3, #0
 1567 0006 FFF7FEFF 		bl	sendImmediately2_ui32
 1568              	.LVL180:
 285:SakuraIO/SakuraIOc.c **** }
 1569              		.loc 1 285 0
 1570 000a 08BD     		pop	{r3, pc}
 1571              		.cfi_endproc
 1572              	.LFE31:
 1573              		.size	sendImmediately_ui32, .-sendImmediately_ui32
 1574              		.section	.text.sendImmediately_i64,"ax",%progbits
ARM GAS  C:\Users\cronos\AppData\Local\Temp\ccrG4qtQ.s 			page 34


 1575              		.align	2
 1576              		.global	sendImmediately_i64
 1577              		.thumb
 1578              		.thumb_func
 1579              		.type	sendImmediately_i64, %function
 1580              	sendImmediately_i64:
 1581              	.LFB32:
 286:SakuraIO/SakuraIOc.c **** 
 287:SakuraIO/SakuraIOc.c **** uint8_t sendImmediately_i64(uint8_t ch, int64_t value){
 1582              		.loc 1 287 0
 1583              		.cfi_startproc
 1584              		@ args = 0, pretend = 0, frame = 0
 1585              		@ frame_needed = 0, uses_anonymous_args = 0
 1586              	.LVL181:
 1587 0000 30B5     		push	{r4, r5, lr}
 1588              		.cfi_def_cfa_offset 12
 1589              		.cfi_offset 4, -12
 1590              		.cfi_offset 5, -8
 1591              		.cfi_offset 14, -4
 1592 0002 83B0     		sub	sp, sp, #12
 1593              		.cfi_def_cfa_offset 24
 288:SakuraIO/SakuraIOc.c ****   return sendImmediately2_i64(ch, value, UINT32_C(0));
 1594              		.loc 1 288 0
 1595 0004 0024     		movs	r4, #0
 1596 0006 0025     		movs	r5, #0
 1597 0008 CDE90045 		strd	r4, [sp]
 1598 000c FFF7FEFF 		bl	sendImmediately2_i64
 1599              	.LVL182:
 289:SakuraIO/SakuraIOc.c **** }
 1600              		.loc 1 289 0
 1601 0010 03B0     		add	sp, sp, #12
 1602              		.cfi_def_cfa_offset 12
 1603              		@ sp needed
 1604 0012 30BD     		pop	{r4, r5, pc}
 1605              		.cfi_endproc
 1606              	.LFE32:
 1607              		.size	sendImmediately_i64, .-sendImmediately_i64
 1608              		.section	.text.sendImmediately_ui64,"ax",%progbits
 1609              		.align	2
 1610              		.global	sendImmediately_ui64
 1611              		.thumb
 1612              		.thumb_func
 1613              		.type	sendImmediately_ui64, %function
 1614              	sendImmediately_ui64:
 1615              	.LFB33:
 290:SakuraIO/SakuraIOc.c **** 
 291:SakuraIO/SakuraIOc.c **** uint8_t sendImmediately_ui64(uint8_t ch, uint64_t value){
 1616              		.loc 1 291 0
 1617              		.cfi_startproc
 1618              		@ args = 0, pretend = 0, frame = 0
 1619              		@ frame_needed = 0, uses_anonymous_args = 0
 1620              	.LVL183:
 1621 0000 30B5     		push	{r4, r5, lr}
 1622              		.cfi_def_cfa_offset 12
 1623              		.cfi_offset 4, -12
 1624              		.cfi_offset 5, -8
 1625              		.cfi_offset 14, -4
ARM GAS  C:\Users\cronos\AppData\Local\Temp\ccrG4qtQ.s 			page 35


 1626 0002 83B0     		sub	sp, sp, #12
 1627              		.cfi_def_cfa_offset 24
 292:SakuraIO/SakuraIOc.c ****   return sendImmediately2_ui64(ch, value, UINT32_C(0));
 1628              		.loc 1 292 0
 1629 0004 0024     		movs	r4, #0
 1630 0006 0025     		movs	r5, #0
 1631 0008 CDE90045 		strd	r4, [sp]
 1632 000c FFF7FEFF 		bl	sendImmediately2_ui64
 1633              	.LVL184:
 293:SakuraIO/SakuraIOc.c **** }
 1634              		.loc 1 293 0
 1635 0010 03B0     		add	sp, sp, #12
 1636              		.cfi_def_cfa_offset 12
 1637              		@ sp needed
 1638 0012 30BD     		pop	{r4, r5, pc}
 1639              		.cfi_endproc
 1640              	.LFE33:
 1641              		.size	sendImmediately_ui64, .-sendImmediately_ui64
 1642              		.section	.text.sendImmediately_f,"ax",%progbits
 1643              		.align	2
 1644              		.global	sendImmediately_f
 1645              		.thumb
 1646              		.thumb_func
 1647              		.type	sendImmediately_f, %function
 1648              	sendImmediately_f:
 1649              	.LFB34:
 294:SakuraIO/SakuraIOc.c **** 
 295:SakuraIO/SakuraIOc.c **** uint8_t sendImmediately_f(uint8_t ch, float value){
 1650              		.loc 1 295 0
 1651              		.cfi_startproc
 1652              		@ args = 0, pretend = 0, frame = 0
 1653              		@ frame_needed = 0, uses_anonymous_args = 0
 1654              	.LVL185:
 1655 0000 08B5     		push	{r3, lr}
 1656              		.cfi_def_cfa_offset 8
 1657              		.cfi_offset 3, -8
 1658              		.cfi_offset 14, -4
 296:SakuraIO/SakuraIOc.c ****   return sendImmediately2_f(ch, value, UINT32_C(0));
 1659              		.loc 1 296 0
 1660 0002 0022     		movs	r2, #0
 1661 0004 0023     		movs	r3, #0
 1662 0006 FFF7FEFF 		bl	sendImmediately2_f
 1663              	.LVL186:
 297:SakuraIO/SakuraIOc.c **** }
 1664              		.loc 1 297 0
 1665 000a 08BD     		pop	{r3, pc}
 1666              		.cfi_endproc
 1667              	.LFE34:
 1668              		.size	sendImmediately_f, .-sendImmediately_f
 1669              		.section	.text.sendImmediately_d,"ax",%progbits
 1670              		.align	2
 1671              		.global	sendImmediately_d
 1672              		.thumb
 1673              		.thumb_func
 1674              		.type	sendImmediately_d, %function
 1675              	sendImmediately_d:
 1676              	.LFB35:
ARM GAS  C:\Users\cronos\AppData\Local\Temp\ccrG4qtQ.s 			page 36


 298:SakuraIO/SakuraIOc.c **** 
 299:SakuraIO/SakuraIOc.c **** uint8_t sendImmediately_d(uint8_t ch, double value){
 1677              		.loc 1 299 0
 1678              		.cfi_startproc
 1679              		@ args = 0, pretend = 0, frame = 0
 1680              		@ frame_needed = 0, uses_anonymous_args = 0
 1681              	.LVL187:
 1682 0000 30B5     		push	{r4, r5, lr}
 1683              		.cfi_def_cfa_offset 12
 1684              		.cfi_offset 4, -12
 1685              		.cfi_offset 5, -8
 1686              		.cfi_offset 14, -4
 1687 0002 83B0     		sub	sp, sp, #12
 1688              		.cfi_def_cfa_offset 24
 300:SakuraIO/SakuraIOc.c ****   return sendImmediately2_d(ch, value, UINT32_C(0));
 1689              		.loc 1 300 0
 1690 0004 0024     		movs	r4, #0
 1691 0006 0025     		movs	r5, #0
 1692 0008 CDE90045 		strd	r4, [sp]
 1693 000c FFF7FEFF 		bl	sendImmediately2_d
 1694              	.LVL188:
 301:SakuraIO/SakuraIOc.c **** }
 1695              		.loc 1 301 0
 1696 0010 03B0     		add	sp, sp, #12
 1697              		.cfi_def_cfa_offset 12
 1698              		@ sp needed
 1699 0012 30BD     		pop	{r4, r5, pc}
 1700              		.cfi_endproc
 1701              	.LFE35:
 1702              		.size	sendImmediately_d, .-sendImmediately_d
 1703              		.section	.text.sendImmediately_ui8a,"ax",%progbits
 1704              		.align	2
 1705              		.global	sendImmediately_ui8a
 1706              		.thumb
 1707              		.thumb_func
 1708              		.type	sendImmediately_ui8a, %function
 1709              	sendImmediately_ui8a:
 1710              	.LFB36:
 302:SakuraIO/SakuraIOc.c **** 
 303:SakuraIO/SakuraIOc.c **** uint8_t sendImmediately_ui8a(uint8_t ch, uint8_t value[8]){
 1711              		.loc 1 303 0
 1712              		.cfi_startproc
 1713              		@ args = 0, pretend = 0, frame = 0
 1714              		@ frame_needed = 0, uses_anonymous_args = 0
 1715              	.LVL189:
 1716 0000 08B5     		push	{r3, lr}
 1717              		.cfi_def_cfa_offset 8
 1718              		.cfi_offset 3, -8
 1719              		.cfi_offset 14, -4
 304:SakuraIO/SakuraIOc.c ****   return sendImmediately2_ui8a(ch, value, UINT32_C(0));
 1720              		.loc 1 304 0
 1721 0002 0022     		movs	r2, #0
 1722 0004 0023     		movs	r3, #0
 1723 0006 FFF7FEFF 		bl	sendImmediately2_ui8a
 1724              	.LVL190:
 305:SakuraIO/SakuraIOc.c **** }
 1725              		.loc 1 305 0
ARM GAS  C:\Users\cronos\AppData\Local\Temp\ccrG4qtQ.s 			page 37


 1726 000a 08BD     		pop	{r3, pc}
 1727              		.cfi_endproc
 1728              	.LFE36:
 1729              		.size	sendImmediately_ui8a, .-sendImmediately_ui8a
 1730              		.section	.text.getTxQueueLength,"ax",%progbits
 1731              		.align	2
 1732              		.global	getTxQueueLength
 1733              		.thumb
 1734              		.thumb_func
 1735              		.type	getTxQueueLength, %function
 1736              	getTxQueueLength:
 1737              	.LFB37:
 306:SakuraIO/SakuraIOc.c **** 
 307:SakuraIO/SakuraIOc.c **** 
 308:SakuraIO/SakuraIOc.c **** 
 309:SakuraIO/SakuraIOc.c **** uint8_t getTxQueueLength(uint8_t *available, uint8_t *queued){
 1738              		.loc 1 309 0
 1739              		.cfi_startproc
 1740              		@ args = 0, pretend = 0, frame = 8
 1741              		@ frame_needed = 0, uses_anonymous_args = 0
 1742              	.LVL191:
 1743 0000 30B5     		push	{r4, r5, lr}
 1744              		.cfi_def_cfa_offset 12
 1745              		.cfi_offset 4, -12
 1746              		.cfi_offset 5, -8
 1747              		.cfi_offset 14, -4
 1748 0002 85B0     		sub	sp, sp, #20
 1749              		.cfi_def_cfa_offset 32
 1750 0004 0546     		mov	r5, r0
 1751 0006 0C46     		mov	r4, r1
 310:SakuraIO/SakuraIOc.c ****   uint8_t response[2] = {0x00};
 1752              		.loc 1 310 0
 1753 0008 0021     		movs	r1, #0
 1754              	.LVL192:
 1755 000a ADF80C10 		strh	r1, [sp, #12]	@ movhi
 311:SakuraIO/SakuraIOc.c ****   uint8_t responseLength = 2;
 1756              		.loc 1 311 0
 1757 000e 04AB     		add	r3, sp, #16
 1758 0010 0222     		movs	r2, #2
 1759 0012 03F8052D 		strb	r2, [r3, #-5]!
 312:SakuraIO/SakuraIOc.c ****   uint8_t ret = executeCommand(CMD_TX_LENGTH, 0, NULL, &responseLength, response);
 1760              		.loc 1 312 0
 1761 0016 03AA     		add	r2, sp, #12
 1762 0018 0092     		str	r2, [sp]
 1763 001a 0A46     		mov	r2, r1
 1764 001c 2220     		movs	r0, #34
 1765              	.LVL193:
 1766 001e FFF7FEFF 		bl	executeCommand
 1767              	.LVL194:
 313:SakuraIO/SakuraIOc.c ****   *available = response[0];
 1768              		.loc 1 313 0
 1769 0022 9DF80C30 		ldrb	r3, [sp, #12]	@ zero_extendqisi2
 1770 0026 2B70     		strb	r3, [r5]
 314:SakuraIO/SakuraIOc.c ****   *queued = response[1];
 1771              		.loc 1 314 0
 1772 0028 9DF80D30 		ldrb	r3, [sp, #13]	@ zero_extendqisi2
 1773 002c 2370     		strb	r3, [r4]
ARM GAS  C:\Users\cronos\AppData\Local\Temp\ccrG4qtQ.s 			page 38


 315:SakuraIO/SakuraIOc.c ****   return ret;
 316:SakuraIO/SakuraIOc.c **** }
 1774              		.loc 1 316 0
 1775 002e 05B0     		add	sp, sp, #20
 1776              		.cfi_def_cfa_offset 12
 1777              		@ sp needed
 1778 0030 30BD     		pop	{r4, r5, pc}
 1779              		.cfi_endproc
 1780              	.LFE37:
 1781              		.size	getTxQueueLength, .-getTxQueueLength
 1782 0032 00BF     		.section	.text.clearTx,"ax",%progbits
 1783              		.align	2
 1784              		.global	clearTx
 1785              		.thumb
 1786              		.thumb_func
 1787              		.type	clearTx, %function
 1788              	clearTx:
 1789              	.LFB38:
 317:SakuraIO/SakuraIOc.c **** 
 318:SakuraIO/SakuraIOc.c **** uint8_t clearTx(){
 1790              		.loc 1 318 0
 1791              		.cfi_startproc
 1792              		@ args = 0, pretend = 0, frame = 0
 1793              		@ frame_needed = 0, uses_anonymous_args = 0
 1794 0000 00B5     		push	{lr}
 1795              		.cfi_def_cfa_offset 4
 1796              		.cfi_offset 14, -4
 1797 0002 83B0     		sub	sp, sp, #12
 1798              		.cfi_def_cfa_offset 16
 319:SakuraIO/SakuraIOc.c ****   return executeCommand(CMD_TX_CLEAR, 0, NULL, NULL, NULL);
 1799              		.loc 1 319 0
 1800 0004 0021     		movs	r1, #0
 1801 0006 0091     		str	r1, [sp]
 1802 0008 0B46     		mov	r3, r1
 1803 000a 0A46     		mov	r2, r1
 1804 000c 2320     		movs	r0, #35
 1805 000e FFF7FEFF 		bl	executeCommand
 1806              	.LVL195:
 320:SakuraIO/SakuraIOc.c **** }
 1807              		.loc 1 320 0
 1808 0012 03B0     		add	sp, sp, #12
 1809              		.cfi_def_cfa_offset 4
 1810              		@ sp needed
 1811 0014 5DF804FB 		ldr	pc, [sp], #4
 1812              		.cfi_endproc
 1813              	.LFE38:
 1814              		.size	clearTx, .-clearTx
 1815              		.section	.text.send,"ax",%progbits
 1816              		.align	2
 1817              		.global	send
 1818              		.thumb
 1819              		.thumb_func
 1820              		.type	send, %function
 1821              	send:
 1822              	.LFB39:
 321:SakuraIO/SakuraIOc.c **** 
 322:SakuraIO/SakuraIOc.c **** uint8_t send(){
ARM GAS  C:\Users\cronos\AppData\Local\Temp\ccrG4qtQ.s 			page 39


 1823              		.loc 1 322 0
 1824              		.cfi_startproc
 1825              		@ args = 0, pretend = 0, frame = 0
 1826              		@ frame_needed = 0, uses_anonymous_args = 0
 1827 0000 00B5     		push	{lr}
 1828              		.cfi_def_cfa_offset 4
 1829              		.cfi_offset 14, -4
 1830 0002 83B0     		sub	sp, sp, #12
 1831              		.cfi_def_cfa_offset 16
 323:SakuraIO/SakuraIOc.c ****   return executeCommand(CMD_TX_SEND, 0, NULL, NULL, NULL);
 1832              		.loc 1 323 0
 1833 0004 0021     		movs	r1, #0
 1834 0006 0091     		str	r1, [sp]
 1835 0008 0B46     		mov	r3, r1
 1836 000a 0A46     		mov	r2, r1
 1837 000c 2420     		movs	r0, #36
 1838 000e FFF7FEFF 		bl	executeCommand
 1839              	.LVL196:
 324:SakuraIO/SakuraIOc.c **** }
 1840              		.loc 1 324 0
 1841 0012 03B0     		add	sp, sp, #12
 1842              		.cfi_def_cfa_offset 4
 1843              		@ sp needed
 1844 0014 5DF804FB 		ldr	pc, [sp], #4
 1845              		.cfi_endproc
 1846              	.LFE39:
 1847              		.size	send, .-send
 1848              		.section	.text.getTxStatus,"ax",%progbits
 1849              		.align	2
 1850              		.global	getTxStatus
 1851              		.thumb
 1852              		.thumb_func
 1853              		.type	getTxStatus, %function
 1854              	getTxStatus:
 1855              	.LFB40:
 325:SakuraIO/SakuraIOc.c **** 
 326:SakuraIO/SakuraIOc.c **** uint8_t getTxStatus(uint8_t *queue, uint8_t *immediate){
 1856              		.loc 1 326 0
 1857              		.cfi_startproc
 1858              		@ args = 0, pretend = 0, frame = 8
 1859              		@ frame_needed = 0, uses_anonymous_args = 0
 1860              	.LVL197:
 1861 0000 30B5     		push	{r4, r5, lr}
 1862              		.cfi_def_cfa_offset 12
 1863              		.cfi_offset 4, -12
 1864              		.cfi_offset 5, -8
 1865              		.cfi_offset 14, -4
 1866 0002 85B0     		sub	sp, sp, #20
 1867              		.cfi_def_cfa_offset 32
 1868 0004 0546     		mov	r5, r0
 1869 0006 0C46     		mov	r4, r1
 327:SakuraIO/SakuraIOc.c ****   uint8_t response[2] = {0x00};
 1870              		.loc 1 327 0
 1871 0008 0021     		movs	r1, #0
 1872              	.LVL198:
 1873 000a ADF80C10 		strh	r1, [sp, #12]	@ movhi
 328:SakuraIO/SakuraIOc.c ****   uint8_t responseLength = 2;
ARM GAS  C:\Users\cronos\AppData\Local\Temp\ccrG4qtQ.s 			page 40


 1874              		.loc 1 328 0
 1875 000e 04AB     		add	r3, sp, #16
 1876 0010 0222     		movs	r2, #2
 1877 0012 03F8052D 		strb	r2, [r3, #-5]!
 329:SakuraIO/SakuraIOc.c ****   uint8_t ret = executeCommand(CMD_TX_STAT, 0, NULL, &responseLength, response);
 1878              		.loc 1 329 0
 1879 0016 03AA     		add	r2, sp, #12
 1880 0018 0092     		str	r2, [sp]
 1881 001a 0A46     		mov	r2, r1
 1882 001c 2520     		movs	r0, #37
 1883              	.LVL199:
 1884 001e FFF7FEFF 		bl	executeCommand
 1885              	.LVL200:
 330:SakuraIO/SakuraIOc.c ****   *queue = response[0];
 1886              		.loc 1 330 0
 1887 0022 9DF80C30 		ldrb	r3, [sp, #12]	@ zero_extendqisi2
 1888 0026 2B70     		strb	r3, [r5]
 331:SakuraIO/SakuraIOc.c ****   *immediate = response[1];
 1889              		.loc 1 331 0
 1890 0028 9DF80D30 		ldrb	r3, [sp, #13]	@ zero_extendqisi2
 1891 002c 2370     		strb	r3, [r4]
 332:SakuraIO/SakuraIOc.c ****   return ret;
 333:SakuraIO/SakuraIOc.c **** }
 1892              		.loc 1 333 0
 1893 002e 05B0     		add	sp, sp, #20
 1894              		.cfi_def_cfa_offset 12
 1895              		@ sp needed
 1896 0030 30BD     		pop	{r4, r5, pc}
 1897              		.cfi_endproc
 1898              	.LFE40:
 1899              		.size	getTxStatus, .-getTxStatus
 1900 0032 00BF     		.section	.text.dequeueRx,"ax",%progbits
 1901              		.align	2
 1902              		.global	dequeueRx
 1903              		.thumb
 1904              		.thumb_func
 1905              		.type	dequeueRx, %function
 1906              	dequeueRx:
 1907              	.LFB41:
 334:SakuraIO/SakuraIOc.c **** 
 335:SakuraIO/SakuraIOc.c **** /* RX Commands */
 336:SakuraIO/SakuraIOc.c **** 
 337:SakuraIO/SakuraIOc.c **** uint8_t dequeueRx(uint8_t *ch, uint8_t *type, uint8_t *value, int64_t *offset){
 1908              		.loc 1 337 0
 1909              		.cfi_startproc
 1910              		@ args = 0, pretend = 0, frame = 24
 1911              		@ frame_needed = 0, uses_anonymous_args = 0
 1912              	.LVL201:
 1913 0000 F0B5     		push	{r4, r5, r6, r7, lr}
 1914              		.cfi_def_cfa_offset 20
 1915              		.cfi_offset 4, -20
 1916              		.cfi_offset 5, -16
 1917              		.cfi_offset 6, -12
 1918              		.cfi_offset 7, -8
 1919              		.cfi_offset 14, -4
 1920 0002 89B0     		sub	sp, sp, #36
 1921              		.cfi_def_cfa_offset 56
ARM GAS  C:\Users\cronos\AppData\Local\Temp\ccrG4qtQ.s 			page 41


 1922 0004 0746     		mov	r7, r0
 1923 0006 0E46     		mov	r6, r1
 1924 0008 1546     		mov	r5, r2
 1925 000a 1C46     		mov	r4, r3
 338:SakuraIO/SakuraIOc.c ****   uint8_t response[18] = {0x00};
 1926              		.loc 1 338 0
 1927 000c 03AA     		add	r2, sp, #12
 1928              	.LVL202:
 1929 000e 0021     		movs	r1, #0
 1930              	.LVL203:
 1931 0010 0391     		str	r1, [sp, #12]
 1932 0012 0491     		str	r1, [sp, #16]
 1933 0014 0591     		str	r1, [sp, #20]
 1934 0016 0691     		str	r1, [sp, #24]
 1935 0018 ADF81C10 		strh	r1, [sp, #28]	@ movhi
 339:SakuraIO/SakuraIOc.c ****   uint8_t responseLength = 18;
 1936              		.loc 1 339 0
 1937 001c 08AB     		add	r3, sp, #32
 1938              	.LVL204:
 1939 001e 1220     		movs	r0, #18
 1940              	.LVL205:
 1941 0020 03F8150D 		strb	r0, [r3, #-21]!
 340:SakuraIO/SakuraIOc.c ****   uint8_t ret = executeCommand(CMD_RX_DEQUEUE, 0, NULL, &responseLength, response);
 1942              		.loc 1 340 0
 1943 0024 0092     		str	r2, [sp]
 1944 0026 0A46     		mov	r2, r1
 1945 0028 3020     		movs	r0, #48
 1946 002a FFF7FEFF 		bl	executeCommand
 1947              	.LVL206:
 341:SakuraIO/SakuraIOc.c ****   if(ret != CMD_ERROR_NONE){
 1948              		.loc 1 341 0
 1949 002e 0128     		cmp	r0, #1
 1950 0030 1ED1     		bne	.L129
 342:SakuraIO/SakuraIOc.c ****     return ret;
 343:SakuraIO/SakuraIOc.c ****   }
 344:SakuraIO/SakuraIOc.c **** 
 345:SakuraIO/SakuraIOc.c ****   *ch = response[0];
 1951              		.loc 1 345 0
 1952 0032 9DF80C30 		ldrb	r3, [sp, #12]	@ zero_extendqisi2
 1953 0036 3B70     		strb	r3, [r7]
 346:SakuraIO/SakuraIOc.c ****   *type = response[1];
 1954              		.loc 1 346 0
 1955 0038 9DF80D30 		ldrb	r3, [sp, #13]	@ zero_extendqisi2
 1956 003c 3370     		strb	r3, [r6]
 1957              	.LVL207:
 1958              	.LBB10:
 347:SakuraIO/SakuraIOc.c ****   for(uint8_t i=0; i<8; i++){
 1959              		.loc 1 347 0
 1960 003e 0023     		movs	r3, #0
 1961 0040 07E0     		b	.L130
 1962              	.LVL208:
 1963              	.L131:
 348:SakuraIO/SakuraIOc.c ****     value[i] = response[2+i];
 1964              		.loc 1 348 0 discriminator 3
 1965 0042 9A1C     		adds	r2, r3, #2
 1966 0044 08A9     		add	r1, sp, #32
 1967 0046 0A44     		add	r2, r2, r1
ARM GAS  C:\Users\cronos\AppData\Local\Temp\ccrG4qtQ.s 			page 42


 1968 0048 12F8142C 		ldrb	r2, [r2, #-20]	@ zero_extendqisi2
 1969 004c EA54     		strb	r2, [r5, r3]
 347:SakuraIO/SakuraIOc.c ****   for(uint8_t i=0; i<8; i++){
 1970              		.loc 1 347 0 discriminator 3
 1971 004e 0133     		adds	r3, r3, #1
 1972              	.LVL209:
 1973 0050 DBB2     		uxtb	r3, r3
 1974              	.LVL210:
 1975              	.L130:
 347:SakuraIO/SakuraIOc.c ****   for(uint8_t i=0; i<8; i++){
 1976              		.loc 1 347 0 is_stmt 0 discriminator 1
 1977 0052 072B     		cmp	r3, #7
 1978 0054 F5D9     		bls	.L131
 1979 0056 0023     		movs	r3, #0
 1980              	.LVL211:
 1981 0058 08E0     		b	.L132
 1982              	.LVL212:
 1983              	.L133:
 1984              	.LBE10:
 1985              	.LBB11:
 349:SakuraIO/SakuraIOc.c ****   }
 350:SakuraIO/SakuraIOc.c ****   for(uint8_t i=0; i<8; i++){
 351:SakuraIO/SakuraIOc.c ****     ((uint8_t *)offset)[i] = response[10+i];
 1986              		.loc 1 351 0 is_stmt 1 discriminator 3
 1987 005a 03F10A02 		add	r2, r3, #10
 1988 005e 08A9     		add	r1, sp, #32
 1989 0060 0A44     		add	r2, r2, r1
 1990 0062 12F8142C 		ldrb	r2, [r2, #-20]	@ zero_extendqisi2
 1991 0066 E254     		strb	r2, [r4, r3]
 350:SakuraIO/SakuraIOc.c ****     ((uint8_t *)offset)[i] = response[10+i];
 1992              		.loc 1 350 0 discriminator 3
 1993 0068 0133     		adds	r3, r3, #1
 1994              	.LVL213:
 1995 006a DBB2     		uxtb	r3, r3
 1996              	.LVL214:
 1997              	.L132:
 350:SakuraIO/SakuraIOc.c ****     ((uint8_t *)offset)[i] = response[10+i];
 1998              		.loc 1 350 0 is_stmt 0 discriminator 1
 1999 006c 072B     		cmp	r3, #7
 2000 006e F4D9     		bls	.L133
 2001              	.LVL215:
 2002              	.L129:
 2003              	.LBE11:
 352:SakuraIO/SakuraIOc.c ****   }
 353:SakuraIO/SakuraIOc.c **** 
 354:SakuraIO/SakuraIOc.c ****   return ret;
 355:SakuraIO/SakuraIOc.c **** }
 2004              		.loc 1 355 0 is_stmt 1
 2005 0070 09B0     		add	sp, sp, #36
 2006              		.cfi_def_cfa_offset 20
 2007              		@ sp needed
 2008 0072 F0BD     		pop	{r4, r5, r6, r7, pc}
 2009              		.cfi_endproc
 2010              	.LFE41:
 2011              		.size	dequeueRx, .-dequeueRx
 2012              		.section	.text.peekRx,"ax",%progbits
 2013              		.align	2
ARM GAS  C:\Users\cronos\AppData\Local\Temp\ccrG4qtQ.s 			page 43


 2014              		.global	peekRx
 2015              		.thumb
 2016              		.thumb_func
 2017              		.type	peekRx, %function
 2018              	peekRx:
 2019              	.LFB42:
 356:SakuraIO/SakuraIOc.c **** 
 357:SakuraIO/SakuraIOc.c **** uint8_t peekRx(uint8_t *ch, uint8_t *type, uint8_t *value, int64_t *offset){
 2020              		.loc 1 357 0
 2021              		.cfi_startproc
 2022              		@ args = 0, pretend = 0, frame = 24
 2023              		@ frame_needed = 0, uses_anonymous_args = 0
 2024              	.LVL216:
 2025 0000 F0B5     		push	{r4, r5, r6, r7, lr}
 2026              		.cfi_def_cfa_offset 20
 2027              		.cfi_offset 4, -20
 2028              		.cfi_offset 5, -16
 2029              		.cfi_offset 6, -12
 2030              		.cfi_offset 7, -8
 2031              		.cfi_offset 14, -4
 2032 0002 89B0     		sub	sp, sp, #36
 2033              		.cfi_def_cfa_offset 56
 2034 0004 0746     		mov	r7, r0
 2035 0006 0E46     		mov	r6, r1
 2036 0008 1546     		mov	r5, r2
 2037 000a 1C46     		mov	r4, r3
 358:SakuraIO/SakuraIOc.c ****   uint8_t response[18] = {0x00};
 2038              		.loc 1 358 0
 2039 000c 03AA     		add	r2, sp, #12
 2040              	.LVL217:
 2041 000e 0021     		movs	r1, #0
 2042              	.LVL218:
 2043 0010 0391     		str	r1, [sp, #12]
 2044 0012 0491     		str	r1, [sp, #16]
 2045 0014 0591     		str	r1, [sp, #20]
 2046 0016 0691     		str	r1, [sp, #24]
 2047 0018 ADF81C10 		strh	r1, [sp, #28]	@ movhi
 359:SakuraIO/SakuraIOc.c ****   uint8_t responseLength = 18;
 2048              		.loc 1 359 0
 2049 001c 08AB     		add	r3, sp, #32
 2050              	.LVL219:
 2051 001e 1220     		movs	r0, #18
 2052              	.LVL220:
 2053 0020 03F8150D 		strb	r0, [r3, #-21]!
 360:SakuraIO/SakuraIOc.c ****   uint8_t ret = executeCommand(CMD_RX_PEEK, 0, NULL, &responseLength, response);
 2054              		.loc 1 360 0
 2055 0024 0092     		str	r2, [sp]
 2056 0026 0A46     		mov	r2, r1
 2057 0028 3120     		movs	r0, #49
 2058 002a FFF7FEFF 		bl	executeCommand
 2059              	.LVL221:
 361:SakuraIO/SakuraIOc.c ****   if(ret != CMD_ERROR_NONE){
 2060              		.loc 1 361 0
 2061 002e 0128     		cmp	r0, #1
 2062 0030 1ED1     		bne	.L136
 362:SakuraIO/SakuraIOc.c ****     return ret;
 363:SakuraIO/SakuraIOc.c ****   }
ARM GAS  C:\Users\cronos\AppData\Local\Temp\ccrG4qtQ.s 			page 44


 364:SakuraIO/SakuraIOc.c **** 
 365:SakuraIO/SakuraIOc.c ****   *ch = response[0];
 2063              		.loc 1 365 0
 2064 0032 9DF80C30 		ldrb	r3, [sp, #12]	@ zero_extendqisi2
 2065 0036 3B70     		strb	r3, [r7]
 366:SakuraIO/SakuraIOc.c ****   *type = response[1];
 2066              		.loc 1 366 0
 2067 0038 9DF80D30 		ldrb	r3, [sp, #13]	@ zero_extendqisi2
 2068 003c 3370     		strb	r3, [r6]
 2069              	.LVL222:
 2070              	.LBB12:
 367:SakuraIO/SakuraIOc.c ****   for(uint8_t i=0; i<8; i++){
 2071              		.loc 1 367 0
 2072 003e 0023     		movs	r3, #0
 2073 0040 07E0     		b	.L137
 2074              	.LVL223:
 2075              	.L138:
 368:SakuraIO/SakuraIOc.c ****     value[i] = response[2+i];
 2076              		.loc 1 368 0 discriminator 3
 2077 0042 9A1C     		adds	r2, r3, #2
 2078 0044 08A9     		add	r1, sp, #32
 2079 0046 0A44     		add	r2, r2, r1
 2080 0048 12F8142C 		ldrb	r2, [r2, #-20]	@ zero_extendqisi2
 2081 004c EA54     		strb	r2, [r5, r3]
 367:SakuraIO/SakuraIOc.c ****   for(uint8_t i=0; i<8; i++){
 2082              		.loc 1 367 0 discriminator 3
 2083 004e 0133     		adds	r3, r3, #1
 2084              	.LVL224:
 2085 0050 DBB2     		uxtb	r3, r3
 2086              	.LVL225:
 2087              	.L137:
 367:SakuraIO/SakuraIOc.c ****   for(uint8_t i=0; i<8; i++){
 2088              		.loc 1 367 0 is_stmt 0 discriminator 1
 2089 0052 072B     		cmp	r3, #7
 2090 0054 F5D9     		bls	.L138
 2091 0056 0023     		movs	r3, #0
 2092              	.LVL226:
 2093 0058 08E0     		b	.L139
 2094              	.LVL227:
 2095              	.L140:
 2096              	.LBE12:
 2097              	.LBB13:
 369:SakuraIO/SakuraIOc.c ****   }
 370:SakuraIO/SakuraIOc.c ****   for(uint8_t i=0; i<8; i++){
 371:SakuraIO/SakuraIOc.c ****     ((uint8_t *)offset)[i] = response[10+i];
 2098              		.loc 1 371 0 is_stmt 1 discriminator 3
 2099 005a 03F10A02 		add	r2, r3, #10
 2100 005e 08A9     		add	r1, sp, #32
 2101 0060 0A44     		add	r2, r2, r1
 2102 0062 12F8142C 		ldrb	r2, [r2, #-20]	@ zero_extendqisi2
 2103 0066 E254     		strb	r2, [r4, r3]
 370:SakuraIO/SakuraIOc.c ****     ((uint8_t *)offset)[i] = response[10+i];
 2104              		.loc 1 370 0 discriminator 3
 2105 0068 0133     		adds	r3, r3, #1
 2106              	.LVL228:
 2107 006a DBB2     		uxtb	r3, r3
 2108              	.LVL229:
ARM GAS  C:\Users\cronos\AppData\Local\Temp\ccrG4qtQ.s 			page 45


 2109              	.L139:
 370:SakuraIO/SakuraIOc.c ****     ((uint8_t *)offset)[i] = response[10+i];
 2110              		.loc 1 370 0 is_stmt 0 discriminator 1
 2111 006c 072B     		cmp	r3, #7
 2112 006e F4D9     		bls	.L140
 2113              	.LVL230:
 2114              	.L136:
 2115              	.LBE13:
 372:SakuraIO/SakuraIOc.c ****   }
 373:SakuraIO/SakuraIOc.c **** 
 374:SakuraIO/SakuraIOc.c ****   return ret;
 375:SakuraIO/SakuraIOc.c **** }
 2116              		.loc 1 375 0 is_stmt 1
 2117 0070 09B0     		add	sp, sp, #36
 2118              		.cfi_def_cfa_offset 20
 2119              		@ sp needed
 2120 0072 F0BD     		pop	{r4, r5, r6, r7, pc}
 2121              		.cfi_endproc
 2122              	.LFE42:
 2123              		.size	peekRx, .-peekRx
 2124              		.section	.text.getRxQueueLength,"ax",%progbits
 2125              		.align	2
 2126              		.global	getRxQueueLength
 2127              		.thumb
 2128              		.thumb_func
 2129              		.type	getRxQueueLength, %function
 2130              	getRxQueueLength:
 2131              	.LFB43:
 376:SakuraIO/SakuraIOc.c **** 
 377:SakuraIO/SakuraIOc.c **** uint8_t getRxQueueLength(uint8_t *available, uint8_t *queued){
 2132              		.loc 1 377 0
 2133              		.cfi_startproc
 2134              		@ args = 0, pretend = 0, frame = 8
 2135              		@ frame_needed = 0, uses_anonymous_args = 0
 2136              	.LVL231:
 2137 0000 30B5     		push	{r4, r5, lr}
 2138              		.cfi_def_cfa_offset 12
 2139              		.cfi_offset 4, -12
 2140              		.cfi_offset 5, -8
 2141              		.cfi_offset 14, -4
 2142 0002 85B0     		sub	sp, sp, #20
 2143              		.cfi_def_cfa_offset 32
 2144 0004 0546     		mov	r5, r0
 2145 0006 0C46     		mov	r4, r1
 378:SakuraIO/SakuraIOc.c ****   uint8_t response[2] = {0x00};
 2146              		.loc 1 378 0
 2147 0008 0021     		movs	r1, #0
 2148              	.LVL232:
 2149 000a ADF80C10 		strh	r1, [sp, #12]	@ movhi
 379:SakuraIO/SakuraIOc.c ****   uint8_t responseLength = 2;
 2150              		.loc 1 379 0
 2151 000e 04AB     		add	r3, sp, #16
 2152 0010 0222     		movs	r2, #2
 2153 0012 03F8052D 		strb	r2, [r3, #-5]!
 380:SakuraIO/SakuraIOc.c ****   uint8_t ret = executeCommand(CMD_RX_LENGTH, 0, NULL, &responseLength, response);
 2154              		.loc 1 380 0
 2155 0016 03AA     		add	r2, sp, #12
ARM GAS  C:\Users\cronos\AppData\Local\Temp\ccrG4qtQ.s 			page 46


 2156 0018 0092     		str	r2, [sp]
 2157 001a 0A46     		mov	r2, r1
 2158 001c 3220     		movs	r0, #50
 2159              	.LVL233:
 2160 001e FFF7FEFF 		bl	executeCommand
 2161              	.LVL234:
 381:SakuraIO/SakuraIOc.c ****   *available = response[0];
 2162              		.loc 1 381 0
 2163 0022 9DF80C30 		ldrb	r3, [sp, #12]	@ zero_extendqisi2
 2164 0026 2B70     		strb	r3, [r5]
 382:SakuraIO/SakuraIOc.c ****   *queued = response[1];
 2165              		.loc 1 382 0
 2166 0028 9DF80D30 		ldrb	r3, [sp, #13]	@ zero_extendqisi2
 2167 002c 2370     		strb	r3, [r4]
 383:SakuraIO/SakuraIOc.c ****   return ret;
 384:SakuraIO/SakuraIOc.c **** }
 2168              		.loc 1 384 0
 2169 002e 05B0     		add	sp, sp, #20
 2170              		.cfi_def_cfa_offset 12
 2171              		@ sp needed
 2172 0030 30BD     		pop	{r4, r5, pc}
 2173              		.cfi_endproc
 2174              	.LFE43:
 2175              		.size	getRxQueueLength, .-getRxQueueLength
 2176 0032 00BF     		.section	.text.clearRx,"ax",%progbits
 2177              		.align	2
 2178              		.global	clearRx
 2179              		.thumb
 2180              		.thumb_func
 2181              		.type	clearRx, %function
 2182              	clearRx:
 2183              	.LFB44:
 385:SakuraIO/SakuraIOc.c **** 
 386:SakuraIO/SakuraIOc.c **** uint8_t clearRx(){
 2184              		.loc 1 386 0
 2185              		.cfi_startproc
 2186              		@ args = 0, pretend = 0, frame = 0
 2187              		@ frame_needed = 0, uses_anonymous_args = 0
 2188 0000 00B5     		push	{lr}
 2189              		.cfi_def_cfa_offset 4
 2190              		.cfi_offset 14, -4
 2191 0002 83B0     		sub	sp, sp, #12
 2192              		.cfi_def_cfa_offset 16
 387:SakuraIO/SakuraIOc.c ****   return executeCommand(CMD_RX_CLEAR, 0, NULL, NULL, NULL);
 2193              		.loc 1 387 0
 2194 0004 0021     		movs	r1, #0
 2195 0006 0091     		str	r1, [sp]
 2196 0008 0B46     		mov	r3, r1
 2197 000a 0A46     		mov	r2, r1
 2198 000c 3320     		movs	r0, #51
 2199 000e FFF7FEFF 		bl	executeCommand
 2200              	.LVL235:
 388:SakuraIO/SakuraIOc.c **** }
 2201              		.loc 1 388 0
 2202 0012 03B0     		add	sp, sp, #12
 2203              		.cfi_def_cfa_offset 4
 2204              		@ sp needed
ARM GAS  C:\Users\cronos\AppData\Local\Temp\ccrG4qtQ.s 			page 47


 2205 0014 5DF804FB 		ldr	pc, [sp], #4
 2206              		.cfi_endproc
 2207              	.LFE44:
 2208              		.size	clearRx, .-clearRx
 2209              		.section	.text.startFileDownload,"ax",%progbits
 2210              		.align	2
 2211              		.global	startFileDownload
 2212              		.thumb
 2213              		.thumb_func
 2214              		.type	startFileDownload, %function
 2215              	startFileDownload:
 2216              	.LFB45:
 389:SakuraIO/SakuraIOc.c **** 
 390:SakuraIO/SakuraIOc.c **** /* File command */
 391:SakuraIO/SakuraIOc.c **** uint8_t startFileDownload(uint16_t fileId){
 2217              		.loc 1 391 0
 2218              		.cfi_startproc
 2219              		@ args = 0, pretend = 0, frame = 8
 2220              		@ frame_needed = 0, uses_anonymous_args = 0
 2221              	.LVL236:
 2222 0000 00B5     		push	{lr}
 2223              		.cfi_def_cfa_offset 4
 2224              		.cfi_offset 14, -4
 2225 0002 85B0     		sub	sp, sp, #20
 2226              		.cfi_def_cfa_offset 24
 2227 0004 04AA     		add	r2, sp, #16
 2228 0006 22F8020D 		strh	r0, [r2, #-2]!	@ movhi
 392:SakuraIO/SakuraIOc.c ****   return executeCommand(CMD_START_FILE_DOWNLOAD, 2, (uint8_t *)&fileId, NULL, NULL);
 2229              		.loc 1 392 0
 2230 000a 0023     		movs	r3, #0
 2231 000c 0093     		str	r3, [sp]
 2232 000e 0221     		movs	r1, #2
 2233 0010 4020     		movs	r0, #64
 2234              	.LVL237:
 2235 0012 FFF7FEFF 		bl	executeCommand
 2236              	.LVL238:
 393:SakuraIO/SakuraIOc.c **** }
 2237              		.loc 1 393 0
 2238 0016 05B0     		add	sp, sp, #20
 2239              		.cfi_def_cfa_offset 4
 2240              		@ sp needed
 2241 0018 5DF804FB 		ldr	pc, [sp], #4
 2242              		.cfi_endproc
 2243              	.LFE45:
 2244              		.size	startFileDownload, .-startFileDownload
 2245              		.section	.text.cancelFileDownload,"ax",%progbits
 2246              		.align	2
 2247              		.global	cancelFileDownload
 2248              		.thumb
 2249              		.thumb_func
 2250              		.type	cancelFileDownload, %function
 2251              	cancelFileDownload:
 2252              	.LFB46:
 394:SakuraIO/SakuraIOc.c **** 
 395:SakuraIO/SakuraIOc.c **** uint8_t cancelFileDownload(){
 2253              		.loc 1 395 0
 2254              		.cfi_startproc
ARM GAS  C:\Users\cronos\AppData\Local\Temp\ccrG4qtQ.s 			page 48


 2255              		@ args = 0, pretend = 0, frame = 0
 2256              		@ frame_needed = 0, uses_anonymous_args = 0
 2257 0000 00B5     		push	{lr}
 2258              		.cfi_def_cfa_offset 4
 2259              		.cfi_offset 14, -4
 2260 0002 83B0     		sub	sp, sp, #12
 2261              		.cfi_def_cfa_offset 16
 396:SakuraIO/SakuraIOc.c ****   return executeCommand(CMD_CANCEL_FILE_DOWNLOAD, 0, NULL, NULL, NULL);
 2262              		.loc 1 396 0
 2263 0004 0021     		movs	r1, #0
 2264 0006 0091     		str	r1, [sp]
 2265 0008 0B46     		mov	r3, r1
 2266 000a 0A46     		mov	r2, r1
 2267 000c 4320     		movs	r0, #67
 2268 000e FFF7FEFF 		bl	executeCommand
 2269              	.LVL239:
 397:SakuraIO/SakuraIOc.c **** }
 2270              		.loc 1 397 0
 2271 0012 03B0     		add	sp, sp, #12
 2272              		.cfi_def_cfa_offset 4
 2273              		@ sp needed
 2274 0014 5DF804FB 		ldr	pc, [sp], #4
 2275              		.cfi_endproc
 2276              	.LFE46:
 2277              		.size	cancelFileDownload, .-cancelFileDownload
 2278              		.section	.text.getFileMetaData,"ax",%progbits
 2279              		.align	2
 2280              		.global	getFileMetaData
 2281              		.thumb
 2282              		.thumb_func
 2283              		.type	getFileMetaData, %function
 2284              	getFileMetaData:
 2285              	.LFB47:
 398:SakuraIO/SakuraIOc.c **** 
 399:SakuraIO/SakuraIOc.c **** uint8_t getFileMetaData(uint8_t *status, uint32_t *totalSize, uint64_t *timestamp, uint32_t *crc){
 2286              		.loc 1 399 0
 2287              		.cfi_startproc
 2288              		@ args = 0, pretend = 0, frame = 24
 2289              		@ frame_needed = 0, uses_anonymous_args = 0
 2290              	.LVL240:
 2291 0000 F0B5     		push	{r4, r5, r6, r7, lr}
 2292              		.cfi_def_cfa_offset 20
 2293              		.cfi_offset 4, -20
 2294              		.cfi_offset 5, -16
 2295              		.cfi_offset 6, -12
 2296              		.cfi_offset 7, -8
 2297              		.cfi_offset 14, -4
 2298 0002 89B0     		sub	sp, sp, #36
 2299              		.cfi_def_cfa_offset 56
 2300 0004 0746     		mov	r7, r0
 2301 0006 0E46     		mov	r6, r1
 2302 0008 1446     		mov	r4, r2
 2303 000a 1D46     		mov	r5, r3
 400:SakuraIO/SakuraIOc.c ****   uint8_t response[17] = {0x00};
 2304              		.loc 1 400 0
 2305 000c 03AA     		add	r2, sp, #12
 2306              	.LVL241:
ARM GAS  C:\Users\cronos\AppData\Local\Temp\ccrG4qtQ.s 			page 49


 2307 000e 0021     		movs	r1, #0
 2308              	.LVL242:
 2309 0010 0391     		str	r1, [sp, #12]
 2310 0012 0491     		str	r1, [sp, #16]
 2311 0014 0591     		str	r1, [sp, #20]
 2312 0016 0691     		str	r1, [sp, #24]
 2313 0018 8DF81C10 		strb	r1, [sp, #28]
 401:SakuraIO/SakuraIOc.c ****   uint8_t responseLength = 17;
 2314              		.loc 1 401 0
 2315 001c 08AB     		add	r3, sp, #32
 2316              	.LVL243:
 2317 001e 1120     		movs	r0, #17
 2318              	.LVL244:
 2319 0020 03F8150D 		strb	r0, [r3, #-21]!
 402:SakuraIO/SakuraIOc.c ****   uint8_t ret = executeCommand(CMD_GET_FILE_METADATA, 0, NULL, &responseLength, response);
 2320              		.loc 1 402 0
 2321 0024 0092     		str	r2, [sp]
 2322 0026 0A46     		mov	r2, r1
 2323 0028 4120     		movs	r0, #65
 2324 002a FFF7FEFF 		bl	executeCommand
 2325              	.LVL245:
 403:SakuraIO/SakuraIOc.c ****   *status = response[0];
 2326              		.loc 1 403 0
 2327 002e 9DF80C30 		ldrb	r3, [sp, #12]	@ zero_extendqisi2
 2328 0032 3B70     		strb	r3, [r7]
 404:SakuraIO/SakuraIOc.c ****   *totalSize = *(uint32_t *)(response+1);
 2329              		.loc 1 404 0
 2330 0034 DDF80D30 		ldr	r3, [sp, #13]	@ unaligned
 2331 0038 3360     		str	r3, [r6]
 405:SakuraIO/SakuraIOc.c ****   *timestamp = *(uint64_t *)(response+5);
 2332              		.loc 1 405 0
 2333 003a 08AB     		add	r3, sp, #32
 2334 003c 53F80F2D 		ldr	r2, [r3, #-15]!	@ unaligned
 2335 0040 5B68     		ldr	r3, [r3, #4]	@ unaligned
 2336 0042 2260     		str	r2, [r4]
 2337 0044 6360     		str	r3, [r4, #4]
 406:SakuraIO/SakuraIOc.c ****   *crc = *(uint32_t *)(response+13);
 2338              		.loc 1 406 0
 2339 0046 DDF81930 		ldr	r3, [sp, #25]	@ unaligned
 2340 004a 2B60     		str	r3, [r5]
 407:SakuraIO/SakuraIOc.c ****   return ret;
 408:SakuraIO/SakuraIOc.c **** }
 2341              		.loc 1 408 0
 2342 004c 09B0     		add	sp, sp, #36
 2343              		.cfi_def_cfa_offset 20
 2344              		@ sp needed
 2345 004e F0BD     		pop	{r4, r5, r6, r7, pc}
 2346              		.cfi_endproc
 2347              	.LFE47:
 2348              		.size	getFileMetaData, .-getFileMetaData
 2349              		.section	.text.getFileDownloadStatus,"ax",%progbits
 2350              		.align	2
 2351              		.global	getFileDownloadStatus
 2352              		.thumb
 2353              		.thumb_func
 2354              		.type	getFileDownloadStatus, %function
 2355              	getFileDownloadStatus:
ARM GAS  C:\Users\cronos\AppData\Local\Temp\ccrG4qtQ.s 			page 50


 2356              	.LFB48:
 409:SakuraIO/SakuraIOc.c **** 
 410:SakuraIO/SakuraIOc.c **** uint8_t getFileDownloadStatus(uint8_t *status, uint32_t *currentSize){
 2357              		.loc 1 410 0
 2358              		.cfi_startproc
 2359              		@ args = 0, pretend = 0, frame = 16
 2360              		@ frame_needed = 0, uses_anonymous_args = 0
 2361              	.LVL246:
 2362 0000 30B5     		push	{r4, r5, lr}
 2363              		.cfi_def_cfa_offset 12
 2364              		.cfi_offset 4, -12
 2365              		.cfi_offset 5, -8
 2366              		.cfi_offset 14, -4
 2367 0002 87B0     		sub	sp, sp, #28
 2368              		.cfi_def_cfa_offset 40
 2369 0004 0546     		mov	r5, r0
 2370 0006 0C46     		mov	r4, r1
 411:SakuraIO/SakuraIOc.c ****   uint8_t response[5] = {0x00};
 2371              		.loc 1 411 0
 2372 0008 04AA     		add	r2, sp, #16
 2373 000a 0021     		movs	r1, #0
 2374              	.LVL247:
 2375 000c 0491     		str	r1, [sp, #16]
 2376 000e 8DF81410 		strb	r1, [sp, #20]
 412:SakuraIO/SakuraIOc.c ****   uint8_t responseLength = 5;
 2377              		.loc 1 412 0
 2378 0012 06AB     		add	r3, sp, #24
 2379 0014 0520     		movs	r0, #5
 2380              	.LVL248:
 2381 0016 03F8090D 		strb	r0, [r3, #-9]!
 413:SakuraIO/SakuraIOc.c ****   uint8_t ret = executeCommand(CMD_GET_FILE_DOWNLOAD_STATUS, 0, NULL, &responseLength, response);
 2382              		.loc 1 413 0
 2383 001a 0092     		str	r2, [sp]
 2384 001c 0A46     		mov	r2, r1
 2385 001e 4220     		movs	r0, #66
 2386 0020 FFF7FEFF 		bl	executeCommand
 2387              	.LVL249:
 414:SakuraIO/SakuraIOc.c ****   *status = response[0];
 2388              		.loc 1 414 0
 2389 0024 9DF81030 		ldrb	r3, [sp, #16]	@ zero_extendqisi2
 2390 0028 2B70     		strb	r3, [r5]
 415:SakuraIO/SakuraIOc.c ****   *currentSize = *(uint32_t *)(response+1);
 2391              		.loc 1 415 0
 2392 002a DDF81130 		ldr	r3, [sp, #17]	@ unaligned
 2393 002e 2360     		str	r3, [r4]
 416:SakuraIO/SakuraIOc.c ****   return ret;
 417:SakuraIO/SakuraIOc.c **** }
 2394              		.loc 1 417 0
 2395 0030 07B0     		add	sp, sp, #28
 2396              		.cfi_def_cfa_offset 12
 2397              		@ sp needed
 2398 0032 30BD     		pop	{r4, r5, pc}
 2399              		.cfi_endproc
 2400              	.LFE48:
 2401              		.size	getFileDownloadStatus, .-getFileDownloadStatus
 2402              		.section	.text.getFileData,"ax",%progbits
 2403              		.align	2
ARM GAS  C:\Users\cronos\AppData\Local\Temp\ccrG4qtQ.s 			page 51


 2404              		.global	getFileData
 2405              		.thumb
 2406              		.thumb_func
 2407              		.type	getFileData, %function
 2408              	getFileData:
 2409              	.LFB49:
 418:SakuraIO/SakuraIOc.c **** 
 419:SakuraIO/SakuraIOc.c **** uint8_t getFileData(uint8_t *size, uint8_t *data){
 2410              		.loc 1 419 0
 2411              		.cfi_startproc
 2412              		@ args = 0, pretend = 0, frame = 0
 2413              		@ frame_needed = 0, uses_anonymous_args = 0
 2414              	.LVL250:
 2415 0000 00B5     		push	{lr}
 2416              		.cfi_def_cfa_offset 4
 2417              		.cfi_offset 14, -4
 2418 0002 83B0     		sub	sp, sp, #12
 2419              		.cfi_def_cfa_offset 16
 2420 0004 0246     		mov	r2, r0
 420:SakuraIO/SakuraIOc.c ****   return executeCommand(CMD_GET_FILE_DATA, 1, size, size, data);
 2421              		.loc 1 420 0
 2422 0006 0091     		str	r1, [sp]
 2423 0008 0346     		mov	r3, r0
 2424 000a 0121     		movs	r1, #1
 2425              	.LVL251:
 2426 000c 4420     		movs	r0, #68
 2427              	.LVL252:
 2428 000e FFF7FEFF 		bl	executeCommand
 2429              	.LVL253:
 421:SakuraIO/SakuraIOc.c **** }
 2430              		.loc 1 421 0
 2431 0012 03B0     		add	sp, sp, #12
 2432              		.cfi_def_cfa_offset 4
 2433              		@ sp needed
 2434 0014 5DF804FB 		ldr	pc, [sp], #4
 2435              		.cfi_endproc
 2436              	.LFE49:
 2437              		.size	getFileData, .-getFileData
 2438              		.section	.text.getProductID,"ax",%progbits
 2439              		.align	2
 2440              		.global	getProductID
 2441              		.thumb
 2442              		.thumb_func
 2443              		.type	getProductID, %function
 2444              	getProductID:
 2445              	.LFB50:
 422:SakuraIO/SakuraIOc.c **** 
 423:SakuraIO/SakuraIOc.c **** /* Operation command */
 424:SakuraIO/SakuraIOc.c **** 
 425:SakuraIO/SakuraIOc.c **** uint16_t getProductID(){
 2446              		.loc 1 425 0
 2447              		.cfi_startproc
 2448              		@ args = 0, pretend = 0, frame = 8
 2449              		@ frame_needed = 0, uses_anonymous_args = 0
 2450 0000 00B5     		push	{lr}
 2451              		.cfi_def_cfa_offset 4
 2452              		.cfi_offset 14, -4
ARM GAS  C:\Users\cronos\AppData\Local\Temp\ccrG4qtQ.s 			page 52


 2453 0002 85B0     		sub	sp, sp, #20
 2454              		.cfi_def_cfa_offset 24
 426:SakuraIO/SakuraIOc.c ****   uint8_t response[2] = {0x00};
 2455              		.loc 1 426 0
 2456 0004 0021     		movs	r1, #0
 2457 0006 ADF80C10 		strh	r1, [sp, #12]	@ movhi
 427:SakuraIO/SakuraIOc.c ****   uint8_t responseLength = 2;
 2458              		.loc 1 427 0
 2459 000a 04AB     		add	r3, sp, #16
 2460 000c 0222     		movs	r2, #2
 2461 000e 03F8052D 		strb	r2, [r3, #-5]!
 428:SakuraIO/SakuraIOc.c ****   uint8_t ret = executeCommand(CMD_GET_PRODUCT_ID, 0, NULL, &responseLength, response);
 2462              		.loc 1 428 0
 2463 0012 03AA     		add	r2, sp, #12
 2464 0014 0092     		str	r2, [sp]
 2465 0016 0A46     		mov	r2, r1
 2466 0018 A020     		movs	r0, #160
 2467 001a FFF7FEFF 		bl	executeCommand
 2468              	.LVL254:
 429:SakuraIO/SakuraIOc.c ****   if(ret != CMD_ERROR_NONE){
 2469              		.loc 1 429 0
 2470 001e 0128     		cmp	r0, #1
 2471 0020 02D1     		bne	.L158
 430:SakuraIO/SakuraIOc.c ****     return 0x00;
 431:SakuraIO/SakuraIOc.c ****   }
 432:SakuraIO/SakuraIOc.c ****   return *((uint16_t *)response);
 2472              		.loc 1 432 0
 2473 0022 BDF80C00 		ldrh	r0, [sp, #12]
 2474              	.LVL255:
 2475 0026 00E0     		b	.L157
 2476              	.LVL256:
 2477              	.L158:
 430:SakuraIO/SakuraIOc.c ****     return 0x00;
 2478              		.loc 1 430 0
 2479 0028 0020     		movs	r0, #0
 2480              	.LVL257:
 2481              	.L157:
 433:SakuraIO/SakuraIOc.c **** }
 2482              		.loc 1 433 0
 2483 002a 05B0     		add	sp, sp, #20
 2484              		.cfi_def_cfa_offset 4
 2485              		@ sp needed
 2486 002c 5DF804FB 		ldr	pc, [sp], #4
 2487              		.cfi_endproc
 2488              	.LFE50:
 2489              		.size	getProductID, .-getProductID
 2490              		.section	.text.getUniqueID,"ax",%progbits
 2491              		.align	2
 2492              		.global	getUniqueID
 2493              		.thumb
 2494              		.thumb_func
 2495              		.type	getUniqueID, %function
 2496              	getUniqueID:
 2497              	.LFB51:
 434:SakuraIO/SakuraIOc.c **** 
 435:SakuraIO/SakuraIOc.c **** uint8_t getUniqueID(char *data){
 2498              		.loc 1 435 0
ARM GAS  C:\Users\cronos\AppData\Local\Temp\ccrG4qtQ.s 			page 53


 2499              		.cfi_startproc
 2500              		@ args = 0, pretend = 0, frame = 16
 2501              		@ frame_needed = 0, uses_anonymous_args = 0
 2502              	.LVL258:
 2503 0000 10B5     		push	{r4, lr}
 2504              		.cfi_def_cfa_offset 8
 2505              		.cfi_offset 4, -8
 2506              		.cfi_offset 14, -4
 2507 0002 86B0     		sub	sp, sp, #24
 2508              		.cfi_def_cfa_offset 32
 2509 0004 0446     		mov	r4, r0
 436:SakuraIO/SakuraIOc.c ****   uint8_t response[11] = {0x00};
 2510              		.loc 1 436 0
 2511 0006 03AA     		add	r2, sp, #12
 2512 0008 0021     		movs	r1, #0
 2513 000a 0391     		str	r1, [sp, #12]
 2514 000c 0491     		str	r1, [sp, #16]
 2515 000e CDF81310 		str	r1, [sp, #19]	@ unaligned
 437:SakuraIO/SakuraIOc.c ****   uint8_t responseLength = 10;
 2516              		.loc 1 437 0
 2517 0012 06AB     		add	r3, sp, #24
 2518 0014 0A20     		movs	r0, #10
 2519              	.LVL259:
 2520 0016 03F80D0D 		strb	r0, [r3, #-13]!
 438:SakuraIO/SakuraIOc.c ****   uint8_t ret = executeCommand(CMD_GET_UNIQUE_ID, 0, NULL, &responseLength, response);
 2521              		.loc 1 438 0
 2522 001a 0092     		str	r2, [sp]
 2523 001c 0A46     		mov	r2, r1
 2524 001e A120     		movs	r0, #161
 2525 0020 FFF7FEFF 		bl	executeCommand
 2526              	.LVL260:
 439:SakuraIO/SakuraIOc.c ****   if(ret != CMD_ERROR_NONE){
 2527              		.loc 1 439 0
 2528 0024 0128     		cmp	r0, #1
 2529 0026 0ED1     		bne	.L161
 2530 0028 0023     		movs	r3, #0
 2531 002a 06E0     		b	.L162
 2532              	.LVL261:
 2533              	.L163:
 2534              	.LBB14:
 440:SakuraIO/SakuraIOc.c ****     return ret;
 441:SakuraIO/SakuraIOc.c ****   }
 442:SakuraIO/SakuraIOc.c ****   for(uint8_t i=0; i<responseLength; i++){
 443:SakuraIO/SakuraIOc.c ****     data[i] = (char)response[i];
 2535              		.loc 1 443 0 discriminator 3
 2536 002c 06AA     		add	r2, sp, #24
 2537 002e 1A44     		add	r2, r2, r3
 2538 0030 12F80C2C 		ldrb	r2, [r2, #-12]	@ zero_extendqisi2
 2539 0034 E254     		strb	r2, [r4, r3]
 442:SakuraIO/SakuraIOc.c ****     data[i] = (char)response[i];
 2540              		.loc 1 442 0 discriminator 3
 2541 0036 0133     		adds	r3, r3, #1
 2542              	.LVL262:
 2543 0038 DBB2     		uxtb	r3, r3
 2544              	.LVL263:
 2545              	.L162:
 442:SakuraIO/SakuraIOc.c ****     data[i] = (char)response[i];
ARM GAS  C:\Users\cronos\AppData\Local\Temp\ccrG4qtQ.s 			page 54


 2546              		.loc 1 442 0 is_stmt 0 discriminator 1
 2547 003a 9DF80B20 		ldrb	r2, [sp, #11]	@ zero_extendqisi2
 2548 003e 9342     		cmp	r3, r2
 2549 0040 F4D3     		bcc	.L163
 2550              	.LBE14:
 444:SakuraIO/SakuraIOc.c ****   }
 445:SakuraIO/SakuraIOc.c ****   data[responseLength] = 0x00;
 2551              		.loc 1 445 0 is_stmt 1
 2552 0042 0023     		movs	r3, #0
 2553              	.LVL264:
 2554 0044 A354     		strb	r3, [r4, r2]
 2555              	.L161:
 446:SakuraIO/SakuraIOc.c ****   return ret;
 447:SakuraIO/SakuraIOc.c **** }
 2556              		.loc 1 447 0
 2557 0046 06B0     		add	sp, sp, #24
 2558              		.cfi_def_cfa_offset 8
 2559              		@ sp needed
 2560 0048 10BD     		pop	{r4, pc}
 2561              		.cfi_endproc
 2562              	.LFE51:
 2563              		.size	getUniqueID, .-getUniqueID
 2564 004a 00BF     		.section	.text.getFirmwareVersion,"ax",%progbits
 2565              		.align	2
 2566              		.global	getFirmwareVersion
 2567              		.thumb
 2568              		.thumb_func
 2569              		.type	getFirmwareVersion, %function
 2570              	getFirmwareVersion:
 2571              	.LFB52:
 448:SakuraIO/SakuraIOc.c **** 
 449:SakuraIO/SakuraIOc.c **** uint8_t getFirmwareVersion(char *data){
 2572              		.loc 1 449 0
 2573              		.cfi_startproc
 2574              		@ args = 0, pretend = 0, frame = 40
 2575              		@ frame_needed = 0, uses_anonymous_args = 0
 2576              	.LVL265:
 2577 0000 30B5     		push	{r4, r5, lr}
 2578              		.cfi_def_cfa_offset 12
 2579              		.cfi_offset 4, -12
 2580              		.cfi_offset 5, -8
 2581              		.cfi_offset 14, -4
 2582 0002 8DB0     		sub	sp, sp, #52
 2583              		.cfi_def_cfa_offset 64
 2584 0004 0446     		mov	r4, r0
 450:SakuraIO/SakuraIOc.c ****   uint8_t response[33] = {0x00};
 2585              		.loc 1 450 0
 2586 0006 03AD     		add	r5, sp, #12
 2587 0008 2122     		movs	r2, #33
 2588 000a 0021     		movs	r1, #0
 2589 000c 2846     		mov	r0, r5
 2590              	.LVL266:
 2591 000e FFF7FEFF 		bl	memset
 2592              	.LVL267:
 451:SakuraIO/SakuraIOc.c ****   uint8_t responseLength = 32;
 2593              		.loc 1 451 0
 2594 0012 0CAB     		add	r3, sp, #48
ARM GAS  C:\Users\cronos\AppData\Local\Temp\ccrG4qtQ.s 			page 55


 2595 0014 2022     		movs	r2, #32
 2596 0016 03F8252D 		strb	r2, [r3, #-37]!
 452:SakuraIO/SakuraIOc.c ****   uint8_t ret = executeCommand(CMD_GET_FIRMWARE_VERSION, 0, NULL, &responseLength, response);
 2597              		.loc 1 452 0
 2598 001a 0095     		str	r5, [sp]
 2599 001c 0022     		movs	r2, #0
 2600 001e 1146     		mov	r1, r2
 2601 0020 A220     		movs	r0, #162
 2602 0022 FFF7FEFF 		bl	executeCommand
 2603              	.LVL268:
 453:SakuraIO/SakuraIOc.c ****   if(ret != CMD_ERROR_NONE){
 2604              		.loc 1 453 0
 2605 0026 0128     		cmp	r0, #1
 2606 0028 0ED1     		bne	.L166
 2607 002a 0023     		movs	r3, #0
 2608 002c 06E0     		b	.L167
 2609              	.LVL269:
 2610              	.L168:
 2611              	.LBB15:
 454:SakuraIO/SakuraIOc.c ****     return ret;
 455:SakuraIO/SakuraIOc.c ****   }
 456:SakuraIO/SakuraIOc.c ****   for(uint8_t i=0; i<responseLength; i++){
 457:SakuraIO/SakuraIOc.c ****     data[i] = (char)response[i];
 2612              		.loc 1 457 0 discriminator 3
 2613 002e 0CAA     		add	r2, sp, #48
 2614 0030 1A44     		add	r2, r2, r3
 2615 0032 12F8242C 		ldrb	r2, [r2, #-36]	@ zero_extendqisi2
 2616 0036 E254     		strb	r2, [r4, r3]
 456:SakuraIO/SakuraIOc.c ****     data[i] = (char)response[i];
 2617              		.loc 1 456 0 discriminator 3
 2618 0038 0133     		adds	r3, r3, #1
 2619              	.LVL270:
 2620 003a DBB2     		uxtb	r3, r3
 2621              	.LVL271:
 2622              	.L167:
 456:SakuraIO/SakuraIOc.c ****     data[i] = (char)response[i];
 2623              		.loc 1 456 0 is_stmt 0 discriminator 1
 2624 003c 9DF80B20 		ldrb	r2, [sp, #11]	@ zero_extendqisi2
 2625 0040 9342     		cmp	r3, r2
 2626 0042 F4D3     		bcc	.L168
 2627              	.LBE15:
 458:SakuraIO/SakuraIOc.c ****   }
 459:SakuraIO/SakuraIOc.c ****   data[responseLength] = 0x00;
 2628              		.loc 1 459 0 is_stmt 1
 2629 0044 0023     		movs	r3, #0
 2630              	.LVL272:
 2631 0046 A354     		strb	r3, [r4, r2]
 2632              	.L166:
 460:SakuraIO/SakuraIOc.c ****   return ret;
 461:SakuraIO/SakuraIOc.c **** }
 2633              		.loc 1 461 0
 2634 0048 0DB0     		add	sp, sp, #52
 2635              		.cfi_def_cfa_offset 12
 2636              		@ sp needed
 2637 004a 30BD     		pop	{r4, r5, pc}
 2638              		.cfi_endproc
 2639              	.LFE52:
ARM GAS  C:\Users\cronos\AppData\Local\Temp\ccrG4qtQ.s 			page 56


 2640              		.size	getFirmwareVersion, .-getFirmwareVersion
 2641              		.section	.text.unlock,"ax",%progbits
 2642              		.align	2
 2643              		.global	unlock
 2644              		.thumb
 2645              		.thumb_func
 2646              		.type	unlock, %function
 2647              	unlock:
 2648              	.LFB53:
 462:SakuraIO/SakuraIOc.c **** 
 463:SakuraIO/SakuraIOc.c **** uint8_t unlock(){
 2649              		.loc 1 463 0
 2650              		.cfi_startproc
 2651              		@ args = 0, pretend = 0, frame = 8
 2652              		@ frame_needed = 0, uses_anonymous_args = 0
 2653 0000 00B5     		push	{lr}
 2654              		.cfi_def_cfa_offset 4
 2655              		.cfi_offset 14, -4
 2656 0002 85B0     		sub	sp, sp, #20
 2657              		.cfi_def_cfa_offset 24
 464:SakuraIO/SakuraIOc.c ****   uint8_t request[4] = {0x53, 0x6B, 0x72, 0x61};
 2658              		.loc 1 464 0
 2659 0004 064B     		ldr	r3, .L172
 2660 0006 1868     		ldr	r0, [r3]	@ unaligned
 2661 0008 0390     		str	r0, [sp, #12]	@ unaligned
 465:SakuraIO/SakuraIOc.c ****   return executeCommand(CMD_UNLOCK, 4, request, NULL, NULL);
 2662              		.loc 1 465 0
 2663 000a 0023     		movs	r3, #0
 2664 000c 0093     		str	r3, [sp]
 2665 000e 03AA     		add	r2, sp, #12
 2666 0010 0421     		movs	r1, #4
 2667 0012 A820     		movs	r0, #168
 2668 0014 FFF7FEFF 		bl	executeCommand
 2669              	.LVL273:
 466:SakuraIO/SakuraIOc.c **** }
 2670              		.loc 1 466 0
 2671 0018 05B0     		add	sp, sp, #20
 2672              		.cfi_def_cfa_offset 4
 2673              		@ sp needed
 2674 001a 5DF804FB 		ldr	pc, [sp], #4
 2675              	.L173:
 2676 001e 00BF     		.align	2
 2677              	.L172:
 2678 0020 00000000 		.word	.LANCHOR0
 2679              		.cfi_endproc
 2680              	.LFE53:
 2681              		.size	unlock, .-unlock
 2682              		.section	.text.updateFirmware,"ax",%progbits
 2683              		.align	2
 2684              		.global	updateFirmware
 2685              		.thumb
 2686              		.thumb_func
 2687              		.type	updateFirmware, %function
 2688              	updateFirmware:
 2689              	.LFB54:
 467:SakuraIO/SakuraIOc.c **** 
 468:SakuraIO/SakuraIOc.c **** uint8_t updateFirmware(){
ARM GAS  C:\Users\cronos\AppData\Local\Temp\ccrG4qtQ.s 			page 57


 2690              		.loc 1 468 0
 2691              		.cfi_startproc
 2692              		@ args = 0, pretend = 0, frame = 0
 2693              		@ frame_needed = 0, uses_anonymous_args = 0
 2694 0000 00B5     		push	{lr}
 2695              		.cfi_def_cfa_offset 4
 2696              		.cfi_offset 14, -4
 2697 0002 83B0     		sub	sp, sp, #12
 2698              		.cfi_def_cfa_offset 16
 469:SakuraIO/SakuraIOc.c ****   return executeCommand(CMD_UPDATE_FIRMWARE, 0, 0, NULL, NULL);
 2699              		.loc 1 469 0
 2700 0004 0021     		movs	r1, #0
 2701 0006 0091     		str	r1, [sp]
 2702 0008 0B46     		mov	r3, r1
 2703 000a 0A46     		mov	r2, r1
 2704 000c A920     		movs	r0, #169
 2705 000e FFF7FEFF 		bl	executeCommand
 2706              	.LVL274:
 470:SakuraIO/SakuraIOc.c **** }
 2707              		.loc 1 470 0
 2708 0012 03B0     		add	sp, sp, #12
 2709              		.cfi_def_cfa_offset 4
 2710              		@ sp needed
 2711 0014 5DF804FB 		ldr	pc, [sp], #4
 2712              		.cfi_endproc
 2713              	.LFE54:
 2714              		.size	updateFirmware, .-updateFirmware
 2715              		.section	.text.getFirmwareUpdateStatus,"ax",%progbits
 2716              		.align	2
 2717              		.global	getFirmwareUpdateStatus
 2718              		.thumb
 2719              		.thumb_func
 2720              		.type	getFirmwareUpdateStatus, %function
 2721              	getFirmwareUpdateStatus:
 2722              	.LFB55:
 471:SakuraIO/SakuraIOc.c **** 
 472:SakuraIO/SakuraIOc.c **** uint8_t getFirmwareUpdateStatus(){
 2723              		.loc 1 472 0
 2724              		.cfi_startproc
 2725              		@ args = 0, pretend = 0, frame = 8
 2726              		@ frame_needed = 0, uses_anonymous_args = 0
 2727 0000 00B5     		push	{lr}
 2728              		.cfi_def_cfa_offset 4
 2729              		.cfi_offset 14, -4
 2730 0002 85B0     		sub	sp, sp, #20
 2731              		.cfi_def_cfa_offset 24
 473:SakuraIO/SakuraIOc.c ****   uint8_t response[1] = {0x00};
 2732              		.loc 1 473 0
 2733 0004 0021     		movs	r1, #0
 2734 0006 8DF80C10 		strb	r1, [sp, #12]
 474:SakuraIO/SakuraIOc.c ****   uint8_t responseLength = 1;
 2735              		.loc 1 474 0
 2736 000a 04AB     		add	r3, sp, #16
 2737 000c 0122     		movs	r2, #1
 2738 000e 03F8052D 		strb	r2, [r3, #-5]!
 475:SakuraIO/SakuraIOc.c ****   if(executeCommand(CMD_GET_UPDATE_FIRMWARE_STATUS, 0, 0, &responseLength, response) != CMD_ERROR_N
 2739              		.loc 1 475 0
ARM GAS  C:\Users\cronos\AppData\Local\Temp\ccrG4qtQ.s 			page 58


 2740 0012 03AA     		add	r2, sp, #12
 2741 0014 0092     		str	r2, [sp]
 2742 0016 0A46     		mov	r2, r1
 2743 0018 AA20     		movs	r0, #170
 2744 001a FFF7FEFF 		bl	executeCommand
 2745              	.LVL275:
 2746 001e 0128     		cmp	r0, #1
 2747 0020 02D1     		bne	.L178
 476:SakuraIO/SakuraIOc.c ****       return 0xff;
 477:SakuraIO/SakuraIOc.c ****   }
 478:SakuraIO/SakuraIOc.c ****   return response[0];
 2748              		.loc 1 478 0
 2749 0022 9DF80C00 		ldrb	r0, [sp, #12]	@ zero_extendqisi2
 2750 0026 00E0     		b	.L177
 2751              	.L178:
 476:SakuraIO/SakuraIOc.c ****       return 0xff;
 2752              		.loc 1 476 0
 2753 0028 FF20     		movs	r0, #255
 2754              	.L177:
 479:SakuraIO/SakuraIOc.c **** }
 2755              		.loc 1 479 0
 2756 002a 05B0     		add	sp, sp, #20
 2757              		.cfi_def_cfa_offset 4
 2758              		@ sp needed
 2759 002c 5DF804FB 		ldr	pc, [sp], #4
 2760              		.cfi_endproc
 2761              	.LFE55:
 2762              		.size	getFirmwareUpdateStatus, .-getFirmwareUpdateStatus
 2763              		.section	.text.reset,"ax",%progbits
 2764              		.align	2
 2765              		.global	reset
 2766              		.thumb
 2767              		.thumb_func
 2768              		.type	reset, %function
 2769              	reset:
 2770              	.LFB56:
 480:SakuraIO/SakuraIOc.c **** 
 481:SakuraIO/SakuraIOc.c **** uint8_t reset(){
 2771              		.loc 1 481 0
 2772              		.cfi_startproc
 2773              		@ args = 0, pretend = 0, frame = 0
 2774              		@ frame_needed = 0, uses_anonymous_args = 0
 2775 0000 00B5     		push	{lr}
 2776              		.cfi_def_cfa_offset 4
 2777              		.cfi_offset 14, -4
 2778 0002 83B0     		sub	sp, sp, #12
 2779              		.cfi_def_cfa_offset 16
 482:SakuraIO/SakuraIOc.c ****   return executeCommand(CMD_SOFTWARE_RESET, 0, 0, NULL, NULL);
 2780              		.loc 1 482 0
 2781 0004 0021     		movs	r1, #0
 2782 0006 0091     		str	r1, [sp]
 2783 0008 0B46     		mov	r3, r1
 2784 000a 0A46     		mov	r2, r1
 2785 000c AF20     		movs	r0, #175
 2786 000e FFF7FEFF 		bl	executeCommand
 2787              	.LVL276:
 483:SakuraIO/SakuraIOc.c **** }
ARM GAS  C:\Users\cronos\AppData\Local\Temp\ccrG4qtQ.s 			page 59


 2788              		.loc 1 483 0
 2789 0012 03B0     		add	sp, sp, #12
 2790              		.cfi_def_cfa_offset 4
 2791              		@ sp needed
 2792 0014 5DF804FB 		ldr	pc, [sp], #4
 2793              		.cfi_endproc
 2794              	.LFE56:
 2795              		.size	reset, .-reset
 2796              		.section	.text.setPowerSaveMode,"ax",%progbits
 2797              		.align	2
 2798              		.global	setPowerSaveMode
 2799              		.thumb
 2800              		.thumb_func
 2801              		.type	setPowerSaveMode, %function
 2802              	setPowerSaveMode:
 2803              	.LFB57:
 484:SakuraIO/SakuraIOc.c **** 
 485:SakuraIO/SakuraIOc.c **** uint8_t setPowerSaveMode(uint8_t mode)
 486:SakuraIO/SakuraIOc.c **** {
 2804              		.loc 1 486 0
 2805              		.cfi_startproc
 2806              		@ args = 0, pretend = 0, frame = 8
 2807              		@ frame_needed = 0, uses_anonymous_args = 0
 2808              	.LVL277:
 2809 0000 00B5     		push	{lr}
 2810              		.cfi_def_cfa_offset 4
 2811              		.cfi_offset 14, -4
 2812 0002 85B0     		sub	sp, sp, #20
 2813              		.cfi_def_cfa_offset 24
 487:SakuraIO/SakuraIOc.c ****   uint8_t request[1] = {mode};
 2814              		.loc 1 487 0
 2815 0004 04AA     		add	r2, sp, #16
 2816 0006 02F8040D 		strb	r0, [r2, #-4]!
 488:SakuraIO/SakuraIOc.c ****   return executeCommand(CMD_SET_POWER_SAVE_MODE, 1, request, NULL, NULL);
 2817              		.loc 1 488 0
 2818 000a 0023     		movs	r3, #0
 2819 000c 0093     		str	r3, [sp]
 2820 000e 0121     		movs	r1, #1
 2821 0010 B020     		movs	r0, #176
 2822              	.LVL278:
 2823 0012 FFF7FEFF 		bl	executeCommand
 2824              	.LVL279:
 489:SakuraIO/SakuraIOc.c **** }
 2825              		.loc 1 489 0
 2826 0016 05B0     		add	sp, sp, #20
 2827              		.cfi_def_cfa_offset 4
 2828              		@ sp needed
 2829 0018 5DF804FB 		ldr	pc, [sp], #4
 2830              		.cfi_endproc
 2831              	.LFE57:
 2832              		.size	setPowerSaveMode, .-setPowerSaveMode
 2833              		.section	.text.getPowerSaveMode,"ax",%progbits
 2834              		.align	2
 2835              		.global	getPowerSaveMode
 2836              		.thumb
 2837              		.thumb_func
 2838              		.type	getPowerSaveMode, %function
ARM GAS  C:\Users\cronos\AppData\Local\Temp\ccrG4qtQ.s 			page 60


 2839              	getPowerSaveMode:
 2840              	.LFB58:
 490:SakuraIO/SakuraIOc.c **** 
 491:SakuraIO/SakuraIOc.c **** uint8_t getPowerSaveMode()
 492:SakuraIO/SakuraIOc.c **** {
 2841              		.loc 1 492 0
 2842              		.cfi_startproc
 2843              		@ args = 0, pretend = 0, frame = 8
 2844              		@ frame_needed = 0, uses_anonymous_args = 0
 2845 0000 00B5     		push	{lr}
 2846              		.cfi_def_cfa_offset 4
 2847              		.cfi_offset 14, -4
 2848 0002 85B0     		sub	sp, sp, #20
 2849              		.cfi_def_cfa_offset 24
 493:SakuraIO/SakuraIOc.c ****   uint8_t response[1] = {0x00};
 2850              		.loc 1 493 0
 2851 0004 0021     		movs	r1, #0
 2852 0006 8DF80C10 		strb	r1, [sp, #12]
 494:SakuraIO/SakuraIOc.c ****   uint8_t responseLength = 1;
 2853              		.loc 1 494 0
 2854 000a 04AB     		add	r3, sp, #16
 2855 000c 0122     		movs	r2, #1
 2856 000e 03F8052D 		strb	r2, [r3, #-5]!
 495:SakuraIO/SakuraIOc.c ****   if (executeCommand(CMD_GET_POWER_SAVE_MODE, 0, NULL, &responseLength, response) != CMD_ERROR_NONE
 2857              		.loc 1 495 0
 2858 0012 03AA     		add	r2, sp, #12
 2859 0014 0092     		str	r2, [sp]
 2860 0016 0A46     		mov	r2, r1
 2861 0018 B120     		movs	r0, #177
 2862 001a FFF7FEFF 		bl	executeCommand
 2863              	.LVL280:
 2864 001e 0128     		cmp	r0, #1
 2865 0020 02D1     		bne	.L186
 496:SakuraIO/SakuraIOc.c ****     return 0xff;
 497:SakuraIO/SakuraIOc.c ****   }
 498:SakuraIO/SakuraIOc.c ****   return response[0];
 2866              		.loc 1 498 0
 2867 0022 9DF80C00 		ldrb	r0, [sp, #12]	@ zero_extendqisi2
 2868 0026 00E0     		b	.L185
 2869              	.L186:
 496:SakuraIO/SakuraIOc.c ****     return 0xff;
 2870              		.loc 1 496 0
 2871 0028 FF20     		movs	r0, #255
 2872              	.L185:
 499:SakuraIO/SakuraIOc.c **** }
 2873              		.loc 1 499 0
 2874 002a 05B0     		add	sp, sp, #20
 2875              		.cfi_def_cfa_offset 4
 2876              		@ sp needed
 2877 002c 5DF804FB 		ldr	pc, [sp], #4
 2878              		.cfi_endproc
 2879              	.LFE58:
 2880              		.size	getPowerSaveMode, .-getPowerSaveMode
 2881              		.section	.rodata
 2882              		.align	2
 2883              		.set	.LANCHOR0,. + 0
 2884              	.LC0:
ARM GAS  C:\Users\cronos\AppData\Local\Temp\ccrG4qtQ.s 			page 61


 2885 0000 53       		.byte	83
 2886 0001 6B       		.byte	107
 2887 0002 72       		.byte	114
 2888 0003 61       		.byte	97
 2889              		.section	.rodata.str1.4,"aMS",%progbits,1
 2890              		.align	2
 2891              	.LC1:
 2892 0000 434D445F 		.ascii	"CMD_ERROR_PARITY\012\000"
 2892      4552524F 
 2892      525F5041 
 2892      52495459 
 2892      0A00
 2893 0012 0000     		.space	2
 2894              	.LC2:
 2895 0014 434D445F 		.ascii	"CMD_ERROR_MISSING\012\000"
 2895      4552524F 
 2895      525F4D49 
 2895      5353494E 
 2895      470A00
 2896 0027 00       		.space	1
 2897              	.LC3:
 2898 0028 434D445F 		.ascii	"CMD_ERROR_INVALID_SYNTAX\012\000"
 2898      4552524F 
 2898      525F494E 
 2898      56414C49 
 2898      445F5359 
 2899 0042 0000     		.space	2
 2900              	.LC4:
 2901 0044 434D445F 		.ascii	"CMD_ERROR_RUNTIME\012\000"
 2901      4552524F 
 2901      525F5255 
 2901      4E54494D 
 2901      450A00
 2902 0057 00       		.space	1
 2903              	.LC5:
 2904 0058 434D445F 		.ascii	"CMD_ERROR_LOCKED\012\000"
 2904      4552524F 
 2904      525F4C4F 
 2904      434B4544 
 2904      0A00
 2905 006a 0000     		.space	2
 2906              	.LC6:
 2907 006c 434D445F 		.ascii	"CMD_ERROR_BUSY\012\000"
 2907      4552524F 
 2907      525F4255 
 2907      53590A00 
 2908              	.LC7:
 2909 007c 4572723A 		.ascii	"Err: 0x%02X \000"
 2909      20307825 
 2909      30325820 
 2909      00
 2910              		.text
 2911              	.Letext0:
 2912              		.file 2 "c:\\program files (x86)\\cypress\\psoc creator\\4.2\\psoc creator\\import\\gnu\\arm\\5.4.
 2913              		.file 3 "c:\\program files (x86)\\cypress\\psoc creator\\4.2\\psoc creator\\import\\gnu\\arm\\5.4.
 2914              		.file 4 "SakuraIO\\SakuraIOc_spi.h"
 2915              		.file 5 "./xprintf.h"
ARM GAS  C:\Users\cronos\AppData\Local\Temp\ccrG4qtQ.s 			page 62


 2916              		.section	.debug_info,"",%progbits
 2917              	.Ldebug_info0:
 2918 0000 E11C0000 		.4byte	0x1ce1
 2919 0004 0400     		.2byte	0x4
 2920 0006 00000000 		.4byte	.Ldebug_abbrev0
 2921 000a 04       		.byte	0x4
 2922 000b 01       		.uleb128 0x1
 2923 000c 28060000 		.4byte	.LASF121
 2924 0010 0C       		.byte	0xc
 2925 0011 41040000 		.4byte	.LASF122
 2926 0015 82010000 		.4byte	.LASF123
 2927 0019 30000000 		.4byte	.Ldebug_ranges0+0x30
 2928 001d 00000000 		.4byte	0
 2929 0021 00000000 		.4byte	.Ldebug_line0
 2930 0025 02       		.uleb128 0x2
 2931 0026 08       		.byte	0x8
 2932 0027 07       		.byte	0x7
 2933 0028 6A030000 		.4byte	.LASF0
 2934 002c 02       		.uleb128 0x2
 2935 002d 08       		.byte	0x8
 2936 002e 04       		.byte	0x4
 2937 002f 1D050000 		.4byte	.LASF1
 2938 0033 02       		.uleb128 0x2
 2939 0034 04       		.byte	0x4
 2940 0035 04       		.byte	0x4
 2941 0036 EC010000 		.4byte	.LASF2
 2942 003a 02       		.uleb128 0x2
 2943 003b 01       		.byte	0x1
 2944 003c 06       		.byte	0x6
 2945 003d 5E030000 		.4byte	.LASF3
 2946 0041 03       		.uleb128 0x3
 2947 0042 A6020000 		.4byte	.LASF5
 2948 0046 02       		.byte	0x2
 2949 0047 1D       		.byte	0x1d
 2950 0048 4C000000 		.4byte	0x4c
 2951 004c 02       		.uleb128 0x2
 2952 004d 01       		.byte	0x1
 2953 004e 08       		.byte	0x8
 2954 004f 1A030000 		.4byte	.LASF4
 2955 0053 03       		.uleb128 0x3
 2956 0054 93050000 		.4byte	.LASF6
 2957 0058 02       		.byte	0x2
 2958 0059 29       		.byte	0x29
 2959 005a 5E000000 		.4byte	0x5e
 2960 005e 02       		.uleb128 0x2
 2961 005f 02       		.byte	0x2
 2962 0060 05       		.byte	0x5
 2963 0061 63000000 		.4byte	.LASF7
 2964 0065 03       		.uleb128 0x3
 2965 0066 C8000000 		.4byte	.LASF8
 2966 006a 02       		.byte	0x2
 2967 006b 2B       		.byte	0x2b
 2968 006c 70000000 		.4byte	0x70
 2969 0070 02       		.uleb128 0x2
 2970 0071 02       		.byte	0x2
 2971 0072 07       		.byte	0x7
 2972 0073 0F040000 		.4byte	.LASF9
ARM GAS  C:\Users\cronos\AppData\Local\Temp\ccrG4qtQ.s 			page 63


 2973 0077 03       		.uleb128 0x3
 2974 0078 68050000 		.4byte	.LASF10
 2975 007c 02       		.byte	0x2
 2976 007d 3F       		.byte	0x3f
 2977 007e 82000000 		.4byte	0x82
 2978 0082 02       		.uleb128 0x2
 2979 0083 04       		.byte	0x4
 2980 0084 05       		.byte	0x5
 2981 0085 7E020000 		.4byte	.LASF11
 2982 0089 03       		.uleb128 0x3
 2983 008a A7000000 		.4byte	.LASF12
 2984 008e 02       		.byte	0x2
 2985 008f 41       		.byte	0x41
 2986 0090 94000000 		.4byte	0x94
 2987 0094 02       		.uleb128 0x2
 2988 0095 04       		.byte	0x4
 2989 0096 07       		.byte	0x7
 2990 0097 0B050000 		.4byte	.LASF13
 2991 009b 03       		.uleb128 0x3
 2992 009c 87020000 		.4byte	.LASF14
 2993 00a0 02       		.byte	0x2
 2994 00a1 59       		.byte	0x59
 2995 00a2 A6000000 		.4byte	0xa6
 2996 00a6 02       		.uleb128 0x2
 2997 00a7 08       		.byte	0x8
 2998 00a8 05       		.byte	0x5
 2999 00a9 25020000 		.4byte	.LASF15
 3000 00ad 03       		.uleb128 0x3
 3001 00ae C1040000 		.4byte	.LASF16
 3002 00b2 02       		.byte	0x2
 3003 00b3 5B       		.byte	0x5b
 3004 00b4 25000000 		.4byte	0x25
 3005 00b8 04       		.uleb128 0x4
 3006 00b9 04       		.byte	0x4
 3007 00ba 05       		.byte	0x5
 3008 00bb 696E7400 		.ascii	"int\000"
 3009 00bf 02       		.uleb128 0x2
 3010 00c0 04       		.byte	0x4
 3011 00c1 07       		.byte	0x7
 3012 00c2 9C030000 		.4byte	.LASF17
 3013 00c6 03       		.uleb128 0x3
 3014 00c7 2E010000 		.4byte	.LASF18
 3015 00cb 03       		.byte	0x3
 3016 00cc 18       		.byte	0x18
 3017 00cd 41000000 		.4byte	0x41
 3018 00d1 03       		.uleb128 0x3
 3019 00d2 8D040000 		.4byte	.LASF19
 3020 00d6 03       		.byte	0x3
 3021 00d7 20       		.byte	0x20
 3022 00d8 53000000 		.4byte	0x53
 3023 00dc 03       		.uleb128 0x3
 3024 00dd BA030000 		.4byte	.LASF20
 3025 00e1 03       		.byte	0x3
 3026 00e2 24       		.byte	0x24
 3027 00e3 65000000 		.4byte	0x65
 3028 00e7 03       		.uleb128 0x3
 3029 00e8 63040000 		.4byte	.LASF21
ARM GAS  C:\Users\cronos\AppData\Local\Temp\ccrG4qtQ.s 			page 64


 3030 00ec 03       		.byte	0x3
 3031 00ed 2C       		.byte	0x2c
 3032 00ee 77000000 		.4byte	0x77
 3033 00f2 03       		.uleb128 0x3
 3034 00f3 81030000 		.4byte	.LASF22
 3035 00f7 03       		.byte	0x3
 3036 00f8 30       		.byte	0x30
 3037 00f9 89000000 		.4byte	0x89
 3038 00fd 03       		.uleb128 0x3
 3039 00fe FA000000 		.4byte	.LASF23
 3040 0102 03       		.byte	0x3
 3041 0103 38       		.byte	0x38
 3042 0104 9B000000 		.4byte	0x9b
 3043 0108 03       		.uleb128 0x3
 3044 0109 4D000000 		.4byte	.LASF24
 3045 010d 03       		.byte	0x3
 3046 010e 3C       		.byte	0x3c
 3047 010f AD000000 		.4byte	0xad
 3048 0113 02       		.uleb128 0x2
 3049 0114 08       		.byte	0x8
 3050 0115 04       		.byte	0x4
 3051 0116 04030000 		.4byte	.LASF25
 3052 011a 05       		.uleb128 0x5
 3053 011b 62010000 		.4byte	.LASF124
 3054 011f 01       		.byte	0x1
 3055 0120 06       		.byte	0x6
 3056 0121 C6000000 		.4byte	0xc6
 3057 0125 00000000 		.4byte	.LFB0
 3058 0129 28010000 		.4byte	.LFE0-.LFB0
 3059 012d 01       		.uleb128 0x1
 3060 012e 9C       		.byte	0x9c
 3061 012f 83030000 		.4byte	0x383
 3062 0133 06       		.uleb128 0x6
 3063 0134 636D6400 		.ascii	"cmd\000"
 3064 0138 01       		.byte	0x1
 3065 0139 06       		.byte	0x6
 3066 013a C6000000 		.4byte	0xc6
 3067 013e 00000000 		.4byte	.LLST0
 3068 0142 07       		.uleb128 0x7
 3069 0143 98020000 		.4byte	.LASF26
 3070 0147 01       		.byte	0x1
 3071 0148 06       		.byte	0x6
 3072 0149 C6000000 		.4byte	0xc6
 3073 014d 21000000 		.4byte	.LLST1
 3074 0151 07       		.uleb128 0x7
 3075 0152 EF030000 		.4byte	.LASF27
 3076 0156 01       		.byte	0x1
 3077 0157 06       		.byte	0x6
 3078 0158 83030000 		.4byte	0x383
 3079 015c 42000000 		.4byte	.LLST2
 3080 0160 07       		.uleb128 0x7
 3081 0161 24050000 		.4byte	.LASF28
 3082 0165 01       		.byte	0x1
 3083 0166 06       		.byte	0x6
 3084 0167 83030000 		.4byte	0x383
 3085 016b 6E000000 		.4byte	.LLST3
 3086 016f 07       		.uleb128 0x7
ARM GAS  C:\Users\cronos\AppData\Local\Temp\ccrG4qtQ.s 			page 65


 3087 0170 33050000 		.4byte	.LASF29
 3088 0174 01       		.byte	0x1
 3089 0175 06       		.byte	0x6
 3090 0176 83030000 		.4byte	0x383
 3091 017a 9A000000 		.4byte	.LLST4
 3092 017e 08       		.uleb128 0x8
 3093 017f B0020000 		.4byte	.LASF30
 3094 0183 01       		.byte	0x1
 3095 0184 08       		.byte	0x8
 3096 0185 C6000000 		.4byte	0xc6
 3097 0189 BA000000 		.4byte	.LLST5
 3098 018d 08       		.uleb128 0x8
 3099 018e 17000000 		.4byte	.LASF31
 3100 0192 01       		.byte	0x1
 3101 0193 09       		.byte	0x9
 3102 0194 C6000000 		.4byte	0xc6
 3103 0198 FF000000 		.4byte	.LLST6
 3104 019c 08       		.uleb128 0x8
 3105 019d 7C050000 		.4byte	.LASF32
 3106 01a1 01       		.byte	0x1
 3107 01a2 0A       		.byte	0xa
 3108 01a3 C6000000 		.4byte	0xc6
 3109 01a7 76010000 		.4byte	.LLST7
 3110 01ab 08       		.uleb128 0x8
 3111 01ac 5D020000 		.4byte	.LASF33
 3112 01b0 01       		.byte	0x1
 3113 01b1 0A       		.byte	0xa
 3114 01b2 C6000000 		.4byte	0xc6
 3115 01b6 AC010000 		.4byte	.LLST8
 3116 01ba 08       		.uleb128 0x8
 3117 01bb 00000000 		.4byte	.LASF34
 3118 01bf 01       		.byte	0x1
 3119 01c0 0A       		.byte	0xa
 3120 01c1 C6000000 		.4byte	0xc6
 3121 01c5 BF010000 		.4byte	.LLST9
 3122 01c9 09       		.uleb128 0x9
 3123 01ca C1050000 		.4byte	.LASF116
 3124 01ce 01       		.byte	0x1
 3125 01cf 21       		.byte	0x21
 3126 01d0 B8000000 		.4byte	0xb8
 3127 01d4 DA010000 		.4byte	0x1da
 3128 01d8 0A       		.uleb128 0xa
 3129 01d9 00       		.byte	0
 3130 01da 0B       		.uleb128 0xb
 3131 01db 7000     		.ascii	"p\000"
 3132 01dd 01       		.byte	0x1
 3133 01de 59       		.byte	0x59
 3134 01df C6000000 		.4byte	0xc6
 3135 01e3 D2010000 		.4byte	.LLST10
 3136 01e7 0C       		.uleb128 0xc
 3137 01e8 22000000 		.4byte	.LBB2
 3138 01ec 14000000 		.4byte	.LBE2-.LBB2
 3139 01f0 0B020000 		.4byte	0x20b
 3140 01f4 0B       		.uleb128 0xb
 3141 01f5 6900     		.ascii	"i\000"
 3142 01f7 01       		.byte	0x1
 3143 01f8 14       		.byte	0x14
ARM GAS  C:\Users\cronos\AppData\Local\Temp\ccrG4qtQ.s 			page 66


 3144 01f9 D1000000 		.4byte	0xd1
 3145 01fd E5010000 		.4byte	.LLST11
 3146 0201 0D       		.uleb128 0xd
 3147 0202 2E000000 		.4byte	.LVL8
 3148 0206 781C0000 		.4byte	0x1c78
 3149 020a 00       		.byte	0
 3150 020b 0C       		.uleb128 0xc
 3151 020c CC000000 		.4byte	.LBB3
 3152 0210 28000000 		.4byte	.LBE3-.LBB3
 3153 0214 2F020000 		.4byte	0x22f
 3154 0218 0B       		.uleb128 0xb
 3155 0219 6900     		.ascii	"i\000"
 3156 021b 01       		.byte	0x1
 3157 021c 51       		.byte	0x51
 3158 021d D1000000 		.4byte	0xd1
 3159 0221 0F020000 		.4byte	.LLST12
 3160 0225 0D       		.uleb128 0xd
 3161 0226 D4000000 		.4byte	.LVL48
 3162 022a 831C0000 		.4byte	0x1c83
 3163 022e 00       		.byte	0
 3164 022f 0D       		.uleb128 0xd
 3165 0230 14000000 		.4byte	.LVL2
 3166 0234 8E1C0000 		.4byte	0x1c8e
 3167 0238 0E       		.uleb128 0xe
 3168 0239 1A000000 		.4byte	.LVL3
 3169 023d 781C0000 		.4byte	0x1c78
 3170 0241 4C020000 		.4byte	0x24c
 3171 0245 0F       		.uleb128 0xf
 3172 0246 01       		.uleb128 0x1
 3173 0247 50       		.byte	0x50
 3174 0248 02       		.uleb128 0x2
 3175 0249 75       		.byte	0x75
 3176 024a 00       		.sleb128 0
 3177 024b 00       		.byte	0
 3178 024c 0E       		.uleb128 0xe
 3179 024d 20000000 		.4byte	.LVL4
 3180 0251 781C0000 		.4byte	0x1c78
 3181 0255 60020000 		.4byte	0x260
 3182 0259 0F       		.uleb128 0xf
 3183 025a 01       		.uleb128 0x1
 3184 025b 50       		.byte	0x50
 3185 025c 02       		.uleb128 0x2
 3186 025d 76       		.byte	0x76
 3187 025e 00       		.sleb128 0
 3188 025f 00       		.byte	0
 3189 0260 0E       		.uleb128 0xe
 3190 0261 3C000000 		.4byte	.LVL11
 3191 0265 781C0000 		.4byte	0x1c78
 3192 0269 74020000 		.4byte	0x274
 3193 026d 0F       		.uleb128 0xf
 3194 026e 01       		.uleb128 0x1
 3195 026f 50       		.byte	0x50
 3196 0270 02       		.uleb128 0x2
 3197 0271 75       		.byte	0x75
 3198 0272 00       		.sleb128 0
 3199 0273 00       		.byte	0
 3200 0274 0E       		.uleb128 0xe
ARM GAS  C:\Users\cronos\AppData\Local\Temp\ccrG4qtQ.s 			page 67


 3201 0275 50000000 		.4byte	.LVL15
 3202 0279 991C0000 		.4byte	0x1c99
 3203 027d 87020000 		.4byte	0x287
 3204 0281 0F       		.uleb128 0xf
 3205 0282 01       		.uleb128 0x1
 3206 0283 50       		.byte	0x50
 3207 0284 01       		.uleb128 0x1
 3208 0285 3A       		.byte	0x3a
 3209 0286 00       		.byte	0
 3210 0287 0D       		.uleb128 0xd
 3211 0288 54000000 		.4byte	.LVL16
 3212 028c A41C0000 		.4byte	0x1ca4
 3213 0290 0E       		.uleb128 0xe
 3214 0291 5C000000 		.4byte	.LVL17
 3215 0295 AF1C0000 		.4byte	0x1caf
 3216 0299 A4020000 		.4byte	0x2a4
 3217 029d 0F       		.uleb128 0xf
 3218 029e 01       		.uleb128 0x1
 3219 029f 50       		.byte	0x50
 3220 02a0 02       		.uleb128 0x2
 3221 02a1 76       		.byte	0x76
 3222 02a2 03       		.sleb128 3
 3223 02a3 00       		.byte	0
 3224 02a4 0D       		.uleb128 0xd
 3225 02a5 60000000 		.4byte	.LVL18
 3226 02a9 831C0000 		.4byte	0x1c83
 3227 02ad 0E       		.uleb128 0xe
 3228 02ae 7C000000 		.4byte	.LVL21
 3229 02b2 BA1C0000 		.4byte	0x1cba
 3230 02b6 C4020000 		.4byte	0x2c4
 3231 02ba 0F       		.uleb128 0xf
 3232 02bb 01       		.uleb128 0x1
 3233 02bc 50       		.byte	0x50
 3234 02bd 05       		.uleb128 0x5
 3235 02be 03       		.byte	0x3
 3236 02bf 00000000 		.4byte	.LC1
 3237 02c3 00       		.byte	0
 3238 02c4 0E       		.uleb128 0xe
 3239 02c5 84000000 		.4byte	.LVL24
 3240 02c9 BA1C0000 		.4byte	0x1cba
 3241 02cd DB020000 		.4byte	0x2db
 3242 02d1 0F       		.uleb128 0xf
 3243 02d2 01       		.uleb128 0x1
 3244 02d3 50       		.byte	0x50
 3245 02d4 05       		.uleb128 0x5
 3246 02d5 03       		.byte	0x3
 3247 02d6 14000000 		.4byte	.LC2
 3248 02da 00       		.byte	0
 3249 02db 0E       		.uleb128 0xe
 3250 02dc 8C000000 		.4byte	.LVL27
 3251 02e0 BA1C0000 		.4byte	0x1cba
 3252 02e4 F2020000 		.4byte	0x2f2
 3253 02e8 0F       		.uleb128 0xf
 3254 02e9 01       		.uleb128 0x1
 3255 02ea 50       		.byte	0x50
 3256 02eb 05       		.uleb128 0x5
 3257 02ec 03       		.byte	0x3
ARM GAS  C:\Users\cronos\AppData\Local\Temp\ccrG4qtQ.s 			page 68


 3258 02ed 28000000 		.4byte	.LC3
 3259 02f1 00       		.byte	0
 3260 02f2 0E       		.uleb128 0xe
 3261 02f3 94000000 		.4byte	.LVL30
 3262 02f7 BA1C0000 		.4byte	0x1cba
 3263 02fb 09030000 		.4byte	0x309
 3264 02ff 0F       		.uleb128 0xf
 3265 0300 01       		.uleb128 0x1
 3266 0301 50       		.byte	0x50
 3267 0302 05       		.uleb128 0x5
 3268 0303 03       		.byte	0x3
 3269 0304 44000000 		.4byte	.LC4
 3270 0308 00       		.byte	0
 3271 0309 0E       		.uleb128 0xe
 3272 030a 9C000000 		.4byte	.LVL33
 3273 030e BA1C0000 		.4byte	0x1cba
 3274 0312 20030000 		.4byte	0x320
 3275 0316 0F       		.uleb128 0xf
 3276 0317 01       		.uleb128 0x1
 3277 0318 50       		.byte	0x50
 3278 0319 05       		.uleb128 0x5
 3279 031a 03       		.byte	0x3
 3280 031b 58000000 		.4byte	.LC5
 3281 031f 00       		.byte	0
 3282 0320 0E       		.uleb128 0xe
 3283 0321 A4000000 		.4byte	.LVL36
 3284 0325 BA1C0000 		.4byte	0x1cba
 3285 0329 37030000 		.4byte	0x337
 3286 032d 0F       		.uleb128 0xf
 3287 032e 01       		.uleb128 0x1
 3288 032f 50       		.byte	0x50
 3289 0330 05       		.uleb128 0x5
 3290 0331 03       		.byte	0x3
 3291 0332 6C000000 		.4byte	.LC6
 3292 0336 00       		.byte	0
 3293 0337 0E       		.uleb128 0xe
 3294 0338 AE000000 		.4byte	.LVL39
 3295 033c C51C0000 		.4byte	0x1cc5
 3296 0340 54030000 		.4byte	0x354
 3297 0344 0F       		.uleb128 0xf
 3298 0345 01       		.uleb128 0x1
 3299 0346 50       		.byte	0x50
 3300 0347 05       		.uleb128 0x5
 3301 0348 03       		.byte	0x3
 3302 0349 7C000000 		.4byte	.LC7
 3303 034d 0F       		.uleb128 0xf
 3304 034e 01       		.uleb128 0x1
 3305 034f 51       		.byte	0x51
 3306 0350 02       		.uleb128 0x2
 3307 0351 75       		.byte	0x75
 3308 0352 00       		.sleb128 0
 3309 0353 00       		.byte	0
 3310 0354 0D       		.uleb128 0xd
 3311 0355 B2000000 		.4byte	.LVL40
 3312 0359 D01C0000 		.4byte	0x1cd0
 3313 035d 0D       		.uleb128 0xd
 3314 035e B8000000 		.4byte	.LVL42
ARM GAS  C:\Users\cronos\AppData\Local\Temp\ccrG4qtQ.s 			page 69


 3315 0362 831C0000 		.4byte	0x1c83
 3316 0366 0E       		.uleb128 0xe
 3317 0367 FA000000 		.4byte	.LVL53
 3318 036b 831C0000 		.4byte	0x1c83
 3319 036f 79030000 		.4byte	0x379
 3320 0373 0F       		.uleb128 0xf
 3321 0374 01       		.uleb128 0x1
 3322 0375 50       		.byte	0x50
 3323 0376 01       		.uleb128 0x1
 3324 0377 31       		.byte	0x31
 3325 0378 00       		.byte	0
 3326 0379 0D       		.uleb128 0xd
 3327 037a 04010000 		.4byte	.LVL55
 3328 037e D01C0000 		.4byte	0x1cd0
 3329 0382 00       		.byte	0
 3330 0383 10       		.uleb128 0x10
 3331 0384 04       		.byte	0x4
 3332 0385 C6000000 		.4byte	0xc6
 3333 0389 11       		.uleb128 0x11
 3334 038a 28030000 		.4byte	.LASF36
 3335 038e 01       		.byte	0x1
 3336 038f 6B       		.byte	0x6b
 3337 0390 C6000000 		.4byte	0xc6
 3338 0394 00000000 		.4byte	.LFB1
 3339 0398 30000000 		.4byte	.LFE1-.LFB1
 3340 039c 01       		.uleb128 0x1
 3341 039d 9C       		.byte	0x9c
 3342 039e E5030000 		.4byte	0x3e5
 3343 03a2 12       		.uleb128 0x12
 3344 03a3 24050000 		.4byte	.LASF28
 3345 03a7 01       		.byte	0x1
 3346 03a8 6C       		.byte	0x6c
 3347 03a9 C6000000 		.4byte	0xc6
 3348 03ad 02       		.uleb128 0x2
 3349 03ae 91       		.byte	0x91
 3350 03af 77       		.sleb128 -9
 3351 03b0 12       		.uleb128 0x12
 3352 03b1 33050000 		.4byte	.LASF29
 3353 03b5 01       		.byte	0x1
 3354 03b6 6D       		.byte	0x6d
 3355 03b7 E5030000 		.4byte	0x3e5
 3356 03bb 02       		.uleb128 0x2
 3357 03bc 91       		.byte	0x91
 3358 03bd 74       		.sleb128 -12
 3359 03be 13       		.uleb128 0x13
 3360 03bf 1E000000 		.4byte	.LVL57
 3361 03c3 1A010000 		.4byte	0x11a
 3362 03c7 0F       		.uleb128 0xf
 3363 03c8 01       		.uleb128 0x1
 3364 03c9 50       		.byte	0x50
 3365 03ca 01       		.uleb128 0x1
 3366 03cb 31       		.byte	0x31
 3367 03cc 0F       		.uleb128 0xf
 3368 03cd 01       		.uleb128 0x1
 3369 03ce 51       		.byte	0x51
 3370 03cf 01       		.uleb128 0x1
 3371 03d0 30       		.byte	0x30
ARM GAS  C:\Users\cronos\AppData\Local\Temp\ccrG4qtQ.s 			page 70


 3372 03d1 0F       		.uleb128 0xf
 3373 03d2 01       		.uleb128 0x1
 3374 03d3 52       		.byte	0x52
 3375 03d4 01       		.uleb128 0x1
 3376 03d5 30       		.byte	0x30
 3377 03d6 0F       		.uleb128 0xf
 3378 03d7 01       		.uleb128 0x1
 3379 03d8 53       		.byte	0x53
 3380 03d9 02       		.uleb128 0x2
 3381 03da 91       		.byte	0x91
 3382 03db 77       		.sleb128 -9
 3383 03dc 0F       		.uleb128 0xf
 3384 03dd 02       		.uleb128 0x2
 3385 03de 7D       		.byte	0x7d
 3386 03df 00       		.sleb128 0
 3387 03e0 02       		.uleb128 0x2
 3388 03e1 91       		.byte	0x91
 3389 03e2 74       		.sleb128 -12
 3390 03e3 00       		.byte	0
 3391 03e4 00       		.byte	0
 3392 03e5 14       		.uleb128 0x14
 3393 03e6 C6000000 		.4byte	0xc6
 3394 03ea F5030000 		.4byte	0x3f5
 3395 03ee 15       		.uleb128 0x15
 3396 03ef F5030000 		.4byte	0x3f5
 3397 03f3 00       		.byte	0
 3398 03f4 00       		.byte	0
 3399 03f5 02       		.uleb128 0x2
 3400 03f6 04       		.byte	0x4
 3401 03f7 07       		.byte	0x7
 3402 03f8 6D000000 		.4byte	.LASF35
 3403 03fc 11       		.uleb128 0x11
 3404 03fd 71010000 		.4byte	.LASF37
 3405 0401 01       		.byte	0x1
 3406 0402 74       		.byte	0x74
 3407 0403 C6000000 		.4byte	0xc6
 3408 0407 00000000 		.4byte	.LFB2
 3409 040b 32000000 		.4byte	.LFE2-.LFB2
 3410 040f 01       		.uleb128 0x1
 3411 0410 9C       		.byte	0x9c
 3412 0411 58040000 		.4byte	0x458
 3413 0415 12       		.uleb128 0x12
 3414 0416 24050000 		.4byte	.LASF28
 3415 041a 01       		.byte	0x1
 3416 041b 75       		.byte	0x75
 3417 041c C6000000 		.4byte	0xc6
 3418 0420 02       		.uleb128 0x2
 3419 0421 91       		.byte	0x91
 3420 0422 77       		.sleb128 -9
 3421 0423 12       		.uleb128 0x12
 3422 0424 33050000 		.4byte	.LASF29
 3423 0428 01       		.byte	0x1
 3424 0429 76       		.byte	0x76
 3425 042a E5030000 		.4byte	0x3e5
 3426 042e 02       		.uleb128 0x2
 3427 042f 91       		.byte	0x91
 3428 0430 74       		.sleb128 -12
ARM GAS  C:\Users\cronos\AppData\Local\Temp\ccrG4qtQ.s 			page 71


 3429 0431 13       		.uleb128 0x13
 3430 0432 20000000 		.4byte	.LVL58
 3431 0436 1A010000 		.4byte	0x11a
 3432 043a 0F       		.uleb128 0xf
 3433 043b 01       		.uleb128 0x1
 3434 043c 50       		.byte	0x50
 3435 043d 01       		.uleb128 0x1
 3436 043e 32       		.byte	0x32
 3437 043f 0F       		.uleb128 0xf
 3438 0440 01       		.uleb128 0x1
 3439 0441 51       		.byte	0x51
 3440 0442 01       		.uleb128 0x1
 3441 0443 30       		.byte	0x30
 3442 0444 0F       		.uleb128 0xf
 3443 0445 01       		.uleb128 0x1
 3444 0446 52       		.byte	0x52
 3445 0447 01       		.uleb128 0x1
 3446 0448 30       		.byte	0x30
 3447 0449 0F       		.uleb128 0xf
 3448 044a 01       		.uleb128 0x1
 3449 044b 53       		.byte	0x53
 3450 044c 02       		.uleb128 0x2
 3451 044d 91       		.byte	0x91
 3452 044e 77       		.sleb128 -9
 3453 044f 0F       		.uleb128 0xf
 3454 0450 02       		.uleb128 0x2
 3455 0451 7D       		.byte	0x7d
 3456 0452 00       		.sleb128 0
 3457 0453 02       		.uleb128 0x2
 3458 0454 91       		.byte	0x91
 3459 0455 74       		.sleb128 -12
 3460 0456 00       		.byte	0
 3461 0457 00       		.byte	0
 3462 0458 11       		.uleb128 0x11
 3463 0459 41050000 		.4byte	.LASF38
 3464 045d 01       		.byte	0x1
 3465 045e 7E       		.byte	0x7e
 3466 045f C6000000 		.4byte	0xc6
 3467 0463 00000000 		.4byte	.LFB3
 3468 0467 08000000 		.4byte	.LFE3-.LFB3
 3469 046b 01       		.uleb128 0x1
 3470 046c 9C       		.byte	0x9c
 3471 046d 7B040000 		.4byte	0x47b
 3472 0471 0D       		.uleb128 0xd
 3473 0472 06000000 		.4byte	.LVL59
 3474 0476 FC030000 		.4byte	0x3fc
 3475 047a 00       		.byte	0
 3476 047b 11       		.uleb128 0x11
 3477 047c E3030000 		.4byte	.LASF39
 3478 0480 01       		.byte	0x1
 3479 0481 83       		.byte	0x83
 3480 0482 08010000 		.4byte	0x108
 3481 0486 00000000 		.4byte	.LFB4
 3482 048a 34000000 		.4byte	.LFE4-.LFB4
 3483 048e 01       		.uleb128 0x1
 3484 048f 9C       		.byte	0x9c
 3485 0490 D7040000 		.4byte	0x4d7
ARM GAS  C:\Users\cronos\AppData\Local\Temp\ccrG4qtQ.s 			page 72


 3486 0494 12       		.uleb128 0x12
 3487 0495 24050000 		.4byte	.LASF28
 3488 0499 01       		.byte	0x1
 3489 049a 84       		.byte	0x84
 3490 049b C6000000 		.4byte	0xc6
 3491 049f 02       		.uleb128 0x2
 3492 04a0 91       		.byte	0x91
 3493 04a1 77       		.sleb128 -9
 3494 04a2 12       		.uleb128 0x12
 3495 04a3 33050000 		.4byte	.LASF29
 3496 04a7 01       		.byte	0x1
 3497 04a8 85       		.byte	0x85
 3498 04a9 D7040000 		.4byte	0x4d7
 3499 04ad 02       		.uleb128 0x2
 3500 04ae 91       		.byte	0x91
 3501 04af 6C       		.sleb128 -20
 3502 04b0 13       		.uleb128 0x13
 3503 04b1 20000000 		.4byte	.LVL60
 3504 04b5 1A010000 		.4byte	0x11a
 3505 04b9 0F       		.uleb128 0xf
 3506 04ba 01       		.uleb128 0x1
 3507 04bb 50       		.byte	0x50
 3508 04bc 01       		.uleb128 0x1
 3509 04bd 33       		.byte	0x33
 3510 04be 0F       		.uleb128 0xf
 3511 04bf 01       		.uleb128 0x1
 3512 04c0 51       		.byte	0x51
 3513 04c1 01       		.uleb128 0x1
 3514 04c2 30       		.byte	0x30
 3515 04c3 0F       		.uleb128 0xf
 3516 04c4 01       		.uleb128 0x1
 3517 04c5 52       		.byte	0x52
 3518 04c6 01       		.uleb128 0x1
 3519 04c7 30       		.byte	0x30
 3520 04c8 0F       		.uleb128 0xf
 3521 04c9 01       		.uleb128 0x1
 3522 04ca 53       		.byte	0x53
 3523 04cb 02       		.uleb128 0x2
 3524 04cc 91       		.byte	0x91
 3525 04cd 77       		.sleb128 -9
 3526 04ce 0F       		.uleb128 0xf
 3527 04cf 02       		.uleb128 0x2
 3528 04d0 7D       		.byte	0x7d
 3529 04d1 00       		.sleb128 0
 3530 04d2 02       		.uleb128 0x2
 3531 04d3 91       		.byte	0x91
 3532 04d4 6C       		.sleb128 -20
 3533 04d5 00       		.byte	0
 3534 04d6 00       		.byte	0
 3535 04d7 14       		.uleb128 0x14
 3536 04d8 C6000000 		.4byte	0xc6
 3537 04dc E7040000 		.4byte	0x4e7
 3538 04e0 15       		.uleb128 0x15
 3539 04e1 F5030000 		.4byte	0x3f5
 3540 04e5 07       		.byte	0x7
 3541 04e6 00       		.byte	0
 3542 04e7 16       		.uleb128 0x16
ARM GAS  C:\Users\cronos\AppData\Local\Temp\ccrG4qtQ.s 			page 73


 3543 04e8 33020000 		.4byte	.LASF42
 3544 04ec 01       		.byte	0x1
 3545 04ed 8C       		.byte	0x8c
 3546 04ee C6000000 		.4byte	0xc6
 3547 04f2 00000000 		.4byte	.LFB5
 3548 04f6 28000000 		.4byte	.LFE5-.LFB5
 3549 04fa 01       		.uleb128 0x1
 3550 04fb 9C       		.byte	0x9c
 3551 04fc 60050000 		.4byte	0x560
 3552 0500 07       		.uleb128 0x7
 3553 0501 DF010000 		.4byte	.LASF40
 3554 0505 01       		.byte	0x1
 3555 0506 8C       		.byte	0x8c
 3556 0507 C6000000 		.4byte	0xc6
 3557 050b 39020000 		.4byte	.LLST13
 3558 050f 07       		.uleb128 0x7
 3559 0510 CC040000 		.4byte	.LASF41
 3560 0514 01       		.byte	0x1
 3561 0515 8C       		.byte	0x8c
 3562 0516 83030000 		.4byte	0x383
 3563 051a 66020000 		.4byte	.LLST14
 3564 051e 07       		.uleb128 0x7
 3565 051f 33050000 		.4byte	.LASF29
 3566 0523 01       		.byte	0x1
 3567 0524 8C       		.byte	0x8c
 3568 0525 83030000 		.4byte	0x383
 3569 0529 92020000 		.4byte	.LLST15
 3570 052d 12       		.uleb128 0x12
 3571 052e 24050000 		.4byte	.LASF28
 3572 0532 01       		.byte	0x1
 3573 0533 8D       		.byte	0x8d
 3574 0534 C6000000 		.4byte	0xc6
 3575 0538 02       		.uleb128 0x2
 3576 0539 91       		.byte	0x91
 3577 053a 77       		.sleb128 -9
 3578 053b 13       		.uleb128 0x13
 3579 053c 16000000 		.4byte	.LVL65
 3580 0540 1A010000 		.4byte	0x11a
 3581 0544 0F       		.uleb128 0xf
 3582 0545 01       		.uleb128 0x1
 3583 0546 50       		.byte	0x50
 3584 0547 01       		.uleb128 0x1
 3585 0548 3F       		.byte	0x3f
 3586 0549 0F       		.uleb128 0xf
 3587 054a 01       		.uleb128 0x1
 3588 054b 52       		.byte	0x52
 3589 054c 03       		.uleb128 0x3
 3590 054d F3       		.byte	0xf3
 3591 054e 01       		.uleb128 0x1
 3592 054f 51       		.byte	0x51
 3593 0550 0F       		.uleb128 0xf
 3594 0551 01       		.uleb128 0x1
 3595 0552 53       		.byte	0x53
 3596 0553 02       		.uleb128 0x2
 3597 0554 91       		.byte	0x91
 3598 0555 77       		.sleb128 -9
 3599 0556 0F       		.uleb128 0xf
ARM GAS  C:\Users\cronos\AppData\Local\Temp\ccrG4qtQ.s 			page 74


 3600 0557 02       		.uleb128 0x2
 3601 0558 7D       		.byte	0x7d
 3602 0559 00       		.sleb128 0
 3603 055a 03       		.uleb128 0x3
 3604 055b F3       		.byte	0xf3
 3605 055c 01       		.uleb128 0x1
 3606 055d 52       		.byte	0x52
 3607 055e 00       		.byte	0
 3608 055f 00       		.byte	0
 3609 0560 16       		.uleb128 0x16
 3610 0561 20070000 		.4byte	.LASF43
 3611 0565 01       		.byte	0x1
 3612 0566 96       		.byte	0x96
 3613 0567 DC000000 		.4byte	0xdc
 3614 056b 00000000 		.4byte	.LFB6
 3615 056f 38000000 		.4byte	.LFE6-.LFB6
 3616 0573 01       		.uleb128 0x1
 3617 0574 9C       		.byte	0x9c
 3618 0575 DA050000 		.4byte	0x5da
 3619 0579 07       		.uleb128 0x7
 3620 057a B9040000 		.4byte	.LASF44
 3621 057e 01       		.byte	0x1
 3622 057f 96       		.byte	0x96
 3623 0580 C6000000 		.4byte	0xc6
 3624 0584 BF020000 		.4byte	.LLST16
 3625 0588 12       		.uleb128 0x12
 3626 0589 EF030000 		.4byte	.LASF27
 3627 058d 01       		.byte	0x1
 3628 058e 97       		.byte	0x97
 3629 058f E5030000 		.4byte	0x3e5
 3630 0593 02       		.uleb128 0x2
 3631 0594 91       		.byte	0x91
 3632 0595 74       		.sleb128 -12
 3633 0596 12       		.uleb128 0x12
 3634 0597 33050000 		.4byte	.LASF29
 3635 059b 01       		.byte	0x1
 3636 059c 98       		.byte	0x98
 3637 059d DA050000 		.4byte	0x5da
 3638 05a1 02       		.uleb128 0x2
 3639 05a2 91       		.byte	0x91
 3640 05a3 70       		.sleb128 -16
 3641 05a4 12       		.uleb128 0x12
 3642 05a5 24050000 		.4byte	.LASF28
 3643 05a9 01       		.byte	0x1
 3644 05aa 99       		.byte	0x99
 3645 05ab C6000000 		.4byte	0xc6
 3646 05af 02       		.uleb128 0x2
 3647 05b0 91       		.byte	0x91
 3648 05b1 6F       		.sleb128 -17
 3649 05b2 13       		.uleb128 0x13
 3650 05b3 24000000 		.4byte	.LVL68
 3651 05b7 1A010000 		.4byte	0x11a
 3652 05bb 0F       		.uleb128 0xf
 3653 05bc 01       		.uleb128 0x1
 3654 05bd 50       		.byte	0x50
 3655 05be 01       		.uleb128 0x1
 3656 05bf 40       		.byte	0x40
ARM GAS  C:\Users\cronos\AppData\Local\Temp\ccrG4qtQ.s 			page 75


 3657 05c0 0F       		.uleb128 0xf
 3658 05c1 01       		.uleb128 0x1
 3659 05c2 51       		.byte	0x51
 3660 05c3 01       		.uleb128 0x1
 3661 05c4 31       		.byte	0x31
 3662 05c5 0F       		.uleb128 0xf
 3663 05c6 01       		.uleb128 0x1
 3664 05c7 52       		.byte	0x52
 3665 05c8 02       		.uleb128 0x2
 3666 05c9 91       		.byte	0x91
 3667 05ca 74       		.sleb128 -12
 3668 05cb 0F       		.uleb128 0xf
 3669 05cc 01       		.uleb128 0x1
 3670 05cd 53       		.byte	0x53
 3671 05ce 02       		.uleb128 0x2
 3672 05cf 91       		.byte	0x91
 3673 05d0 6F       		.sleb128 -17
 3674 05d1 0F       		.uleb128 0xf
 3675 05d2 02       		.uleb128 0x2
 3676 05d3 7D       		.byte	0x7d
 3677 05d4 00       		.sleb128 0
 3678 05d5 02       		.uleb128 0x2
 3679 05d6 91       		.byte	0x91
 3680 05d7 70       		.sleb128 -16
 3681 05d8 00       		.byte	0
 3682 05d9 00       		.byte	0
 3683 05da 14       		.uleb128 0x14
 3684 05db C6000000 		.4byte	0xc6
 3685 05df EA050000 		.4byte	0x5ea
 3686 05e3 15       		.uleb128 0x15
 3687 05e4 F5030000 		.4byte	0x3f5
 3688 05e8 01       		.byte	0x1
 3689 05e9 00       		.byte	0
 3690 05ea 16       		.uleb128 0x16
 3691 05eb 76000000 		.4byte	.LASF45
 3692 05ef 01       		.byte	0x1
 3693 05f0 A1       		.byte	0xa1
 3694 05f1 C6000000 		.4byte	0xc6
 3695 05f5 00000000 		.4byte	.LFB7
 3696 05f9 6E000000 		.4byte	.LFE7-.LFB7
 3697 05fd 01       		.uleb128 0x1
 3698 05fe 9C       		.byte	0x9c
 3699 05ff BE060000 		.4byte	0x6be
 3700 0603 06       		.uleb128 0x6
 3701 0604 636800   		.ascii	"ch\000"
 3702 0607 01       		.byte	0x1
 3703 0608 A1       		.byte	0xa1
 3704 0609 C6000000 		.4byte	0xc6
 3705 060d EC020000 		.4byte	.LLST17
 3706 0611 07       		.uleb128 0x7
 3707 0612 5E040000 		.4byte	.LASF46
 3708 0616 01       		.byte	0x1
 3709 0617 A1       		.byte	0xa1
 3710 0618 C6000000 		.4byte	0xc6
 3711 061c 0D030000 		.4byte	.LLST18
 3712 0620 07       		.uleb128 0x7
 3713 0621 DF010000 		.4byte	.LASF40
ARM GAS  C:\Users\cronos\AppData\Local\Temp\ccrG4qtQ.s 			page 76


 3714 0625 01       		.byte	0x1
 3715 0626 A1       		.byte	0xa1
 3716 0627 C6000000 		.4byte	0xc6
 3717 062b 3A030000 		.4byte	.LLST19
 3718 062f 07       		.uleb128 0x7
 3719 0630 CC040000 		.4byte	.LASF41
 3720 0634 01       		.byte	0x1
 3721 0635 A1       		.byte	0xa1
 3722 0636 83030000 		.4byte	0x383
 3723 063a 5B030000 		.4byte	.LLST20
 3724 063e 07       		.uleb128 0x7
 3725 063f 91020000 		.4byte	.LASF47
 3726 0643 01       		.byte	0x1
 3727 0644 A1       		.byte	0xa1
 3728 0645 08010000 		.4byte	0x108
 3729 0649 7C030000 		.4byte	.LLST21
 3730 064d 12       		.uleb128 0x12
 3731 064e EF030000 		.4byte	.LASF27
 3732 0652 01       		.byte	0x1
 3733 0653 A2       		.byte	0xa2
 3734 0654 BE060000 		.4byte	0x6be
 3735 0658 02       		.uleb128 0x2
 3736 0659 91       		.byte	0x91
 3737 065a 64       		.sleb128 -28
 3738 065b 08       		.uleb128 0x8
 3739 065c 98020000 		.4byte	.LASF26
 3740 0660 01       		.byte	0x1
 3741 0661 A3       		.byte	0xa3
 3742 0662 C6000000 		.4byte	0xc6
 3743 0666 A8030000 		.4byte	.LLST22
 3744 066a 0C       		.uleb128 0xc
 3745 066b 1A000000 		.4byte	.LBB4
 3746 066f 1A000000 		.4byte	.LBE4-.LBB4
 3747 0673 85060000 		.4byte	0x685
 3748 0677 0B       		.uleb128 0xb
 3749 0678 6900     		.ascii	"i\000"
 3750 067a 01       		.byte	0x1
 3751 067b A6       		.byte	0xa6
 3752 067c C6000000 		.4byte	0xc6
 3753 0680 C7030000 		.4byte	.LLST23
 3754 0684 00       		.byte	0
 3755 0685 17       		.uleb128 0x17
 3756 0686 00000000 		.4byte	.Ldebug_ranges0+0
 3757 068a 9C060000 		.4byte	0x69c
 3758 068e 0B       		.uleb128 0xb
 3759 068f 6900     		.ascii	"i\000"
 3760 0691 01       		.byte	0x1
 3761 0692 AB       		.byte	0xab
 3762 0693 C6000000 		.4byte	0xc6
 3763 0697 FC030000 		.4byte	.LLST24
 3764 069b 00       		.byte	0
 3765 069c 13       		.uleb128 0x13
 3766 069d 6A000000 		.4byte	.LVL87
 3767 06a1 1A010000 		.4byte	0x11a
 3768 06a5 0F       		.uleb128 0xf
 3769 06a6 01       		.uleb128 0x1
 3770 06a7 50       		.byte	0x50
ARM GAS  C:\Users\cronos\AppData\Local\Temp\ccrG4qtQ.s 			page 77


 3771 06a8 02       		.uleb128 0x2
 3772 06a9 08       		.byte	0x8
 3773 06aa 20       		.byte	0x20
 3774 06ab 0F       		.uleb128 0xf
 3775 06ac 01       		.uleb128 0x1
 3776 06ad 52       		.byte	0x52
 3777 06ae 02       		.uleb128 0x2
 3778 06af 91       		.byte	0x91
 3779 06b0 64       		.sleb128 -28
 3780 06b1 0F       		.uleb128 0xf
 3781 06b2 01       		.uleb128 0x1
 3782 06b3 53       		.byte	0x53
 3783 06b4 01       		.uleb128 0x1
 3784 06b5 30       		.byte	0x30
 3785 06b6 0F       		.uleb128 0xf
 3786 06b7 02       		.uleb128 0x2
 3787 06b8 7D       		.byte	0x7d
 3788 06b9 00       		.sleb128 0
 3789 06ba 01       		.uleb128 0x1
 3790 06bb 30       		.byte	0x30
 3791 06bc 00       		.byte	0
 3792 06bd 00       		.byte	0
 3793 06be 14       		.uleb128 0x14
 3794 06bf C6000000 		.4byte	0xc6
 3795 06c3 CE060000 		.4byte	0x6ce
 3796 06c7 15       		.uleb128 0x15
 3797 06c8 F5030000 		.4byte	0x3f5
 3798 06cc 11       		.byte	0x11
 3799 06cd 00       		.byte	0
 3800 06ce 16       		.uleb128 0x16
 3801 06cf 9D050000 		.4byte	.LASF48
 3802 06d3 01       		.byte	0x1
 3803 06d4 B2       		.byte	0xb2
 3804 06d5 C6000000 		.4byte	0xc6
 3805 06d9 00000000 		.4byte	.LFB8
 3806 06dd 1C000000 		.4byte	.LFE8-.LFB8
 3807 06e1 01       		.uleb128 0x1
 3808 06e2 9C       		.byte	0x9c
 3809 06e3 39070000 		.4byte	0x739
 3810 06e7 06       		.uleb128 0x6
 3811 06e8 636800   		.ascii	"ch\000"
 3812 06eb 01       		.byte	0x1
 3813 06ec B2       		.byte	0xb2
 3814 06ed C6000000 		.4byte	0xc6
 3815 06f1 25040000 		.4byte	.LLST25
 3816 06f5 07       		.uleb128 0x7
 3817 06f6 02010000 		.4byte	.LASF49
 3818 06fa 01       		.byte	0x1
 3819 06fb B2       		.byte	0xb2
 3820 06fc E7000000 		.4byte	0xe7
 3821 0700 46040000 		.4byte	.LLST26
 3822 0704 07       		.uleb128 0x7
 3823 0705 91020000 		.4byte	.LASF47
 3824 0709 01       		.byte	0x1
 3825 070a B2       		.byte	0xb2
 3826 070b 08010000 		.4byte	0x108
 3827 070f 71040000 		.4byte	.LLST27
ARM GAS  C:\Users\cronos\AppData\Local\Temp\ccrG4qtQ.s 			page 78


 3828 0713 13       		.uleb128 0x13
 3829 0714 18000000 		.4byte	.LVL91
 3830 0718 EA050000 		.4byte	0x5ea
 3831 071c 0F       		.uleb128 0xf
 3832 071d 01       		.uleb128 0x1
 3833 071e 51       		.byte	0x51
 3834 071f 02       		.uleb128 0x2
 3835 0720 08       		.byte	0x8
 3836 0721 69       		.byte	0x69
 3837 0722 0F       		.uleb128 0xf
 3838 0723 01       		.uleb128 0x1
 3839 0724 52       		.byte	0x52
 3840 0725 01       		.uleb128 0x1
 3841 0726 34       		.byte	0x34
 3842 0727 0F       		.uleb128 0xf
 3843 0728 01       		.uleb128 0x1
 3844 0729 53       		.byte	0x53
 3845 072a 02       		.uleb128 0x2
 3846 072b 74       		.byte	0x74
 3847 072c 00       		.sleb128 0
 3848 072d 0F       		.uleb128 0xf
 3849 072e 02       		.uleb128 0x2
 3850 072f 7D       		.byte	0x7d
 3851 0730 00       		.sleb128 0
 3852 0731 05       		.uleb128 0x5
 3853 0732 F3       		.byte	0xf3
 3854 0733 03       		.uleb128 0x3
 3855 0734 F5       		.byte	0xf5
 3856 0735 02       		.uleb128 0x2
 3857 0736 25       		.uleb128 0x25
 3858 0737 00       		.byte	0
 3859 0738 00       		.byte	0
 3860 0739 16       		.uleb128 0x16
 3861 073a B6060000 		.4byte	.LASF50
 3862 073e 01       		.byte	0x1
 3863 073f B6       		.byte	0xb6
 3864 0740 C6000000 		.4byte	0xc6
 3865 0744 00000000 		.4byte	.LFB9
 3866 0748 1C000000 		.4byte	.LFE9-.LFB9
 3867 074c 01       		.uleb128 0x1
 3868 074d 9C       		.byte	0x9c
 3869 074e A4070000 		.4byte	0x7a4
 3870 0752 06       		.uleb128 0x6
 3871 0753 636800   		.ascii	"ch\000"
 3872 0756 01       		.byte	0x1
 3873 0757 B6       		.byte	0xb6
 3874 0758 C6000000 		.4byte	0xc6
 3875 075c A5040000 		.4byte	.LLST28
 3876 0760 07       		.uleb128 0x7
 3877 0761 02010000 		.4byte	.LASF49
 3878 0765 01       		.byte	0x1
 3879 0766 B6       		.byte	0xb6
 3880 0767 F2000000 		.4byte	0xf2
 3881 076b C6040000 		.4byte	.LLST29
 3882 076f 07       		.uleb128 0x7
 3883 0770 91020000 		.4byte	.LASF47
 3884 0774 01       		.byte	0x1
ARM GAS  C:\Users\cronos\AppData\Local\Temp\ccrG4qtQ.s 			page 79


 3885 0775 B6       		.byte	0xb6
 3886 0776 08010000 		.4byte	0x108
 3887 077a F1040000 		.4byte	.LLST30
 3888 077e 13       		.uleb128 0x13
 3889 077f 18000000 		.4byte	.LVL95
 3890 0783 EA050000 		.4byte	0x5ea
 3891 0787 0F       		.uleb128 0xf
 3892 0788 01       		.uleb128 0x1
 3893 0789 51       		.byte	0x51
 3894 078a 02       		.uleb128 0x2
 3895 078b 08       		.byte	0x8
 3896 078c 49       		.byte	0x49
 3897 078d 0F       		.uleb128 0xf
 3898 078e 01       		.uleb128 0x1
 3899 078f 52       		.byte	0x52
 3900 0790 01       		.uleb128 0x1
 3901 0791 34       		.byte	0x34
 3902 0792 0F       		.uleb128 0xf
 3903 0793 01       		.uleb128 0x1
 3904 0794 53       		.byte	0x53
 3905 0795 02       		.uleb128 0x2
 3906 0796 74       		.byte	0x74
 3907 0797 00       		.sleb128 0
 3908 0798 0F       		.uleb128 0xf
 3909 0799 02       		.uleb128 0x2
 3910 079a 7D       		.byte	0x7d
 3911 079b 00       		.sleb128 0
 3912 079c 05       		.uleb128 0x5
 3913 079d F3       		.byte	0xf3
 3914 079e 03       		.uleb128 0x3
 3915 079f F5       		.byte	0xf5
 3916 07a0 02       		.uleb128 0x2
 3917 07a1 25       		.uleb128 0x25
 3918 07a2 00       		.byte	0
 3919 07a3 00       		.byte	0
 3920 07a4 16       		.uleb128 0x16
 3921 07a5 07020000 		.4byte	.LASF51
 3922 07a9 01       		.byte	0x1
 3923 07aa BA       		.byte	0xba
 3924 07ab C6000000 		.4byte	0xc6
 3925 07af 00000000 		.4byte	.LFB10
 3926 07b3 22000000 		.4byte	.LFE10-.LFB10
 3927 07b7 01       		.uleb128 0x1
 3928 07b8 9C       		.byte	0x9c
 3929 07b9 0E080000 		.4byte	0x80e
 3930 07bd 06       		.uleb128 0x6
 3931 07be 636800   		.ascii	"ch\000"
 3932 07c1 01       		.byte	0x1
 3933 07c2 BA       		.byte	0xba
 3934 07c3 C6000000 		.4byte	0xc6
 3935 07c7 25050000 		.4byte	.LLST31
 3936 07cb 07       		.uleb128 0x7
 3937 07cc 02010000 		.4byte	.LASF49
 3938 07d0 01       		.byte	0x1
 3939 07d1 BA       		.byte	0xba
 3940 07d2 FD000000 		.4byte	0xfd
 3941 07d6 46050000 		.4byte	.LLST32
ARM GAS  C:\Users\cronos\AppData\Local\Temp\ccrG4qtQ.s 			page 80


 3942 07da 18       		.uleb128 0x18
 3943 07db 91020000 		.4byte	.LASF47
 3944 07df 01       		.byte	0x1
 3945 07e0 BA       		.byte	0xba
 3946 07e1 08010000 		.4byte	0x108
 3947 07e5 02       		.uleb128 0x2
 3948 07e6 91       		.byte	0x91
 3949 07e7 00       		.sleb128 0
 3950 07e8 13       		.uleb128 0x13
 3951 07e9 1C000000 		.4byte	.LVL99
 3952 07ed EA050000 		.4byte	0x5ea
 3953 07f1 0F       		.uleb128 0xf
 3954 07f2 01       		.uleb128 0x1
 3955 07f3 51       		.byte	0x51
 3956 07f4 02       		.uleb128 0x2
 3957 07f5 08       		.byte	0x8
 3958 07f6 6C       		.byte	0x6c
 3959 07f7 0F       		.uleb128 0xf
 3960 07f8 01       		.uleb128 0x1
 3961 07f9 52       		.byte	0x52
 3962 07fa 01       		.uleb128 0x1
 3963 07fb 38       		.byte	0x38
 3964 07fc 0F       		.uleb128 0xf
 3965 07fd 01       		.uleb128 0x1
 3966 07fe 53       		.byte	0x53
 3967 07ff 02       		.uleb128 0x2
 3968 0800 91       		.byte	0x91
 3969 0801 70       		.sleb128 -16
 3970 0802 0F       		.uleb128 0xf
 3971 0803 02       		.uleb128 0x2
 3972 0804 7D       		.byte	0x7d
 3973 0805 00       		.sleb128 0
 3974 0806 05       		.uleb128 0x5
 3975 0807 91       		.byte	0x91
 3976 0808 00       		.sleb128 0
 3977 0809 F6       		.byte	0xf6
 3978 080a 08       		.byte	0x8
 3979 080b 25       		.uleb128 0x25
 3980 080c 00       		.byte	0
 3981 080d 00       		.byte	0
 3982 080e 16       		.uleb128 0x16
 3983 080f FB040000 		.4byte	.LASF52
 3984 0813 01       		.byte	0x1
 3985 0814 BE       		.byte	0xbe
 3986 0815 C6000000 		.4byte	0xc6
 3987 0819 00000000 		.4byte	.LFB11
 3988 081d 22000000 		.4byte	.LFE11-.LFB11
 3989 0821 01       		.uleb128 0x1
 3990 0822 9C       		.byte	0x9c
 3991 0823 78080000 		.4byte	0x878
 3992 0827 06       		.uleb128 0x6
 3993 0828 636800   		.ascii	"ch\000"
 3994 082b 01       		.byte	0x1
 3995 082c BE       		.byte	0xbe
 3996 082d C6000000 		.4byte	0xc6
 3997 0831 82050000 		.4byte	.LLST33
 3998 0835 07       		.uleb128 0x7
ARM GAS  C:\Users\cronos\AppData\Local\Temp\ccrG4qtQ.s 			page 81


 3999 0836 02010000 		.4byte	.LASF49
 4000 083a 01       		.byte	0x1
 4001 083b BE       		.byte	0xbe
 4002 083c 08010000 		.4byte	0x108
 4003 0840 A3050000 		.4byte	.LLST34
 4004 0844 18       		.uleb128 0x18
 4005 0845 91020000 		.4byte	.LASF47
 4006 0849 01       		.byte	0x1
 4007 084a BE       		.byte	0xbe
 4008 084b 08010000 		.4byte	0x108
 4009 084f 02       		.uleb128 0x2
 4010 0850 91       		.byte	0x91
 4011 0851 00       		.sleb128 0
 4012 0852 13       		.uleb128 0x13
 4013 0853 1C000000 		.4byte	.LVL103
 4014 0857 EA050000 		.4byte	0x5ea
 4015 085b 0F       		.uleb128 0xf
 4016 085c 01       		.uleb128 0x1
 4017 085d 51       		.byte	0x51
 4018 085e 02       		.uleb128 0x2
 4019 085f 08       		.byte	0x8
 4020 0860 4C       		.byte	0x4c
 4021 0861 0F       		.uleb128 0xf
 4022 0862 01       		.uleb128 0x1
 4023 0863 52       		.byte	0x52
 4024 0864 01       		.uleb128 0x1
 4025 0865 38       		.byte	0x38
 4026 0866 0F       		.uleb128 0xf
 4027 0867 01       		.uleb128 0x1
 4028 0868 53       		.byte	0x53
 4029 0869 02       		.uleb128 0x2
 4030 086a 91       		.byte	0x91
 4031 086b 70       		.sleb128 -16
 4032 086c 0F       		.uleb128 0xf
 4033 086d 02       		.uleb128 0x2
 4034 086e 7D       		.byte	0x7d
 4035 086f 00       		.sleb128 0
 4036 0870 05       		.uleb128 0x5
 4037 0871 91       		.byte	0x91
 4038 0872 00       		.sleb128 0
 4039 0873 F6       		.byte	0xf6
 4040 0874 08       		.byte	0x8
 4041 0875 25       		.uleb128 0x25
 4042 0876 00       		.byte	0
 4043 0877 00       		.byte	0
 4044 0878 16       		.uleb128 0x16
 4045 0879 21010000 		.4byte	.LASF53
 4046 087d 01       		.byte	0x1
 4047 087e C2       		.byte	0xc2
 4048 087f C6000000 		.4byte	0xc6
 4049 0883 00000000 		.4byte	.LFB12
 4050 0887 1C000000 		.4byte	.LFE12-.LFB12
 4051 088b 01       		.uleb128 0x1
 4052 088c 9C       		.byte	0x9c
 4053 088d E3080000 		.4byte	0x8e3
 4054 0891 06       		.uleb128 0x6
 4055 0892 636800   		.ascii	"ch\000"
ARM GAS  C:\Users\cronos\AppData\Local\Temp\ccrG4qtQ.s 			page 82


 4056 0895 01       		.byte	0x1
 4057 0896 C2       		.byte	0xc2
 4058 0897 C6000000 		.4byte	0xc6
 4059 089b DF050000 		.4byte	.LLST35
 4060 089f 07       		.uleb128 0x7
 4061 08a0 02010000 		.4byte	.LASF49
 4062 08a4 01       		.byte	0x1
 4063 08a5 C2       		.byte	0xc2
 4064 08a6 33000000 		.4byte	0x33
 4065 08aa 00060000 		.4byte	.LLST36
 4066 08ae 07       		.uleb128 0x7
 4067 08af 91020000 		.4byte	.LASF47
 4068 08b3 01       		.byte	0x1
 4069 08b4 C2       		.byte	0xc2
 4070 08b5 08010000 		.4byte	0x108
 4071 08b9 2B060000 		.4byte	.LLST37
 4072 08bd 13       		.uleb128 0x13
 4073 08be 18000000 		.4byte	.LVL107
 4074 08c2 EA050000 		.4byte	0x5ea
 4075 08c6 0F       		.uleb128 0xf
 4076 08c7 01       		.uleb128 0x1
 4077 08c8 51       		.byte	0x51
 4078 08c9 02       		.uleb128 0x2
 4079 08ca 08       		.byte	0x8
 4080 08cb 66       		.byte	0x66
 4081 08cc 0F       		.uleb128 0xf
 4082 08cd 01       		.uleb128 0x1
 4083 08ce 52       		.byte	0x52
 4084 08cf 01       		.uleb128 0x1
 4085 08d0 34       		.byte	0x34
 4086 08d1 0F       		.uleb128 0xf
 4087 08d2 01       		.uleb128 0x1
 4088 08d3 53       		.byte	0x53
 4089 08d4 02       		.uleb128 0x2
 4090 08d5 74       		.byte	0x74
 4091 08d6 00       		.sleb128 0
 4092 08d7 0F       		.uleb128 0xf
 4093 08d8 02       		.uleb128 0x2
 4094 08d9 7D       		.byte	0x7d
 4095 08da 00       		.sleb128 0
 4096 08db 05       		.uleb128 0x5
 4097 08dc F3       		.byte	0xf3
 4098 08dd 03       		.uleb128 0x3
 4099 08de F5       		.byte	0xf5
 4100 08df 02       		.uleb128 0x2
 4101 08e0 25       		.uleb128 0x25
 4102 08e1 00       		.byte	0
 4103 08e2 00       		.byte	0
 4104 08e3 16       		.uleb128 0x16
 4105 08e4 14010000 		.4byte	.LASF54
 4106 08e8 01       		.byte	0x1
 4107 08e9 C6       		.byte	0xc6
 4108 08ea C6000000 		.4byte	0xc6
 4109 08ee 00000000 		.4byte	.LFB13
 4110 08f2 22000000 		.4byte	.LFE13-.LFB13
 4111 08f6 01       		.uleb128 0x1
 4112 08f7 9C       		.byte	0x9c
ARM GAS  C:\Users\cronos\AppData\Local\Temp\ccrG4qtQ.s 			page 83


 4113 08f8 4D090000 		.4byte	0x94d
 4114 08fc 06       		.uleb128 0x6
 4115 08fd 636800   		.ascii	"ch\000"
 4116 0900 01       		.byte	0x1
 4117 0901 C6       		.byte	0xc6
 4118 0902 C6000000 		.4byte	0xc6
 4119 0906 5F060000 		.4byte	.LLST38
 4120 090a 07       		.uleb128 0x7
 4121 090b 02010000 		.4byte	.LASF49
 4122 090f 01       		.byte	0x1
 4123 0910 C6       		.byte	0xc6
 4124 0911 2C000000 		.4byte	0x2c
 4125 0915 80060000 		.4byte	.LLST39
 4126 0919 18       		.uleb128 0x18
 4127 091a 91020000 		.4byte	.LASF47
 4128 091e 01       		.byte	0x1
 4129 091f C6       		.byte	0xc6
 4130 0920 08010000 		.4byte	0x108
 4131 0924 02       		.uleb128 0x2
 4132 0925 91       		.byte	0x91
 4133 0926 00       		.sleb128 0
 4134 0927 13       		.uleb128 0x13
 4135 0928 1C000000 		.4byte	.LVL111
 4136 092c EA050000 		.4byte	0x5ea
 4137 0930 0F       		.uleb128 0xf
 4138 0931 01       		.uleb128 0x1
 4139 0932 51       		.byte	0x51
 4140 0933 02       		.uleb128 0x2
 4141 0934 08       		.byte	0x8
 4142 0935 64       		.byte	0x64
 4143 0936 0F       		.uleb128 0xf
 4144 0937 01       		.uleb128 0x1
 4145 0938 52       		.byte	0x52
 4146 0939 01       		.uleb128 0x1
 4147 093a 38       		.byte	0x38
 4148 093b 0F       		.uleb128 0xf
 4149 093c 01       		.uleb128 0x1
 4150 093d 53       		.byte	0x53
 4151 093e 02       		.uleb128 0x2
 4152 093f 91       		.byte	0x91
 4153 0940 70       		.sleb128 -16
 4154 0941 0F       		.uleb128 0xf
 4155 0942 02       		.uleb128 0x2
 4156 0943 7D       		.byte	0x7d
 4157 0944 00       		.sleb128 0
 4158 0945 05       		.uleb128 0x5
 4159 0946 91       		.byte	0x91
 4160 0947 00       		.sleb128 0
 4161 0948 F6       		.byte	0xf6
 4162 0949 08       		.byte	0x8
 4163 094a 25       		.uleb128 0x25
 4164 094b 00       		.byte	0
 4165 094c 00       		.byte	0
 4166 094d 16       		.uleb128 0x16
 4167 094e F4020000 		.4byte	.LASF55
 4168 0952 01       		.byte	0x1
 4169 0953 CA       		.byte	0xca
ARM GAS  C:\Users\cronos\AppData\Local\Temp\ccrG4qtQ.s 			page 84


 4170 0954 C6000000 		.4byte	0xc6
 4171 0958 00000000 		.4byte	.LFB14
 4172 095c 18000000 		.4byte	.LFE14-.LFB14
 4173 0960 01       		.uleb128 0x1
 4174 0961 9C       		.byte	0x9c
 4175 0962 B9090000 		.4byte	0x9b9
 4176 0966 06       		.uleb128 0x6
 4177 0967 636800   		.ascii	"ch\000"
 4178 096a 01       		.byte	0x1
 4179 096b CA       		.byte	0xca
 4180 096c C6000000 		.4byte	0xc6
 4181 0970 BC060000 		.4byte	.LLST40
 4182 0974 07       		.uleb128 0x7
 4183 0975 02010000 		.4byte	.LASF49
 4184 0979 01       		.byte	0x1
 4185 097a CA       		.byte	0xca
 4186 097b 83030000 		.4byte	0x383
 4187 097f DD060000 		.4byte	.LLST41
 4188 0983 07       		.uleb128 0x7
 4189 0984 91020000 		.4byte	.LASF47
 4190 0988 01       		.byte	0x1
 4191 0989 CA       		.byte	0xca
 4192 098a 08010000 		.4byte	0x108
 4193 098e 09070000 		.4byte	.LLST42
 4194 0992 13       		.uleb128 0x13
 4195 0993 12000000 		.4byte	.LVL115
 4196 0997 EA050000 		.4byte	0x5ea
 4197 099b 0F       		.uleb128 0xf
 4198 099c 01       		.uleb128 0x1
 4199 099d 51       		.byte	0x51
 4200 099e 02       		.uleb128 0x2
 4201 099f 08       		.byte	0x8
 4202 09a0 62       		.byte	0x62
 4203 09a1 0F       		.uleb128 0xf
 4204 09a2 01       		.uleb128 0x1
 4205 09a3 52       		.byte	0x52
 4206 09a4 01       		.uleb128 0x1
 4207 09a5 38       		.byte	0x38
 4208 09a6 0F       		.uleb128 0xf
 4209 09a7 01       		.uleb128 0x1
 4210 09a8 53       		.byte	0x53
 4211 09a9 03       		.uleb128 0x3
 4212 09aa F3       		.byte	0xf3
 4213 09ab 01       		.uleb128 0x1
 4214 09ac 51       		.byte	0x51
 4215 09ad 0F       		.uleb128 0xf
 4216 09ae 02       		.uleb128 0x2
 4217 09af 7D       		.byte	0x7d
 4218 09b0 00       		.sleb128 0
 4219 09b1 05       		.uleb128 0x5
 4220 09b2 F3       		.byte	0xf3
 4221 09b3 03       		.uleb128 0x3
 4222 09b4 F5       		.byte	0xf5
 4223 09b5 02       		.uleb128 0x2
 4224 09b6 25       		.uleb128 0x25
 4225 09b7 00       		.byte	0
 4226 09b8 00       		.byte	0
ARM GAS  C:\Users\cronos\AppData\Local\Temp\ccrG4qtQ.s 			page 85


 4227 09b9 16       		.uleb128 0x16
 4228 09ba 69020000 		.4byte	.LASF56
 4229 09be 01       		.byte	0x1
 4230 09bf CE       		.byte	0xce
 4231 09c0 C6000000 		.4byte	0xc6
 4232 09c4 00000000 		.4byte	.LFB15
 4233 09c8 0C000000 		.4byte	.LFE15-.LFB15
 4234 09cc 01       		.uleb128 0x1
 4235 09cd 9C       		.byte	0x9c
 4236 09ce 010A0000 		.4byte	0xa01
 4237 09d2 06       		.uleb128 0x6
 4238 09d3 636800   		.ascii	"ch\000"
 4239 09d6 01       		.byte	0x1
 4240 09d7 CE       		.byte	0xce
 4241 09d8 C6000000 		.4byte	0xc6
 4242 09dc 3D070000 		.4byte	.LLST43
 4243 09e0 07       		.uleb128 0x7
 4244 09e1 02010000 		.4byte	.LASF49
 4245 09e5 01       		.byte	0x1
 4246 09e6 CE       		.byte	0xce
 4247 09e7 E7000000 		.4byte	0xe7
 4248 09eb 5E070000 		.4byte	.LLST44
 4249 09ef 13       		.uleb128 0x13
 4250 09f0 0A000000 		.4byte	.LVL117
 4251 09f4 CE060000 		.4byte	0x6ce
 4252 09f8 0F       		.uleb128 0xf
 4253 09f9 01       		.uleb128 0x1
 4254 09fa 51       		.byte	0x51
 4255 09fb 03       		.uleb128 0x3
 4256 09fc F3       		.byte	0xf3
 4257 09fd 01       		.uleb128 0x1
 4258 09fe 51       		.byte	0x51
 4259 09ff 00       		.byte	0
 4260 0a00 00       		.byte	0
 4261 0a01 16       		.uleb128 0x16
 4262 0a02 16020000 		.4byte	.LASF57
 4263 0a06 01       		.byte	0x1
 4264 0a07 D2       		.byte	0xd2
 4265 0a08 C6000000 		.4byte	0xc6
 4266 0a0c 00000000 		.4byte	.LFB16
 4267 0a10 0C000000 		.4byte	.LFE16-.LFB16
 4268 0a14 01       		.uleb128 0x1
 4269 0a15 9C       		.byte	0x9c
 4270 0a16 490A0000 		.4byte	0xa49
 4271 0a1a 06       		.uleb128 0x6
 4272 0a1b 636800   		.ascii	"ch\000"
 4273 0a1e 01       		.byte	0x1
 4274 0a1f D2       		.byte	0xd2
 4275 0a20 C6000000 		.4byte	0xc6
 4276 0a24 7F070000 		.4byte	.LLST45
 4277 0a28 07       		.uleb128 0x7
 4278 0a29 02010000 		.4byte	.LASF49
 4279 0a2d 01       		.byte	0x1
 4280 0a2e D2       		.byte	0xd2
 4281 0a2f F2000000 		.4byte	0xf2
 4282 0a33 A0070000 		.4byte	.LLST46
 4283 0a37 13       		.uleb128 0x13
ARM GAS  C:\Users\cronos\AppData\Local\Temp\ccrG4qtQ.s 			page 86


 4284 0a38 0A000000 		.4byte	.LVL119
 4285 0a3c 39070000 		.4byte	0x739
 4286 0a40 0F       		.uleb128 0xf
 4287 0a41 01       		.uleb128 0x1
 4288 0a42 51       		.byte	0x51
 4289 0a43 03       		.uleb128 0x3
 4290 0a44 F3       		.byte	0xf3
 4291 0a45 01       		.uleb128 0x1
 4292 0a46 51       		.byte	0x51
 4293 0a47 00       		.byte	0
 4294 0a48 00       		.byte	0
 4295 0a49 16       		.uleb128 0x16
 4296 0a4a 3F000000 		.4byte	.LASF58
 4297 0a4e 01       		.byte	0x1
 4298 0a4f D6       		.byte	0xd6
 4299 0a50 C6000000 		.4byte	0xc6
 4300 0a54 00000000 		.4byte	.LFB17
 4301 0a58 14000000 		.4byte	.LFE17-.LFB17
 4302 0a5c 01       		.uleb128 0x1
 4303 0a5d 9C       		.byte	0x9c
 4304 0a5e A00A0000 		.4byte	0xaa0
 4305 0a62 06       		.uleb128 0x6
 4306 0a63 636800   		.ascii	"ch\000"
 4307 0a66 01       		.byte	0x1
 4308 0a67 D6       		.byte	0xd6
 4309 0a68 C6000000 		.4byte	0xc6
 4310 0a6c C1070000 		.4byte	.LLST47
 4311 0a70 07       		.uleb128 0x7
 4312 0a71 02010000 		.4byte	.LASF49
 4313 0a75 01       		.byte	0x1
 4314 0a76 D6       		.byte	0xd6
 4315 0a77 FD000000 		.4byte	0xfd
 4316 0a7b E2070000 		.4byte	.LLST48
 4317 0a7f 13       		.uleb128 0x13
 4318 0a80 10000000 		.4byte	.LVL121
 4319 0a84 A4070000 		.4byte	0x7a4
 4320 0a88 0F       		.uleb128 0xf
 4321 0a89 06       		.uleb128 0x6
 4322 0a8a 52       		.byte	0x52
 4323 0a8b 93       		.byte	0x93
 4324 0a8c 04       		.uleb128 0x4
 4325 0a8d 53       		.byte	0x53
 4326 0a8e 93       		.byte	0x93
 4327 0a8f 04       		.uleb128 0x4
 4328 0a90 05       		.uleb128 0x5
 4329 0a91 F3       		.byte	0xf3
 4330 0a92 03       		.uleb128 0x3
 4331 0a93 F5       		.byte	0xf5
 4332 0a94 02       		.uleb128 0x2
 4333 0a95 25       		.uleb128 0x25
 4334 0a96 0F       		.uleb128 0xf
 4335 0a97 02       		.uleb128 0x2
 4336 0a98 7D       		.byte	0x7d
 4337 0a99 00       		.sleb128 0
 4338 0a9a 03       		.uleb128 0x3
 4339 0a9b F5       		.byte	0xf5
 4340 0a9c 04       		.uleb128 0x4
ARM GAS  C:\Users\cronos\AppData\Local\Temp\ccrG4qtQ.s 			page 87


 4341 0a9d 25       		.uleb128 0x25
 4342 0a9e 00       		.byte	0
 4343 0a9f 00       		.byte	0
 4344 0aa0 16       		.uleb128 0x16
 4345 0aa1 83000000 		.4byte	.LASF59
 4346 0aa5 01       		.byte	0x1
 4347 0aa6 DA       		.byte	0xda
 4348 0aa7 C6000000 		.4byte	0xc6
 4349 0aab 00000000 		.4byte	.LFB18
 4350 0aaf 14000000 		.4byte	.LFE18-.LFB18
 4351 0ab3 01       		.uleb128 0x1
 4352 0ab4 9C       		.byte	0x9c
 4353 0ab5 F70A0000 		.4byte	0xaf7
 4354 0ab9 06       		.uleb128 0x6
 4355 0aba 636800   		.ascii	"ch\000"
 4356 0abd 01       		.byte	0x1
 4357 0abe DA       		.byte	0xda
 4358 0abf C6000000 		.4byte	0xc6
 4359 0ac3 0A080000 		.4byte	.LLST49
 4360 0ac7 07       		.uleb128 0x7
 4361 0ac8 02010000 		.4byte	.LASF49
 4362 0acc 01       		.byte	0x1
 4363 0acd DA       		.byte	0xda
 4364 0ace 08010000 		.4byte	0x108
 4365 0ad2 2B080000 		.4byte	.LLST50
 4366 0ad6 13       		.uleb128 0x13
 4367 0ad7 10000000 		.4byte	.LVL123
 4368 0adb 0E080000 		.4byte	0x80e
 4369 0adf 0F       		.uleb128 0xf
 4370 0ae0 06       		.uleb128 0x6
 4371 0ae1 52       		.byte	0x52
 4372 0ae2 93       		.byte	0x93
 4373 0ae3 04       		.uleb128 0x4
 4374 0ae4 53       		.byte	0x53
 4375 0ae5 93       		.byte	0x93
 4376 0ae6 04       		.uleb128 0x4
 4377 0ae7 05       		.uleb128 0x5
 4378 0ae8 F3       		.byte	0xf3
 4379 0ae9 03       		.uleb128 0x3
 4380 0aea F5       		.byte	0xf5
 4381 0aeb 02       		.uleb128 0x2
 4382 0aec 25       		.uleb128 0x25
 4383 0aed 0F       		.uleb128 0xf
 4384 0aee 02       		.uleb128 0x2
 4385 0aef 7D       		.byte	0x7d
 4386 0af0 00       		.sleb128 0
 4387 0af1 03       		.uleb128 0x3
 4388 0af2 F5       		.byte	0xf5
 4389 0af3 04       		.uleb128 0x4
 4390 0af4 25       		.uleb128 0x25
 4391 0af5 00       		.byte	0
 4392 0af6 00       		.byte	0
 4393 0af7 16       		.uleb128 0x16
 4394 0af8 15060000 		.4byte	.LASF60
 4395 0afc 01       		.byte	0x1
 4396 0afd DE       		.byte	0xde
 4397 0afe C6000000 		.4byte	0xc6
ARM GAS  C:\Users\cronos\AppData\Local\Temp\ccrG4qtQ.s 			page 88


 4398 0b02 00000000 		.4byte	.LFB19
 4399 0b06 0C000000 		.4byte	.LFE19-.LFB19
 4400 0b0a 01       		.uleb128 0x1
 4401 0b0b 9C       		.byte	0x9c
 4402 0b0c 410B0000 		.4byte	0xb41
 4403 0b10 06       		.uleb128 0x6
 4404 0b11 636800   		.ascii	"ch\000"
 4405 0b14 01       		.byte	0x1
 4406 0b15 DE       		.byte	0xde
 4407 0b16 C6000000 		.4byte	0xc6
 4408 0b1a 53080000 		.4byte	.LLST51
 4409 0b1e 07       		.uleb128 0x7
 4410 0b1f 02010000 		.4byte	.LASF49
 4411 0b23 01       		.byte	0x1
 4412 0b24 DE       		.byte	0xde
 4413 0b25 33000000 		.4byte	0x33
 4414 0b29 74080000 		.4byte	.LLST52
 4415 0b2d 13       		.uleb128 0x13
 4416 0b2e 0A000000 		.4byte	.LVL125
 4417 0b32 78080000 		.4byte	0x878
 4418 0b36 0F       		.uleb128 0xf
 4419 0b37 01       		.uleb128 0x1
 4420 0b38 51       		.byte	0x51
 4421 0b39 05       		.uleb128 0x5
 4422 0b3a F3       		.byte	0xf3
 4423 0b3b 03       		.uleb128 0x3
 4424 0b3c F5       		.byte	0xf5
 4425 0b3d 01       		.uleb128 0x1
 4426 0b3e 33       		.uleb128 0x33
 4427 0b3f 00       		.byte	0
 4428 0b40 00       		.byte	0
 4429 0b41 16       		.uleb128 0x16
 4430 0b42 F5050000 		.4byte	.LASF61
 4431 0b46 01       		.byte	0x1
 4432 0b47 E2       		.byte	0xe2
 4433 0b48 C6000000 		.4byte	0xc6
 4434 0b4c 00000000 		.4byte	.LFB20
 4435 0b50 14000000 		.4byte	.LFE20-.LFB20
 4436 0b54 01       		.uleb128 0x1
 4437 0b55 9C       		.byte	0x9c
 4438 0b56 980B0000 		.4byte	0xb98
 4439 0b5a 06       		.uleb128 0x6
 4440 0b5b 636800   		.ascii	"ch\000"
 4441 0b5e 01       		.byte	0x1
 4442 0b5f E2       		.byte	0xe2
 4443 0b60 C6000000 		.4byte	0xc6
 4444 0b64 97080000 		.4byte	.LLST53
 4445 0b68 07       		.uleb128 0x7
 4446 0b69 02010000 		.4byte	.LASF49
 4447 0b6d 01       		.byte	0x1
 4448 0b6e E2       		.byte	0xe2
 4449 0b6f 2C000000 		.4byte	0x2c
 4450 0b73 B8080000 		.4byte	.LLST54
 4451 0b77 13       		.uleb128 0x13
 4452 0b78 10000000 		.4byte	.LVL127
 4453 0b7c E3080000 		.4byte	0x8e3
 4454 0b80 0F       		.uleb128 0xf
ARM GAS  C:\Users\cronos\AppData\Local\Temp\ccrG4qtQ.s 			page 89


 4455 0b81 06       		.uleb128 0x6
 4456 0b82 52       		.byte	0x52
 4457 0b83 93       		.byte	0x93
 4458 0b84 04       		.uleb128 0x4
 4459 0b85 53       		.byte	0x53
 4460 0b86 93       		.byte	0x93
 4461 0b87 04       		.uleb128 0x4
 4462 0b88 05       		.uleb128 0x5
 4463 0b89 F3       		.byte	0xf3
 4464 0b8a 03       		.uleb128 0x3
 4465 0b8b F5       		.byte	0xf5
 4466 0b8c 02       		.uleb128 0x2
 4467 0b8d 2C       		.uleb128 0x2c
 4468 0b8e 0F       		.uleb128 0xf
 4469 0b8f 02       		.uleb128 0x2
 4470 0b90 7D       		.byte	0x7d
 4471 0b91 00       		.sleb128 0
 4472 0b92 03       		.uleb128 0x3
 4473 0b93 F5       		.byte	0xf5
 4474 0b94 04       		.uleb128 0x4
 4475 0b95 25       		.uleb128 0x25
 4476 0b96 00       		.byte	0
 4477 0b97 00       		.byte	0
 4478 0b98 16       		.uleb128 0x16
 4479 0b99 4F030000 		.4byte	.LASF62
 4480 0b9d 01       		.byte	0x1
 4481 0b9e E6       		.byte	0xe6
 4482 0b9f C6000000 		.4byte	0xc6
 4483 0ba3 00000000 		.4byte	.LFB21
 4484 0ba7 0C000000 		.4byte	.LFE21-.LFB21
 4485 0bab 01       		.uleb128 0x1
 4486 0bac 9C       		.byte	0x9c
 4487 0bad E00B0000 		.4byte	0xbe0
 4488 0bb1 06       		.uleb128 0x6
 4489 0bb2 636800   		.ascii	"ch\000"
 4490 0bb5 01       		.byte	0x1
 4491 0bb6 E6       		.byte	0xe6
 4492 0bb7 C6000000 		.4byte	0xc6
 4493 0bbb E0080000 		.4byte	.LLST55
 4494 0bbf 07       		.uleb128 0x7
 4495 0bc0 02010000 		.4byte	.LASF49
 4496 0bc4 01       		.byte	0x1
 4497 0bc5 E6       		.byte	0xe6
 4498 0bc6 83030000 		.4byte	0x383
 4499 0bca 01090000 		.4byte	.LLST56
 4500 0bce 13       		.uleb128 0x13
 4501 0bcf 0A000000 		.4byte	.LVL129
 4502 0bd3 4D090000 		.4byte	0x94d
 4503 0bd7 0F       		.uleb128 0xf
 4504 0bd8 01       		.uleb128 0x1
 4505 0bd9 51       		.byte	0x51
 4506 0bda 03       		.uleb128 0x3
 4507 0bdb F3       		.byte	0xf3
 4508 0bdc 01       		.uleb128 0x1
 4509 0bdd 51       		.byte	0x51
 4510 0bde 00       		.byte	0
 4511 0bdf 00       		.byte	0
ARM GAS  C:\Users\cronos\AppData\Local\Temp\ccrG4qtQ.s 			page 90


 4512 0be0 16       		.uleb128 0x16
 4513 0be1 B7020000 		.4byte	.LASF63
 4514 0be5 01       		.byte	0x1
 4515 0be6 EA       		.byte	0xea
 4516 0be7 C6000000 		.4byte	0xc6
 4517 0beb 00000000 		.4byte	.LFB22
 4518 0bef 6E000000 		.4byte	.LFE22-.LFB22
 4519 0bf3 01       		.uleb128 0x1
 4520 0bf4 9C       		.byte	0x9c
 4521 0bf5 B40C0000 		.4byte	0xcb4
 4522 0bf9 06       		.uleb128 0x6
 4523 0bfa 636800   		.ascii	"ch\000"
 4524 0bfd 01       		.byte	0x1
 4525 0bfe EA       		.byte	0xea
 4526 0bff C6000000 		.4byte	0xc6
 4527 0c03 22090000 		.4byte	.LLST57
 4528 0c07 07       		.uleb128 0x7
 4529 0c08 5E040000 		.4byte	.LASF46
 4530 0c0c 01       		.byte	0x1
 4531 0c0d EA       		.byte	0xea
 4532 0c0e C6000000 		.4byte	0xc6
 4533 0c12 43090000 		.4byte	.LLST58
 4534 0c16 07       		.uleb128 0x7
 4535 0c17 DF010000 		.4byte	.LASF40
 4536 0c1b 01       		.byte	0x1
 4537 0c1c EA       		.byte	0xea
 4538 0c1d C6000000 		.4byte	0xc6
 4539 0c21 70090000 		.4byte	.LLST59
 4540 0c25 07       		.uleb128 0x7
 4541 0c26 CC040000 		.4byte	.LASF41
 4542 0c2a 01       		.byte	0x1
 4543 0c2b EA       		.byte	0xea
 4544 0c2c 83030000 		.4byte	0x383
 4545 0c30 91090000 		.4byte	.LLST60
 4546 0c34 07       		.uleb128 0x7
 4547 0c35 91020000 		.4byte	.LASF47
 4548 0c39 01       		.byte	0x1
 4549 0c3a EA       		.byte	0xea
 4550 0c3b 08010000 		.4byte	0x108
 4551 0c3f B2090000 		.4byte	.LLST61
 4552 0c43 12       		.uleb128 0x12
 4553 0c44 EF030000 		.4byte	.LASF27
 4554 0c48 01       		.byte	0x1
 4555 0c49 EB       		.byte	0xeb
 4556 0c4a BE060000 		.4byte	0x6be
 4557 0c4e 02       		.uleb128 0x2
 4558 0c4f 91       		.byte	0x91
 4559 0c50 64       		.sleb128 -28
 4560 0c51 08       		.uleb128 0x8
 4561 0c52 98020000 		.4byte	.LASF26
 4562 0c56 01       		.byte	0x1
 4563 0c57 EC       		.byte	0xec
 4564 0c58 C6000000 		.4byte	0xc6
 4565 0c5c DE090000 		.4byte	.LLST62
 4566 0c60 0C       		.uleb128 0xc
 4567 0c61 1A000000 		.4byte	.LBB7
 4568 0c65 1A000000 		.4byte	.LBE7-.LBB7
ARM GAS  C:\Users\cronos\AppData\Local\Temp\ccrG4qtQ.s 			page 91


 4569 0c69 7B0C0000 		.4byte	0xc7b
 4570 0c6d 0B       		.uleb128 0xb
 4571 0c6e 6900     		.ascii	"i\000"
 4572 0c70 01       		.byte	0x1
 4573 0c71 EF       		.byte	0xef
 4574 0c72 C6000000 		.4byte	0xc6
 4575 0c76 FD090000 		.4byte	.LLST63
 4576 0c7a 00       		.byte	0
 4577 0c7b 17       		.uleb128 0x17
 4578 0c7c 18000000 		.4byte	.Ldebug_ranges0+0x18
 4579 0c80 920C0000 		.4byte	0xc92
 4580 0c84 0B       		.uleb128 0xb
 4581 0c85 6900     		.ascii	"i\000"
 4582 0c87 01       		.byte	0x1
 4583 0c88 F4       		.byte	0xf4
 4584 0c89 C6000000 		.4byte	0xc6
 4585 0c8d 320A0000 		.4byte	.LLST64
 4586 0c91 00       		.byte	0
 4587 0c92 13       		.uleb128 0x13
 4588 0c93 6A000000 		.4byte	.LVL148
 4589 0c97 1A010000 		.4byte	0x11a
 4590 0c9b 0F       		.uleb128 0xf
 4591 0c9c 01       		.uleb128 0x1
 4592 0c9d 50       		.byte	0x50
 4593 0c9e 02       		.uleb128 0x2
 4594 0c9f 08       		.byte	0x8
 4595 0ca0 21       		.byte	0x21
 4596 0ca1 0F       		.uleb128 0xf
 4597 0ca2 01       		.uleb128 0x1
 4598 0ca3 52       		.byte	0x52
 4599 0ca4 02       		.uleb128 0x2
 4600 0ca5 91       		.byte	0x91
 4601 0ca6 64       		.sleb128 -28
 4602 0ca7 0F       		.uleb128 0xf
 4603 0ca8 01       		.uleb128 0x1
 4604 0ca9 53       		.byte	0x53
 4605 0caa 01       		.uleb128 0x1
 4606 0cab 30       		.byte	0x30
 4607 0cac 0F       		.uleb128 0xf
 4608 0cad 02       		.uleb128 0x2
 4609 0cae 7D       		.byte	0x7d
 4610 0caf 00       		.sleb128 0
 4611 0cb0 01       		.uleb128 0x1
 4612 0cb1 30       		.byte	0x30
 4613 0cb2 00       		.byte	0
 4614 0cb3 00       		.byte	0
 4615 0cb4 16       		.uleb128 0x16
 4616 0cb5 3C020000 		.4byte	.LASF64
 4617 0cb9 01       		.byte	0x1
 4618 0cba FB       		.byte	0xfb
 4619 0cbb C6000000 		.4byte	0xc6
 4620 0cbf 00000000 		.4byte	.LFB23
 4621 0cc3 1C000000 		.4byte	.LFE23-.LFB23
 4622 0cc7 01       		.uleb128 0x1
 4623 0cc8 9C       		.byte	0x9c
 4624 0cc9 1F0D0000 		.4byte	0xd1f
 4625 0ccd 06       		.uleb128 0x6
ARM GAS  C:\Users\cronos\AppData\Local\Temp\ccrG4qtQ.s 			page 92


 4626 0cce 636800   		.ascii	"ch\000"
 4627 0cd1 01       		.byte	0x1
 4628 0cd2 FB       		.byte	0xfb
 4629 0cd3 C6000000 		.4byte	0xc6
 4630 0cd7 5B0A0000 		.4byte	.LLST65
 4631 0cdb 07       		.uleb128 0x7
 4632 0cdc 02010000 		.4byte	.LASF49
 4633 0ce0 01       		.byte	0x1
 4634 0ce1 FB       		.byte	0xfb
 4635 0ce2 E7000000 		.4byte	0xe7
 4636 0ce6 7C0A0000 		.4byte	.LLST66
 4637 0cea 07       		.uleb128 0x7
 4638 0ceb 91020000 		.4byte	.LASF47
 4639 0cef 01       		.byte	0x1
 4640 0cf0 FB       		.byte	0xfb
 4641 0cf1 08010000 		.4byte	0x108
 4642 0cf5 A70A0000 		.4byte	.LLST67
 4643 0cf9 13       		.uleb128 0x13
 4644 0cfa 18000000 		.4byte	.LVL152
 4645 0cfe E00B0000 		.4byte	0xbe0
 4646 0d02 0F       		.uleb128 0xf
 4647 0d03 01       		.uleb128 0x1
 4648 0d04 51       		.byte	0x51
 4649 0d05 02       		.uleb128 0x2
 4650 0d06 08       		.byte	0x8
 4651 0d07 69       		.byte	0x69
 4652 0d08 0F       		.uleb128 0xf
 4653 0d09 01       		.uleb128 0x1
 4654 0d0a 52       		.byte	0x52
 4655 0d0b 01       		.uleb128 0x1
 4656 0d0c 34       		.byte	0x34
 4657 0d0d 0F       		.uleb128 0xf
 4658 0d0e 01       		.uleb128 0x1
 4659 0d0f 53       		.byte	0x53
 4660 0d10 02       		.uleb128 0x2
 4661 0d11 74       		.byte	0x74
 4662 0d12 00       		.sleb128 0
 4663 0d13 0F       		.uleb128 0xf
 4664 0d14 02       		.uleb128 0x2
 4665 0d15 7D       		.byte	0x7d
 4666 0d16 00       		.sleb128 0
 4667 0d17 05       		.uleb128 0x5
 4668 0d18 F3       		.byte	0xf3
 4669 0d19 03       		.uleb128 0x3
 4670 0d1a F5       		.byte	0xf5
 4671 0d1b 02       		.uleb128 0x2
 4672 0d1c 25       		.uleb128 0x25
 4673 0d1d 00       		.byte	0
 4674 0d1e 00       		.byte	0
 4675 0d1f 16       		.uleb128 0x16
 4676 0d20 E5040000 		.4byte	.LASF65
 4677 0d24 01       		.byte	0x1
 4678 0d25 FF       		.byte	0xff
 4679 0d26 C6000000 		.4byte	0xc6
 4680 0d2a 00000000 		.4byte	.LFB24
 4681 0d2e 1C000000 		.4byte	.LFE24-.LFB24
 4682 0d32 01       		.uleb128 0x1
ARM GAS  C:\Users\cronos\AppData\Local\Temp\ccrG4qtQ.s 			page 93


 4683 0d33 9C       		.byte	0x9c
 4684 0d34 8A0D0000 		.4byte	0xd8a
 4685 0d38 06       		.uleb128 0x6
 4686 0d39 636800   		.ascii	"ch\000"
 4687 0d3c 01       		.byte	0x1
 4688 0d3d FF       		.byte	0xff
 4689 0d3e C6000000 		.4byte	0xc6
 4690 0d42 DB0A0000 		.4byte	.LLST68
 4691 0d46 07       		.uleb128 0x7
 4692 0d47 02010000 		.4byte	.LASF49
 4693 0d4b 01       		.byte	0x1
 4694 0d4c FF       		.byte	0xff
 4695 0d4d F2000000 		.4byte	0xf2
 4696 0d51 FC0A0000 		.4byte	.LLST69
 4697 0d55 07       		.uleb128 0x7
 4698 0d56 91020000 		.4byte	.LASF47
 4699 0d5a 01       		.byte	0x1
 4700 0d5b FF       		.byte	0xff
 4701 0d5c 08010000 		.4byte	0x108
 4702 0d60 270B0000 		.4byte	.LLST70
 4703 0d64 13       		.uleb128 0x13
 4704 0d65 18000000 		.4byte	.LVL156
 4705 0d69 E00B0000 		.4byte	0xbe0
 4706 0d6d 0F       		.uleb128 0xf
 4707 0d6e 01       		.uleb128 0x1
 4708 0d6f 51       		.byte	0x51
 4709 0d70 02       		.uleb128 0x2
 4710 0d71 08       		.byte	0x8
 4711 0d72 49       		.byte	0x49
 4712 0d73 0F       		.uleb128 0xf
 4713 0d74 01       		.uleb128 0x1
 4714 0d75 52       		.byte	0x52
 4715 0d76 01       		.uleb128 0x1
 4716 0d77 34       		.byte	0x34
 4717 0d78 0F       		.uleb128 0xf
 4718 0d79 01       		.uleb128 0x1
 4719 0d7a 53       		.byte	0x53
 4720 0d7b 02       		.uleb128 0x2
 4721 0d7c 74       		.byte	0x74
 4722 0d7d 00       		.sleb128 0
 4723 0d7e 0F       		.uleb128 0xf
 4724 0d7f 02       		.uleb128 0x2
 4725 0d80 7D       		.byte	0x7d
 4726 0d81 00       		.sleb128 0
 4727 0d82 05       		.uleb128 0x5
 4728 0d83 F3       		.byte	0xf3
 4729 0d84 03       		.uleb128 0x3
 4730 0d85 F5       		.byte	0xf5
 4731 0d86 02       		.uleb128 0x2
 4732 0d87 25       		.uleb128 0x25
 4733 0d88 00       		.byte	0
 4734 0d89 00       		.byte	0
 4735 0d8a 19       		.uleb128 0x19
 4736 0d8b 92000000 		.4byte	.LASF66
 4737 0d8f 01       		.byte	0x1
 4738 0d90 0301     		.2byte	0x103
 4739 0d92 C6000000 		.4byte	0xc6
ARM GAS  C:\Users\cronos\AppData\Local\Temp\ccrG4qtQ.s 			page 94


 4740 0d96 00000000 		.4byte	.LFB25
 4741 0d9a 22000000 		.4byte	.LFE25-.LFB25
 4742 0d9e 01       		.uleb128 0x1
 4743 0d9f 9C       		.byte	0x9c
 4744 0da0 F80D0000 		.4byte	0xdf8
 4745 0da4 1A       		.uleb128 0x1a
 4746 0da5 636800   		.ascii	"ch\000"
 4747 0da8 01       		.byte	0x1
 4748 0da9 0301     		.2byte	0x103
 4749 0dab C6000000 		.4byte	0xc6
 4750 0daf 5B0B0000 		.4byte	.LLST71
 4751 0db3 1B       		.uleb128 0x1b
 4752 0db4 02010000 		.4byte	.LASF49
 4753 0db8 01       		.byte	0x1
 4754 0db9 0301     		.2byte	0x103
 4755 0dbb FD000000 		.4byte	0xfd
 4756 0dbf 7C0B0000 		.4byte	.LLST72
 4757 0dc3 1C       		.uleb128 0x1c
 4758 0dc4 91020000 		.4byte	.LASF47
 4759 0dc8 01       		.byte	0x1
 4760 0dc9 0301     		.2byte	0x103
 4761 0dcb 08010000 		.4byte	0x108
 4762 0dcf 02       		.uleb128 0x2
 4763 0dd0 91       		.byte	0x91
 4764 0dd1 00       		.sleb128 0
 4765 0dd2 13       		.uleb128 0x13
 4766 0dd3 1C000000 		.4byte	.LVL160
 4767 0dd7 E00B0000 		.4byte	0xbe0
 4768 0ddb 0F       		.uleb128 0xf
 4769 0ddc 01       		.uleb128 0x1
 4770 0ddd 51       		.byte	0x51
 4771 0dde 02       		.uleb128 0x2
 4772 0ddf 08       		.byte	0x8
 4773 0de0 6C       		.byte	0x6c
 4774 0de1 0F       		.uleb128 0xf
 4775 0de2 01       		.uleb128 0x1
 4776 0de3 52       		.byte	0x52
 4777 0de4 01       		.uleb128 0x1
 4778 0de5 38       		.byte	0x38
 4779 0de6 0F       		.uleb128 0xf
 4780 0de7 01       		.uleb128 0x1
 4781 0de8 53       		.byte	0x53
 4782 0de9 02       		.uleb128 0x2
 4783 0dea 91       		.byte	0x91
 4784 0deb 70       		.sleb128 -16
 4785 0dec 0F       		.uleb128 0xf
 4786 0ded 02       		.uleb128 0x2
 4787 0dee 7D       		.byte	0x7d
 4788 0def 00       		.sleb128 0
 4789 0df0 05       		.uleb128 0x5
 4790 0df1 91       		.byte	0x91
 4791 0df2 00       		.sleb128 0
 4792 0df3 F6       		.byte	0xf6
 4793 0df4 08       		.byte	0x8
 4794 0df5 25       		.uleb128 0x25
 4795 0df6 00       		.byte	0
 4796 0df7 00       		.byte	0
ARM GAS  C:\Users\cronos\AppData\Local\Temp\ccrG4qtQ.s 			page 95


 4797 0df8 19       		.uleb128 0x19
 4798 0df9 52050000 		.4byte	.LASF67
 4799 0dfd 01       		.byte	0x1
 4800 0dfe 0701     		.2byte	0x107
 4801 0e00 C6000000 		.4byte	0xc6
 4802 0e04 00000000 		.4byte	.LFB26
 4803 0e08 22000000 		.4byte	.LFE26-.LFB26
 4804 0e0c 01       		.uleb128 0x1
 4805 0e0d 9C       		.byte	0x9c
 4806 0e0e 660E0000 		.4byte	0xe66
 4807 0e12 1A       		.uleb128 0x1a
 4808 0e13 636800   		.ascii	"ch\000"
 4809 0e16 01       		.byte	0x1
 4810 0e17 0701     		.2byte	0x107
 4811 0e19 C6000000 		.4byte	0xc6
 4812 0e1d B80B0000 		.4byte	.LLST73
 4813 0e21 1B       		.uleb128 0x1b
 4814 0e22 02010000 		.4byte	.LASF49
 4815 0e26 01       		.byte	0x1
 4816 0e27 0701     		.2byte	0x107
 4817 0e29 08010000 		.4byte	0x108
 4818 0e2d D90B0000 		.4byte	.LLST74
 4819 0e31 1C       		.uleb128 0x1c
 4820 0e32 91020000 		.4byte	.LASF47
 4821 0e36 01       		.byte	0x1
 4822 0e37 0701     		.2byte	0x107
 4823 0e39 08010000 		.4byte	0x108
 4824 0e3d 02       		.uleb128 0x2
 4825 0e3e 91       		.byte	0x91
 4826 0e3f 00       		.sleb128 0
 4827 0e40 13       		.uleb128 0x13
 4828 0e41 1C000000 		.4byte	.LVL164
 4829 0e45 E00B0000 		.4byte	0xbe0
 4830 0e49 0F       		.uleb128 0xf
 4831 0e4a 01       		.uleb128 0x1
 4832 0e4b 51       		.byte	0x51
 4833 0e4c 02       		.uleb128 0x2
 4834 0e4d 08       		.byte	0x8
 4835 0e4e 4C       		.byte	0x4c
 4836 0e4f 0F       		.uleb128 0xf
 4837 0e50 01       		.uleb128 0x1
 4838 0e51 52       		.byte	0x52
 4839 0e52 01       		.uleb128 0x1
 4840 0e53 38       		.byte	0x38
 4841 0e54 0F       		.uleb128 0xf
 4842 0e55 01       		.uleb128 0x1
 4843 0e56 53       		.byte	0x53
 4844 0e57 02       		.uleb128 0x2
 4845 0e58 91       		.byte	0x91
 4846 0e59 70       		.sleb128 -16
 4847 0e5a 0F       		.uleb128 0xf
 4848 0e5b 02       		.uleb128 0x2
 4849 0e5c 7D       		.byte	0x7d
 4850 0e5d 00       		.sleb128 0
 4851 0e5e 05       		.uleb128 0x5
 4852 0e5f 91       		.byte	0x91
 4853 0e60 00       		.sleb128 0
ARM GAS  C:\Users\cronos\AppData\Local\Temp\ccrG4qtQ.s 			page 96


 4854 0e61 F6       		.byte	0xf6
 4855 0e62 08       		.byte	0x8
 4856 0e63 25       		.uleb128 0x25
 4857 0e64 00       		.byte	0
 4858 0e65 00       		.byte	0
 4859 0e66 19       		.uleb128 0x19
 4860 0e67 3C030000 		.4byte	.LASF68
 4861 0e6b 01       		.byte	0x1
 4862 0e6c 0B01     		.2byte	0x10b
 4863 0e6e C6000000 		.4byte	0xc6
 4864 0e72 00000000 		.4byte	.LFB27
 4865 0e76 1C000000 		.4byte	.LFE27-.LFB27
 4866 0e7a 01       		.uleb128 0x1
 4867 0e7b 9C       		.byte	0x9c
 4868 0e7c D50E0000 		.4byte	0xed5
 4869 0e80 1A       		.uleb128 0x1a
 4870 0e81 636800   		.ascii	"ch\000"
 4871 0e84 01       		.byte	0x1
 4872 0e85 0B01     		.2byte	0x10b
 4873 0e87 C6000000 		.4byte	0xc6
 4874 0e8b 150C0000 		.4byte	.LLST75
 4875 0e8f 1B       		.uleb128 0x1b
 4876 0e90 02010000 		.4byte	.LASF49
 4877 0e94 01       		.byte	0x1
 4878 0e95 0B01     		.2byte	0x10b
 4879 0e97 33000000 		.4byte	0x33
 4880 0e9b 360C0000 		.4byte	.LLST76
 4881 0e9f 1B       		.uleb128 0x1b
 4882 0ea0 91020000 		.4byte	.LASF47
 4883 0ea4 01       		.byte	0x1
 4884 0ea5 0B01     		.2byte	0x10b
 4885 0ea7 08010000 		.4byte	0x108
 4886 0eab 610C0000 		.4byte	.LLST77
 4887 0eaf 13       		.uleb128 0x13
 4888 0eb0 18000000 		.4byte	.LVL168
 4889 0eb4 E00B0000 		.4byte	0xbe0
 4890 0eb8 0F       		.uleb128 0xf
 4891 0eb9 01       		.uleb128 0x1
 4892 0eba 51       		.byte	0x51
 4893 0ebb 02       		.uleb128 0x2
 4894 0ebc 08       		.byte	0x8
 4895 0ebd 66       		.byte	0x66
 4896 0ebe 0F       		.uleb128 0xf
 4897 0ebf 01       		.uleb128 0x1
 4898 0ec0 52       		.byte	0x52
 4899 0ec1 01       		.uleb128 0x1
 4900 0ec2 34       		.byte	0x34
 4901 0ec3 0F       		.uleb128 0xf
 4902 0ec4 01       		.uleb128 0x1
 4903 0ec5 53       		.byte	0x53
 4904 0ec6 02       		.uleb128 0x2
 4905 0ec7 74       		.byte	0x74
 4906 0ec8 00       		.sleb128 0
 4907 0ec9 0F       		.uleb128 0xf
 4908 0eca 02       		.uleb128 0x2
 4909 0ecb 7D       		.byte	0x7d
 4910 0ecc 00       		.sleb128 0
ARM GAS  C:\Users\cronos\AppData\Local\Temp\ccrG4qtQ.s 			page 97


 4911 0ecd 05       		.uleb128 0x5
 4912 0ece F3       		.byte	0xf3
 4913 0ecf 03       		.uleb128 0x3
 4914 0ed0 F5       		.byte	0xf5
 4915 0ed1 02       		.uleb128 0x2
 4916 0ed2 25       		.uleb128 0x25
 4917 0ed3 00       		.byte	0
 4918 0ed4 00       		.byte	0
 4919 0ed5 19       		.uleb128 0x19
 4920 0ed6 22040000 		.4byte	.LASF69
 4921 0eda 01       		.byte	0x1
 4922 0edb 0F01     		.2byte	0x10f
 4923 0edd C6000000 		.4byte	0xc6
 4924 0ee1 00000000 		.4byte	.LFB28
 4925 0ee5 22000000 		.4byte	.LFE28-.LFB28
 4926 0ee9 01       		.uleb128 0x1
 4927 0eea 9C       		.byte	0x9c
 4928 0eeb 430F0000 		.4byte	0xf43
 4929 0eef 1A       		.uleb128 0x1a
 4930 0ef0 636800   		.ascii	"ch\000"
 4931 0ef3 01       		.byte	0x1
 4932 0ef4 0F01     		.2byte	0x10f
 4933 0ef6 C6000000 		.4byte	0xc6
 4934 0efa 950C0000 		.4byte	.LLST78
 4935 0efe 1B       		.uleb128 0x1b
 4936 0eff 02010000 		.4byte	.LASF49
 4937 0f03 01       		.byte	0x1
 4938 0f04 0F01     		.2byte	0x10f
 4939 0f06 2C000000 		.4byte	0x2c
 4940 0f0a B60C0000 		.4byte	.LLST79
 4941 0f0e 1C       		.uleb128 0x1c
 4942 0f0f 91020000 		.4byte	.LASF47
 4943 0f13 01       		.byte	0x1
 4944 0f14 0F01     		.2byte	0x10f
 4945 0f16 08010000 		.4byte	0x108
 4946 0f1a 02       		.uleb128 0x2
 4947 0f1b 91       		.byte	0x91
 4948 0f1c 00       		.sleb128 0
 4949 0f1d 13       		.uleb128 0x13
 4950 0f1e 1C000000 		.4byte	.LVL172
 4951 0f22 E00B0000 		.4byte	0xbe0
 4952 0f26 0F       		.uleb128 0xf
 4953 0f27 01       		.uleb128 0x1
 4954 0f28 51       		.byte	0x51
 4955 0f29 02       		.uleb128 0x2
 4956 0f2a 08       		.byte	0x8
 4957 0f2b 64       		.byte	0x64
 4958 0f2c 0F       		.uleb128 0xf
 4959 0f2d 01       		.uleb128 0x1
 4960 0f2e 52       		.byte	0x52
 4961 0f2f 01       		.uleb128 0x1
 4962 0f30 38       		.byte	0x38
 4963 0f31 0F       		.uleb128 0xf
 4964 0f32 01       		.uleb128 0x1
 4965 0f33 53       		.byte	0x53
 4966 0f34 02       		.uleb128 0x2
 4967 0f35 91       		.byte	0x91
ARM GAS  C:\Users\cronos\AppData\Local\Temp\ccrG4qtQ.s 			page 98


 4968 0f36 70       		.sleb128 -16
 4969 0f37 0F       		.uleb128 0xf
 4970 0f38 02       		.uleb128 0x2
 4971 0f39 7D       		.byte	0x7d
 4972 0f3a 00       		.sleb128 0
 4973 0f3b 05       		.uleb128 0x5
 4974 0f3c 91       		.byte	0x91
 4975 0f3d 00       		.sleb128 0
 4976 0f3e F6       		.byte	0xf6
 4977 0f3f 08       		.byte	0x8
 4978 0f40 25       		.uleb128 0x25
 4979 0f41 00       		.byte	0
 4980 0f42 00       		.byte	0
 4981 0f43 19       		.uleb128 0x19
 4982 0f44 36010000 		.4byte	.LASF70
 4983 0f48 01       		.byte	0x1
 4984 0f49 1301     		.2byte	0x113
 4985 0f4b C6000000 		.4byte	0xc6
 4986 0f4f 00000000 		.4byte	.LFB29
 4987 0f53 18000000 		.4byte	.LFE29-.LFB29
 4988 0f57 01       		.uleb128 0x1
 4989 0f58 9C       		.byte	0x9c
 4990 0f59 B30F0000 		.4byte	0xfb3
 4991 0f5d 1A       		.uleb128 0x1a
 4992 0f5e 636800   		.ascii	"ch\000"
 4993 0f61 01       		.byte	0x1
 4994 0f62 1301     		.2byte	0x113
 4995 0f64 C6000000 		.4byte	0xc6
 4996 0f68 F20C0000 		.4byte	.LLST80
 4997 0f6c 1B       		.uleb128 0x1b
 4998 0f6d 02010000 		.4byte	.LASF49
 4999 0f71 01       		.byte	0x1
 5000 0f72 1301     		.2byte	0x113
 5001 0f74 83030000 		.4byte	0x383
 5002 0f78 130D0000 		.4byte	.LLST81
 5003 0f7c 1B       		.uleb128 0x1b
 5004 0f7d 91020000 		.4byte	.LASF47
 5005 0f81 01       		.byte	0x1
 5006 0f82 1301     		.2byte	0x113
 5007 0f84 08010000 		.4byte	0x108
 5008 0f88 3F0D0000 		.4byte	.LLST82
 5009 0f8c 13       		.uleb128 0x13
 5010 0f8d 12000000 		.4byte	.LVL176
 5011 0f91 E00B0000 		.4byte	0xbe0
 5012 0f95 0F       		.uleb128 0xf
 5013 0f96 01       		.uleb128 0x1
 5014 0f97 51       		.byte	0x51
 5015 0f98 02       		.uleb128 0x2
 5016 0f99 08       		.byte	0x8
 5017 0f9a 62       		.byte	0x62
 5018 0f9b 0F       		.uleb128 0xf
 5019 0f9c 01       		.uleb128 0x1
 5020 0f9d 52       		.byte	0x52
 5021 0f9e 01       		.uleb128 0x1
 5022 0f9f 38       		.byte	0x38
 5023 0fa0 0F       		.uleb128 0xf
 5024 0fa1 01       		.uleb128 0x1
ARM GAS  C:\Users\cronos\AppData\Local\Temp\ccrG4qtQ.s 			page 99


 5025 0fa2 53       		.byte	0x53
 5026 0fa3 03       		.uleb128 0x3
 5027 0fa4 F3       		.byte	0xf3
 5028 0fa5 01       		.uleb128 0x1
 5029 0fa6 51       		.byte	0x51
 5030 0fa7 0F       		.uleb128 0xf
 5031 0fa8 02       		.uleb128 0x2
 5032 0fa9 7D       		.byte	0x7d
 5033 0faa 00       		.sleb128 0
 5034 0fab 05       		.uleb128 0x5
 5035 0fac F3       		.byte	0xf3
 5036 0fad 03       		.uleb128 0x3
 5037 0fae F5       		.byte	0xf5
 5038 0faf 02       		.uleb128 0x2
 5039 0fb0 25       		.uleb128 0x25
 5040 0fb1 00       		.byte	0
 5041 0fb2 00       		.byte	0
 5042 0fb3 19       		.uleb128 0x19
 5043 0fb4 D1040000 		.4byte	.LASF71
 5044 0fb8 01       		.byte	0x1
 5045 0fb9 1701     		.2byte	0x117
 5046 0fbb C6000000 		.4byte	0xc6
 5047 0fbf 00000000 		.4byte	.LFB30
 5048 0fc3 0C000000 		.4byte	.LFE30-.LFB30
 5049 0fc7 01       		.uleb128 0x1
 5050 0fc8 9C       		.byte	0x9c
 5051 0fc9 FE0F0000 		.4byte	0xffe
 5052 0fcd 1A       		.uleb128 0x1a
 5053 0fce 636800   		.ascii	"ch\000"
 5054 0fd1 01       		.byte	0x1
 5055 0fd2 1701     		.2byte	0x117
 5056 0fd4 C6000000 		.4byte	0xc6
 5057 0fd8 730D0000 		.4byte	.LLST83
 5058 0fdc 1B       		.uleb128 0x1b
 5059 0fdd 02010000 		.4byte	.LASF49
 5060 0fe1 01       		.byte	0x1
 5061 0fe2 1701     		.2byte	0x117
 5062 0fe4 E7000000 		.4byte	0xe7
 5063 0fe8 940D0000 		.4byte	.LLST84
 5064 0fec 13       		.uleb128 0x13
 5065 0fed 0A000000 		.4byte	.LVL178
 5066 0ff1 B40C0000 		.4byte	0xcb4
 5067 0ff5 0F       		.uleb128 0xf
 5068 0ff6 01       		.uleb128 0x1
 5069 0ff7 51       		.byte	0x51
 5070 0ff8 03       		.uleb128 0x3
 5071 0ff9 F3       		.byte	0xf3
 5072 0ffa 01       		.uleb128 0x1
 5073 0ffb 51       		.byte	0x51
 5074 0ffc 00       		.byte	0
 5075 0ffd 00       		.byte	0
 5076 0ffe 19       		.uleb128 0x19
 5077 0fff D3000000 		.4byte	.LASF72
 5078 1003 01       		.byte	0x1
 5079 1004 1B01     		.2byte	0x11b
 5080 1006 C6000000 		.4byte	0xc6
 5081 100a 00000000 		.4byte	.LFB31
ARM GAS  C:\Users\cronos\AppData\Local\Temp\ccrG4qtQ.s 			page 100


 5082 100e 0C000000 		.4byte	.LFE31-.LFB31
 5083 1012 01       		.uleb128 0x1
 5084 1013 9C       		.byte	0x9c
 5085 1014 49100000 		.4byte	0x1049
 5086 1018 1A       		.uleb128 0x1a
 5087 1019 636800   		.ascii	"ch\000"
 5088 101c 01       		.byte	0x1
 5089 101d 1B01     		.2byte	0x11b
 5090 101f C6000000 		.4byte	0xc6
 5091 1023 B50D0000 		.4byte	.LLST85
 5092 1027 1B       		.uleb128 0x1b
 5093 1028 02010000 		.4byte	.LASF49
 5094 102c 01       		.byte	0x1
 5095 102d 1B01     		.2byte	0x11b
 5096 102f F2000000 		.4byte	0xf2
 5097 1033 D60D0000 		.4byte	.LLST86
 5098 1037 13       		.uleb128 0x13
 5099 1038 0A000000 		.4byte	.LVL180
 5100 103c 1F0D0000 		.4byte	0xd1f
 5101 1040 0F       		.uleb128 0xf
 5102 1041 01       		.uleb128 0x1
 5103 1042 51       		.byte	0x51
 5104 1043 03       		.uleb128 0x3
 5105 1044 F3       		.byte	0xf3
 5106 1045 01       		.uleb128 0x1
 5107 1046 51       		.byte	0x51
 5108 1047 00       		.byte	0
 5109 1048 00       		.byte	0
 5110 1049 19       		.uleb128 0x19
 5111 104a 01060000 		.4byte	.LASF73
 5112 104e 01       		.byte	0x1
 5113 104f 1F01     		.2byte	0x11f
 5114 1051 C6000000 		.4byte	0xc6
 5115 1055 00000000 		.4byte	.LFB32
 5116 1059 14000000 		.4byte	.LFE32-.LFB32
 5117 105d 01       		.uleb128 0x1
 5118 105e 9C       		.byte	0x9c
 5119 105f A3100000 		.4byte	0x10a3
 5120 1063 1A       		.uleb128 0x1a
 5121 1064 636800   		.ascii	"ch\000"
 5122 1067 01       		.byte	0x1
 5123 1068 1F01     		.2byte	0x11f
 5124 106a C6000000 		.4byte	0xc6
 5125 106e F70D0000 		.4byte	.LLST87
 5126 1072 1B       		.uleb128 0x1b
 5127 1073 02010000 		.4byte	.LASF49
 5128 1077 01       		.byte	0x1
 5129 1078 1F01     		.2byte	0x11f
 5130 107a FD000000 		.4byte	0xfd
 5131 107e 180E0000 		.4byte	.LLST88
 5132 1082 13       		.uleb128 0x13
 5133 1083 10000000 		.4byte	.LVL182
 5134 1087 8A0D0000 		.4byte	0xd8a
 5135 108b 0F       		.uleb128 0xf
 5136 108c 06       		.uleb128 0x6
 5137 108d 52       		.byte	0x52
 5138 108e 93       		.byte	0x93
ARM GAS  C:\Users\cronos\AppData\Local\Temp\ccrG4qtQ.s 			page 101


 5139 108f 04       		.uleb128 0x4
 5140 1090 53       		.byte	0x53
 5141 1091 93       		.byte	0x93
 5142 1092 04       		.uleb128 0x4
 5143 1093 05       		.uleb128 0x5
 5144 1094 F3       		.byte	0xf3
 5145 1095 03       		.uleb128 0x3
 5146 1096 F5       		.byte	0xf5
 5147 1097 02       		.uleb128 0x2
 5148 1098 25       		.uleb128 0x25
 5149 1099 0F       		.uleb128 0xf
 5150 109a 02       		.uleb128 0x2
 5151 109b 7D       		.byte	0x7d
 5152 109c 00       		.sleb128 0
 5153 109d 03       		.uleb128 0x3
 5154 109e F5       		.byte	0xf5
 5155 109f 04       		.uleb128 0x4
 5156 10a0 25       		.uleb128 0x25
 5157 10a1 00       		.byte	0
 5158 10a2 00       		.byte	0
 5159 10a3 19       		.uleb128 0x19
 5160 10a4 AC050000 		.4byte	.LASF74
 5161 10a8 01       		.byte	0x1
 5162 10a9 2301     		.2byte	0x123
 5163 10ab C6000000 		.4byte	0xc6
 5164 10af 00000000 		.4byte	.LFB33
 5165 10b3 14000000 		.4byte	.LFE33-.LFB33
 5166 10b7 01       		.uleb128 0x1
 5167 10b8 9C       		.byte	0x9c
 5168 10b9 FD100000 		.4byte	0x10fd
 5169 10bd 1A       		.uleb128 0x1a
 5170 10be 636800   		.ascii	"ch\000"
 5171 10c1 01       		.byte	0x1
 5172 10c2 2301     		.2byte	0x123
 5173 10c4 C6000000 		.4byte	0xc6
 5174 10c8 400E0000 		.4byte	.LLST89
 5175 10cc 1B       		.uleb128 0x1b
 5176 10cd 02010000 		.4byte	.LASF49
 5177 10d1 01       		.byte	0x1
 5178 10d2 2301     		.2byte	0x123
 5179 10d4 08010000 		.4byte	0x108
 5180 10d8 610E0000 		.4byte	.LLST90
 5181 10dc 13       		.uleb128 0x13
 5182 10dd 10000000 		.4byte	.LVL184
 5183 10e1 F80D0000 		.4byte	0xdf8
 5184 10e5 0F       		.uleb128 0xf
 5185 10e6 06       		.uleb128 0x6
 5186 10e7 52       		.byte	0x52
 5187 10e8 93       		.byte	0x93
 5188 10e9 04       		.uleb128 0x4
 5189 10ea 53       		.byte	0x53
 5190 10eb 93       		.byte	0x93
 5191 10ec 04       		.uleb128 0x4
 5192 10ed 05       		.uleb128 0x5
 5193 10ee F3       		.byte	0xf3
 5194 10ef 03       		.uleb128 0x3
 5195 10f0 F5       		.byte	0xf5
ARM GAS  C:\Users\cronos\AppData\Local\Temp\ccrG4qtQ.s 			page 102


 5196 10f1 02       		.uleb128 0x2
 5197 10f2 25       		.uleb128 0x25
 5198 10f3 0F       		.uleb128 0xf
 5199 10f4 02       		.uleb128 0x2
 5200 10f5 7D       		.byte	0x7d
 5201 10f6 00       		.sleb128 0
 5202 10f7 03       		.uleb128 0x3
 5203 10f8 F5       		.byte	0xf5
 5204 10f9 04       		.uleb128 0x4
 5205 10fa 25       		.uleb128 0x25
 5206 10fb 00       		.byte	0
 5207 10fc 00       		.byte	0
 5208 10fd 19       		.uleb128 0x19
 5209 10fe 28000000 		.4byte	.LASF75
 5210 1102 01       		.byte	0x1
 5211 1103 2701     		.2byte	0x127
 5212 1105 C6000000 		.4byte	0xc6
 5213 1109 00000000 		.4byte	.LFB34
 5214 110d 0C000000 		.4byte	.LFE34-.LFB34
 5215 1111 01       		.uleb128 0x1
 5216 1112 9C       		.byte	0x9c
 5217 1113 4A110000 		.4byte	0x114a
 5218 1117 1A       		.uleb128 0x1a
 5219 1118 636800   		.ascii	"ch\000"
 5220 111b 01       		.byte	0x1
 5221 111c 2701     		.2byte	0x127
 5222 111e C6000000 		.4byte	0xc6
 5223 1122 890E0000 		.4byte	.LLST91
 5224 1126 1B       		.uleb128 0x1b
 5225 1127 02010000 		.4byte	.LASF49
 5226 112b 01       		.byte	0x1
 5227 112c 2701     		.2byte	0x127
 5228 112e 33000000 		.4byte	0x33
 5229 1132 AA0E0000 		.4byte	.LLST92
 5230 1136 13       		.uleb128 0x13
 5231 1137 0A000000 		.4byte	.LVL186
 5232 113b 660E0000 		.4byte	0xe66
 5233 113f 0F       		.uleb128 0xf
 5234 1140 01       		.uleb128 0x1
 5235 1141 51       		.byte	0x51
 5236 1142 05       		.uleb128 0x5
 5237 1143 F3       		.byte	0xf3
 5238 1144 03       		.uleb128 0x3
 5239 1145 F5       		.byte	0xf5
 5240 1146 01       		.uleb128 0x1
 5241 1147 33       		.uleb128 0x33
 5242 1148 00       		.byte	0
 5243 1149 00       		.byte	0
 5244 114a 19       		.uleb128 0x19
 5245 114b E8000000 		.4byte	.LASF76
 5246 114f 01       		.byte	0x1
 5247 1150 2B01     		.2byte	0x12b
 5248 1152 C6000000 		.4byte	0xc6
 5249 1156 00000000 		.4byte	.LFB35
 5250 115a 14000000 		.4byte	.LFE35-.LFB35
 5251 115e 01       		.uleb128 0x1
 5252 115f 9C       		.byte	0x9c
ARM GAS  C:\Users\cronos\AppData\Local\Temp\ccrG4qtQ.s 			page 103


 5253 1160 A4110000 		.4byte	0x11a4
 5254 1164 1A       		.uleb128 0x1a
 5255 1165 636800   		.ascii	"ch\000"
 5256 1168 01       		.byte	0x1
 5257 1169 2B01     		.2byte	0x12b
 5258 116b C6000000 		.4byte	0xc6
 5259 116f CD0E0000 		.4byte	.LLST93
 5260 1173 1B       		.uleb128 0x1b
 5261 1174 02010000 		.4byte	.LASF49
 5262 1178 01       		.byte	0x1
 5263 1179 2B01     		.2byte	0x12b
 5264 117b 2C000000 		.4byte	0x2c
 5265 117f EE0E0000 		.4byte	.LLST94
 5266 1183 13       		.uleb128 0x13
 5267 1184 10000000 		.4byte	.LVL188
 5268 1188 D50E0000 		.4byte	0xed5
 5269 118c 0F       		.uleb128 0xf
 5270 118d 06       		.uleb128 0x6
 5271 118e 52       		.byte	0x52
 5272 118f 93       		.byte	0x93
 5273 1190 04       		.uleb128 0x4
 5274 1191 53       		.byte	0x53
 5275 1192 93       		.byte	0x93
 5276 1193 04       		.uleb128 0x4
 5277 1194 05       		.uleb128 0x5
 5278 1195 F3       		.byte	0xf3
 5279 1196 03       		.uleb128 0x3
 5280 1197 F5       		.byte	0xf5
 5281 1198 02       		.uleb128 0x2
 5282 1199 2C       		.uleb128 0x2c
 5283 119a 0F       		.uleb128 0xf
 5284 119b 02       		.uleb128 0x2
 5285 119c 7D       		.byte	0x7d
 5286 119d 00       		.sleb128 0
 5287 119e 03       		.uleb128 0x3
 5288 119f F5       		.byte	0xf5
 5289 11a0 04       		.uleb128 0x4
 5290 11a1 25       		.uleb128 0x25
 5291 11a2 00       		.byte	0
 5292 11a3 00       		.byte	0
 5293 11a4 19       		.uleb128 0x19
 5294 11a5 F2010000 		.4byte	.LASF77
 5295 11a9 01       		.byte	0x1
 5296 11aa 2F01     		.2byte	0x12f
 5297 11ac C6000000 		.4byte	0xc6
 5298 11b0 00000000 		.4byte	.LFB36
 5299 11b4 0C000000 		.4byte	.LFE36-.LFB36
 5300 11b8 01       		.uleb128 0x1
 5301 11b9 9C       		.byte	0x9c
 5302 11ba EF110000 		.4byte	0x11ef
 5303 11be 1A       		.uleb128 0x1a
 5304 11bf 636800   		.ascii	"ch\000"
 5305 11c2 01       		.byte	0x1
 5306 11c3 2F01     		.2byte	0x12f
 5307 11c5 C6000000 		.4byte	0xc6
 5308 11c9 160F0000 		.4byte	.LLST95
 5309 11cd 1B       		.uleb128 0x1b
ARM GAS  C:\Users\cronos\AppData\Local\Temp\ccrG4qtQ.s 			page 104


 5310 11ce 02010000 		.4byte	.LASF49
 5311 11d2 01       		.byte	0x1
 5312 11d3 2F01     		.2byte	0x12f
 5313 11d5 83030000 		.4byte	0x383
 5314 11d9 370F0000 		.4byte	.LLST96
 5315 11dd 13       		.uleb128 0x13
 5316 11de 0A000000 		.4byte	.LVL190
 5317 11e2 430F0000 		.4byte	0xf43
 5318 11e6 0F       		.uleb128 0xf
 5319 11e7 01       		.uleb128 0x1
 5320 11e8 51       		.byte	0x51
 5321 11e9 03       		.uleb128 0x3
 5322 11ea F3       		.byte	0xf3
 5323 11eb 01       		.uleb128 0x1
 5324 11ec 51       		.byte	0x51
 5325 11ed 00       		.byte	0
 5326 11ee 00       		.byte	0
 5327 11ef 19       		.uleb128 0x19
 5328 11f0 DD020000 		.4byte	.LASF78
 5329 11f4 01       		.byte	0x1
 5330 11f5 3501     		.2byte	0x135
 5331 11f7 C6000000 		.4byte	0xc6
 5332 11fb 00000000 		.4byte	.LFB37
 5333 11ff 32000000 		.4byte	.LFE37-.LFB37
 5334 1203 01       		.uleb128 0x1
 5335 1204 9C       		.byte	0x9c
 5336 1205 7D120000 		.4byte	0x127d
 5337 1209 1B       		.uleb128 0x1b
 5338 120a 10030000 		.4byte	.LASF79
 5339 120e 01       		.byte	0x1
 5340 120f 3501     		.2byte	0x135
 5341 1211 83030000 		.4byte	0x383
 5342 1215 580F0000 		.4byte	.LLST97
 5343 1219 1B       		.uleb128 0x1b
 5344 121a DC030000 		.4byte	.LASF80
 5345 121e 01       		.byte	0x1
 5346 121f 3501     		.2byte	0x135
 5347 1221 83030000 		.4byte	0x383
 5348 1225 760F0000 		.4byte	.LLST98
 5349 1229 1D       		.uleb128 0x1d
 5350 122a 33050000 		.4byte	.LASF29
 5351 122e 01       		.byte	0x1
 5352 122f 3601     		.2byte	0x136
 5353 1231 DA050000 		.4byte	0x5da
 5354 1235 02       		.uleb128 0x2
 5355 1236 91       		.byte	0x91
 5356 1237 6C       		.sleb128 -20
 5357 1238 1D       		.uleb128 0x1d
 5358 1239 24050000 		.4byte	.LASF28
 5359 123d 01       		.byte	0x1
 5360 123e 3701     		.2byte	0x137
 5361 1240 C6000000 		.4byte	0xc6
 5362 1244 02       		.uleb128 0x2
 5363 1245 91       		.byte	0x91
 5364 1246 6B       		.sleb128 -21
 5365 1247 1E       		.uleb128 0x1e
 5366 1248 72657400 		.ascii	"ret\000"
ARM GAS  C:\Users\cronos\AppData\Local\Temp\ccrG4qtQ.s 			page 105


 5367 124c 01       		.byte	0x1
 5368 124d 3801     		.2byte	0x138
 5369 124f C6000000 		.4byte	0xc6
 5370 1253 01       		.uleb128 0x1
 5371 1254 50       		.byte	0x50
 5372 1255 13       		.uleb128 0x13
 5373 1256 22000000 		.4byte	.LVL194
 5374 125a 1A010000 		.4byte	0x11a
 5375 125e 0F       		.uleb128 0xf
 5376 125f 01       		.uleb128 0x1
 5377 1260 50       		.byte	0x50
 5378 1261 02       		.uleb128 0x2
 5379 1262 08       		.byte	0x8
 5380 1263 22       		.byte	0x22
 5381 1264 0F       		.uleb128 0xf
 5382 1265 01       		.uleb128 0x1
 5383 1266 51       		.byte	0x51
 5384 1267 01       		.uleb128 0x1
 5385 1268 30       		.byte	0x30
 5386 1269 0F       		.uleb128 0xf
 5387 126a 01       		.uleb128 0x1
 5388 126b 52       		.byte	0x52
 5389 126c 01       		.uleb128 0x1
 5390 126d 30       		.byte	0x30
 5391 126e 0F       		.uleb128 0xf
 5392 126f 01       		.uleb128 0x1
 5393 1270 53       		.byte	0x53
 5394 1271 02       		.uleb128 0x2
 5395 1272 91       		.byte	0x91
 5396 1273 6B       		.sleb128 -21
 5397 1274 0F       		.uleb128 0xf
 5398 1275 02       		.uleb128 0x2
 5399 1276 7D       		.byte	0x7d
 5400 1277 00       		.sleb128 0
 5401 1278 02       		.uleb128 0x2
 5402 1279 91       		.byte	0x91
 5403 127a 6C       		.sleb128 -20
 5404 127b 00       		.byte	0
 5405 127c 00       		.byte	0
 5406 127d 1F       		.uleb128 0x1f
 5407 127e 56040000 		.4byte	.LASF81
 5408 1282 01       		.byte	0x1
 5409 1283 3E01     		.2byte	0x13e
 5410 1285 C6000000 		.4byte	0xc6
 5411 1289 00000000 		.4byte	.LFB38
 5412 128d 18000000 		.4byte	.LFE38-.LFB38
 5413 1291 01       		.uleb128 0x1
 5414 1292 9C       		.byte	0x9c
 5415 1293 BD120000 		.4byte	0x12bd
 5416 1297 13       		.uleb128 0x13
 5417 1298 12000000 		.4byte	.LVL195
 5418 129c 1A010000 		.4byte	0x11a
 5419 12a0 0F       		.uleb128 0xf
 5420 12a1 01       		.uleb128 0x1
 5421 12a2 50       		.byte	0x50
 5422 12a3 02       		.uleb128 0x2
 5423 12a4 08       		.byte	0x8
ARM GAS  C:\Users\cronos\AppData\Local\Temp\ccrG4qtQ.s 			page 106


 5424 12a5 23       		.byte	0x23
 5425 12a6 0F       		.uleb128 0xf
 5426 12a7 01       		.uleb128 0x1
 5427 12a8 51       		.byte	0x51
 5428 12a9 01       		.uleb128 0x1
 5429 12aa 30       		.byte	0x30
 5430 12ab 0F       		.uleb128 0xf
 5431 12ac 01       		.uleb128 0x1
 5432 12ad 52       		.byte	0x52
 5433 12ae 01       		.uleb128 0x1
 5434 12af 30       		.byte	0x30
 5435 12b0 0F       		.uleb128 0xf
 5436 12b1 01       		.uleb128 0x1
 5437 12b2 53       		.byte	0x53
 5438 12b3 01       		.uleb128 0x1
 5439 12b4 30       		.byte	0x30
 5440 12b5 0F       		.uleb128 0xf
 5441 12b6 02       		.uleb128 0x2
 5442 12b7 7D       		.byte	0x7d
 5443 12b8 00       		.sleb128 0
 5444 12b9 01       		.uleb128 0x1
 5445 12ba 30       		.byte	0x30
 5446 12bb 00       		.byte	0
 5447 12bc 00       		.byte	0
 5448 12bd 1F       		.uleb128 0x1f
 5449 12be 3A000000 		.4byte	.LASF82
 5450 12c2 01       		.byte	0x1
 5451 12c3 4201     		.2byte	0x142
 5452 12c5 C6000000 		.4byte	0xc6
 5453 12c9 00000000 		.4byte	.LFB39
 5454 12cd 18000000 		.4byte	.LFE39-.LFB39
 5455 12d1 01       		.uleb128 0x1
 5456 12d2 9C       		.byte	0x9c
 5457 12d3 FD120000 		.4byte	0x12fd
 5458 12d7 13       		.uleb128 0x13
 5459 12d8 12000000 		.4byte	.LVL196
 5460 12dc 1A010000 		.4byte	0x11a
 5461 12e0 0F       		.uleb128 0xf
 5462 12e1 01       		.uleb128 0x1
 5463 12e2 50       		.byte	0x50
 5464 12e3 02       		.uleb128 0x2
 5465 12e4 08       		.byte	0x8
 5466 12e5 24       		.byte	0x24
 5467 12e6 0F       		.uleb128 0xf
 5468 12e7 01       		.uleb128 0x1
 5469 12e8 51       		.byte	0x51
 5470 12e9 01       		.uleb128 0x1
 5471 12ea 30       		.byte	0x30
 5472 12eb 0F       		.uleb128 0xf
 5473 12ec 01       		.uleb128 0x1
 5474 12ed 52       		.byte	0x52
 5475 12ee 01       		.uleb128 0x1
 5476 12ef 30       		.byte	0x30
 5477 12f0 0F       		.uleb128 0xf
 5478 12f1 01       		.uleb128 0x1
 5479 12f2 53       		.byte	0x53
 5480 12f3 01       		.uleb128 0x1
ARM GAS  C:\Users\cronos\AppData\Local\Temp\ccrG4qtQ.s 			page 107


 5481 12f4 30       		.byte	0x30
 5482 12f5 0F       		.uleb128 0xf
 5483 12f6 02       		.uleb128 0x2
 5484 12f7 7D       		.byte	0x7d
 5485 12f8 00       		.sleb128 0
 5486 12f9 01       		.uleb128 0x1
 5487 12fa 30       		.byte	0x30
 5488 12fb 00       		.byte	0
 5489 12fc 00       		.byte	0
 5490 12fd 19       		.uleb128 0x19
 5491 12fe 08010000 		.4byte	.LASF83
 5492 1302 01       		.byte	0x1
 5493 1303 4601     		.2byte	0x146
 5494 1305 C6000000 		.4byte	0xc6
 5495 1309 00000000 		.4byte	.LFB40
 5496 130d 32000000 		.4byte	.LFE40-.LFB40
 5497 1311 01       		.uleb128 0x1
 5498 1312 9C       		.byte	0x9c
 5499 1313 8B130000 		.4byte	0x138b
 5500 1317 1B       		.uleb128 0x1b
 5501 1318 EE020000 		.4byte	.LASF84
 5502 131c 01       		.byte	0x1
 5503 131d 4601     		.2byte	0x146
 5504 131f 83030000 		.4byte	0x383
 5505 1323 940F0000 		.4byte	.LLST99
 5506 1327 1B       		.uleb128 0x1b
 5507 1328 7E040000 		.4byte	.LASF85
 5508 132c 01       		.byte	0x1
 5509 132d 4601     		.2byte	0x146
 5510 132f 83030000 		.4byte	0x383
 5511 1333 B20F0000 		.4byte	.LLST100
 5512 1337 1D       		.uleb128 0x1d
 5513 1338 33050000 		.4byte	.LASF29
 5514 133c 01       		.byte	0x1
 5515 133d 4701     		.2byte	0x147
 5516 133f DA050000 		.4byte	0x5da
 5517 1343 02       		.uleb128 0x2
 5518 1344 91       		.byte	0x91
 5519 1345 6C       		.sleb128 -20
 5520 1346 1D       		.uleb128 0x1d
 5521 1347 24050000 		.4byte	.LASF28
 5522 134b 01       		.byte	0x1
 5523 134c 4801     		.2byte	0x148
 5524 134e C6000000 		.4byte	0xc6
 5525 1352 02       		.uleb128 0x2
 5526 1353 91       		.byte	0x91
 5527 1354 6B       		.sleb128 -21
 5528 1355 1E       		.uleb128 0x1e
 5529 1356 72657400 		.ascii	"ret\000"
 5530 135a 01       		.byte	0x1
 5531 135b 4901     		.2byte	0x149
 5532 135d C6000000 		.4byte	0xc6
 5533 1361 01       		.uleb128 0x1
 5534 1362 50       		.byte	0x50
 5535 1363 13       		.uleb128 0x13
 5536 1364 22000000 		.4byte	.LVL200
 5537 1368 1A010000 		.4byte	0x11a
ARM GAS  C:\Users\cronos\AppData\Local\Temp\ccrG4qtQ.s 			page 108


 5538 136c 0F       		.uleb128 0xf
 5539 136d 01       		.uleb128 0x1
 5540 136e 50       		.byte	0x50
 5541 136f 02       		.uleb128 0x2
 5542 1370 08       		.byte	0x8
 5543 1371 25       		.byte	0x25
 5544 1372 0F       		.uleb128 0xf
 5545 1373 01       		.uleb128 0x1
 5546 1374 51       		.byte	0x51
 5547 1375 01       		.uleb128 0x1
 5548 1376 30       		.byte	0x30
 5549 1377 0F       		.uleb128 0xf
 5550 1378 01       		.uleb128 0x1
 5551 1379 52       		.byte	0x52
 5552 137a 01       		.uleb128 0x1
 5553 137b 30       		.byte	0x30
 5554 137c 0F       		.uleb128 0xf
 5555 137d 01       		.uleb128 0x1
 5556 137e 53       		.byte	0x53
 5557 137f 02       		.uleb128 0x2
 5558 1380 91       		.byte	0x91
 5559 1381 6B       		.sleb128 -21
 5560 1382 0F       		.uleb128 0xf
 5561 1383 02       		.uleb128 0x2
 5562 1384 7D       		.byte	0x7d
 5563 1385 00       		.sleb128 0
 5564 1386 02       		.uleb128 0x2
 5565 1387 91       		.byte	0x91
 5566 1388 6C       		.sleb128 -20
 5567 1389 00       		.byte	0
 5568 138a 00       		.byte	0
 5569 138b 19       		.uleb128 0x19
 5570 138c C6060000 		.4byte	.LASF86
 5571 1390 01       		.byte	0x1
 5572 1391 5101     		.2byte	0x151
 5573 1393 C6000000 		.4byte	0xc6
 5574 1397 00000000 		.4byte	.LFB41
 5575 139b 74000000 		.4byte	.LFE41-.LFB41
 5576 139f 01       		.uleb128 0x1
 5577 13a0 9C       		.byte	0x9c
 5578 13a1 70140000 		.4byte	0x1470
 5579 13a5 1A       		.uleb128 0x1a
 5580 13a6 636800   		.ascii	"ch\000"
 5581 13a9 01       		.byte	0x1
 5582 13aa 5101     		.2byte	0x151
 5583 13ac 83030000 		.4byte	0x383
 5584 13b0 D00F0000 		.4byte	.LLST101
 5585 13b4 1B       		.uleb128 0x1b
 5586 13b5 5E040000 		.4byte	.LASF46
 5587 13b9 01       		.byte	0x1
 5588 13ba 5101     		.2byte	0x151
 5589 13bc 83030000 		.4byte	0x383
 5590 13c0 EE0F0000 		.4byte	.LLST102
 5591 13c4 1B       		.uleb128 0x1b
 5592 13c5 02010000 		.4byte	.LASF49
 5593 13c9 01       		.byte	0x1
 5594 13ca 5101     		.2byte	0x151
ARM GAS  C:\Users\cronos\AppData\Local\Temp\ccrG4qtQ.s 			page 109


 5595 13cc 83030000 		.4byte	0x383
 5596 13d0 0C100000 		.4byte	.LLST103
 5597 13d4 1B       		.uleb128 0x1b
 5598 13d5 91020000 		.4byte	.LASF47
 5599 13d9 01       		.byte	0x1
 5600 13da 5101     		.2byte	0x151
 5601 13dc 70140000 		.4byte	0x1470
 5602 13e0 2A100000 		.4byte	.LLST104
 5603 13e4 1D       		.uleb128 0x1d
 5604 13e5 33050000 		.4byte	.LASF29
 5605 13e9 01       		.byte	0x1
 5606 13ea 5201     		.2byte	0x152
 5607 13ec BE060000 		.4byte	0x6be
 5608 13f0 02       		.uleb128 0x2
 5609 13f1 91       		.byte	0x91
 5610 13f2 54       		.sleb128 -44
 5611 13f3 1D       		.uleb128 0x1d
 5612 13f4 24050000 		.4byte	.LASF28
 5613 13f8 01       		.byte	0x1
 5614 13f9 5301     		.2byte	0x153
 5615 13fb C6000000 		.4byte	0xc6
 5616 13ff 02       		.uleb128 0x2
 5617 1400 91       		.byte	0x91
 5618 1401 53       		.sleb128 -45
 5619 1402 1E       		.uleb128 0x1e
 5620 1403 72657400 		.ascii	"ret\000"
 5621 1407 01       		.byte	0x1
 5622 1408 5401     		.2byte	0x154
 5623 140a C6000000 		.4byte	0xc6
 5624 140e 01       		.uleb128 0x1
 5625 140f 50       		.byte	0x50
 5626 1410 0C       		.uleb128 0xc
 5627 1411 3E000000 		.4byte	.LBB10
 5628 1415 1C000000 		.4byte	.LBE10-.LBB10
 5629 1419 2C140000 		.4byte	0x142c
 5630 141d 20       		.uleb128 0x20
 5631 141e 6900     		.ascii	"i\000"
 5632 1420 01       		.byte	0x1
 5633 1421 5B01     		.2byte	0x15b
 5634 1423 C6000000 		.4byte	0xc6
 5635 1427 48100000 		.4byte	.LLST105
 5636 142b 00       		.byte	0
 5637 142c 0C       		.uleb128 0xc
 5638 142d 5A000000 		.4byte	.LBB11
 5639 1431 16000000 		.4byte	.LBE11-.LBB11
 5640 1435 48140000 		.4byte	0x1448
 5641 1439 20       		.uleb128 0x20
 5642 143a 6900     		.ascii	"i\000"
 5643 143c 01       		.byte	0x1
 5644 143d 5E01     		.2byte	0x15e
 5645 143f C6000000 		.4byte	0xc6
 5646 1443 72100000 		.4byte	.LLST106
 5647 1447 00       		.byte	0
 5648 1448 13       		.uleb128 0x13
 5649 1449 2E000000 		.4byte	.LVL206
 5650 144d 1A010000 		.4byte	0x11a
 5651 1451 0F       		.uleb128 0xf
ARM GAS  C:\Users\cronos\AppData\Local\Temp\ccrG4qtQ.s 			page 110


 5652 1452 01       		.uleb128 0x1
 5653 1453 50       		.byte	0x50
 5654 1454 02       		.uleb128 0x2
 5655 1455 08       		.byte	0x8
 5656 1456 30       		.byte	0x30
 5657 1457 0F       		.uleb128 0xf
 5658 1458 01       		.uleb128 0x1
 5659 1459 51       		.byte	0x51
 5660 145a 01       		.uleb128 0x1
 5661 145b 30       		.byte	0x30
 5662 145c 0F       		.uleb128 0xf
 5663 145d 01       		.uleb128 0x1
 5664 145e 52       		.byte	0x52
 5665 145f 01       		.uleb128 0x1
 5666 1460 30       		.byte	0x30
 5667 1461 0F       		.uleb128 0xf
 5668 1462 01       		.uleb128 0x1
 5669 1463 53       		.byte	0x53
 5670 1464 02       		.uleb128 0x2
 5671 1465 91       		.byte	0x91
 5672 1466 53       		.sleb128 -45
 5673 1467 0F       		.uleb128 0xf
 5674 1468 02       		.uleb128 0x2
 5675 1469 7D       		.byte	0x7d
 5676 146a 00       		.sleb128 0
 5677 146b 02       		.uleb128 0x2
 5678 146c 91       		.byte	0x91
 5679 146d 54       		.sleb128 -44
 5680 146e 00       		.byte	0
 5681 146f 00       		.byte	0
 5682 1470 10       		.uleb128 0x10
 5683 1471 04       		.byte	0x4
 5684 1472 FD000000 		.4byte	0xfd
 5685 1476 19       		.uleb128 0x19
 5686 1477 B2000000 		.4byte	.LASF87
 5687 147b 01       		.byte	0x1
 5688 147c 6501     		.2byte	0x165
 5689 147e C6000000 		.4byte	0xc6
 5690 1482 00000000 		.4byte	.LFB42
 5691 1486 74000000 		.4byte	.LFE42-.LFB42
 5692 148a 01       		.uleb128 0x1
 5693 148b 9C       		.byte	0x9c
 5694 148c 5B150000 		.4byte	0x155b
 5695 1490 1A       		.uleb128 0x1a
 5696 1491 636800   		.ascii	"ch\000"
 5697 1494 01       		.byte	0x1
 5698 1495 6501     		.2byte	0x165
 5699 1497 83030000 		.4byte	0x383
 5700 149b 90100000 		.4byte	.LLST107
 5701 149f 1B       		.uleb128 0x1b
 5702 14a0 5E040000 		.4byte	.LASF46
 5703 14a4 01       		.byte	0x1
 5704 14a5 6501     		.2byte	0x165
 5705 14a7 83030000 		.4byte	0x383
 5706 14ab AE100000 		.4byte	.LLST108
 5707 14af 1B       		.uleb128 0x1b
 5708 14b0 02010000 		.4byte	.LASF49
ARM GAS  C:\Users\cronos\AppData\Local\Temp\ccrG4qtQ.s 			page 111


 5709 14b4 01       		.byte	0x1
 5710 14b5 6501     		.2byte	0x165
 5711 14b7 83030000 		.4byte	0x383
 5712 14bb CC100000 		.4byte	.LLST109
 5713 14bf 1B       		.uleb128 0x1b
 5714 14c0 91020000 		.4byte	.LASF47
 5715 14c4 01       		.byte	0x1
 5716 14c5 6501     		.2byte	0x165
 5717 14c7 70140000 		.4byte	0x1470
 5718 14cb EA100000 		.4byte	.LLST110
 5719 14cf 1D       		.uleb128 0x1d
 5720 14d0 33050000 		.4byte	.LASF29
 5721 14d4 01       		.byte	0x1
 5722 14d5 6601     		.2byte	0x166
 5723 14d7 BE060000 		.4byte	0x6be
 5724 14db 02       		.uleb128 0x2
 5725 14dc 91       		.byte	0x91
 5726 14dd 54       		.sleb128 -44
 5727 14de 1D       		.uleb128 0x1d
 5728 14df 24050000 		.4byte	.LASF28
 5729 14e3 01       		.byte	0x1
 5730 14e4 6701     		.2byte	0x167
 5731 14e6 C6000000 		.4byte	0xc6
 5732 14ea 02       		.uleb128 0x2
 5733 14eb 91       		.byte	0x91
 5734 14ec 53       		.sleb128 -45
 5735 14ed 1E       		.uleb128 0x1e
 5736 14ee 72657400 		.ascii	"ret\000"
 5737 14f2 01       		.byte	0x1
 5738 14f3 6801     		.2byte	0x168
 5739 14f5 C6000000 		.4byte	0xc6
 5740 14f9 01       		.uleb128 0x1
 5741 14fa 50       		.byte	0x50
 5742 14fb 0C       		.uleb128 0xc
 5743 14fc 3E000000 		.4byte	.LBB12
 5744 1500 1C000000 		.4byte	.LBE12-.LBB12
 5745 1504 17150000 		.4byte	0x1517
 5746 1508 20       		.uleb128 0x20
 5747 1509 6900     		.ascii	"i\000"
 5748 150b 01       		.byte	0x1
 5749 150c 6F01     		.2byte	0x16f
 5750 150e C6000000 		.4byte	0xc6
 5751 1512 08110000 		.4byte	.LLST111
 5752 1516 00       		.byte	0
 5753 1517 0C       		.uleb128 0xc
 5754 1518 5A000000 		.4byte	.LBB13
 5755 151c 16000000 		.4byte	.LBE13-.LBB13
 5756 1520 33150000 		.4byte	0x1533
 5757 1524 20       		.uleb128 0x20
 5758 1525 6900     		.ascii	"i\000"
 5759 1527 01       		.byte	0x1
 5760 1528 7201     		.2byte	0x172
 5761 152a C6000000 		.4byte	0xc6
 5762 152e 32110000 		.4byte	.LLST112
 5763 1532 00       		.byte	0
 5764 1533 13       		.uleb128 0x13
 5765 1534 2E000000 		.4byte	.LVL221
ARM GAS  C:\Users\cronos\AppData\Local\Temp\ccrG4qtQ.s 			page 112


 5766 1538 1A010000 		.4byte	0x11a
 5767 153c 0F       		.uleb128 0xf
 5768 153d 01       		.uleb128 0x1
 5769 153e 50       		.byte	0x50
 5770 153f 02       		.uleb128 0x2
 5771 1540 08       		.byte	0x8
 5772 1541 31       		.byte	0x31
 5773 1542 0F       		.uleb128 0xf
 5774 1543 01       		.uleb128 0x1
 5775 1544 51       		.byte	0x51
 5776 1545 01       		.uleb128 0x1
 5777 1546 30       		.byte	0x30
 5778 1547 0F       		.uleb128 0xf
 5779 1548 01       		.uleb128 0x1
 5780 1549 52       		.byte	0x52
 5781 154a 01       		.uleb128 0x1
 5782 154b 30       		.byte	0x30
 5783 154c 0F       		.uleb128 0xf
 5784 154d 01       		.uleb128 0x1
 5785 154e 53       		.byte	0x53
 5786 154f 02       		.uleb128 0x2
 5787 1550 91       		.byte	0x91
 5788 1551 53       		.sleb128 -45
 5789 1552 0F       		.uleb128 0xf
 5790 1553 02       		.uleb128 0x2
 5791 1554 7D       		.byte	0x7d
 5792 1555 00       		.sleb128 0
 5793 1556 02       		.uleb128 0x2
 5794 1557 91       		.byte	0x91
 5795 1558 54       		.sleb128 -44
 5796 1559 00       		.byte	0
 5797 155a 00       		.byte	0
 5798 155b 19       		.uleb128 0x19
 5799 155c 27070000 		.4byte	.LASF88
 5800 1560 01       		.byte	0x1
 5801 1561 7901     		.2byte	0x179
 5802 1563 C6000000 		.4byte	0xc6
 5803 1567 00000000 		.4byte	.LFB43
 5804 156b 32000000 		.4byte	.LFE43-.LFB43
 5805 156f 01       		.uleb128 0x1
 5806 1570 9C       		.byte	0x9c
 5807 1571 E9150000 		.4byte	0x15e9
 5808 1575 1B       		.uleb128 0x1b
 5809 1576 10030000 		.4byte	.LASF79
 5810 157a 01       		.byte	0x1
 5811 157b 7901     		.2byte	0x179
 5812 157d 83030000 		.4byte	0x383
 5813 1581 50110000 		.4byte	.LLST113
 5814 1585 1B       		.uleb128 0x1b
 5815 1586 DC030000 		.4byte	.LASF80
 5816 158a 01       		.byte	0x1
 5817 158b 7901     		.2byte	0x179
 5818 158d 83030000 		.4byte	0x383
 5819 1591 6E110000 		.4byte	.LLST114
 5820 1595 1D       		.uleb128 0x1d
 5821 1596 33050000 		.4byte	.LASF29
 5822 159a 01       		.byte	0x1
ARM GAS  C:\Users\cronos\AppData\Local\Temp\ccrG4qtQ.s 			page 113


 5823 159b 7A01     		.2byte	0x17a
 5824 159d DA050000 		.4byte	0x5da
 5825 15a1 02       		.uleb128 0x2
 5826 15a2 91       		.byte	0x91
 5827 15a3 6C       		.sleb128 -20
 5828 15a4 1D       		.uleb128 0x1d
 5829 15a5 24050000 		.4byte	.LASF28
 5830 15a9 01       		.byte	0x1
 5831 15aa 7B01     		.2byte	0x17b
 5832 15ac C6000000 		.4byte	0xc6
 5833 15b0 02       		.uleb128 0x2
 5834 15b1 91       		.byte	0x91
 5835 15b2 6B       		.sleb128 -21
 5836 15b3 1E       		.uleb128 0x1e
 5837 15b4 72657400 		.ascii	"ret\000"
 5838 15b8 01       		.byte	0x1
 5839 15b9 7C01     		.2byte	0x17c
 5840 15bb C6000000 		.4byte	0xc6
 5841 15bf 01       		.uleb128 0x1
 5842 15c0 50       		.byte	0x50
 5843 15c1 13       		.uleb128 0x13
 5844 15c2 22000000 		.4byte	.LVL234
 5845 15c6 1A010000 		.4byte	0x11a
 5846 15ca 0F       		.uleb128 0xf
 5847 15cb 01       		.uleb128 0x1
 5848 15cc 50       		.byte	0x50
 5849 15cd 02       		.uleb128 0x2
 5850 15ce 08       		.byte	0x8
 5851 15cf 32       		.byte	0x32
 5852 15d0 0F       		.uleb128 0xf
 5853 15d1 01       		.uleb128 0x1
 5854 15d2 51       		.byte	0x51
 5855 15d3 01       		.uleb128 0x1
 5856 15d4 30       		.byte	0x30
 5857 15d5 0F       		.uleb128 0xf
 5858 15d6 01       		.uleb128 0x1
 5859 15d7 52       		.byte	0x52
 5860 15d8 01       		.uleb128 0x1
 5861 15d9 30       		.byte	0x30
 5862 15da 0F       		.uleb128 0xf
 5863 15db 01       		.uleb128 0x1
 5864 15dc 53       		.byte	0x53
 5865 15dd 02       		.uleb128 0x2
 5866 15de 91       		.byte	0x91
 5867 15df 6B       		.sleb128 -21
 5868 15e0 0F       		.uleb128 0xf
 5869 15e1 02       		.uleb128 0x2
 5870 15e2 7D       		.byte	0x7d
 5871 15e3 00       		.sleb128 0
 5872 15e4 02       		.uleb128 0x2
 5873 15e5 91       		.byte	0x91
 5874 15e6 6C       		.sleb128 -20
 5875 15e7 00       		.byte	0
 5876 15e8 00       		.byte	0
 5877 15e9 1F       		.uleb128 0x1f
 5878 15ea D4030000 		.4byte	.LASF89
 5879 15ee 01       		.byte	0x1
ARM GAS  C:\Users\cronos\AppData\Local\Temp\ccrG4qtQ.s 			page 114


 5880 15ef 8201     		.2byte	0x182
 5881 15f1 C6000000 		.4byte	0xc6
 5882 15f5 00000000 		.4byte	.LFB44
 5883 15f9 18000000 		.4byte	.LFE44-.LFB44
 5884 15fd 01       		.uleb128 0x1
 5885 15fe 9C       		.byte	0x9c
 5886 15ff 29160000 		.4byte	0x1629
 5887 1603 13       		.uleb128 0x13
 5888 1604 12000000 		.4byte	.LVL235
 5889 1608 1A010000 		.4byte	0x11a
 5890 160c 0F       		.uleb128 0xf
 5891 160d 01       		.uleb128 0x1
 5892 160e 50       		.byte	0x50
 5893 160f 02       		.uleb128 0x2
 5894 1610 08       		.byte	0x8
 5895 1611 33       		.byte	0x33
 5896 1612 0F       		.uleb128 0xf
 5897 1613 01       		.uleb128 0x1
 5898 1614 51       		.byte	0x51
 5899 1615 01       		.uleb128 0x1
 5900 1616 30       		.byte	0x30
 5901 1617 0F       		.uleb128 0xf
 5902 1618 01       		.uleb128 0x1
 5903 1619 52       		.byte	0x52
 5904 161a 01       		.uleb128 0x1
 5905 161b 30       		.byte	0x30
 5906 161c 0F       		.uleb128 0xf
 5907 161d 01       		.uleb128 0x1
 5908 161e 53       		.byte	0x53
 5909 161f 01       		.uleb128 0x1
 5910 1620 30       		.byte	0x30
 5911 1621 0F       		.uleb128 0xf
 5912 1622 02       		.uleb128 0x2
 5913 1623 7D       		.byte	0x7d
 5914 1624 00       		.sleb128 0
 5915 1625 01       		.uleb128 0x1
 5916 1626 30       		.byte	0x30
 5917 1627 00       		.byte	0
 5918 1628 00       		.byte	0
 5919 1629 19       		.uleb128 0x19
 5920 162a BD010000 		.4byte	.LASF90
 5921 162e 01       		.byte	0x1
 5922 162f 8701     		.2byte	0x187
 5923 1631 C6000000 		.4byte	0xc6
 5924 1635 00000000 		.4byte	.LFB45
 5925 1639 1C000000 		.4byte	.LFE45-.LFB45
 5926 163d 01       		.uleb128 0x1
 5927 163e 9C       		.byte	0x9c
 5928 163f 7A160000 		.4byte	0x167a
 5929 1643 1B       		.uleb128 0x1b
 5930 1644 21060000 		.4byte	.LASF91
 5931 1648 01       		.byte	0x1
 5932 1649 8701     		.2byte	0x187
 5933 164b DC000000 		.4byte	0xdc
 5934 164f 8C110000 		.4byte	.LLST115
 5935 1653 13       		.uleb128 0x13
 5936 1654 16000000 		.4byte	.LVL238
ARM GAS  C:\Users\cronos\AppData\Local\Temp\ccrG4qtQ.s 			page 115


 5937 1658 1A010000 		.4byte	0x11a
 5938 165c 0F       		.uleb128 0xf
 5939 165d 01       		.uleb128 0x1
 5940 165e 50       		.byte	0x50
 5941 165f 02       		.uleb128 0x2
 5942 1660 08       		.byte	0x8
 5943 1661 40       		.byte	0x40
 5944 1662 0F       		.uleb128 0xf
 5945 1663 01       		.uleb128 0x1
 5946 1664 51       		.byte	0x51
 5947 1665 01       		.uleb128 0x1
 5948 1666 32       		.byte	0x32
 5949 1667 0F       		.uleb128 0xf
 5950 1668 01       		.uleb128 0x1
 5951 1669 52       		.byte	0x52
 5952 166a 02       		.uleb128 0x2
 5953 166b 91       		.byte	0x91
 5954 166c 76       		.sleb128 -10
 5955 166d 0F       		.uleb128 0xf
 5956 166e 01       		.uleb128 0x1
 5957 166f 53       		.byte	0x53
 5958 1670 01       		.uleb128 0x1
 5959 1671 30       		.byte	0x30
 5960 1672 0F       		.uleb128 0xf
 5961 1673 02       		.uleb128 0x2
 5962 1674 7D       		.byte	0x7d
 5963 1675 00       		.sleb128 0
 5964 1676 01       		.uleb128 0x1
 5965 1677 30       		.byte	0x30
 5966 1678 00       		.byte	0
 5967 1679 00       		.byte	0
 5968 167a 1F       		.uleb128 0x1f
 5969 167b CA020000 		.4byte	.LASF92
 5970 167f 01       		.byte	0x1
 5971 1680 8B01     		.2byte	0x18b
 5972 1682 C6000000 		.4byte	0xc6
 5973 1686 00000000 		.4byte	.LFB46
 5974 168a 18000000 		.4byte	.LFE46-.LFB46
 5975 168e 01       		.uleb128 0x1
 5976 168f 9C       		.byte	0x9c
 5977 1690 BA160000 		.4byte	0x16ba
 5978 1694 13       		.uleb128 0x13
 5979 1695 12000000 		.4byte	.LVL239
 5980 1699 1A010000 		.4byte	0x11a
 5981 169d 0F       		.uleb128 0xf
 5982 169e 01       		.uleb128 0x1
 5983 169f 50       		.byte	0x50
 5984 16a0 02       		.uleb128 0x2
 5985 16a1 08       		.byte	0x8
 5986 16a2 43       		.byte	0x43
 5987 16a3 0F       		.uleb128 0xf
 5988 16a4 01       		.uleb128 0x1
 5989 16a5 51       		.byte	0x51
 5990 16a6 01       		.uleb128 0x1
 5991 16a7 30       		.byte	0x30
 5992 16a8 0F       		.uleb128 0xf
 5993 16a9 01       		.uleb128 0x1
ARM GAS  C:\Users\cronos\AppData\Local\Temp\ccrG4qtQ.s 			page 116


 5994 16aa 52       		.byte	0x52
 5995 16ab 01       		.uleb128 0x1
 5996 16ac 30       		.byte	0x30
 5997 16ad 0F       		.uleb128 0xf
 5998 16ae 01       		.uleb128 0x1
 5999 16af 53       		.byte	0x53
 6000 16b0 01       		.uleb128 0x1
 6001 16b1 30       		.byte	0x30
 6002 16b2 0F       		.uleb128 0xf
 6003 16b3 02       		.uleb128 0x2
 6004 16b4 7D       		.byte	0x7d
 6005 16b5 00       		.sleb128 0
 6006 16b6 01       		.uleb128 0x1
 6007 16b7 30       		.byte	0x30
 6008 16b8 00       		.byte	0
 6009 16b9 00       		.byte	0
 6010 16ba 19       		.uleb128 0x19
 6011 16bb CF010000 		.4byte	.LASF93
 6012 16bf 01       		.byte	0x1
 6013 16c0 8F01     		.2byte	0x18f
 6014 16c2 C6000000 		.4byte	0xc6
 6015 16c6 00000000 		.4byte	.LFB47
 6016 16ca 50000000 		.4byte	.LFE47-.LFB47
 6017 16ce 01       		.uleb128 0x1
 6018 16cf 9C       		.byte	0x9c
 6019 16d0 68170000 		.4byte	0x1768
 6020 16d4 1B       		.uleb128 0x1b
 6021 16d5 35040000 		.4byte	.LASF94
 6022 16d9 01       		.byte	0x1
 6023 16da 8F01     		.2byte	0x18f
 6024 16dc 83030000 		.4byte	0x383
 6025 16e0 B7110000 		.4byte	.LLST116
 6026 16e4 1B       		.uleb128 0x1b
 6027 16e5 72050000 		.4byte	.LASF95
 6028 16e9 01       		.byte	0x1
 6029 16ea 8F01     		.2byte	0x18f
 6030 16ec 68170000 		.4byte	0x1768
 6031 16f0 D5110000 		.4byte	.LLST117
 6032 16f4 1B       		.uleb128 0x1b
 6033 16f5 1E000000 		.4byte	.LASF96
 6034 16f9 01       		.byte	0x1
 6035 16fa 8F01     		.2byte	0x18f
 6036 16fc 6E170000 		.4byte	0x176e
 6037 1700 F3110000 		.4byte	.LLST118
 6038 1704 1A       		.uleb128 0x1a
 6039 1705 63726300 		.ascii	"crc\000"
 6040 1709 01       		.byte	0x1
 6041 170a 8F01     		.2byte	0x18f
 6042 170c 68170000 		.4byte	0x1768
 6043 1710 11120000 		.4byte	.LLST119
 6044 1714 1D       		.uleb128 0x1d
 6045 1715 33050000 		.4byte	.LASF29
 6046 1719 01       		.byte	0x1
 6047 171a 9001     		.2byte	0x190
 6048 171c 74170000 		.4byte	0x1774
 6049 1720 02       		.uleb128 0x2
 6050 1721 91       		.byte	0x91
ARM GAS  C:\Users\cronos\AppData\Local\Temp\ccrG4qtQ.s 			page 117


 6051 1722 54       		.sleb128 -44
 6052 1723 1D       		.uleb128 0x1d
 6053 1724 24050000 		.4byte	.LASF28
 6054 1728 01       		.byte	0x1
 6055 1729 9101     		.2byte	0x191
 6056 172b C6000000 		.4byte	0xc6
 6057 172f 02       		.uleb128 0x2
 6058 1730 91       		.byte	0x91
 6059 1731 53       		.sleb128 -45
 6060 1732 1E       		.uleb128 0x1e
 6061 1733 72657400 		.ascii	"ret\000"
 6062 1737 01       		.byte	0x1
 6063 1738 9201     		.2byte	0x192
 6064 173a C6000000 		.4byte	0xc6
 6065 173e 01       		.uleb128 0x1
 6066 173f 50       		.byte	0x50
 6067 1740 13       		.uleb128 0x13
 6068 1741 2E000000 		.4byte	.LVL245
 6069 1745 1A010000 		.4byte	0x11a
 6070 1749 0F       		.uleb128 0xf
 6071 174a 01       		.uleb128 0x1
 6072 174b 50       		.byte	0x50
 6073 174c 02       		.uleb128 0x2
 6074 174d 08       		.byte	0x8
 6075 174e 41       		.byte	0x41
 6076 174f 0F       		.uleb128 0xf
 6077 1750 01       		.uleb128 0x1
 6078 1751 51       		.byte	0x51
 6079 1752 01       		.uleb128 0x1
 6080 1753 30       		.byte	0x30
 6081 1754 0F       		.uleb128 0xf
 6082 1755 01       		.uleb128 0x1
 6083 1756 52       		.byte	0x52
 6084 1757 01       		.uleb128 0x1
 6085 1758 30       		.byte	0x30
 6086 1759 0F       		.uleb128 0xf
 6087 175a 01       		.uleb128 0x1
 6088 175b 53       		.byte	0x53
 6089 175c 02       		.uleb128 0x2
 6090 175d 91       		.byte	0x91
 6091 175e 53       		.sleb128 -45
 6092 175f 0F       		.uleb128 0xf
 6093 1760 02       		.uleb128 0x2
 6094 1761 7D       		.byte	0x7d
 6095 1762 00       		.sleb128 0
 6096 1763 02       		.uleb128 0x2
 6097 1764 91       		.byte	0x91
 6098 1765 54       		.sleb128 -44
 6099 1766 00       		.byte	0
 6100 1767 00       		.byte	0
 6101 1768 10       		.uleb128 0x10
 6102 1769 04       		.byte	0x4
 6103 176a F2000000 		.4byte	0xf2
 6104 176e 10       		.uleb128 0x10
 6105 176f 04       		.byte	0x4
 6106 1770 08010000 		.4byte	0x108
 6107 1774 14       		.uleb128 0x14
ARM GAS  C:\Users\cronos\AppData\Local\Temp\ccrG4qtQ.s 			page 118


 6108 1775 C6000000 		.4byte	0xc6
 6109 1779 84170000 		.4byte	0x1784
 6110 177d 15       		.uleb128 0x15
 6111 177e F5030000 		.4byte	0x3f5
 6112 1782 10       		.byte	0x10
 6113 1783 00       		.byte	0
 6114 1784 19       		.uleb128 0x19
 6115 1785 4C010000 		.4byte	.LASF97
 6116 1789 01       		.byte	0x1
 6117 178a 9A01     		.2byte	0x19a
 6118 178c C6000000 		.4byte	0xc6
 6119 1790 00000000 		.4byte	.LFB48
 6120 1794 34000000 		.4byte	.LFE48-.LFB48
 6121 1798 01       		.uleb128 0x1
 6122 1799 9C       		.byte	0x9c
 6123 179a 12180000 		.4byte	0x1812
 6124 179e 1B       		.uleb128 0x1b
 6125 179f 35040000 		.4byte	.LASF94
 6126 17a3 01       		.byte	0x1
 6127 17a4 9A01     		.2byte	0x19a
 6128 17a6 83030000 		.4byte	0x383
 6129 17aa 2F120000 		.4byte	.LLST120
 6130 17ae 1B       		.uleb128 0x1b
 6131 17af 90030000 		.4byte	.LASF98
 6132 17b3 01       		.byte	0x1
 6133 17b4 9A01     		.2byte	0x19a
 6134 17b6 68170000 		.4byte	0x1768
 6135 17ba 4D120000 		.4byte	.LLST121
 6136 17be 1D       		.uleb128 0x1d
 6137 17bf 33050000 		.4byte	.LASF29
 6138 17c3 01       		.byte	0x1
 6139 17c4 9B01     		.2byte	0x19b
 6140 17c6 12180000 		.4byte	0x1812
 6141 17ca 02       		.uleb128 0x2
 6142 17cb 91       		.byte	0x91
 6143 17cc 68       		.sleb128 -24
 6144 17cd 1D       		.uleb128 0x1d
 6145 17ce 24050000 		.4byte	.LASF28
 6146 17d2 01       		.byte	0x1
 6147 17d3 9C01     		.2byte	0x19c
 6148 17d5 C6000000 		.4byte	0xc6
 6149 17d9 02       		.uleb128 0x2
 6150 17da 91       		.byte	0x91
 6151 17db 67       		.sleb128 -25
 6152 17dc 1E       		.uleb128 0x1e
 6153 17dd 72657400 		.ascii	"ret\000"
 6154 17e1 01       		.byte	0x1
 6155 17e2 9D01     		.2byte	0x19d
 6156 17e4 C6000000 		.4byte	0xc6
 6157 17e8 01       		.uleb128 0x1
 6158 17e9 50       		.byte	0x50
 6159 17ea 13       		.uleb128 0x13
 6160 17eb 24000000 		.4byte	.LVL249
 6161 17ef 1A010000 		.4byte	0x11a
 6162 17f3 0F       		.uleb128 0xf
 6163 17f4 01       		.uleb128 0x1
 6164 17f5 50       		.byte	0x50
ARM GAS  C:\Users\cronos\AppData\Local\Temp\ccrG4qtQ.s 			page 119


 6165 17f6 02       		.uleb128 0x2
 6166 17f7 08       		.byte	0x8
 6167 17f8 42       		.byte	0x42
 6168 17f9 0F       		.uleb128 0xf
 6169 17fa 01       		.uleb128 0x1
 6170 17fb 51       		.byte	0x51
 6171 17fc 01       		.uleb128 0x1
 6172 17fd 30       		.byte	0x30
 6173 17fe 0F       		.uleb128 0xf
 6174 17ff 01       		.uleb128 0x1
 6175 1800 52       		.byte	0x52
 6176 1801 01       		.uleb128 0x1
 6177 1802 30       		.byte	0x30
 6178 1803 0F       		.uleb128 0xf
 6179 1804 01       		.uleb128 0x1
 6180 1805 53       		.byte	0x53
 6181 1806 02       		.uleb128 0x2
 6182 1807 91       		.byte	0x91
 6183 1808 67       		.sleb128 -25
 6184 1809 0F       		.uleb128 0xf
 6185 180a 02       		.uleb128 0x2
 6186 180b 7D       		.byte	0x7d
 6187 180c 00       		.sleb128 0
 6188 180d 02       		.uleb128 0x2
 6189 180e 91       		.byte	0x91
 6190 180f 68       		.sleb128 -24
 6191 1810 00       		.byte	0
 6192 1811 00       		.byte	0
 6193 1812 14       		.uleb128 0x14
 6194 1813 C6000000 		.4byte	0xc6
 6195 1817 22180000 		.4byte	0x1822
 6196 181b 15       		.uleb128 0x15
 6197 181c F5030000 		.4byte	0x3f5
 6198 1820 04       		.byte	0x4
 6199 1821 00       		.byte	0
 6200 1822 19       		.uleb128 0x19
 6201 1823 FC060000 		.4byte	.LASF99
 6202 1827 01       		.byte	0x1
 6203 1828 A301     		.2byte	0x1a3
 6204 182a C6000000 		.4byte	0xc6
 6205 182e 00000000 		.4byte	.LFB49
 6206 1832 18000000 		.4byte	.LFE49-.LFB49
 6207 1836 01       		.uleb128 0x1
 6208 1837 9C       		.byte	0x9c
 6209 1838 88180000 		.4byte	0x1888
 6210 183c 1B       		.uleb128 0x1b
 6211 183d 3C050000 		.4byte	.LASF100
 6212 1841 01       		.byte	0x1
 6213 1842 A301     		.2byte	0x1a3
 6214 1844 83030000 		.4byte	0x383
 6215 1848 6B120000 		.4byte	.LLST122
 6216 184c 1B       		.uleb128 0x1b
 6217 184d CC040000 		.4byte	.LASF41
 6218 1851 01       		.byte	0x1
 6219 1852 A301     		.2byte	0x1a3
 6220 1854 83030000 		.4byte	0x383
 6221 1858 97120000 		.4byte	.LLST123
ARM GAS  C:\Users\cronos\AppData\Local\Temp\ccrG4qtQ.s 			page 120


 6222 185c 13       		.uleb128 0x13
 6223 185d 12000000 		.4byte	.LVL253
 6224 1861 1A010000 		.4byte	0x11a
 6225 1865 0F       		.uleb128 0xf
 6226 1866 01       		.uleb128 0x1
 6227 1867 50       		.byte	0x50
 6228 1868 02       		.uleb128 0x2
 6229 1869 08       		.byte	0x8
 6230 186a 44       		.byte	0x44
 6231 186b 0F       		.uleb128 0xf
 6232 186c 01       		.uleb128 0x1
 6233 186d 51       		.byte	0x51
 6234 186e 01       		.uleb128 0x1
 6235 186f 31       		.byte	0x31
 6236 1870 0F       		.uleb128 0xf
 6237 1871 01       		.uleb128 0x1
 6238 1872 52       		.byte	0x52
 6239 1873 03       		.uleb128 0x3
 6240 1874 F3       		.byte	0xf3
 6241 1875 01       		.uleb128 0x1
 6242 1876 50       		.byte	0x50
 6243 1877 0F       		.uleb128 0xf
 6244 1878 01       		.uleb128 0x1
 6245 1879 53       		.byte	0x53
 6246 187a 03       		.uleb128 0x3
 6247 187b F3       		.byte	0xf3
 6248 187c 01       		.uleb128 0x1
 6249 187d 50       		.byte	0x50
 6250 187e 0F       		.uleb128 0xf
 6251 187f 02       		.uleb128 0x2
 6252 1880 7D       		.byte	0x7d
 6253 1881 00       		.sleb128 0
 6254 1882 03       		.uleb128 0x3
 6255 1883 F3       		.byte	0xf3
 6256 1884 01       		.uleb128 0x1
 6257 1885 51       		.byte	0x51
 6258 1886 00       		.byte	0
 6259 1887 00       		.byte	0
 6260 1888 1F       		.uleb128 0x1f
 6261 1889 56000000 		.4byte	.LASF101
 6262 188d 01       		.byte	0x1
 6263 188e A901     		.2byte	0x1a9
 6264 1890 DC000000 		.4byte	0xdc
 6265 1894 00000000 		.4byte	.LFB50
 6266 1898 30000000 		.4byte	.LFE50-.LFB50
 6267 189c 01       		.uleb128 0x1
 6268 189d 9C       		.byte	0x9c
 6269 189e F8180000 		.4byte	0x18f8
 6270 18a2 1D       		.uleb128 0x1d
 6271 18a3 33050000 		.4byte	.LASF29
 6272 18a7 01       		.byte	0x1
 6273 18a8 AA01     		.2byte	0x1aa
 6274 18aa DA050000 		.4byte	0x5da
 6275 18ae 02       		.uleb128 0x2
 6276 18af 91       		.byte	0x91
 6277 18b0 74       		.sleb128 -12
 6278 18b1 1D       		.uleb128 0x1d
ARM GAS  C:\Users\cronos\AppData\Local\Temp\ccrG4qtQ.s 			page 121


 6279 18b2 24050000 		.4byte	.LASF28
 6280 18b6 01       		.byte	0x1
 6281 18b7 AB01     		.2byte	0x1ab
 6282 18b9 C6000000 		.4byte	0xc6
 6283 18bd 02       		.uleb128 0x2
 6284 18be 91       		.byte	0x91
 6285 18bf 73       		.sleb128 -13
 6286 18c0 20       		.uleb128 0x20
 6287 18c1 72657400 		.ascii	"ret\000"
 6288 18c5 01       		.byte	0x1
 6289 18c6 AC01     		.2byte	0x1ac
 6290 18c8 C6000000 		.4byte	0xc6
 6291 18cc C4120000 		.4byte	.LLST124
 6292 18d0 13       		.uleb128 0x13
 6293 18d1 1E000000 		.4byte	.LVL254
 6294 18d5 1A010000 		.4byte	0x11a
 6295 18d9 0F       		.uleb128 0xf
 6296 18da 01       		.uleb128 0x1
 6297 18db 50       		.byte	0x50
 6298 18dc 02       		.uleb128 0x2
 6299 18dd 09       		.byte	0x9
 6300 18de A0       		.byte	0xa0
 6301 18df 0F       		.uleb128 0xf
 6302 18e0 01       		.uleb128 0x1
 6303 18e1 51       		.byte	0x51
 6304 18e2 01       		.uleb128 0x1
 6305 18e3 30       		.byte	0x30
 6306 18e4 0F       		.uleb128 0xf
 6307 18e5 01       		.uleb128 0x1
 6308 18e6 52       		.byte	0x52
 6309 18e7 01       		.uleb128 0x1
 6310 18e8 30       		.byte	0x30
 6311 18e9 0F       		.uleb128 0xf
 6312 18ea 01       		.uleb128 0x1
 6313 18eb 53       		.byte	0x53
 6314 18ec 02       		.uleb128 0x2
 6315 18ed 91       		.byte	0x91
 6316 18ee 73       		.sleb128 -13
 6317 18ef 0F       		.uleb128 0xf
 6318 18f0 02       		.uleb128 0x2
 6319 18f1 7D       		.byte	0x7d
 6320 18f2 00       		.sleb128 0
 6321 18f3 02       		.uleb128 0x2
 6322 18f4 91       		.byte	0x91
 6323 18f5 74       		.sleb128 -12
 6324 18f6 00       		.byte	0
 6325 18f7 00       		.byte	0
 6326 18f8 19       		.uleb128 0x19
 6327 18f9 51020000 		.4byte	.LASF102
 6328 18fd 01       		.byte	0x1
 6329 18fe B301     		.2byte	0x1b3
 6330 1900 C6000000 		.4byte	0xc6
 6331 1904 00000000 		.4byte	.LFB51
 6332 1908 4A000000 		.4byte	.LFE51-.LFB51
 6333 190c 01       		.uleb128 0x1
 6334 190d 9C       		.byte	0x9c
 6335 190e 92190000 		.4byte	0x1992
ARM GAS  C:\Users\cronos\AppData\Local\Temp\ccrG4qtQ.s 			page 122


 6336 1912 1B       		.uleb128 0x1b
 6337 1913 CC040000 		.4byte	.LASF41
 6338 1917 01       		.byte	0x1
 6339 1918 B301     		.2byte	0x1b3
 6340 191a 92190000 		.4byte	0x1992
 6341 191e E2120000 		.4byte	.LLST125
 6342 1922 1D       		.uleb128 0x1d
 6343 1923 33050000 		.4byte	.LASF29
 6344 1927 01       		.byte	0x1
 6345 1928 B401     		.2byte	0x1b4
 6346 192a 9F190000 		.4byte	0x199f
 6347 192e 02       		.uleb128 0x2
 6348 192f 91       		.byte	0x91
 6349 1930 6C       		.sleb128 -20
 6350 1931 1D       		.uleb128 0x1d
 6351 1932 24050000 		.4byte	.LASF28
 6352 1936 01       		.byte	0x1
 6353 1937 B501     		.2byte	0x1b5
 6354 1939 C6000000 		.4byte	0xc6
 6355 193d 02       		.uleb128 0x2
 6356 193e 91       		.byte	0x91
 6357 193f 6B       		.sleb128 -21
 6358 1940 1E       		.uleb128 0x1e
 6359 1941 72657400 		.ascii	"ret\000"
 6360 1945 01       		.byte	0x1
 6361 1946 B601     		.2byte	0x1b6
 6362 1948 C6000000 		.4byte	0xc6
 6363 194c 01       		.uleb128 0x1
 6364 194d 50       		.byte	0x50
 6365 194e 0C       		.uleb128 0xc
 6366 194f 2C000000 		.4byte	.LBB14
 6367 1953 16000000 		.4byte	.LBE14-.LBB14
 6368 1957 6A190000 		.4byte	0x196a
 6369 195b 20       		.uleb128 0x20
 6370 195c 6900     		.ascii	"i\000"
 6371 195e 01       		.byte	0x1
 6372 195f BA01     		.2byte	0x1ba
 6373 1961 C6000000 		.4byte	0xc6
 6374 1965 00130000 		.4byte	.LLST126
 6375 1969 00       		.byte	0
 6376 196a 13       		.uleb128 0x13
 6377 196b 24000000 		.4byte	.LVL260
 6378 196f 1A010000 		.4byte	0x11a
 6379 1973 0F       		.uleb128 0xf
 6380 1974 01       		.uleb128 0x1
 6381 1975 50       		.byte	0x50
 6382 1976 02       		.uleb128 0x2
 6383 1977 09       		.byte	0x9
 6384 1978 A1       		.byte	0xa1
 6385 1979 0F       		.uleb128 0xf
 6386 197a 01       		.uleb128 0x1
 6387 197b 51       		.byte	0x51
 6388 197c 01       		.uleb128 0x1
 6389 197d 30       		.byte	0x30
 6390 197e 0F       		.uleb128 0xf
 6391 197f 01       		.uleb128 0x1
 6392 1980 52       		.byte	0x52
ARM GAS  C:\Users\cronos\AppData\Local\Temp\ccrG4qtQ.s 			page 123


 6393 1981 01       		.uleb128 0x1
 6394 1982 30       		.byte	0x30
 6395 1983 0F       		.uleb128 0xf
 6396 1984 01       		.uleb128 0x1
 6397 1985 53       		.byte	0x53
 6398 1986 02       		.uleb128 0x2
 6399 1987 91       		.byte	0x91
 6400 1988 6B       		.sleb128 -21
 6401 1989 0F       		.uleb128 0xf
 6402 198a 02       		.uleb128 0x2
 6403 198b 7D       		.byte	0x7d
 6404 198c 00       		.sleb128 0
 6405 198d 02       		.uleb128 0x2
 6406 198e 91       		.byte	0x91
 6407 198f 6C       		.sleb128 -20
 6408 1990 00       		.byte	0
 6409 1991 00       		.byte	0
 6410 1992 10       		.uleb128 0x10
 6411 1993 04       		.byte	0x4
 6412 1994 98190000 		.4byte	0x1998
 6413 1998 02       		.uleb128 0x2
 6414 1999 01       		.byte	0x1
 6415 199a 08       		.byte	0x8
 6416 199b 3C040000 		.4byte	.LASF103
 6417 199f 14       		.uleb128 0x14
 6418 19a0 C6000000 		.4byte	0xc6
 6419 19a4 AF190000 		.4byte	0x19af
 6420 19a8 15       		.uleb128 0x15
 6421 19a9 F5030000 		.4byte	0x3f5
 6422 19ad 0A       		.byte	0xa
 6423 19ae 00       		.byte	0
 6424 19af 19       		.uleb128 0x19
 6425 19b0 6B040000 		.4byte	.LASF104
 6426 19b4 01       		.byte	0x1
 6427 19b5 C101     		.2byte	0x1c1
 6428 19b7 C6000000 		.4byte	0xc6
 6429 19bb 00000000 		.4byte	.LFB52
 6430 19bf 4C000000 		.4byte	.LFE52-.LFB52
 6431 19c3 01       		.uleb128 0x1
 6432 19c4 9C       		.byte	0x9c
 6433 19c5 681A0000 		.4byte	0x1a68
 6434 19c9 1B       		.uleb128 0x1b
 6435 19ca CC040000 		.4byte	.LASF41
 6436 19ce 01       		.byte	0x1
 6437 19cf C101     		.2byte	0x1c1
 6438 19d1 92190000 		.4byte	0x1992
 6439 19d5 1E130000 		.4byte	.LLST127
 6440 19d9 1D       		.uleb128 0x1d
 6441 19da 33050000 		.4byte	.LASF29
 6442 19de 01       		.byte	0x1
 6443 19df C201     		.2byte	0x1c2
 6444 19e1 681A0000 		.4byte	0x1a68
 6445 19e5 02       		.uleb128 0x2
 6446 19e6 91       		.byte	0x91
 6447 19e7 4C       		.sleb128 -52
 6448 19e8 1D       		.uleb128 0x1d
 6449 19e9 24050000 		.4byte	.LASF28
ARM GAS  C:\Users\cronos\AppData\Local\Temp\ccrG4qtQ.s 			page 124


 6450 19ed 01       		.byte	0x1
 6451 19ee C301     		.2byte	0x1c3
 6452 19f0 C6000000 		.4byte	0xc6
 6453 19f4 02       		.uleb128 0x2
 6454 19f5 91       		.byte	0x91
 6455 19f6 4B       		.sleb128 -53
 6456 19f7 1E       		.uleb128 0x1e
 6457 19f8 72657400 		.ascii	"ret\000"
 6458 19fc 01       		.byte	0x1
 6459 19fd C401     		.2byte	0x1c4
 6460 19ff C6000000 		.4byte	0xc6
 6461 1a03 01       		.uleb128 0x1
 6462 1a04 50       		.byte	0x50
 6463 1a05 0C       		.uleb128 0xc
 6464 1a06 2E000000 		.4byte	.LBB15
 6465 1a0a 16000000 		.4byte	.LBE15-.LBB15
 6466 1a0e 211A0000 		.4byte	0x1a21
 6467 1a12 20       		.uleb128 0x20
 6468 1a13 6900     		.ascii	"i\000"
 6469 1a15 01       		.byte	0x1
 6470 1a16 C801     		.2byte	0x1c8
 6471 1a18 C6000000 		.4byte	0xc6
 6472 1a1c 3C130000 		.4byte	.LLST128
 6473 1a20 00       		.byte	0
 6474 1a21 0E       		.uleb128 0xe
 6475 1a22 12000000 		.4byte	.LVL267
 6476 1a26 DB1C0000 		.4byte	0x1cdb
 6477 1a2a 401A0000 		.4byte	0x1a40
 6478 1a2e 0F       		.uleb128 0xf
 6479 1a2f 01       		.uleb128 0x1
 6480 1a30 50       		.byte	0x50
 6481 1a31 02       		.uleb128 0x2
 6482 1a32 75       		.byte	0x75
 6483 1a33 00       		.sleb128 0
 6484 1a34 0F       		.uleb128 0xf
 6485 1a35 01       		.uleb128 0x1
 6486 1a36 51       		.byte	0x51
 6487 1a37 01       		.uleb128 0x1
 6488 1a38 30       		.byte	0x30
 6489 1a39 0F       		.uleb128 0xf
 6490 1a3a 01       		.uleb128 0x1
 6491 1a3b 52       		.byte	0x52
 6492 1a3c 02       		.uleb128 0x2
 6493 1a3d 08       		.byte	0x8
 6494 1a3e 21       		.byte	0x21
 6495 1a3f 00       		.byte	0
 6496 1a40 13       		.uleb128 0x13
 6497 1a41 26000000 		.4byte	.LVL268
 6498 1a45 1A010000 		.4byte	0x11a
 6499 1a49 0F       		.uleb128 0xf
 6500 1a4a 01       		.uleb128 0x1
 6501 1a4b 50       		.byte	0x50
 6502 1a4c 02       		.uleb128 0x2
 6503 1a4d 09       		.byte	0x9
 6504 1a4e A2       		.byte	0xa2
 6505 1a4f 0F       		.uleb128 0xf
 6506 1a50 01       		.uleb128 0x1
ARM GAS  C:\Users\cronos\AppData\Local\Temp\ccrG4qtQ.s 			page 125


 6507 1a51 51       		.byte	0x51
 6508 1a52 01       		.uleb128 0x1
 6509 1a53 30       		.byte	0x30
 6510 1a54 0F       		.uleb128 0xf
 6511 1a55 01       		.uleb128 0x1
 6512 1a56 52       		.byte	0x52
 6513 1a57 01       		.uleb128 0x1
 6514 1a58 30       		.byte	0x30
 6515 1a59 0F       		.uleb128 0xf
 6516 1a5a 01       		.uleb128 0x1
 6517 1a5b 53       		.byte	0x53
 6518 1a5c 02       		.uleb128 0x2
 6519 1a5d 91       		.byte	0x91
 6520 1a5e 4B       		.sleb128 -53
 6521 1a5f 0F       		.uleb128 0xf
 6522 1a60 02       		.uleb128 0x2
 6523 1a61 7D       		.byte	0x7d
 6524 1a62 00       		.sleb128 0
 6525 1a63 02       		.uleb128 0x2
 6526 1a64 75       		.byte	0x75
 6527 1a65 00       		.sleb128 0
 6528 1a66 00       		.byte	0
 6529 1a67 00       		.byte	0
 6530 1a68 14       		.uleb128 0x14
 6531 1a69 C6000000 		.4byte	0xc6
 6532 1a6d 781A0000 		.4byte	0x1a78
 6533 1a71 15       		.uleb128 0x15
 6534 1a72 F5030000 		.4byte	0x3f5
 6535 1a76 20       		.byte	0x20
 6536 1a77 00       		.byte	0
 6537 1a78 1F       		.uleb128 0x1f
 6538 1a79 F7030000 		.4byte	.LASF105
 6539 1a7d 01       		.byte	0x1
 6540 1a7e CF01     		.2byte	0x1cf
 6541 1a80 C6000000 		.4byte	0xc6
 6542 1a84 00000000 		.4byte	.LFB53
 6543 1a88 24000000 		.4byte	.LFE53-.LFB53
 6544 1a8c 01       		.uleb128 0x1
 6545 1a8d 9C       		.byte	0x9c
 6546 1a8e C81A0000 		.4byte	0x1ac8
 6547 1a92 1D       		.uleb128 0x1d
 6548 1a93 EF030000 		.4byte	.LASF27
 6549 1a97 01       		.byte	0x1
 6550 1a98 D001     		.2byte	0x1d0
 6551 1a9a C81A0000 		.4byte	0x1ac8
 6552 1a9e 02       		.uleb128 0x2
 6553 1a9f 91       		.byte	0x91
 6554 1aa0 74       		.sleb128 -12
 6555 1aa1 13       		.uleb128 0x13
 6556 1aa2 18000000 		.4byte	.LVL273
 6557 1aa6 1A010000 		.4byte	0x11a
 6558 1aaa 0F       		.uleb128 0xf
 6559 1aab 01       		.uleb128 0x1
 6560 1aac 50       		.byte	0x50
 6561 1aad 02       		.uleb128 0x2
 6562 1aae 09       		.byte	0x9
 6563 1aaf A8       		.byte	0xa8
ARM GAS  C:\Users\cronos\AppData\Local\Temp\ccrG4qtQ.s 			page 126


 6564 1ab0 0F       		.uleb128 0xf
 6565 1ab1 01       		.uleb128 0x1
 6566 1ab2 51       		.byte	0x51
 6567 1ab3 01       		.uleb128 0x1
 6568 1ab4 34       		.byte	0x34
 6569 1ab5 0F       		.uleb128 0xf
 6570 1ab6 01       		.uleb128 0x1
 6571 1ab7 52       		.byte	0x52
 6572 1ab8 02       		.uleb128 0x2
 6573 1ab9 91       		.byte	0x91
 6574 1aba 74       		.sleb128 -12
 6575 1abb 0F       		.uleb128 0xf
 6576 1abc 01       		.uleb128 0x1
 6577 1abd 53       		.byte	0x53
 6578 1abe 01       		.uleb128 0x1
 6579 1abf 30       		.byte	0x30
 6580 1ac0 0F       		.uleb128 0xf
 6581 1ac1 02       		.uleb128 0x2
 6582 1ac2 7D       		.byte	0x7d
 6583 1ac3 00       		.sleb128 0
 6584 1ac4 01       		.uleb128 0x1
 6585 1ac5 30       		.byte	0x30
 6586 1ac6 00       		.byte	0
 6587 1ac7 00       		.byte	0
 6588 1ac8 14       		.uleb128 0x14
 6589 1ac9 C6000000 		.4byte	0xc6
 6590 1acd D81A0000 		.4byte	0x1ad8
 6591 1ad1 15       		.uleb128 0x15
 6592 1ad2 F5030000 		.4byte	0x3f5
 6593 1ad6 03       		.byte	0x3
 6594 1ad7 00       		.byte	0
 6595 1ad8 1F       		.uleb128 0x1f
 6596 1ad9 B9000000 		.4byte	.LASF106
 6597 1add 01       		.byte	0x1
 6598 1ade D401     		.2byte	0x1d4
 6599 1ae0 C6000000 		.4byte	0xc6
 6600 1ae4 00000000 		.4byte	.LFB54
 6601 1ae8 18000000 		.4byte	.LFE54-.LFB54
 6602 1aec 01       		.uleb128 0x1
 6603 1aed 9C       		.byte	0x9c
 6604 1aee 181B0000 		.4byte	0x1b18
 6605 1af2 13       		.uleb128 0x13
 6606 1af3 12000000 		.4byte	.LVL274
 6607 1af7 1A010000 		.4byte	0x11a
 6608 1afb 0F       		.uleb128 0xf
 6609 1afc 01       		.uleb128 0x1
 6610 1afd 50       		.byte	0x50
 6611 1afe 02       		.uleb128 0x2
 6612 1aff 09       		.byte	0x9
 6613 1b00 A9       		.byte	0xa9
 6614 1b01 0F       		.uleb128 0xf
 6615 1b02 01       		.uleb128 0x1
 6616 1b03 51       		.byte	0x51
 6617 1b04 01       		.uleb128 0x1
 6618 1b05 30       		.byte	0x30
 6619 1b06 0F       		.uleb128 0xf
 6620 1b07 01       		.uleb128 0x1
ARM GAS  C:\Users\cronos\AppData\Local\Temp\ccrG4qtQ.s 			page 127


 6621 1b08 52       		.byte	0x52
 6622 1b09 01       		.uleb128 0x1
 6623 1b0a 30       		.byte	0x30
 6624 1b0b 0F       		.uleb128 0xf
 6625 1b0c 01       		.uleb128 0x1
 6626 1b0d 53       		.byte	0x53
 6627 1b0e 01       		.uleb128 0x1
 6628 1b0f 30       		.byte	0x30
 6629 1b10 0F       		.uleb128 0xf
 6630 1b11 02       		.uleb128 0x2
 6631 1b12 7D       		.byte	0x7d
 6632 1b13 00       		.sleb128 0
 6633 1b14 01       		.uleb128 0x1
 6634 1b15 30       		.byte	0x30
 6635 1b16 00       		.byte	0
 6636 1b17 00       		.byte	0
 6637 1b18 1F       		.uleb128 0x1f
 6638 1b19 08070000 		.4byte	.LASF107
 6639 1b1d 01       		.byte	0x1
 6640 1b1e D801     		.2byte	0x1d8
 6641 1b20 C6000000 		.4byte	0xc6
 6642 1b24 00000000 		.4byte	.LFB55
 6643 1b28 30000000 		.4byte	.LFE55-.LFB55
 6644 1b2c 01       		.uleb128 0x1
 6645 1b2d 9C       		.byte	0x9c
 6646 1b2e 781B0000 		.4byte	0x1b78
 6647 1b32 1D       		.uleb128 0x1d
 6648 1b33 33050000 		.4byte	.LASF29
 6649 1b37 01       		.byte	0x1
 6650 1b38 D901     		.2byte	0x1d9
 6651 1b3a E5030000 		.4byte	0x3e5
 6652 1b3e 02       		.uleb128 0x2
 6653 1b3f 91       		.byte	0x91
 6654 1b40 74       		.sleb128 -12
 6655 1b41 1D       		.uleb128 0x1d
 6656 1b42 24050000 		.4byte	.LASF28
 6657 1b46 01       		.byte	0x1
 6658 1b47 DA01     		.2byte	0x1da
 6659 1b49 C6000000 		.4byte	0xc6
 6660 1b4d 02       		.uleb128 0x2
 6661 1b4e 91       		.byte	0x91
 6662 1b4f 73       		.sleb128 -13
 6663 1b50 13       		.uleb128 0x13
 6664 1b51 1E000000 		.4byte	.LVL275
 6665 1b55 1A010000 		.4byte	0x11a
 6666 1b59 0F       		.uleb128 0xf
 6667 1b5a 01       		.uleb128 0x1
 6668 1b5b 50       		.byte	0x50
 6669 1b5c 02       		.uleb128 0x2
 6670 1b5d 09       		.byte	0x9
 6671 1b5e AA       		.byte	0xaa
 6672 1b5f 0F       		.uleb128 0xf
 6673 1b60 01       		.uleb128 0x1
 6674 1b61 51       		.byte	0x51
 6675 1b62 01       		.uleb128 0x1
 6676 1b63 30       		.byte	0x30
 6677 1b64 0F       		.uleb128 0xf
ARM GAS  C:\Users\cronos\AppData\Local\Temp\ccrG4qtQ.s 			page 128


 6678 1b65 01       		.uleb128 0x1
 6679 1b66 52       		.byte	0x52
 6680 1b67 01       		.uleb128 0x1
 6681 1b68 30       		.byte	0x30
 6682 1b69 0F       		.uleb128 0xf
 6683 1b6a 01       		.uleb128 0x1
 6684 1b6b 53       		.byte	0x53
 6685 1b6c 02       		.uleb128 0x2
 6686 1b6d 91       		.byte	0x91
 6687 1b6e 73       		.sleb128 -13
 6688 1b6f 0F       		.uleb128 0xf
 6689 1b70 02       		.uleb128 0x2
 6690 1b71 7D       		.byte	0x7d
 6691 1b72 00       		.sleb128 0
 6692 1b73 02       		.uleb128 0x2
 6693 1b74 91       		.byte	0x91
 6694 1b75 74       		.sleb128 -12
 6695 1b76 00       		.byte	0
 6696 1b77 00       		.byte	0
 6697 1b78 1F       		.uleb128 0x1f
 6698 1b79 B3040000 		.4byte	.LASF108
 6699 1b7d 01       		.byte	0x1
 6700 1b7e E101     		.2byte	0x1e1
 6701 1b80 C6000000 		.4byte	0xc6
 6702 1b84 00000000 		.4byte	.LFB56
 6703 1b88 18000000 		.4byte	.LFE56-.LFB56
 6704 1b8c 01       		.uleb128 0x1
 6705 1b8d 9C       		.byte	0x9c
 6706 1b8e B81B0000 		.4byte	0x1bb8
 6707 1b92 13       		.uleb128 0x13
 6708 1b93 12000000 		.4byte	.LVL276
 6709 1b97 1A010000 		.4byte	0x11a
 6710 1b9b 0F       		.uleb128 0xf
 6711 1b9c 01       		.uleb128 0x1
 6712 1b9d 50       		.byte	0x50
 6713 1b9e 02       		.uleb128 0x2
 6714 1b9f 09       		.byte	0x9
 6715 1ba0 AF       		.byte	0xaf
 6716 1ba1 0F       		.uleb128 0xf
 6717 1ba2 01       		.uleb128 0x1
 6718 1ba3 51       		.byte	0x51
 6719 1ba4 01       		.uleb128 0x1
 6720 1ba5 30       		.byte	0x30
 6721 1ba6 0F       		.uleb128 0xf
 6722 1ba7 01       		.uleb128 0x1
 6723 1ba8 52       		.byte	0x52
 6724 1ba9 01       		.uleb128 0x1
 6725 1baa 30       		.byte	0x30
 6726 1bab 0F       		.uleb128 0xf
 6727 1bac 01       		.uleb128 0x1
 6728 1bad 53       		.byte	0x53
 6729 1bae 01       		.uleb128 0x1
 6730 1baf 30       		.byte	0x30
 6731 1bb0 0F       		.uleb128 0xf
 6732 1bb1 02       		.uleb128 0x2
 6733 1bb2 7D       		.byte	0x7d
 6734 1bb3 00       		.sleb128 0
ARM GAS  C:\Users\cronos\AppData\Local\Temp\ccrG4qtQ.s 			page 129


 6735 1bb4 01       		.uleb128 0x1
 6736 1bb5 30       		.byte	0x30
 6737 1bb6 00       		.byte	0
 6738 1bb7 00       		.byte	0
 6739 1bb8 19       		.uleb128 0x19
 6740 1bb9 FE030000 		.4byte	.LASF109
 6741 1bbd 01       		.byte	0x1
 6742 1bbe E501     		.2byte	0x1e5
 6743 1bc0 C6000000 		.4byte	0xc6
 6744 1bc4 00000000 		.4byte	.LFB57
 6745 1bc8 1C000000 		.4byte	.LFE57-.LFB57
 6746 1bcc 01       		.uleb128 0x1
 6747 1bcd 9C       		.byte	0x9c
 6748 1bce 181C0000 		.4byte	0x1c18
 6749 1bd2 1B       		.uleb128 0x1b
 6750 1bd3 88040000 		.4byte	.LASF110
 6751 1bd7 01       		.byte	0x1
 6752 1bd8 E501     		.2byte	0x1e5
 6753 1bda C6000000 		.4byte	0xc6
 6754 1bde 5A130000 		.4byte	.LLST129
 6755 1be2 1D       		.uleb128 0x1d
 6756 1be3 EF030000 		.4byte	.LASF27
 6757 1be7 01       		.byte	0x1
 6758 1be8 E701     		.2byte	0x1e7
 6759 1bea E5030000 		.4byte	0x3e5
 6760 1bee 02       		.uleb128 0x2
 6761 1bef 91       		.byte	0x91
 6762 1bf0 74       		.sleb128 -12
 6763 1bf1 13       		.uleb128 0x13
 6764 1bf2 16000000 		.4byte	.LVL279
 6765 1bf6 1A010000 		.4byte	0x11a
 6766 1bfa 0F       		.uleb128 0xf
 6767 1bfb 01       		.uleb128 0x1
 6768 1bfc 50       		.byte	0x50
 6769 1bfd 02       		.uleb128 0x2
 6770 1bfe 09       		.byte	0x9
 6771 1bff B0       		.byte	0xb0
 6772 1c00 0F       		.uleb128 0xf
 6773 1c01 01       		.uleb128 0x1
 6774 1c02 51       		.byte	0x51
 6775 1c03 01       		.uleb128 0x1
 6776 1c04 31       		.byte	0x31
 6777 1c05 0F       		.uleb128 0xf
 6778 1c06 01       		.uleb128 0x1
 6779 1c07 52       		.byte	0x52
 6780 1c08 02       		.uleb128 0x2
 6781 1c09 91       		.byte	0x91
 6782 1c0a 74       		.sleb128 -12
 6783 1c0b 0F       		.uleb128 0xf
 6784 1c0c 01       		.uleb128 0x1
 6785 1c0d 53       		.byte	0x53
 6786 1c0e 01       		.uleb128 0x1
 6787 1c0f 30       		.byte	0x30
 6788 1c10 0F       		.uleb128 0xf
 6789 1c11 02       		.uleb128 0x2
 6790 1c12 7D       		.byte	0x7d
 6791 1c13 00       		.sleb128 0
ARM GAS  C:\Users\cronos\AppData\Local\Temp\ccrG4qtQ.s 			page 130


 6792 1c14 01       		.uleb128 0x1
 6793 1c15 30       		.byte	0x30
 6794 1c16 00       		.byte	0
 6795 1c17 00       		.byte	0
 6796 1c18 1F       		.uleb128 0x1f
 6797 1c19 C3030000 		.4byte	.LASF111
 6798 1c1d 01       		.byte	0x1
 6799 1c1e EB01     		.2byte	0x1eb
 6800 1c20 C6000000 		.4byte	0xc6
 6801 1c24 00000000 		.4byte	.LFB58
 6802 1c28 30000000 		.4byte	.LFE58-.LFB58
 6803 1c2c 01       		.uleb128 0x1
 6804 1c2d 9C       		.byte	0x9c
 6805 1c2e 781C0000 		.4byte	0x1c78
 6806 1c32 1D       		.uleb128 0x1d
 6807 1c33 33050000 		.4byte	.LASF29
 6808 1c37 01       		.byte	0x1
 6809 1c38 ED01     		.2byte	0x1ed
 6810 1c3a E5030000 		.4byte	0x3e5
 6811 1c3e 02       		.uleb128 0x2
 6812 1c3f 91       		.byte	0x91
 6813 1c40 74       		.sleb128 -12
 6814 1c41 1D       		.uleb128 0x1d
 6815 1c42 24050000 		.4byte	.LASF28
 6816 1c46 01       		.byte	0x1
 6817 1c47 EE01     		.2byte	0x1ee
 6818 1c49 C6000000 		.4byte	0xc6
 6819 1c4d 02       		.uleb128 0x2
 6820 1c4e 91       		.byte	0x91
 6821 1c4f 73       		.sleb128 -13
 6822 1c50 13       		.uleb128 0x13
 6823 1c51 1E000000 		.4byte	.LVL280
 6824 1c55 1A010000 		.4byte	0x11a
 6825 1c59 0F       		.uleb128 0xf
 6826 1c5a 01       		.uleb128 0x1
 6827 1c5b 50       		.byte	0x50
 6828 1c5c 02       		.uleb128 0x2
 6829 1c5d 09       		.byte	0x9
 6830 1c5e B1       		.byte	0xb1
 6831 1c5f 0F       		.uleb128 0xf
 6832 1c60 01       		.uleb128 0x1
 6833 1c61 51       		.byte	0x51
 6834 1c62 01       		.uleb128 0x1
 6835 1c63 30       		.byte	0x30
 6836 1c64 0F       		.uleb128 0xf
 6837 1c65 01       		.uleb128 0x1
 6838 1c66 52       		.byte	0x52
 6839 1c67 01       		.uleb128 0x1
 6840 1c68 30       		.byte	0x30
 6841 1c69 0F       		.uleb128 0xf
 6842 1c6a 01       		.uleb128 0x1
 6843 1c6b 53       		.byte	0x53
 6844 1c6c 02       		.uleb128 0x2
 6845 1c6d 91       		.byte	0x91
 6846 1c6e 73       		.sleb128 -13
 6847 1c6f 0F       		.uleb128 0xf
 6848 1c70 02       		.uleb128 0x2
ARM GAS  C:\Users\cronos\AppData\Local\Temp\ccrG4qtQ.s 			page 131


 6849 1c71 7D       		.byte	0x7d
 6850 1c72 00       		.sleb128 0
 6851 1c73 02       		.uleb128 0x2
 6852 1c74 91       		.byte	0x91
 6853 1c75 74       		.sleb128 -12
 6854 1c76 00       		.byte	0
 6855 1c77 00       		.byte	0
 6856 1c78 21       		.uleb128 0x21
 6857 1c79 95040000 		.4byte	.LASF112
 6858 1c7d 95040000 		.4byte	.LASF112
 6859 1c81 04       		.byte	0x4
 6860 1c82 12       		.byte	0x12
 6861 1c83 21       		.uleb128 0x21
 6862 1c84 E3060000 		.4byte	.LASF113
 6863 1c88 E3060000 		.4byte	.LASF113
 6864 1c8c 04       		.byte	0x4
 6865 1c8d 14       		.byte	0x14
 6866 1c8e 21       		.uleb128 0x21
 6867 1c8f D0060000 		.4byte	.LASF114
 6868 1c93 D0060000 		.4byte	.LASF114
 6869 1c97 04       		.byte	0x4
 6870 1c98 10       		.byte	0x10
 6871 1c99 21       		.uleb128 0x21
 6872 1c9a E6010000 		.4byte	.LASF115
 6873 1c9e E6010000 		.4byte	.LASF115
 6874 1ca2 04       		.byte	0x4
 6875 1ca3 0E       		.byte	0xe
 6876 1ca4 21       		.uleb128 0x21
 6877 1ca5 C1050000 		.4byte	.LASF116
 6878 1ca9 C1050000 		.4byte	.LASF116
 6879 1cad 01       		.byte	0x1
 6880 1cae 21       		.byte	0x21
 6881 1caf 21       		.uleb128 0x21
 6882 1cb0 DB050000 		.4byte	.LASF117
 6883 1cb4 DB050000 		.4byte	.LASF117
 6884 1cb8 04       		.byte	0x4
 6885 1cb9 13       		.byte	0x13
 6886 1cba 21       		.uleb128 0x21
 6887 1cbb 8A030000 		.4byte	.LASF118
 6888 1cbf 8A030000 		.4byte	.LASF118
 6889 1cc3 05       		.byte	0x5
 6890 1cc4 13       		.byte	0x13
 6891 1cc5 21       		.uleb128 0x21
 6892 1cc6 AB040000 		.4byte	.LASF119
 6893 1cca AB040000 		.4byte	.LASF119
 6894 1cce 05       		.byte	0x5
 6895 1ccf 15       		.byte	0x15
 6896 1cd0 21       		.uleb128 0x21
 6897 1cd1 A9030000 		.4byte	.LASF120
 6898 1cd5 A9030000 		.4byte	.LASF120
 6899 1cd9 04       		.byte	0x4
 6900 1cda 11       		.byte	0x11
 6901 1cdb 22       		.uleb128 0x22
 6902 1cdc 77020000 		.4byte	.LASF125
 6903 1ce0 77020000 		.4byte	.LASF125
 6904 1ce4 00       		.byte	0
 6905              		.section	.debug_abbrev,"",%progbits
ARM GAS  C:\Users\cronos\AppData\Local\Temp\ccrG4qtQ.s 			page 132


 6906              	.Ldebug_abbrev0:
 6907 0000 01       		.uleb128 0x1
 6908 0001 11       		.uleb128 0x11
 6909 0002 01       		.byte	0x1
 6910 0003 25       		.uleb128 0x25
 6911 0004 0E       		.uleb128 0xe
 6912 0005 13       		.uleb128 0x13
 6913 0006 0B       		.uleb128 0xb
 6914 0007 03       		.uleb128 0x3
 6915 0008 0E       		.uleb128 0xe
 6916 0009 1B       		.uleb128 0x1b
 6917 000a 0E       		.uleb128 0xe
 6918 000b 55       		.uleb128 0x55
 6919 000c 17       		.uleb128 0x17
 6920 000d 11       		.uleb128 0x11
 6921 000e 01       		.uleb128 0x1
 6922 000f 10       		.uleb128 0x10
 6923 0010 17       		.uleb128 0x17
 6924 0011 00       		.byte	0
 6925 0012 00       		.byte	0
 6926 0013 02       		.uleb128 0x2
 6927 0014 24       		.uleb128 0x24
 6928 0015 00       		.byte	0
 6929 0016 0B       		.uleb128 0xb
 6930 0017 0B       		.uleb128 0xb
 6931 0018 3E       		.uleb128 0x3e
 6932 0019 0B       		.uleb128 0xb
 6933 001a 03       		.uleb128 0x3
 6934 001b 0E       		.uleb128 0xe
 6935 001c 00       		.byte	0
 6936 001d 00       		.byte	0
 6937 001e 03       		.uleb128 0x3
 6938 001f 16       		.uleb128 0x16
 6939 0020 00       		.byte	0
 6940 0021 03       		.uleb128 0x3
 6941 0022 0E       		.uleb128 0xe
 6942 0023 3A       		.uleb128 0x3a
 6943 0024 0B       		.uleb128 0xb
 6944 0025 3B       		.uleb128 0x3b
 6945 0026 0B       		.uleb128 0xb
 6946 0027 49       		.uleb128 0x49
 6947 0028 13       		.uleb128 0x13
 6948 0029 00       		.byte	0
 6949 002a 00       		.byte	0
 6950 002b 04       		.uleb128 0x4
 6951 002c 24       		.uleb128 0x24
 6952 002d 00       		.byte	0
 6953 002e 0B       		.uleb128 0xb
 6954 002f 0B       		.uleb128 0xb
 6955 0030 3E       		.uleb128 0x3e
 6956 0031 0B       		.uleb128 0xb
 6957 0032 03       		.uleb128 0x3
 6958 0033 08       		.uleb128 0x8
 6959 0034 00       		.byte	0
 6960 0035 00       		.byte	0
 6961 0036 05       		.uleb128 0x5
 6962 0037 2E       		.uleb128 0x2e
ARM GAS  C:\Users\cronos\AppData\Local\Temp\ccrG4qtQ.s 			page 133


 6963 0038 01       		.byte	0x1
 6964 0039 03       		.uleb128 0x3
 6965 003a 0E       		.uleb128 0xe
 6966 003b 3A       		.uleb128 0x3a
 6967 003c 0B       		.uleb128 0xb
 6968 003d 3B       		.uleb128 0x3b
 6969 003e 0B       		.uleb128 0xb
 6970 003f 27       		.uleb128 0x27
 6971 0040 19       		.uleb128 0x19
 6972 0041 49       		.uleb128 0x49
 6973 0042 13       		.uleb128 0x13
 6974 0043 11       		.uleb128 0x11
 6975 0044 01       		.uleb128 0x1
 6976 0045 12       		.uleb128 0x12
 6977 0046 06       		.uleb128 0x6
 6978 0047 40       		.uleb128 0x40
 6979 0048 18       		.uleb128 0x18
 6980 0049 9742     		.uleb128 0x2117
 6981 004b 19       		.uleb128 0x19
 6982 004c 01       		.uleb128 0x1
 6983 004d 13       		.uleb128 0x13
 6984 004e 00       		.byte	0
 6985 004f 00       		.byte	0
 6986 0050 06       		.uleb128 0x6
 6987 0051 05       		.uleb128 0x5
 6988 0052 00       		.byte	0
 6989 0053 03       		.uleb128 0x3
 6990 0054 08       		.uleb128 0x8
 6991 0055 3A       		.uleb128 0x3a
 6992 0056 0B       		.uleb128 0xb
 6993 0057 3B       		.uleb128 0x3b
 6994 0058 0B       		.uleb128 0xb
 6995 0059 49       		.uleb128 0x49
 6996 005a 13       		.uleb128 0x13
 6997 005b 02       		.uleb128 0x2
 6998 005c 17       		.uleb128 0x17
 6999 005d 00       		.byte	0
 7000 005e 00       		.byte	0
 7001 005f 07       		.uleb128 0x7
 7002 0060 05       		.uleb128 0x5
 7003 0061 00       		.byte	0
 7004 0062 03       		.uleb128 0x3
 7005 0063 0E       		.uleb128 0xe
 7006 0064 3A       		.uleb128 0x3a
 7007 0065 0B       		.uleb128 0xb
 7008 0066 3B       		.uleb128 0x3b
 7009 0067 0B       		.uleb128 0xb
 7010 0068 49       		.uleb128 0x49
 7011 0069 13       		.uleb128 0x13
 7012 006a 02       		.uleb128 0x2
 7013 006b 17       		.uleb128 0x17
 7014 006c 00       		.byte	0
 7015 006d 00       		.byte	0
 7016 006e 08       		.uleb128 0x8
 7017 006f 34       		.uleb128 0x34
 7018 0070 00       		.byte	0
 7019 0071 03       		.uleb128 0x3
ARM GAS  C:\Users\cronos\AppData\Local\Temp\ccrG4qtQ.s 			page 134


 7020 0072 0E       		.uleb128 0xe
 7021 0073 3A       		.uleb128 0x3a
 7022 0074 0B       		.uleb128 0xb
 7023 0075 3B       		.uleb128 0x3b
 7024 0076 0B       		.uleb128 0xb
 7025 0077 49       		.uleb128 0x49
 7026 0078 13       		.uleb128 0x13
 7027 0079 02       		.uleb128 0x2
 7028 007a 17       		.uleb128 0x17
 7029 007b 00       		.byte	0
 7030 007c 00       		.byte	0
 7031 007d 09       		.uleb128 0x9
 7032 007e 2E       		.uleb128 0x2e
 7033 007f 01       		.byte	0x1
 7034 0080 3F       		.uleb128 0x3f
 7035 0081 19       		.uleb128 0x19
 7036 0082 03       		.uleb128 0x3
 7037 0083 0E       		.uleb128 0xe
 7038 0084 3A       		.uleb128 0x3a
 7039 0085 0B       		.uleb128 0xb
 7040 0086 3B       		.uleb128 0x3b
 7041 0087 0B       		.uleb128 0xb
 7042 0088 49       		.uleb128 0x49
 7043 0089 13       		.uleb128 0x13
 7044 008a 3C       		.uleb128 0x3c
 7045 008b 19       		.uleb128 0x19
 7046 008c 01       		.uleb128 0x1
 7047 008d 13       		.uleb128 0x13
 7048 008e 00       		.byte	0
 7049 008f 00       		.byte	0
 7050 0090 0A       		.uleb128 0xa
 7051 0091 18       		.uleb128 0x18
 7052 0092 00       		.byte	0
 7053 0093 00       		.byte	0
 7054 0094 00       		.byte	0
 7055 0095 0B       		.uleb128 0xb
 7056 0096 34       		.uleb128 0x34
 7057 0097 00       		.byte	0
 7058 0098 03       		.uleb128 0x3
 7059 0099 08       		.uleb128 0x8
 7060 009a 3A       		.uleb128 0x3a
 7061 009b 0B       		.uleb128 0xb
 7062 009c 3B       		.uleb128 0x3b
 7063 009d 0B       		.uleb128 0xb
 7064 009e 49       		.uleb128 0x49
 7065 009f 13       		.uleb128 0x13
 7066 00a0 02       		.uleb128 0x2
 7067 00a1 17       		.uleb128 0x17
 7068 00a2 00       		.byte	0
 7069 00a3 00       		.byte	0
 7070 00a4 0C       		.uleb128 0xc
 7071 00a5 0B       		.uleb128 0xb
 7072 00a6 01       		.byte	0x1
 7073 00a7 11       		.uleb128 0x11
 7074 00a8 01       		.uleb128 0x1
 7075 00a9 12       		.uleb128 0x12
 7076 00aa 06       		.uleb128 0x6
ARM GAS  C:\Users\cronos\AppData\Local\Temp\ccrG4qtQ.s 			page 135


 7077 00ab 01       		.uleb128 0x1
 7078 00ac 13       		.uleb128 0x13
 7079 00ad 00       		.byte	0
 7080 00ae 00       		.byte	0
 7081 00af 0D       		.uleb128 0xd
 7082 00b0 898201   		.uleb128 0x4109
 7083 00b3 00       		.byte	0
 7084 00b4 11       		.uleb128 0x11
 7085 00b5 01       		.uleb128 0x1
 7086 00b6 31       		.uleb128 0x31
 7087 00b7 13       		.uleb128 0x13
 7088 00b8 00       		.byte	0
 7089 00b9 00       		.byte	0
 7090 00ba 0E       		.uleb128 0xe
 7091 00bb 898201   		.uleb128 0x4109
 7092 00be 01       		.byte	0x1
 7093 00bf 11       		.uleb128 0x11
 7094 00c0 01       		.uleb128 0x1
 7095 00c1 31       		.uleb128 0x31
 7096 00c2 13       		.uleb128 0x13
 7097 00c3 01       		.uleb128 0x1
 7098 00c4 13       		.uleb128 0x13
 7099 00c5 00       		.byte	0
 7100 00c6 00       		.byte	0
 7101 00c7 0F       		.uleb128 0xf
 7102 00c8 8A8201   		.uleb128 0x410a
 7103 00cb 00       		.byte	0
 7104 00cc 02       		.uleb128 0x2
 7105 00cd 18       		.uleb128 0x18
 7106 00ce 9142     		.uleb128 0x2111
 7107 00d0 18       		.uleb128 0x18
 7108 00d1 00       		.byte	0
 7109 00d2 00       		.byte	0
 7110 00d3 10       		.uleb128 0x10
 7111 00d4 0F       		.uleb128 0xf
 7112 00d5 00       		.byte	0
 7113 00d6 0B       		.uleb128 0xb
 7114 00d7 0B       		.uleb128 0xb
 7115 00d8 49       		.uleb128 0x49
 7116 00d9 13       		.uleb128 0x13
 7117 00da 00       		.byte	0
 7118 00db 00       		.byte	0
 7119 00dc 11       		.uleb128 0x11
 7120 00dd 2E       		.uleb128 0x2e
 7121 00de 01       		.byte	0x1
 7122 00df 3F       		.uleb128 0x3f
 7123 00e0 19       		.uleb128 0x19
 7124 00e1 03       		.uleb128 0x3
 7125 00e2 0E       		.uleb128 0xe
 7126 00e3 3A       		.uleb128 0x3a
 7127 00e4 0B       		.uleb128 0xb
 7128 00e5 3B       		.uleb128 0x3b
 7129 00e6 0B       		.uleb128 0xb
 7130 00e7 49       		.uleb128 0x49
 7131 00e8 13       		.uleb128 0x13
 7132 00e9 11       		.uleb128 0x11
 7133 00ea 01       		.uleb128 0x1
ARM GAS  C:\Users\cronos\AppData\Local\Temp\ccrG4qtQ.s 			page 136


 7134 00eb 12       		.uleb128 0x12
 7135 00ec 06       		.uleb128 0x6
 7136 00ed 40       		.uleb128 0x40
 7137 00ee 18       		.uleb128 0x18
 7138 00ef 9742     		.uleb128 0x2117
 7139 00f1 19       		.uleb128 0x19
 7140 00f2 01       		.uleb128 0x1
 7141 00f3 13       		.uleb128 0x13
 7142 00f4 00       		.byte	0
 7143 00f5 00       		.byte	0
 7144 00f6 12       		.uleb128 0x12
 7145 00f7 34       		.uleb128 0x34
 7146 00f8 00       		.byte	0
 7147 00f9 03       		.uleb128 0x3
 7148 00fa 0E       		.uleb128 0xe
 7149 00fb 3A       		.uleb128 0x3a
 7150 00fc 0B       		.uleb128 0xb
 7151 00fd 3B       		.uleb128 0x3b
 7152 00fe 0B       		.uleb128 0xb
 7153 00ff 49       		.uleb128 0x49
 7154 0100 13       		.uleb128 0x13
 7155 0101 02       		.uleb128 0x2
 7156 0102 18       		.uleb128 0x18
 7157 0103 00       		.byte	0
 7158 0104 00       		.byte	0
 7159 0105 13       		.uleb128 0x13
 7160 0106 898201   		.uleb128 0x4109
 7161 0109 01       		.byte	0x1
 7162 010a 11       		.uleb128 0x11
 7163 010b 01       		.uleb128 0x1
 7164 010c 31       		.uleb128 0x31
 7165 010d 13       		.uleb128 0x13
 7166 010e 00       		.byte	0
 7167 010f 00       		.byte	0
 7168 0110 14       		.uleb128 0x14
 7169 0111 01       		.uleb128 0x1
 7170 0112 01       		.byte	0x1
 7171 0113 49       		.uleb128 0x49
 7172 0114 13       		.uleb128 0x13
 7173 0115 01       		.uleb128 0x1
 7174 0116 13       		.uleb128 0x13
 7175 0117 00       		.byte	0
 7176 0118 00       		.byte	0
 7177 0119 15       		.uleb128 0x15
 7178 011a 21       		.uleb128 0x21
 7179 011b 00       		.byte	0
 7180 011c 49       		.uleb128 0x49
 7181 011d 13       		.uleb128 0x13
 7182 011e 2F       		.uleb128 0x2f
 7183 011f 0B       		.uleb128 0xb
 7184 0120 00       		.byte	0
 7185 0121 00       		.byte	0
 7186 0122 16       		.uleb128 0x16
 7187 0123 2E       		.uleb128 0x2e
 7188 0124 01       		.byte	0x1
 7189 0125 3F       		.uleb128 0x3f
 7190 0126 19       		.uleb128 0x19
ARM GAS  C:\Users\cronos\AppData\Local\Temp\ccrG4qtQ.s 			page 137


 7191 0127 03       		.uleb128 0x3
 7192 0128 0E       		.uleb128 0xe
 7193 0129 3A       		.uleb128 0x3a
 7194 012a 0B       		.uleb128 0xb
 7195 012b 3B       		.uleb128 0x3b
 7196 012c 0B       		.uleb128 0xb
 7197 012d 27       		.uleb128 0x27
 7198 012e 19       		.uleb128 0x19
 7199 012f 49       		.uleb128 0x49
 7200 0130 13       		.uleb128 0x13
 7201 0131 11       		.uleb128 0x11
 7202 0132 01       		.uleb128 0x1
 7203 0133 12       		.uleb128 0x12
 7204 0134 06       		.uleb128 0x6
 7205 0135 40       		.uleb128 0x40
 7206 0136 18       		.uleb128 0x18
 7207 0137 9742     		.uleb128 0x2117
 7208 0139 19       		.uleb128 0x19
 7209 013a 01       		.uleb128 0x1
 7210 013b 13       		.uleb128 0x13
 7211 013c 00       		.byte	0
 7212 013d 00       		.byte	0
 7213 013e 17       		.uleb128 0x17
 7214 013f 0B       		.uleb128 0xb
 7215 0140 01       		.byte	0x1
 7216 0141 55       		.uleb128 0x55
 7217 0142 17       		.uleb128 0x17
 7218 0143 01       		.uleb128 0x1
 7219 0144 13       		.uleb128 0x13
 7220 0145 00       		.byte	0
 7221 0146 00       		.byte	0
 7222 0147 18       		.uleb128 0x18
 7223 0148 05       		.uleb128 0x5
 7224 0149 00       		.byte	0
 7225 014a 03       		.uleb128 0x3
 7226 014b 0E       		.uleb128 0xe
 7227 014c 3A       		.uleb128 0x3a
 7228 014d 0B       		.uleb128 0xb
 7229 014e 3B       		.uleb128 0x3b
 7230 014f 0B       		.uleb128 0xb
 7231 0150 49       		.uleb128 0x49
 7232 0151 13       		.uleb128 0x13
 7233 0152 02       		.uleb128 0x2
 7234 0153 18       		.uleb128 0x18
 7235 0154 00       		.byte	0
 7236 0155 00       		.byte	0
 7237 0156 19       		.uleb128 0x19
 7238 0157 2E       		.uleb128 0x2e
 7239 0158 01       		.byte	0x1
 7240 0159 3F       		.uleb128 0x3f
 7241 015a 19       		.uleb128 0x19
 7242 015b 03       		.uleb128 0x3
 7243 015c 0E       		.uleb128 0xe
 7244 015d 3A       		.uleb128 0x3a
 7245 015e 0B       		.uleb128 0xb
 7246 015f 3B       		.uleb128 0x3b
 7247 0160 05       		.uleb128 0x5
ARM GAS  C:\Users\cronos\AppData\Local\Temp\ccrG4qtQ.s 			page 138


 7248 0161 27       		.uleb128 0x27
 7249 0162 19       		.uleb128 0x19
 7250 0163 49       		.uleb128 0x49
 7251 0164 13       		.uleb128 0x13
 7252 0165 11       		.uleb128 0x11
 7253 0166 01       		.uleb128 0x1
 7254 0167 12       		.uleb128 0x12
 7255 0168 06       		.uleb128 0x6
 7256 0169 40       		.uleb128 0x40
 7257 016a 18       		.uleb128 0x18
 7258 016b 9742     		.uleb128 0x2117
 7259 016d 19       		.uleb128 0x19
 7260 016e 01       		.uleb128 0x1
 7261 016f 13       		.uleb128 0x13
 7262 0170 00       		.byte	0
 7263 0171 00       		.byte	0
 7264 0172 1A       		.uleb128 0x1a
 7265 0173 05       		.uleb128 0x5
 7266 0174 00       		.byte	0
 7267 0175 03       		.uleb128 0x3
 7268 0176 08       		.uleb128 0x8
 7269 0177 3A       		.uleb128 0x3a
 7270 0178 0B       		.uleb128 0xb
 7271 0179 3B       		.uleb128 0x3b
 7272 017a 05       		.uleb128 0x5
 7273 017b 49       		.uleb128 0x49
 7274 017c 13       		.uleb128 0x13
 7275 017d 02       		.uleb128 0x2
 7276 017e 17       		.uleb128 0x17
 7277 017f 00       		.byte	0
 7278 0180 00       		.byte	0
 7279 0181 1B       		.uleb128 0x1b
 7280 0182 05       		.uleb128 0x5
 7281 0183 00       		.byte	0
 7282 0184 03       		.uleb128 0x3
 7283 0185 0E       		.uleb128 0xe
 7284 0186 3A       		.uleb128 0x3a
 7285 0187 0B       		.uleb128 0xb
 7286 0188 3B       		.uleb128 0x3b
 7287 0189 05       		.uleb128 0x5
 7288 018a 49       		.uleb128 0x49
 7289 018b 13       		.uleb128 0x13
 7290 018c 02       		.uleb128 0x2
 7291 018d 17       		.uleb128 0x17
 7292 018e 00       		.byte	0
 7293 018f 00       		.byte	0
 7294 0190 1C       		.uleb128 0x1c
 7295 0191 05       		.uleb128 0x5
 7296 0192 00       		.byte	0
 7297 0193 03       		.uleb128 0x3
 7298 0194 0E       		.uleb128 0xe
 7299 0195 3A       		.uleb128 0x3a
 7300 0196 0B       		.uleb128 0xb
 7301 0197 3B       		.uleb128 0x3b
 7302 0198 05       		.uleb128 0x5
 7303 0199 49       		.uleb128 0x49
 7304 019a 13       		.uleb128 0x13
ARM GAS  C:\Users\cronos\AppData\Local\Temp\ccrG4qtQ.s 			page 139


 7305 019b 02       		.uleb128 0x2
 7306 019c 18       		.uleb128 0x18
 7307 019d 00       		.byte	0
 7308 019e 00       		.byte	0
 7309 019f 1D       		.uleb128 0x1d
 7310 01a0 34       		.uleb128 0x34
 7311 01a1 00       		.byte	0
 7312 01a2 03       		.uleb128 0x3
 7313 01a3 0E       		.uleb128 0xe
 7314 01a4 3A       		.uleb128 0x3a
 7315 01a5 0B       		.uleb128 0xb
 7316 01a6 3B       		.uleb128 0x3b
 7317 01a7 05       		.uleb128 0x5
 7318 01a8 49       		.uleb128 0x49
 7319 01a9 13       		.uleb128 0x13
 7320 01aa 02       		.uleb128 0x2
 7321 01ab 18       		.uleb128 0x18
 7322 01ac 00       		.byte	0
 7323 01ad 00       		.byte	0
 7324 01ae 1E       		.uleb128 0x1e
 7325 01af 34       		.uleb128 0x34
 7326 01b0 00       		.byte	0
 7327 01b1 03       		.uleb128 0x3
 7328 01b2 08       		.uleb128 0x8
 7329 01b3 3A       		.uleb128 0x3a
 7330 01b4 0B       		.uleb128 0xb
 7331 01b5 3B       		.uleb128 0x3b
 7332 01b6 05       		.uleb128 0x5
 7333 01b7 49       		.uleb128 0x49
 7334 01b8 13       		.uleb128 0x13
 7335 01b9 02       		.uleb128 0x2
 7336 01ba 18       		.uleb128 0x18
 7337 01bb 00       		.byte	0
 7338 01bc 00       		.byte	0
 7339 01bd 1F       		.uleb128 0x1f
 7340 01be 2E       		.uleb128 0x2e
 7341 01bf 01       		.byte	0x1
 7342 01c0 3F       		.uleb128 0x3f
 7343 01c1 19       		.uleb128 0x19
 7344 01c2 03       		.uleb128 0x3
 7345 01c3 0E       		.uleb128 0xe
 7346 01c4 3A       		.uleb128 0x3a
 7347 01c5 0B       		.uleb128 0xb
 7348 01c6 3B       		.uleb128 0x3b
 7349 01c7 05       		.uleb128 0x5
 7350 01c8 49       		.uleb128 0x49
 7351 01c9 13       		.uleb128 0x13
 7352 01ca 11       		.uleb128 0x11
 7353 01cb 01       		.uleb128 0x1
 7354 01cc 12       		.uleb128 0x12
 7355 01cd 06       		.uleb128 0x6
 7356 01ce 40       		.uleb128 0x40
 7357 01cf 18       		.uleb128 0x18
 7358 01d0 9742     		.uleb128 0x2117
 7359 01d2 19       		.uleb128 0x19
 7360 01d3 01       		.uleb128 0x1
 7361 01d4 13       		.uleb128 0x13
ARM GAS  C:\Users\cronos\AppData\Local\Temp\ccrG4qtQ.s 			page 140


 7362 01d5 00       		.byte	0
 7363 01d6 00       		.byte	0
 7364 01d7 20       		.uleb128 0x20
 7365 01d8 34       		.uleb128 0x34
 7366 01d9 00       		.byte	0
 7367 01da 03       		.uleb128 0x3
 7368 01db 08       		.uleb128 0x8
 7369 01dc 3A       		.uleb128 0x3a
 7370 01dd 0B       		.uleb128 0xb
 7371 01de 3B       		.uleb128 0x3b
 7372 01df 05       		.uleb128 0x5
 7373 01e0 49       		.uleb128 0x49
 7374 01e1 13       		.uleb128 0x13
 7375 01e2 02       		.uleb128 0x2
 7376 01e3 17       		.uleb128 0x17
 7377 01e4 00       		.byte	0
 7378 01e5 00       		.byte	0
 7379 01e6 21       		.uleb128 0x21
 7380 01e7 2E       		.uleb128 0x2e
 7381 01e8 00       		.byte	0
 7382 01e9 3F       		.uleb128 0x3f
 7383 01ea 19       		.uleb128 0x19
 7384 01eb 3C       		.uleb128 0x3c
 7385 01ec 19       		.uleb128 0x19
 7386 01ed 6E       		.uleb128 0x6e
 7387 01ee 0E       		.uleb128 0xe
 7388 01ef 03       		.uleb128 0x3
 7389 01f0 0E       		.uleb128 0xe
 7390 01f1 3A       		.uleb128 0x3a
 7391 01f2 0B       		.uleb128 0xb
 7392 01f3 3B       		.uleb128 0x3b
 7393 01f4 0B       		.uleb128 0xb
 7394 01f5 00       		.byte	0
 7395 01f6 00       		.byte	0
 7396 01f7 22       		.uleb128 0x22
 7397 01f8 2E       		.uleb128 0x2e
 7398 01f9 00       		.byte	0
 7399 01fa 3F       		.uleb128 0x3f
 7400 01fb 19       		.uleb128 0x19
 7401 01fc 3C       		.uleb128 0x3c
 7402 01fd 19       		.uleb128 0x19
 7403 01fe 6E       		.uleb128 0x6e
 7404 01ff 0E       		.uleb128 0xe
 7405 0200 03       		.uleb128 0x3
 7406 0201 0E       		.uleb128 0xe
 7407 0202 00       		.byte	0
 7408 0203 00       		.byte	0
 7409 0204 00       		.byte	0
 7410              		.section	.debug_loc,"",%progbits
 7411              	.Ldebug_loc0:
 7412              	.LLST0:
 7413 0000 00000000 		.4byte	.LVL0
 7414 0004 13000000 		.4byte	.LVL2-1
 7415 0008 0100     		.2byte	0x1
 7416 000a 50       		.byte	0x50
 7417 000b 13000000 		.4byte	.LVL2-1
 7418 000f 28010000 		.4byte	.LFE0
ARM GAS  C:\Users\cronos\AppData\Local\Temp\ccrG4qtQ.s 			page 141


 7419 0013 0400     		.2byte	0x4
 7420 0015 F3       		.byte	0xf3
 7421 0016 01       		.uleb128 0x1
 7422 0017 50       		.byte	0x50
 7423 0018 9F       		.byte	0x9f
 7424 0019 00000000 		.4byte	0
 7425 001d 00000000 		.4byte	0
 7426              	.LLST1:
 7427 0021 00000000 		.4byte	.LVL0
 7428 0025 13000000 		.4byte	.LVL2-1
 7429 0029 0100     		.2byte	0x1
 7430 002b 51       		.byte	0x51
 7431 002c 13000000 		.4byte	.LVL2-1
 7432 0030 28010000 		.4byte	.LFE0
 7433 0034 0400     		.2byte	0x4
 7434 0036 F3       		.byte	0xf3
 7435 0037 01       		.uleb128 0x1
 7436 0038 51       		.byte	0x51
 7437 0039 9F       		.byte	0x9f
 7438 003a 00000000 		.4byte	0
 7439 003e 00000000 		.4byte	0
 7440              	.LLST2:
 7441 0042 00000000 		.4byte	.LVL0
 7442 0046 13000000 		.4byte	.LVL2-1
 7443 004a 0100     		.2byte	0x1
 7444 004c 52       		.byte	0x52
 7445 004d 13000000 		.4byte	.LVL2-1
 7446 0051 BA000000 		.4byte	.LVL43
 7447 0055 0100     		.2byte	0x1
 7448 0057 57       		.byte	0x57
 7449 0058 BA000000 		.4byte	.LVL43
 7450 005c 28010000 		.4byte	.LFE0
 7451 0060 0400     		.2byte	0x4
 7452 0062 F3       		.byte	0xf3
 7453 0063 01       		.uleb128 0x1
 7454 0064 52       		.byte	0x52
 7455 0065 9F       		.byte	0x9f
 7456 0066 00000000 		.4byte	0
 7457 006a 00000000 		.4byte	0
 7458              	.LLST3:
 7459 006e 00000000 		.4byte	.LVL0
 7460 0072 13000000 		.4byte	.LVL2-1
 7461 0076 0100     		.2byte	0x1
 7462 0078 53       		.byte	0x53
 7463 0079 13000000 		.4byte	.LVL2-1
 7464 007d C8000000 		.4byte	.LVL44
 7465 0081 0100     		.2byte	0x1
 7466 0083 58       		.byte	0x58
 7467 0084 C8000000 		.4byte	.LVL44
 7468 0088 28010000 		.4byte	.LFE0
 7469 008c 0400     		.2byte	0x4
 7470 008e F3       		.byte	0xf3
 7471 008f 01       		.uleb128 0x1
 7472 0090 53       		.byte	0x53
 7473 0091 9F       		.byte	0x9f
 7474 0092 00000000 		.4byte	0
 7475 0096 00000000 		.4byte	0
ARM GAS  C:\Users\cronos\AppData\Local\Temp\ccrG4qtQ.s 			page 142


 7476              	.LLST4:
 7477 009a 00000000 		.4byte	.LVL0
 7478 009e 0A010000 		.4byte	.LVL56
 7479 00a2 0200     		.2byte	0x2
 7480 00a4 91       		.byte	0x91
 7481 00a5 00       		.sleb128 0
 7482 00a6 0A010000 		.4byte	.LVL56
 7483 00aa 28010000 		.4byte	.LFE0
 7484 00ae 0200     		.2byte	0x2
 7485 00b0 7D       		.byte	0x7d
 7486 00b1 00       		.sleb128 0
 7487 00b2 00000000 		.4byte	0
 7488 00b6 00000000 		.4byte	0
 7489              	.LLST5:
 7490 00ba 10000000 		.4byte	.LVL1
 7491 00be 22000000 		.4byte	.LVL5
 7492 00c2 0200     		.2byte	0x2
 7493 00c4 30       		.byte	0x30
 7494 00c5 9F       		.byte	0x9f
 7495 00c6 22000000 		.4byte	.LVL5
 7496 00ca 62000000 		.4byte	.LVL19
 7497 00ce 0100     		.2byte	0x1
 7498 00d0 55       		.byte	0x55
 7499 00d1 CC000000 		.4byte	.LVL45
 7500 00d5 D8000000 		.4byte	.LVL49
 7501 00d9 0100     		.2byte	0x1
 7502 00db 58       		.byte	0x58
 7503 00dc DC000000 		.4byte	.LVL50
 7504 00e0 FA000000 		.4byte	.LVL53
 7505 00e4 0100     		.2byte	0x1
 7506 00e6 58       		.byte	0x58
 7507 00e7 FA000000 		.4byte	.LVL53
 7508 00eb 03010000 		.4byte	.LVL55-1
 7509 00ef 0600     		.2byte	0x6
 7510 00f1 70       		.byte	0x70
 7511 00f2 00       		.sleb128 0
 7512 00f3 78       		.byte	0x78
 7513 00f4 00       		.sleb128 0
 7514 00f5 27       		.byte	0x27
 7515 00f6 9F       		.byte	0x9f
 7516 00f7 00000000 		.4byte	0
 7517 00fb 00000000 		.4byte	0
 7518              	.LLST6:
 7519 00ff 10000000 		.4byte	.LVL1
 7520 0103 62000000 		.4byte	.LVL19
 7521 0107 0200     		.2byte	0x2
 7522 0109 30       		.byte	0x30
 7523 010a 9F       		.byte	0x9f
 7524 010b 62000000 		.4byte	.LVL19
 7525 010f 78000000 		.4byte	.LVL20
 7526 0113 0100     		.2byte	0x1
 7527 0115 50       		.byte	0x50
 7528 0116 7E000000 		.4byte	.LVL22
 7529 011a 80000000 		.4byte	.LVL23
 7530 011e 0100     		.2byte	0x1
 7531 0120 50       		.byte	0x50
 7532 0121 86000000 		.4byte	.LVL25
ARM GAS  C:\Users\cronos\AppData\Local\Temp\ccrG4qtQ.s 			page 143


 7533 0125 88000000 		.4byte	.LVL26
 7534 0129 0100     		.2byte	0x1
 7535 012b 50       		.byte	0x50
 7536 012c 8E000000 		.4byte	.LVL28
 7537 0130 90000000 		.4byte	.LVL29
 7538 0134 0100     		.2byte	0x1
 7539 0136 50       		.byte	0x50
 7540 0137 96000000 		.4byte	.LVL31
 7541 013b 98000000 		.4byte	.LVL32
 7542 013f 0100     		.2byte	0x1
 7543 0141 50       		.byte	0x50
 7544 0142 9E000000 		.4byte	.LVL34
 7545 0146 A0000000 		.4byte	.LVL35
 7546 014a 0100     		.2byte	0x1
 7547 014c 50       		.byte	0x50
 7548 014d A6000000 		.4byte	.LVL37
 7549 0151 AA000000 		.4byte	.LVL38
 7550 0155 0100     		.2byte	0x1
 7551 0157 50       		.byte	0x50
 7552 0158 B4000000 		.4byte	.LVL41
 7553 015c B7000000 		.4byte	.LVL42-1
 7554 0160 0100     		.2byte	0x1
 7555 0162 50       		.byte	0x50
 7556 0163 00010000 		.4byte	.LVL54
 7557 0167 04010000 		.4byte	.LVL55
 7558 016b 0100     		.2byte	0x1
 7559 016d 55       		.byte	0x55
 7560 016e 00000000 		.4byte	0
 7561 0172 00000000 		.4byte	0
 7562              	.LLST7:
 7563 0176 3C000000 		.4byte	.LVL11
 7564 017a 46000000 		.4byte	.LVL12
 7565 017e 0200     		.2byte	0x2
 7566 0180 30       		.byte	0x30
 7567 0181 9F       		.byte	0x9f
 7568 0182 46000000 		.4byte	.LVL12
 7569 0186 48000000 		.4byte	.LVL13
 7570 018a 0100     		.2byte	0x1
 7571 018c 56       		.byte	0x56
 7572 018d 48000000 		.4byte	.LVL13
 7573 0191 4A000000 		.4byte	.LVL14
 7574 0195 0200     		.2byte	0x2
 7575 0197 30       		.byte	0x30
 7576 0198 9F       		.byte	0x9f
 7577 0199 4A000000 		.4byte	.LVL14
 7578 019d 0A010000 		.4byte	.LVL56
 7579 01a1 0100     		.2byte	0x1
 7580 01a3 56       		.byte	0x56
 7581 01a4 00000000 		.4byte	0
 7582 01a8 00000000 		.4byte	0
 7583              	.LLST8:
 7584 01ac D4000000 		.4byte	.LVL48
 7585 01b0 EE000000 		.4byte	.LVL52
 7586 01b4 0100     		.2byte	0x1
 7587 01b6 50       		.byte	0x50
 7588 01b7 00000000 		.4byte	0
 7589 01bb 00000000 		.4byte	0
ARM GAS  C:\Users\cronos\AppData\Local\Temp\ccrG4qtQ.s 			page 144


 7590              	.LLST9:
 7591 01bf BA000000 		.4byte	.LVL43
 7592 01c3 D0000000 		.4byte	.LVL47
 7593 01c7 0100     		.2byte	0x1
 7594 01c9 50       		.byte	0x50
 7595 01ca 00000000 		.4byte	0
 7596 01ce 00000000 		.4byte	0
 7597              	.LLST10:
 7598 01d2 FA000000 		.4byte	.LVL53
 7599 01d6 03010000 		.4byte	.LVL55-1
 7600 01da 0100     		.2byte	0x1
 7601 01dc 50       		.byte	0x50
 7602 01dd 00000000 		.4byte	0
 7603 01e1 00000000 		.4byte	0
 7604              	.LLST11:
 7605 01e5 22000000 		.4byte	.LVL5
 7606 01e9 26000000 		.4byte	.LVL6
 7607 01ed 0200     		.2byte	0x2
 7608 01ef 30       		.byte	0x30
 7609 01f0 9F       		.byte	0x9f
 7610 01f1 26000000 		.4byte	.LVL6
 7611 01f5 30000000 		.4byte	.LVL9
 7612 01f9 0100     		.2byte	0x1
 7613 01fb 54       		.byte	0x54
 7614 01fc 32000000 		.4byte	.LVL10
 7615 0200 CE000000 		.4byte	.LVL46
 7616 0204 0100     		.2byte	0x1
 7617 0206 54       		.byte	0x54
 7618 0207 00000000 		.4byte	0
 7619 020b 00000000 		.4byte	0
 7620              	.LLST12:
 7621 020f CC000000 		.4byte	.LVL45
 7622 0213 D0000000 		.4byte	.LVL47
 7623 0217 0200     		.2byte	0x2
 7624 0219 30       		.byte	0x30
 7625 021a 9F       		.byte	0x9f
 7626 021b D0000000 		.4byte	.LVL47
 7627 021f EC000000 		.4byte	.LVL51
 7628 0223 0100     		.2byte	0x1
 7629 0225 54       		.byte	0x54
 7630 0226 EE000000 		.4byte	.LVL52
 7631 022a 04010000 		.4byte	.LVL55
 7632 022e 0100     		.2byte	0x1
 7633 0230 54       		.byte	0x54
 7634 0231 00000000 		.4byte	0
 7635 0235 00000000 		.4byte	0
 7636              	.LLST13:
 7637 0239 00000000 		.4byte	.LVL61
 7638 023d 12000000 		.4byte	.LVL64
 7639 0241 0100     		.2byte	0x1
 7640 0243 50       		.byte	0x50
 7641 0244 12000000 		.4byte	.LVL64
 7642 0248 15000000 		.4byte	.LVL65-1
 7643 024c 0200     		.2byte	0x2
 7644 024e 73       		.byte	0x73
 7645 024f 00       		.sleb128 0
 7646 0250 15000000 		.4byte	.LVL65-1
ARM GAS  C:\Users\cronos\AppData\Local\Temp\ccrG4qtQ.s 			page 145


 7647 0254 28000000 		.4byte	.LFE5
 7648 0258 0400     		.2byte	0x4
 7649 025a F3       		.byte	0xf3
 7650 025b 01       		.uleb128 0x1
 7651 025c 50       		.byte	0x50
 7652 025d 9F       		.byte	0x9f
 7653 025e 00000000 		.4byte	0
 7654 0262 00000000 		.4byte	0
 7655              	.LLST14:
 7656 0266 00000000 		.4byte	.LVL61
 7657 026a 10000000 		.4byte	.LVL63
 7658 026e 0100     		.2byte	0x1
 7659 0270 51       		.byte	0x51
 7660 0271 10000000 		.4byte	.LVL63
 7661 0275 15000000 		.4byte	.LVL65-1
 7662 0279 0100     		.2byte	0x1
 7663 027b 52       		.byte	0x52
 7664 027c 15000000 		.4byte	.LVL65-1
 7665 0280 28000000 		.4byte	.LFE5
 7666 0284 0400     		.2byte	0x4
 7667 0286 F3       		.byte	0xf3
 7668 0287 01       		.uleb128 0x1
 7669 0288 51       		.byte	0x51
 7670 0289 9F       		.byte	0x9f
 7671 028a 00000000 		.4byte	0
 7672 028e 00000000 		.4byte	0
 7673              	.LLST15:
 7674 0292 00000000 		.4byte	.LVL61
 7675 0296 0E000000 		.4byte	.LVL62
 7676 029a 0100     		.2byte	0x1
 7677 029c 52       		.byte	0x52
 7678 029d 0E000000 		.4byte	.LVL62
 7679 02a1 15000000 		.4byte	.LVL65-1
 7680 02a5 0200     		.2byte	0x2
 7681 02a7 7D       		.byte	0x7d
 7682 02a8 00       		.sleb128 0
 7683 02a9 15000000 		.4byte	.LVL65-1
 7684 02ad 28000000 		.4byte	.LFE5
 7685 02b1 0400     		.2byte	0x4
 7686 02b3 F3       		.byte	0xf3
 7687 02b4 01       		.uleb128 0x1
 7688 02b5 52       		.byte	0x52
 7689 02b6 9F       		.byte	0x9f
 7690 02b7 00000000 		.4byte	0
 7691 02bb 00000000 		.4byte	0
 7692              	.LLST16:
 7693 02bf 00000000 		.4byte	.LVL66
 7694 02c3 20000000 		.4byte	.LVL67
 7695 02c7 0100     		.2byte	0x1
 7696 02c9 50       		.byte	0x50
 7697 02ca 20000000 		.4byte	.LVL67
 7698 02ce 23000000 		.4byte	.LVL68-1
 7699 02d2 0200     		.2byte	0x2
 7700 02d4 72       		.byte	0x72
 7701 02d5 00       		.sleb128 0
 7702 02d6 23000000 		.4byte	.LVL68-1
 7703 02da 38000000 		.4byte	.LFE6
ARM GAS  C:\Users\cronos\AppData\Local\Temp\ccrG4qtQ.s 			page 146


 7704 02de 0400     		.2byte	0x4
 7705 02e0 F3       		.byte	0xf3
 7706 02e1 01       		.uleb128 0x1
 7707 02e2 50       		.byte	0x50
 7708 02e3 9F       		.byte	0x9f
 7709 02e4 00000000 		.4byte	0
 7710 02e8 00000000 		.4byte	0
 7711              	.LLST17:
 7712 02ec 00000000 		.4byte	.LVL69
 7713 02f0 1E000000 		.4byte	.LVL73
 7714 02f4 0100     		.2byte	0x1
 7715 02f6 50       		.byte	0x50
 7716 02f7 1E000000 		.4byte	.LVL73
 7717 02fb 6E000000 		.4byte	.LFE7
 7718 02ff 0400     		.2byte	0x4
 7719 0301 F3       		.byte	0xf3
 7720 0302 01       		.uleb128 0x1
 7721 0303 50       		.byte	0x50
 7722 0304 9F       		.byte	0x9f
 7723 0305 00000000 		.4byte	0
 7724 0309 00000000 		.4byte	0
 7725              	.LLST18:
 7726 030d 00000000 		.4byte	.LVL69
 7727 0311 1C000000 		.4byte	.LVL72
 7728 0315 0100     		.2byte	0x1
 7729 0317 51       		.byte	0x51
 7730 0318 1C000000 		.4byte	.LVL72
 7731 031c 1E000000 		.4byte	.LVL73
 7732 0320 0200     		.2byte	0x2
 7733 0322 91       		.byte	0x91
 7734 0323 65       		.sleb128 -27
 7735 0324 1E000000 		.4byte	.LVL73
 7736 0328 6E000000 		.4byte	.LFE7
 7737 032c 0400     		.2byte	0x4
 7738 032e F3       		.byte	0xf3
 7739 032f 01       		.uleb128 0x1
 7740 0330 51       		.byte	0x51
 7741 0331 9F       		.byte	0x9f
 7742 0332 00000000 		.4byte	0
 7743 0336 00000000 		.4byte	0
 7744              	.LLST19:
 7745 033a 00000000 		.4byte	.LVL69
 7746 033e 38000000 		.4byte	.LVL76
 7747 0342 0100     		.2byte	0x1
 7748 0344 52       		.byte	0x52
 7749 0345 38000000 		.4byte	.LVL76
 7750 0349 6E000000 		.4byte	.LFE7
 7751 034d 0400     		.2byte	0x4
 7752 034f F3       		.byte	0xf3
 7753 0350 01       		.uleb128 0x1
 7754 0351 52       		.byte	0x52
 7755 0352 9F       		.byte	0x9f
 7756 0353 00000000 		.4byte	0
 7757 0357 00000000 		.4byte	0
 7758              	.LLST20:
 7759 035b 00000000 		.4byte	.LVL69
 7760 035f 3A000000 		.4byte	.LVL77
ARM GAS  C:\Users\cronos\AppData\Local\Temp\ccrG4qtQ.s 			page 147


 7761 0363 0100     		.2byte	0x1
 7762 0365 53       		.byte	0x53
 7763 0366 3A000000 		.4byte	.LVL77
 7764 036a 6E000000 		.4byte	.LFE7
 7765 036e 0400     		.2byte	0x4
 7766 0370 F3       		.byte	0xf3
 7767 0371 01       		.uleb128 0x1
 7768 0372 53       		.byte	0x53
 7769 0373 9F       		.byte	0x9f
 7770 0374 00000000 		.4byte	0
 7771 0378 00000000 		.4byte	0
 7772              	.LLST21:
 7773 037c 00000000 		.4byte	.LVL69
 7774 0380 46000000 		.4byte	.LVL80
 7775 0384 0200     		.2byte	0x2
 7776 0386 91       		.byte	0x91
 7777 0387 00       		.sleb128 0
 7778 0388 46000000 		.4byte	.LVL80
 7779 038c 48000000 		.4byte	.LVL81
 7780 0390 0200     		.2byte	0x2
 7781 0392 71       		.byte	0x71
 7782 0393 00       		.sleb128 0
 7783 0394 48000000 		.4byte	.LVL81
 7784 0398 6E000000 		.4byte	.LFE7
 7785 039c 0200     		.2byte	0x2
 7786 039e 91       		.byte	0x91
 7787 039f 00       		.sleb128 0
 7788 03a0 00000000 		.4byte	0
 7789 03a4 00000000 		.4byte	0
 7790              	.LLST22:
 7791 03a8 12000000 		.4byte	.LVL70
 7792 03ac 5E000000 		.4byte	.LVL86
 7793 03b0 0200     		.2byte	0x2
 7794 03b2 3A       		.byte	0x3a
 7795 03b3 9F       		.byte	0x9f
 7796 03b4 5E000000 		.4byte	.LVL86
 7797 03b8 69000000 		.4byte	.LVL87-1
 7798 03bc 0100     		.2byte	0x1
 7799 03be 51       		.byte	0x51
 7800 03bf 00000000 		.4byte	0
 7801 03c3 00000000 		.4byte	0
 7802              	.LLST23:
 7803 03c7 1A000000 		.4byte	.LVL71
 7804 03cb 1E000000 		.4byte	.LVL73
 7805 03cf 0200     		.2byte	0x2
 7806 03d1 30       		.byte	0x30
 7807 03d2 9F       		.byte	0x9f
 7808 03d3 1E000000 		.4byte	.LVL73
 7809 03d7 2E000000 		.4byte	.LVL74
 7810 03db 0100     		.2byte	0x1
 7811 03dd 51       		.byte	0x51
 7812 03de 30000000 		.4byte	.LVL75
 7813 03e2 3E000000 		.4byte	.LVL78
 7814 03e6 0100     		.2byte	0x1
 7815 03e8 51       		.byte	0x51
 7816 03e9 56000000 		.4byte	.LVL84
 7817 03ed 58000000 		.4byte	.LVL85
ARM GAS  C:\Users\cronos\AppData\Local\Temp\ccrG4qtQ.s 			page 148


 7818 03f1 0100     		.2byte	0x1
 7819 03f3 51       		.byte	0x51
 7820 03f4 00000000 		.4byte	0
 7821 03f8 00000000 		.4byte	0
 7822              	.LLST24:
 7823 03fc 40000000 		.4byte	.LVL79
 7824 0400 52000000 		.4byte	.LVL82
 7825 0404 0100     		.2byte	0x1
 7826 0406 53       		.byte	0x53
 7827 0407 54000000 		.4byte	.LVL83
 7828 040b 56000000 		.4byte	.LVL84
 7829 040f 0100     		.2byte	0x1
 7830 0411 53       		.byte	0x53
 7831 0412 58000000 		.4byte	.LVL85
 7832 0416 5E000000 		.4byte	.LVL86
 7833 041a 0100     		.2byte	0x1
 7834 041c 53       		.byte	0x53
 7835 041d 00000000 		.4byte	0
 7836 0421 00000000 		.4byte	0
 7837              	.LLST25:
 7838 0425 00000000 		.4byte	.LVL88
 7839 0429 17000000 		.4byte	.LVL91-1
 7840 042d 0100     		.2byte	0x1
 7841 042f 50       		.byte	0x50
 7842 0430 17000000 		.4byte	.LVL91-1
 7843 0434 1C000000 		.4byte	.LFE8
 7844 0438 0400     		.2byte	0x4
 7845 043a F3       		.byte	0xf3
 7846 043b 01       		.uleb128 0x1
 7847 043c 50       		.byte	0x50
 7848 043d 9F       		.byte	0x9f
 7849 043e 00000000 		.4byte	0
 7850 0442 00000000 		.4byte	0
 7851              	.LLST26:
 7852 0446 00000000 		.4byte	.LVL88
 7853 044a 14000000 		.4byte	.LVL90
 7854 044e 0100     		.2byte	0x1
 7855 0450 51       		.byte	0x51
 7856 0451 14000000 		.4byte	.LVL90
 7857 0455 17000000 		.4byte	.LVL91-1
 7858 0459 0200     		.2byte	0x2
 7859 045b 73       		.byte	0x73
 7860 045c 00       		.sleb128 0
 7861 045d 17000000 		.4byte	.LVL91-1
 7862 0461 1C000000 		.4byte	.LFE8
 7863 0465 0200     		.2byte	0x2
 7864 0467 74       		.byte	0x74
 7865 0468 00       		.sleb128 0
 7866 0469 00000000 		.4byte	0
 7867 046d 00000000 		.4byte	0
 7868              	.LLST27:
 7869 0471 00000000 		.4byte	.LVL88
 7870 0475 12000000 		.4byte	.LVL89
 7871 0479 0600     		.2byte	0x6
 7872 047b 52       		.byte	0x52
 7873 047c 93       		.byte	0x93
 7874 047d 04       		.uleb128 0x4
ARM GAS  C:\Users\cronos\AppData\Local\Temp\ccrG4qtQ.s 			page 149


 7875 047e 53       		.byte	0x53
 7876 047f 93       		.byte	0x93
 7877 0480 04       		.uleb128 0x4
 7878 0481 12000000 		.4byte	.LVL89
 7879 0485 17000000 		.4byte	.LVL91-1
 7880 0489 0200     		.2byte	0x2
 7881 048b 7D       		.byte	0x7d
 7882 048c 00       		.sleb128 0
 7883 048d 17000000 		.4byte	.LVL91-1
 7884 0491 1C000000 		.4byte	.LFE8
 7885 0495 0600     		.2byte	0x6
 7886 0497 F3       		.byte	0xf3
 7887 0498 03       		.uleb128 0x3
 7888 0499 F5       		.byte	0xf5
 7889 049a 02       		.uleb128 0x2
 7890 049b 25       		.uleb128 0x25
 7891 049c 9F       		.byte	0x9f
 7892 049d 00000000 		.4byte	0
 7893 04a1 00000000 		.4byte	0
 7894              	.LLST28:
 7895 04a5 00000000 		.4byte	.LVL92
 7896 04a9 17000000 		.4byte	.LVL95-1
 7897 04ad 0100     		.2byte	0x1
 7898 04af 50       		.byte	0x50
 7899 04b0 17000000 		.4byte	.LVL95-1
 7900 04b4 1C000000 		.4byte	.LFE9
 7901 04b8 0400     		.2byte	0x4
 7902 04ba F3       		.byte	0xf3
 7903 04bb 01       		.uleb128 0x1
 7904 04bc 50       		.byte	0x50
 7905 04bd 9F       		.byte	0x9f
 7906 04be 00000000 		.4byte	0
 7907 04c2 00000000 		.4byte	0
 7908              	.LLST29:
 7909 04c6 00000000 		.4byte	.LVL92
 7910 04ca 14000000 		.4byte	.LVL94
 7911 04ce 0100     		.2byte	0x1
 7912 04d0 51       		.byte	0x51
 7913 04d1 14000000 		.4byte	.LVL94
 7914 04d5 17000000 		.4byte	.LVL95-1
 7915 04d9 0200     		.2byte	0x2
 7916 04db 73       		.byte	0x73
 7917 04dc 00       		.sleb128 0
 7918 04dd 17000000 		.4byte	.LVL95-1
 7919 04e1 1C000000 		.4byte	.LFE9
 7920 04e5 0200     		.2byte	0x2
 7921 04e7 74       		.byte	0x74
 7922 04e8 00       		.sleb128 0
 7923 04e9 00000000 		.4byte	0
 7924 04ed 00000000 		.4byte	0
 7925              	.LLST30:
 7926 04f1 00000000 		.4byte	.LVL92
 7927 04f5 12000000 		.4byte	.LVL93
 7928 04f9 0600     		.2byte	0x6
 7929 04fb 52       		.byte	0x52
 7930 04fc 93       		.byte	0x93
 7931 04fd 04       		.uleb128 0x4
ARM GAS  C:\Users\cronos\AppData\Local\Temp\ccrG4qtQ.s 			page 150


 7932 04fe 53       		.byte	0x53
 7933 04ff 93       		.byte	0x93
 7934 0500 04       		.uleb128 0x4
 7935 0501 12000000 		.4byte	.LVL93
 7936 0505 17000000 		.4byte	.LVL95-1
 7937 0509 0200     		.2byte	0x2
 7938 050b 7D       		.byte	0x7d
 7939 050c 00       		.sleb128 0
 7940 050d 17000000 		.4byte	.LVL95-1
 7941 0511 1C000000 		.4byte	.LFE9
 7942 0515 0600     		.2byte	0x6
 7943 0517 F3       		.byte	0xf3
 7944 0518 03       		.uleb128 0x3
 7945 0519 F5       		.byte	0xf5
 7946 051a 02       		.uleb128 0x2
 7947 051b 25       		.uleb128 0x25
 7948 051c 9F       		.byte	0x9f
 7949 051d 00000000 		.4byte	0
 7950 0521 00000000 		.4byte	0
 7951              	.LLST31:
 7952 0525 00000000 		.4byte	.LVL96
 7953 0529 1B000000 		.4byte	.LVL99-1
 7954 052d 0100     		.2byte	0x1
 7955 052f 50       		.byte	0x50
 7956 0530 1B000000 		.4byte	.LVL99-1
 7957 0534 22000000 		.4byte	.LFE10
 7958 0538 0400     		.2byte	0x4
 7959 053a F3       		.byte	0xf3
 7960 053b 01       		.uleb128 0x1
 7961 053c 50       		.byte	0x50
 7962 053d 9F       		.byte	0x9f
 7963 053e 00000000 		.4byte	0
 7964 0542 00000000 		.4byte	0
 7965              	.LLST32:
 7966 0546 00000000 		.4byte	.LVL96
 7967 054a 0E000000 		.4byte	.LVL97
 7968 054e 0600     		.2byte	0x6
 7969 0550 52       		.byte	0x52
 7970 0551 93       		.byte	0x93
 7971 0552 04       		.uleb128 0x4
 7972 0553 53       		.byte	0x53
 7973 0554 93       		.byte	0x93
 7974 0555 04       		.uleb128 0x4
 7975 0556 0E000000 		.4byte	.LVL97
 7976 055a 18000000 		.4byte	.LVL98
 7977 055e 0200     		.2byte	0x2
 7978 0560 71       		.byte	0x71
 7979 0561 00       		.sleb128 0
 7980 0562 18000000 		.4byte	.LVL98
 7981 0566 1B000000 		.4byte	.LVL99-1
 7982 056a 0200     		.2byte	0x2
 7983 056c 73       		.byte	0x73
 7984 056d 00       		.sleb128 0
 7985 056e 1B000000 		.4byte	.LVL99-1
 7986 0572 22000000 		.4byte	.LFE10
 7987 0576 0200     		.2byte	0x2
 7988 0578 91       		.byte	0x91
ARM GAS  C:\Users\cronos\AppData\Local\Temp\ccrG4qtQ.s 			page 151


 7989 0579 70       		.sleb128 -16
 7990 057a 00000000 		.4byte	0
 7991 057e 00000000 		.4byte	0
 7992              	.LLST33:
 7993 0582 00000000 		.4byte	.LVL100
 7994 0586 1B000000 		.4byte	.LVL103-1
 7995 058a 0100     		.2byte	0x1
 7996 058c 50       		.byte	0x50
 7997 058d 1B000000 		.4byte	.LVL103-1
 7998 0591 22000000 		.4byte	.LFE11
 7999 0595 0400     		.2byte	0x4
 8000 0597 F3       		.byte	0xf3
 8001 0598 01       		.uleb128 0x1
 8002 0599 50       		.byte	0x50
 8003 059a 9F       		.byte	0x9f
 8004 059b 00000000 		.4byte	0
 8005 059f 00000000 		.4byte	0
 8006              	.LLST34:
 8007 05a3 00000000 		.4byte	.LVL100
 8008 05a7 0E000000 		.4byte	.LVL101
 8009 05ab 0600     		.2byte	0x6
 8010 05ad 52       		.byte	0x52
 8011 05ae 93       		.byte	0x93
 8012 05af 04       		.uleb128 0x4
 8013 05b0 53       		.byte	0x53
 8014 05b1 93       		.byte	0x93
 8015 05b2 04       		.uleb128 0x4
 8016 05b3 0E000000 		.4byte	.LVL101
 8017 05b7 18000000 		.4byte	.LVL102
 8018 05bb 0200     		.2byte	0x2
 8019 05bd 71       		.byte	0x71
 8020 05be 00       		.sleb128 0
 8021 05bf 18000000 		.4byte	.LVL102
 8022 05c3 1B000000 		.4byte	.LVL103-1
 8023 05c7 0200     		.2byte	0x2
 8024 05c9 73       		.byte	0x73
 8025 05ca 00       		.sleb128 0
 8026 05cb 1B000000 		.4byte	.LVL103-1
 8027 05cf 22000000 		.4byte	.LFE11
 8028 05d3 0200     		.2byte	0x2
 8029 05d5 91       		.byte	0x91
 8030 05d6 70       		.sleb128 -16
 8031 05d7 00000000 		.4byte	0
 8032 05db 00000000 		.4byte	0
 8033              	.LLST35:
 8034 05df 00000000 		.4byte	.LVL104
 8035 05e3 17000000 		.4byte	.LVL107-1
 8036 05e7 0100     		.2byte	0x1
 8037 05e9 50       		.byte	0x50
 8038 05ea 17000000 		.4byte	.LVL107-1
 8039 05ee 1C000000 		.4byte	.LFE12
 8040 05f2 0400     		.2byte	0x4
 8041 05f4 F3       		.byte	0xf3
 8042 05f5 01       		.uleb128 0x1
 8043 05f6 50       		.byte	0x50
 8044 05f7 9F       		.byte	0x9f
 8045 05f8 00000000 		.4byte	0
ARM GAS  C:\Users\cronos\AppData\Local\Temp\ccrG4qtQ.s 			page 152


 8046 05fc 00000000 		.4byte	0
 8047              	.LLST36:
 8048 0600 00000000 		.4byte	.LVL104
 8049 0604 14000000 		.4byte	.LVL106
 8050 0608 0100     		.2byte	0x1
 8051 060a 51       		.byte	0x51
 8052 060b 14000000 		.4byte	.LVL106
 8053 060f 17000000 		.4byte	.LVL107-1
 8054 0613 0200     		.2byte	0x2
 8055 0615 73       		.byte	0x73
 8056 0616 00       		.sleb128 0
 8057 0617 17000000 		.4byte	.LVL107-1
 8058 061b 1C000000 		.4byte	.LFE12
 8059 061f 0200     		.2byte	0x2
 8060 0621 74       		.byte	0x74
 8061 0622 00       		.sleb128 0
 8062 0623 00000000 		.4byte	0
 8063 0627 00000000 		.4byte	0
 8064              	.LLST37:
 8065 062b 00000000 		.4byte	.LVL104
 8066 062f 12000000 		.4byte	.LVL105
 8067 0633 0600     		.2byte	0x6
 8068 0635 52       		.byte	0x52
 8069 0636 93       		.byte	0x93
 8070 0637 04       		.uleb128 0x4
 8071 0638 53       		.byte	0x53
 8072 0639 93       		.byte	0x93
 8073 063a 04       		.uleb128 0x4
 8074 063b 12000000 		.4byte	.LVL105
 8075 063f 17000000 		.4byte	.LVL107-1
 8076 0643 0200     		.2byte	0x2
 8077 0645 7D       		.byte	0x7d
 8078 0646 00       		.sleb128 0
 8079 0647 17000000 		.4byte	.LVL107-1
 8080 064b 1C000000 		.4byte	.LFE12
 8081 064f 0600     		.2byte	0x6
 8082 0651 F3       		.byte	0xf3
 8083 0652 03       		.uleb128 0x3
 8084 0653 F5       		.byte	0xf5
 8085 0654 02       		.uleb128 0x2
 8086 0655 25       		.uleb128 0x25
 8087 0656 9F       		.byte	0x9f
 8088 0657 00000000 		.4byte	0
 8089 065b 00000000 		.4byte	0
 8090              	.LLST38:
 8091 065f 00000000 		.4byte	.LVL108
 8092 0663 1B000000 		.4byte	.LVL111-1
 8093 0667 0100     		.2byte	0x1
 8094 0669 50       		.byte	0x50
 8095 066a 1B000000 		.4byte	.LVL111-1
 8096 066e 22000000 		.4byte	.LFE13
 8097 0672 0400     		.2byte	0x4
 8098 0674 F3       		.byte	0xf3
 8099 0675 01       		.uleb128 0x1
 8100 0676 50       		.byte	0x50
 8101 0677 9F       		.byte	0x9f
 8102 0678 00000000 		.4byte	0
ARM GAS  C:\Users\cronos\AppData\Local\Temp\ccrG4qtQ.s 			page 153


 8103 067c 00000000 		.4byte	0
 8104              	.LLST39:
 8105 0680 00000000 		.4byte	.LVL108
 8106 0684 0E000000 		.4byte	.LVL109
 8107 0688 0600     		.2byte	0x6
 8108 068a 52       		.byte	0x52
 8109 068b 93       		.byte	0x93
 8110 068c 04       		.uleb128 0x4
 8111 068d 53       		.byte	0x53
 8112 068e 93       		.byte	0x93
 8113 068f 04       		.uleb128 0x4
 8114 0690 0E000000 		.4byte	.LVL109
 8115 0694 18000000 		.4byte	.LVL110
 8116 0698 0200     		.2byte	0x2
 8117 069a 71       		.byte	0x71
 8118 069b 00       		.sleb128 0
 8119 069c 18000000 		.4byte	.LVL110
 8120 06a0 1B000000 		.4byte	.LVL111-1
 8121 06a4 0200     		.2byte	0x2
 8122 06a6 73       		.byte	0x73
 8123 06a7 00       		.sleb128 0
 8124 06a8 1B000000 		.4byte	.LVL111-1
 8125 06ac 22000000 		.4byte	.LFE13
 8126 06b0 0200     		.2byte	0x2
 8127 06b2 91       		.byte	0x91
 8128 06b3 70       		.sleb128 -16
 8129 06b4 00000000 		.4byte	0
 8130 06b8 00000000 		.4byte	0
 8131              	.LLST40:
 8132 06bc 00000000 		.4byte	.LVL112
 8133 06c0 11000000 		.4byte	.LVL115-1
 8134 06c4 0100     		.2byte	0x1
 8135 06c6 50       		.byte	0x50
 8136 06c7 11000000 		.4byte	.LVL115-1
 8137 06cb 18000000 		.4byte	.LFE14
 8138 06cf 0400     		.2byte	0x4
 8139 06d1 F3       		.byte	0xf3
 8140 06d2 01       		.uleb128 0x1
 8141 06d3 50       		.byte	0x50
 8142 06d4 9F       		.byte	0x9f
 8143 06d5 00000000 		.4byte	0
 8144 06d9 00000000 		.4byte	0
 8145              	.LLST41:
 8146 06dd 00000000 		.4byte	.LVL112
 8147 06e1 0E000000 		.4byte	.LVL114
 8148 06e5 0100     		.2byte	0x1
 8149 06e7 51       		.byte	0x51
 8150 06e8 0E000000 		.4byte	.LVL114
 8151 06ec 11000000 		.4byte	.LVL115-1
 8152 06f0 0100     		.2byte	0x1
 8153 06f2 53       		.byte	0x53
 8154 06f3 11000000 		.4byte	.LVL115-1
 8155 06f7 18000000 		.4byte	.LFE14
 8156 06fb 0400     		.2byte	0x4
 8157 06fd F3       		.byte	0xf3
 8158 06fe 01       		.uleb128 0x1
 8159 06ff 51       		.byte	0x51
ARM GAS  C:\Users\cronos\AppData\Local\Temp\ccrG4qtQ.s 			page 154


 8160 0700 9F       		.byte	0x9f
 8161 0701 00000000 		.4byte	0
 8162 0705 00000000 		.4byte	0
 8163              	.LLST42:
 8164 0709 00000000 		.4byte	.LVL112
 8165 070d 0C000000 		.4byte	.LVL113
 8166 0711 0600     		.2byte	0x6
 8167 0713 52       		.byte	0x52
 8168 0714 93       		.byte	0x93
 8169 0715 04       		.uleb128 0x4
 8170 0716 53       		.byte	0x53
 8171 0717 93       		.byte	0x93
 8172 0718 04       		.uleb128 0x4
 8173 0719 0C000000 		.4byte	.LVL113
 8174 071d 11000000 		.4byte	.LVL115-1
 8175 0721 0200     		.2byte	0x2
 8176 0723 7D       		.byte	0x7d
 8177 0724 00       		.sleb128 0
 8178 0725 11000000 		.4byte	.LVL115-1
 8179 0729 18000000 		.4byte	.LFE14
 8180 072d 0600     		.2byte	0x6
 8181 072f F3       		.byte	0xf3
 8182 0730 03       		.uleb128 0x3
 8183 0731 F5       		.byte	0xf5
 8184 0732 02       		.uleb128 0x2
 8185 0733 25       		.uleb128 0x25
 8186 0734 9F       		.byte	0x9f
 8187 0735 00000000 		.4byte	0
 8188 0739 00000000 		.4byte	0
 8189              	.LLST43:
 8190 073d 00000000 		.4byte	.LVL116
 8191 0741 09000000 		.4byte	.LVL117-1
 8192 0745 0100     		.2byte	0x1
 8193 0747 50       		.byte	0x50
 8194 0748 09000000 		.4byte	.LVL117-1
 8195 074c 0C000000 		.4byte	.LFE15
 8196 0750 0400     		.2byte	0x4
 8197 0752 F3       		.byte	0xf3
 8198 0753 01       		.uleb128 0x1
 8199 0754 50       		.byte	0x50
 8200 0755 9F       		.byte	0x9f
 8201 0756 00000000 		.4byte	0
 8202 075a 00000000 		.4byte	0
 8203              	.LLST44:
 8204 075e 00000000 		.4byte	.LVL116
 8205 0762 09000000 		.4byte	.LVL117-1
 8206 0766 0100     		.2byte	0x1
 8207 0768 51       		.byte	0x51
 8208 0769 09000000 		.4byte	.LVL117-1
 8209 076d 0C000000 		.4byte	.LFE15
 8210 0771 0400     		.2byte	0x4
 8211 0773 F3       		.byte	0xf3
 8212 0774 01       		.uleb128 0x1
 8213 0775 51       		.byte	0x51
 8214 0776 9F       		.byte	0x9f
 8215 0777 00000000 		.4byte	0
 8216 077b 00000000 		.4byte	0
ARM GAS  C:\Users\cronos\AppData\Local\Temp\ccrG4qtQ.s 			page 155


 8217              	.LLST45:
 8218 077f 00000000 		.4byte	.LVL118
 8219 0783 09000000 		.4byte	.LVL119-1
 8220 0787 0100     		.2byte	0x1
 8221 0789 50       		.byte	0x50
 8222 078a 09000000 		.4byte	.LVL119-1
 8223 078e 0C000000 		.4byte	.LFE16
 8224 0792 0400     		.2byte	0x4
 8225 0794 F3       		.byte	0xf3
 8226 0795 01       		.uleb128 0x1
 8227 0796 50       		.byte	0x50
 8228 0797 9F       		.byte	0x9f
 8229 0798 00000000 		.4byte	0
 8230 079c 00000000 		.4byte	0
 8231              	.LLST46:
 8232 07a0 00000000 		.4byte	.LVL118
 8233 07a4 09000000 		.4byte	.LVL119-1
 8234 07a8 0100     		.2byte	0x1
 8235 07aa 51       		.byte	0x51
 8236 07ab 09000000 		.4byte	.LVL119-1
 8237 07af 0C000000 		.4byte	.LFE16
 8238 07b3 0400     		.2byte	0x4
 8239 07b5 F3       		.byte	0xf3
 8240 07b6 01       		.uleb128 0x1
 8241 07b7 51       		.byte	0x51
 8242 07b8 9F       		.byte	0x9f
 8243 07b9 00000000 		.4byte	0
 8244 07bd 00000000 		.4byte	0
 8245              	.LLST47:
 8246 07c1 00000000 		.4byte	.LVL120
 8247 07c5 0F000000 		.4byte	.LVL121-1
 8248 07c9 0100     		.2byte	0x1
 8249 07cb 50       		.byte	0x50
 8250 07cc 0F000000 		.4byte	.LVL121-1
 8251 07d0 14000000 		.4byte	.LFE17
 8252 07d4 0400     		.2byte	0x4
 8253 07d6 F3       		.byte	0xf3
 8254 07d7 01       		.uleb128 0x1
 8255 07d8 50       		.byte	0x50
 8256 07d9 9F       		.byte	0x9f
 8257 07da 00000000 		.4byte	0
 8258 07de 00000000 		.4byte	0
 8259              	.LLST48:
 8260 07e2 00000000 		.4byte	.LVL120
 8261 07e6 0F000000 		.4byte	.LVL121-1
 8262 07ea 0600     		.2byte	0x6
 8263 07ec 52       		.byte	0x52
 8264 07ed 93       		.byte	0x93
 8265 07ee 04       		.uleb128 0x4
 8266 07ef 53       		.byte	0x53
 8267 07f0 93       		.byte	0x93
 8268 07f1 04       		.uleb128 0x4
 8269 07f2 0F000000 		.4byte	.LVL121-1
 8270 07f6 14000000 		.4byte	.LFE17
 8271 07fa 0600     		.2byte	0x6
 8272 07fc F3       		.byte	0xf3
 8273 07fd 03       		.uleb128 0x3
ARM GAS  C:\Users\cronos\AppData\Local\Temp\ccrG4qtQ.s 			page 156


 8274 07fe F5       		.byte	0xf5
 8275 07ff 02       		.uleb128 0x2
 8276 0800 25       		.uleb128 0x25
 8277 0801 9F       		.byte	0x9f
 8278 0802 00000000 		.4byte	0
 8279 0806 00000000 		.4byte	0
 8280              	.LLST49:
 8281 080a 00000000 		.4byte	.LVL122
 8282 080e 0F000000 		.4byte	.LVL123-1
 8283 0812 0100     		.2byte	0x1
 8284 0814 50       		.byte	0x50
 8285 0815 0F000000 		.4byte	.LVL123-1
 8286 0819 14000000 		.4byte	.LFE18
 8287 081d 0400     		.2byte	0x4
 8288 081f F3       		.byte	0xf3
 8289 0820 01       		.uleb128 0x1
 8290 0821 50       		.byte	0x50
 8291 0822 9F       		.byte	0x9f
 8292 0823 00000000 		.4byte	0
 8293 0827 00000000 		.4byte	0
 8294              	.LLST50:
 8295 082b 00000000 		.4byte	.LVL122
 8296 082f 0F000000 		.4byte	.LVL123-1
 8297 0833 0600     		.2byte	0x6
 8298 0835 52       		.byte	0x52
 8299 0836 93       		.byte	0x93
 8300 0837 04       		.uleb128 0x4
 8301 0838 53       		.byte	0x53
 8302 0839 93       		.byte	0x93
 8303 083a 04       		.uleb128 0x4
 8304 083b 0F000000 		.4byte	.LVL123-1
 8305 083f 14000000 		.4byte	.LFE18
 8306 0843 0600     		.2byte	0x6
 8307 0845 F3       		.byte	0xf3
 8308 0846 03       		.uleb128 0x3
 8309 0847 F5       		.byte	0xf5
 8310 0848 02       		.uleb128 0x2
 8311 0849 25       		.uleb128 0x25
 8312 084a 9F       		.byte	0x9f
 8313 084b 00000000 		.4byte	0
 8314 084f 00000000 		.4byte	0
 8315              	.LLST51:
 8316 0853 00000000 		.4byte	.LVL124
 8317 0857 09000000 		.4byte	.LVL125-1
 8318 085b 0100     		.2byte	0x1
 8319 085d 50       		.byte	0x50
 8320 085e 09000000 		.4byte	.LVL125-1
 8321 0862 0C000000 		.4byte	.LFE19
 8322 0866 0400     		.2byte	0x4
 8323 0868 F3       		.byte	0xf3
 8324 0869 01       		.uleb128 0x1
 8325 086a 50       		.byte	0x50
 8326 086b 9F       		.byte	0x9f
 8327 086c 00000000 		.4byte	0
 8328 0870 00000000 		.4byte	0
 8329              	.LLST52:
 8330 0874 00000000 		.4byte	.LVL124
ARM GAS  C:\Users\cronos\AppData\Local\Temp\ccrG4qtQ.s 			page 157


 8331 0878 09000000 		.4byte	.LVL125-1
 8332 087c 0100     		.2byte	0x1
 8333 087e 51       		.byte	0x51
 8334 087f 09000000 		.4byte	.LVL125-1
 8335 0883 0C000000 		.4byte	.LFE19
 8336 0887 0600     		.2byte	0x6
 8337 0889 F3       		.byte	0xf3
 8338 088a 03       		.uleb128 0x3
 8339 088b F5       		.byte	0xf5
 8340 088c 01       		.uleb128 0x1
 8341 088d 33       		.uleb128 0x33
 8342 088e 9F       		.byte	0x9f
 8343 088f 00000000 		.4byte	0
 8344 0893 00000000 		.4byte	0
 8345              	.LLST53:
 8346 0897 00000000 		.4byte	.LVL126
 8347 089b 0F000000 		.4byte	.LVL127-1
 8348 089f 0100     		.2byte	0x1
 8349 08a1 50       		.byte	0x50
 8350 08a2 0F000000 		.4byte	.LVL127-1
 8351 08a6 14000000 		.4byte	.LFE20
 8352 08aa 0400     		.2byte	0x4
 8353 08ac F3       		.byte	0xf3
 8354 08ad 01       		.uleb128 0x1
 8355 08ae 50       		.byte	0x50
 8356 08af 9F       		.byte	0x9f
 8357 08b0 00000000 		.4byte	0
 8358 08b4 00000000 		.4byte	0
 8359              	.LLST54:
 8360 08b8 00000000 		.4byte	.LVL126
 8361 08bc 0F000000 		.4byte	.LVL127-1
 8362 08c0 0600     		.2byte	0x6
 8363 08c2 52       		.byte	0x52
 8364 08c3 93       		.byte	0x93
 8365 08c4 04       		.uleb128 0x4
 8366 08c5 53       		.byte	0x53
 8367 08c6 93       		.byte	0x93
 8368 08c7 04       		.uleb128 0x4
 8369 08c8 0F000000 		.4byte	.LVL127-1
 8370 08cc 14000000 		.4byte	.LFE20
 8371 08d0 0600     		.2byte	0x6
 8372 08d2 F3       		.byte	0xf3
 8373 08d3 03       		.uleb128 0x3
 8374 08d4 F5       		.byte	0xf5
 8375 08d5 02       		.uleb128 0x2
 8376 08d6 2C       		.uleb128 0x2c
 8377 08d7 9F       		.byte	0x9f
 8378 08d8 00000000 		.4byte	0
 8379 08dc 00000000 		.4byte	0
 8380              	.LLST55:
 8381 08e0 00000000 		.4byte	.LVL128
 8382 08e4 09000000 		.4byte	.LVL129-1
 8383 08e8 0100     		.2byte	0x1
 8384 08ea 50       		.byte	0x50
 8385 08eb 09000000 		.4byte	.LVL129-1
 8386 08ef 0C000000 		.4byte	.LFE21
 8387 08f3 0400     		.2byte	0x4
ARM GAS  C:\Users\cronos\AppData\Local\Temp\ccrG4qtQ.s 			page 158


 8388 08f5 F3       		.byte	0xf3
 8389 08f6 01       		.uleb128 0x1
 8390 08f7 50       		.byte	0x50
 8391 08f8 9F       		.byte	0x9f
 8392 08f9 00000000 		.4byte	0
 8393 08fd 00000000 		.4byte	0
 8394              	.LLST56:
 8395 0901 00000000 		.4byte	.LVL128
 8396 0905 09000000 		.4byte	.LVL129-1
 8397 0909 0100     		.2byte	0x1
 8398 090b 51       		.byte	0x51
 8399 090c 09000000 		.4byte	.LVL129-1
 8400 0910 0C000000 		.4byte	.LFE21
 8401 0914 0400     		.2byte	0x4
 8402 0916 F3       		.byte	0xf3
 8403 0917 01       		.uleb128 0x1
 8404 0918 51       		.byte	0x51
 8405 0919 9F       		.byte	0x9f
 8406 091a 00000000 		.4byte	0
 8407 091e 00000000 		.4byte	0
 8408              	.LLST57:
 8409 0922 00000000 		.4byte	.LVL130
 8410 0926 1E000000 		.4byte	.LVL134
 8411 092a 0100     		.2byte	0x1
 8412 092c 50       		.byte	0x50
 8413 092d 1E000000 		.4byte	.LVL134
 8414 0931 6E000000 		.4byte	.LFE22
 8415 0935 0400     		.2byte	0x4
 8416 0937 F3       		.byte	0xf3
 8417 0938 01       		.uleb128 0x1
 8418 0939 50       		.byte	0x50
 8419 093a 9F       		.byte	0x9f
 8420 093b 00000000 		.4byte	0
 8421 093f 00000000 		.4byte	0
 8422              	.LLST58:
 8423 0943 00000000 		.4byte	.LVL130
 8424 0947 1C000000 		.4byte	.LVL133
 8425 094b 0100     		.2byte	0x1
 8426 094d 51       		.byte	0x51
 8427 094e 1C000000 		.4byte	.LVL133
 8428 0952 1E000000 		.4byte	.LVL134
 8429 0956 0200     		.2byte	0x2
 8430 0958 91       		.byte	0x91
 8431 0959 65       		.sleb128 -27
 8432 095a 1E000000 		.4byte	.LVL134
 8433 095e 6E000000 		.4byte	.LFE22
 8434 0962 0400     		.2byte	0x4
 8435 0964 F3       		.byte	0xf3
 8436 0965 01       		.uleb128 0x1
 8437 0966 51       		.byte	0x51
 8438 0967 9F       		.byte	0x9f
 8439 0968 00000000 		.4byte	0
 8440 096c 00000000 		.4byte	0
 8441              	.LLST59:
 8442 0970 00000000 		.4byte	.LVL130
 8443 0974 38000000 		.4byte	.LVL137
 8444 0978 0100     		.2byte	0x1
ARM GAS  C:\Users\cronos\AppData\Local\Temp\ccrG4qtQ.s 			page 159


 8445 097a 52       		.byte	0x52
 8446 097b 38000000 		.4byte	.LVL137
 8447 097f 6E000000 		.4byte	.LFE22
 8448 0983 0400     		.2byte	0x4
 8449 0985 F3       		.byte	0xf3
 8450 0986 01       		.uleb128 0x1
 8451 0987 52       		.byte	0x52
 8452 0988 9F       		.byte	0x9f
 8453 0989 00000000 		.4byte	0
 8454 098d 00000000 		.4byte	0
 8455              	.LLST60:
 8456 0991 00000000 		.4byte	.LVL130
 8457 0995 3A000000 		.4byte	.LVL138
 8458 0999 0100     		.2byte	0x1
 8459 099b 53       		.byte	0x53
 8460 099c 3A000000 		.4byte	.LVL138
 8461 09a0 6E000000 		.4byte	.LFE22
 8462 09a4 0400     		.2byte	0x4
 8463 09a6 F3       		.byte	0xf3
 8464 09a7 01       		.uleb128 0x1
 8465 09a8 53       		.byte	0x53
 8466 09a9 9F       		.byte	0x9f
 8467 09aa 00000000 		.4byte	0
 8468 09ae 00000000 		.4byte	0
 8469              	.LLST61:
 8470 09b2 00000000 		.4byte	.LVL130
 8471 09b6 46000000 		.4byte	.LVL141
 8472 09ba 0200     		.2byte	0x2
 8473 09bc 91       		.byte	0x91
 8474 09bd 00       		.sleb128 0
 8475 09be 46000000 		.4byte	.LVL141
 8476 09c2 48000000 		.4byte	.LVL142
 8477 09c6 0200     		.2byte	0x2
 8478 09c8 71       		.byte	0x71
 8479 09c9 00       		.sleb128 0
 8480 09ca 48000000 		.4byte	.LVL142
 8481 09ce 6E000000 		.4byte	.LFE22
 8482 09d2 0200     		.2byte	0x2
 8483 09d4 91       		.byte	0x91
 8484 09d5 00       		.sleb128 0
 8485 09d6 00000000 		.4byte	0
 8486 09da 00000000 		.4byte	0
 8487              	.LLST62:
 8488 09de 12000000 		.4byte	.LVL131
 8489 09e2 5E000000 		.4byte	.LVL147
 8490 09e6 0200     		.2byte	0x2
 8491 09e8 3A       		.byte	0x3a
 8492 09e9 9F       		.byte	0x9f
 8493 09ea 5E000000 		.4byte	.LVL147
 8494 09ee 69000000 		.4byte	.LVL148-1
 8495 09f2 0100     		.2byte	0x1
 8496 09f4 51       		.byte	0x51
 8497 09f5 00000000 		.4byte	0
 8498 09f9 00000000 		.4byte	0
 8499              	.LLST63:
 8500 09fd 1A000000 		.4byte	.LVL132
 8501 0a01 1E000000 		.4byte	.LVL134
ARM GAS  C:\Users\cronos\AppData\Local\Temp\ccrG4qtQ.s 			page 160


 8502 0a05 0200     		.2byte	0x2
 8503 0a07 30       		.byte	0x30
 8504 0a08 9F       		.byte	0x9f
 8505 0a09 1E000000 		.4byte	.LVL134
 8506 0a0d 2E000000 		.4byte	.LVL135
 8507 0a11 0100     		.2byte	0x1
 8508 0a13 51       		.byte	0x51
 8509 0a14 30000000 		.4byte	.LVL136
 8510 0a18 3E000000 		.4byte	.LVL139
 8511 0a1c 0100     		.2byte	0x1
 8512 0a1e 51       		.byte	0x51
 8513 0a1f 56000000 		.4byte	.LVL145
 8514 0a23 58000000 		.4byte	.LVL146
 8515 0a27 0100     		.2byte	0x1
 8516 0a29 51       		.byte	0x51
 8517 0a2a 00000000 		.4byte	0
 8518 0a2e 00000000 		.4byte	0
 8519              	.LLST64:
 8520 0a32 40000000 		.4byte	.LVL140
 8521 0a36 52000000 		.4byte	.LVL143
 8522 0a3a 0100     		.2byte	0x1
 8523 0a3c 53       		.byte	0x53
 8524 0a3d 54000000 		.4byte	.LVL144
 8525 0a41 56000000 		.4byte	.LVL145
 8526 0a45 0100     		.2byte	0x1
 8527 0a47 53       		.byte	0x53
 8528 0a48 58000000 		.4byte	.LVL146
 8529 0a4c 5E000000 		.4byte	.LVL147
 8530 0a50 0100     		.2byte	0x1
 8531 0a52 53       		.byte	0x53
 8532 0a53 00000000 		.4byte	0
 8533 0a57 00000000 		.4byte	0
 8534              	.LLST65:
 8535 0a5b 00000000 		.4byte	.LVL149
 8536 0a5f 17000000 		.4byte	.LVL152-1
 8537 0a63 0100     		.2byte	0x1
 8538 0a65 50       		.byte	0x50
 8539 0a66 17000000 		.4byte	.LVL152-1
 8540 0a6a 1C000000 		.4byte	.LFE23
 8541 0a6e 0400     		.2byte	0x4
 8542 0a70 F3       		.byte	0xf3
 8543 0a71 01       		.uleb128 0x1
 8544 0a72 50       		.byte	0x50
 8545 0a73 9F       		.byte	0x9f
 8546 0a74 00000000 		.4byte	0
 8547 0a78 00000000 		.4byte	0
 8548              	.LLST66:
 8549 0a7c 00000000 		.4byte	.LVL149
 8550 0a80 14000000 		.4byte	.LVL151
 8551 0a84 0100     		.2byte	0x1
 8552 0a86 51       		.byte	0x51
 8553 0a87 14000000 		.4byte	.LVL151
 8554 0a8b 17000000 		.4byte	.LVL152-1
 8555 0a8f 0200     		.2byte	0x2
 8556 0a91 73       		.byte	0x73
 8557 0a92 00       		.sleb128 0
 8558 0a93 17000000 		.4byte	.LVL152-1
ARM GAS  C:\Users\cronos\AppData\Local\Temp\ccrG4qtQ.s 			page 161


 8559 0a97 1C000000 		.4byte	.LFE23
 8560 0a9b 0200     		.2byte	0x2
 8561 0a9d 74       		.byte	0x74
 8562 0a9e 00       		.sleb128 0
 8563 0a9f 00000000 		.4byte	0
 8564 0aa3 00000000 		.4byte	0
 8565              	.LLST67:
 8566 0aa7 00000000 		.4byte	.LVL149
 8567 0aab 12000000 		.4byte	.LVL150
 8568 0aaf 0600     		.2byte	0x6
 8569 0ab1 52       		.byte	0x52
 8570 0ab2 93       		.byte	0x93
 8571 0ab3 04       		.uleb128 0x4
 8572 0ab4 53       		.byte	0x53
 8573 0ab5 93       		.byte	0x93
 8574 0ab6 04       		.uleb128 0x4
 8575 0ab7 12000000 		.4byte	.LVL150
 8576 0abb 17000000 		.4byte	.LVL152-1
 8577 0abf 0200     		.2byte	0x2
 8578 0ac1 7D       		.byte	0x7d
 8579 0ac2 00       		.sleb128 0
 8580 0ac3 17000000 		.4byte	.LVL152-1
 8581 0ac7 1C000000 		.4byte	.LFE23
 8582 0acb 0600     		.2byte	0x6
 8583 0acd F3       		.byte	0xf3
 8584 0ace 03       		.uleb128 0x3
 8585 0acf F5       		.byte	0xf5
 8586 0ad0 02       		.uleb128 0x2
 8587 0ad1 25       		.uleb128 0x25
 8588 0ad2 9F       		.byte	0x9f
 8589 0ad3 00000000 		.4byte	0
 8590 0ad7 00000000 		.4byte	0
 8591              	.LLST68:
 8592 0adb 00000000 		.4byte	.LVL153
 8593 0adf 17000000 		.4byte	.LVL156-1
 8594 0ae3 0100     		.2byte	0x1
 8595 0ae5 50       		.byte	0x50
 8596 0ae6 17000000 		.4byte	.LVL156-1
 8597 0aea 1C000000 		.4byte	.LFE24
 8598 0aee 0400     		.2byte	0x4
 8599 0af0 F3       		.byte	0xf3
 8600 0af1 01       		.uleb128 0x1
 8601 0af2 50       		.byte	0x50
 8602 0af3 9F       		.byte	0x9f
 8603 0af4 00000000 		.4byte	0
 8604 0af8 00000000 		.4byte	0
 8605              	.LLST69:
 8606 0afc 00000000 		.4byte	.LVL153
 8607 0b00 14000000 		.4byte	.LVL155
 8608 0b04 0100     		.2byte	0x1
 8609 0b06 51       		.byte	0x51
 8610 0b07 14000000 		.4byte	.LVL155
 8611 0b0b 17000000 		.4byte	.LVL156-1
 8612 0b0f 0200     		.2byte	0x2
 8613 0b11 73       		.byte	0x73
 8614 0b12 00       		.sleb128 0
 8615 0b13 17000000 		.4byte	.LVL156-1
ARM GAS  C:\Users\cronos\AppData\Local\Temp\ccrG4qtQ.s 			page 162


 8616 0b17 1C000000 		.4byte	.LFE24
 8617 0b1b 0200     		.2byte	0x2
 8618 0b1d 74       		.byte	0x74
 8619 0b1e 00       		.sleb128 0
 8620 0b1f 00000000 		.4byte	0
 8621 0b23 00000000 		.4byte	0
 8622              	.LLST70:
 8623 0b27 00000000 		.4byte	.LVL153
 8624 0b2b 12000000 		.4byte	.LVL154
 8625 0b2f 0600     		.2byte	0x6
 8626 0b31 52       		.byte	0x52
 8627 0b32 93       		.byte	0x93
 8628 0b33 04       		.uleb128 0x4
 8629 0b34 53       		.byte	0x53
 8630 0b35 93       		.byte	0x93
 8631 0b36 04       		.uleb128 0x4
 8632 0b37 12000000 		.4byte	.LVL154
 8633 0b3b 17000000 		.4byte	.LVL156-1
 8634 0b3f 0200     		.2byte	0x2
 8635 0b41 7D       		.byte	0x7d
 8636 0b42 00       		.sleb128 0
 8637 0b43 17000000 		.4byte	.LVL156-1
 8638 0b47 1C000000 		.4byte	.LFE24
 8639 0b4b 0600     		.2byte	0x6
 8640 0b4d F3       		.byte	0xf3
 8641 0b4e 03       		.uleb128 0x3
 8642 0b4f F5       		.byte	0xf5
 8643 0b50 02       		.uleb128 0x2
 8644 0b51 25       		.uleb128 0x25
 8645 0b52 9F       		.byte	0x9f
 8646 0b53 00000000 		.4byte	0
 8647 0b57 00000000 		.4byte	0
 8648              	.LLST71:
 8649 0b5b 00000000 		.4byte	.LVL157
 8650 0b5f 1B000000 		.4byte	.LVL160-1
 8651 0b63 0100     		.2byte	0x1
 8652 0b65 50       		.byte	0x50
 8653 0b66 1B000000 		.4byte	.LVL160-1
 8654 0b6a 22000000 		.4byte	.LFE25
 8655 0b6e 0400     		.2byte	0x4
 8656 0b70 F3       		.byte	0xf3
 8657 0b71 01       		.uleb128 0x1
 8658 0b72 50       		.byte	0x50
 8659 0b73 9F       		.byte	0x9f
 8660 0b74 00000000 		.4byte	0
 8661 0b78 00000000 		.4byte	0
 8662              	.LLST72:
 8663 0b7c 00000000 		.4byte	.LVL157
 8664 0b80 0E000000 		.4byte	.LVL158
 8665 0b84 0600     		.2byte	0x6
 8666 0b86 52       		.byte	0x52
 8667 0b87 93       		.byte	0x93
 8668 0b88 04       		.uleb128 0x4
 8669 0b89 53       		.byte	0x53
 8670 0b8a 93       		.byte	0x93
 8671 0b8b 04       		.uleb128 0x4
 8672 0b8c 0E000000 		.4byte	.LVL158
ARM GAS  C:\Users\cronos\AppData\Local\Temp\ccrG4qtQ.s 			page 163


 8673 0b90 18000000 		.4byte	.LVL159
 8674 0b94 0200     		.2byte	0x2
 8675 0b96 71       		.byte	0x71
 8676 0b97 00       		.sleb128 0
 8677 0b98 18000000 		.4byte	.LVL159
 8678 0b9c 1B000000 		.4byte	.LVL160-1
 8679 0ba0 0200     		.2byte	0x2
 8680 0ba2 73       		.byte	0x73
 8681 0ba3 00       		.sleb128 0
 8682 0ba4 1B000000 		.4byte	.LVL160-1
 8683 0ba8 22000000 		.4byte	.LFE25
 8684 0bac 0200     		.2byte	0x2
 8685 0bae 91       		.byte	0x91
 8686 0baf 70       		.sleb128 -16
 8687 0bb0 00000000 		.4byte	0
 8688 0bb4 00000000 		.4byte	0
 8689              	.LLST73:
 8690 0bb8 00000000 		.4byte	.LVL161
 8691 0bbc 1B000000 		.4byte	.LVL164-1
 8692 0bc0 0100     		.2byte	0x1
 8693 0bc2 50       		.byte	0x50
 8694 0bc3 1B000000 		.4byte	.LVL164-1
 8695 0bc7 22000000 		.4byte	.LFE26
 8696 0bcb 0400     		.2byte	0x4
 8697 0bcd F3       		.byte	0xf3
 8698 0bce 01       		.uleb128 0x1
 8699 0bcf 50       		.byte	0x50
 8700 0bd0 9F       		.byte	0x9f
 8701 0bd1 00000000 		.4byte	0
 8702 0bd5 00000000 		.4byte	0
 8703              	.LLST74:
 8704 0bd9 00000000 		.4byte	.LVL161
 8705 0bdd 0E000000 		.4byte	.LVL162
 8706 0be1 0600     		.2byte	0x6
 8707 0be3 52       		.byte	0x52
 8708 0be4 93       		.byte	0x93
 8709 0be5 04       		.uleb128 0x4
 8710 0be6 53       		.byte	0x53
 8711 0be7 93       		.byte	0x93
 8712 0be8 04       		.uleb128 0x4
 8713 0be9 0E000000 		.4byte	.LVL162
 8714 0bed 18000000 		.4byte	.LVL163
 8715 0bf1 0200     		.2byte	0x2
 8716 0bf3 71       		.byte	0x71
 8717 0bf4 00       		.sleb128 0
 8718 0bf5 18000000 		.4byte	.LVL163
 8719 0bf9 1B000000 		.4byte	.LVL164-1
 8720 0bfd 0200     		.2byte	0x2
 8721 0bff 73       		.byte	0x73
 8722 0c00 00       		.sleb128 0
 8723 0c01 1B000000 		.4byte	.LVL164-1
 8724 0c05 22000000 		.4byte	.LFE26
 8725 0c09 0200     		.2byte	0x2
 8726 0c0b 91       		.byte	0x91
 8727 0c0c 70       		.sleb128 -16
 8728 0c0d 00000000 		.4byte	0
 8729 0c11 00000000 		.4byte	0
ARM GAS  C:\Users\cronos\AppData\Local\Temp\ccrG4qtQ.s 			page 164


 8730              	.LLST75:
 8731 0c15 00000000 		.4byte	.LVL165
 8732 0c19 17000000 		.4byte	.LVL168-1
 8733 0c1d 0100     		.2byte	0x1
 8734 0c1f 50       		.byte	0x50
 8735 0c20 17000000 		.4byte	.LVL168-1
 8736 0c24 1C000000 		.4byte	.LFE27
 8737 0c28 0400     		.2byte	0x4
 8738 0c2a F3       		.byte	0xf3
 8739 0c2b 01       		.uleb128 0x1
 8740 0c2c 50       		.byte	0x50
 8741 0c2d 9F       		.byte	0x9f
 8742 0c2e 00000000 		.4byte	0
 8743 0c32 00000000 		.4byte	0
 8744              	.LLST76:
 8745 0c36 00000000 		.4byte	.LVL165
 8746 0c3a 14000000 		.4byte	.LVL167
 8747 0c3e 0100     		.2byte	0x1
 8748 0c40 51       		.byte	0x51
 8749 0c41 14000000 		.4byte	.LVL167
 8750 0c45 17000000 		.4byte	.LVL168-1
 8751 0c49 0200     		.2byte	0x2
 8752 0c4b 73       		.byte	0x73
 8753 0c4c 00       		.sleb128 0
 8754 0c4d 17000000 		.4byte	.LVL168-1
 8755 0c51 1C000000 		.4byte	.LFE27
 8756 0c55 0200     		.2byte	0x2
 8757 0c57 74       		.byte	0x74
 8758 0c58 00       		.sleb128 0
 8759 0c59 00000000 		.4byte	0
 8760 0c5d 00000000 		.4byte	0
 8761              	.LLST77:
 8762 0c61 00000000 		.4byte	.LVL165
 8763 0c65 12000000 		.4byte	.LVL166
 8764 0c69 0600     		.2byte	0x6
 8765 0c6b 52       		.byte	0x52
 8766 0c6c 93       		.byte	0x93
 8767 0c6d 04       		.uleb128 0x4
 8768 0c6e 53       		.byte	0x53
 8769 0c6f 93       		.byte	0x93
 8770 0c70 04       		.uleb128 0x4
 8771 0c71 12000000 		.4byte	.LVL166
 8772 0c75 17000000 		.4byte	.LVL168-1
 8773 0c79 0200     		.2byte	0x2
 8774 0c7b 7D       		.byte	0x7d
 8775 0c7c 00       		.sleb128 0
 8776 0c7d 17000000 		.4byte	.LVL168-1
 8777 0c81 1C000000 		.4byte	.LFE27
 8778 0c85 0600     		.2byte	0x6
 8779 0c87 F3       		.byte	0xf3
 8780 0c88 03       		.uleb128 0x3
 8781 0c89 F5       		.byte	0xf5
 8782 0c8a 02       		.uleb128 0x2
 8783 0c8b 25       		.uleb128 0x25
 8784 0c8c 9F       		.byte	0x9f
 8785 0c8d 00000000 		.4byte	0
 8786 0c91 00000000 		.4byte	0
ARM GAS  C:\Users\cronos\AppData\Local\Temp\ccrG4qtQ.s 			page 165


 8787              	.LLST78:
 8788 0c95 00000000 		.4byte	.LVL169
 8789 0c99 1B000000 		.4byte	.LVL172-1
 8790 0c9d 0100     		.2byte	0x1
 8791 0c9f 50       		.byte	0x50
 8792 0ca0 1B000000 		.4byte	.LVL172-1
 8793 0ca4 22000000 		.4byte	.LFE28
 8794 0ca8 0400     		.2byte	0x4
 8795 0caa F3       		.byte	0xf3
 8796 0cab 01       		.uleb128 0x1
 8797 0cac 50       		.byte	0x50
 8798 0cad 9F       		.byte	0x9f
 8799 0cae 00000000 		.4byte	0
 8800 0cb2 00000000 		.4byte	0
 8801              	.LLST79:
 8802 0cb6 00000000 		.4byte	.LVL169
 8803 0cba 0E000000 		.4byte	.LVL170
 8804 0cbe 0600     		.2byte	0x6
 8805 0cc0 52       		.byte	0x52
 8806 0cc1 93       		.byte	0x93
 8807 0cc2 04       		.uleb128 0x4
 8808 0cc3 53       		.byte	0x53
 8809 0cc4 93       		.byte	0x93
 8810 0cc5 04       		.uleb128 0x4
 8811 0cc6 0E000000 		.4byte	.LVL170
 8812 0cca 18000000 		.4byte	.LVL171
 8813 0cce 0200     		.2byte	0x2
 8814 0cd0 71       		.byte	0x71
 8815 0cd1 00       		.sleb128 0
 8816 0cd2 18000000 		.4byte	.LVL171
 8817 0cd6 1B000000 		.4byte	.LVL172-1
 8818 0cda 0200     		.2byte	0x2
 8819 0cdc 73       		.byte	0x73
 8820 0cdd 00       		.sleb128 0
 8821 0cde 1B000000 		.4byte	.LVL172-1
 8822 0ce2 22000000 		.4byte	.LFE28
 8823 0ce6 0200     		.2byte	0x2
 8824 0ce8 91       		.byte	0x91
 8825 0ce9 70       		.sleb128 -16
 8826 0cea 00000000 		.4byte	0
 8827 0cee 00000000 		.4byte	0
 8828              	.LLST80:
 8829 0cf2 00000000 		.4byte	.LVL173
 8830 0cf6 11000000 		.4byte	.LVL176-1
 8831 0cfa 0100     		.2byte	0x1
 8832 0cfc 50       		.byte	0x50
 8833 0cfd 11000000 		.4byte	.LVL176-1
 8834 0d01 18000000 		.4byte	.LFE29
 8835 0d05 0400     		.2byte	0x4
 8836 0d07 F3       		.byte	0xf3
 8837 0d08 01       		.uleb128 0x1
 8838 0d09 50       		.byte	0x50
 8839 0d0a 9F       		.byte	0x9f
 8840 0d0b 00000000 		.4byte	0
 8841 0d0f 00000000 		.4byte	0
 8842              	.LLST81:
 8843 0d13 00000000 		.4byte	.LVL173
ARM GAS  C:\Users\cronos\AppData\Local\Temp\ccrG4qtQ.s 			page 166


 8844 0d17 0E000000 		.4byte	.LVL175
 8845 0d1b 0100     		.2byte	0x1
 8846 0d1d 51       		.byte	0x51
 8847 0d1e 0E000000 		.4byte	.LVL175
 8848 0d22 11000000 		.4byte	.LVL176-1
 8849 0d26 0100     		.2byte	0x1
 8850 0d28 53       		.byte	0x53
 8851 0d29 11000000 		.4byte	.LVL176-1
 8852 0d2d 18000000 		.4byte	.LFE29
 8853 0d31 0400     		.2byte	0x4
 8854 0d33 F3       		.byte	0xf3
 8855 0d34 01       		.uleb128 0x1
 8856 0d35 51       		.byte	0x51
 8857 0d36 9F       		.byte	0x9f
 8858 0d37 00000000 		.4byte	0
 8859 0d3b 00000000 		.4byte	0
 8860              	.LLST82:
 8861 0d3f 00000000 		.4byte	.LVL173
 8862 0d43 0C000000 		.4byte	.LVL174
 8863 0d47 0600     		.2byte	0x6
 8864 0d49 52       		.byte	0x52
 8865 0d4a 93       		.byte	0x93
 8866 0d4b 04       		.uleb128 0x4
 8867 0d4c 53       		.byte	0x53
 8868 0d4d 93       		.byte	0x93
 8869 0d4e 04       		.uleb128 0x4
 8870 0d4f 0C000000 		.4byte	.LVL174
 8871 0d53 11000000 		.4byte	.LVL176-1
 8872 0d57 0200     		.2byte	0x2
 8873 0d59 7D       		.byte	0x7d
 8874 0d5a 00       		.sleb128 0
 8875 0d5b 11000000 		.4byte	.LVL176-1
 8876 0d5f 18000000 		.4byte	.LFE29
 8877 0d63 0600     		.2byte	0x6
 8878 0d65 F3       		.byte	0xf3
 8879 0d66 03       		.uleb128 0x3
 8880 0d67 F5       		.byte	0xf5
 8881 0d68 02       		.uleb128 0x2
 8882 0d69 25       		.uleb128 0x25
 8883 0d6a 9F       		.byte	0x9f
 8884 0d6b 00000000 		.4byte	0
 8885 0d6f 00000000 		.4byte	0
 8886              	.LLST83:
 8887 0d73 00000000 		.4byte	.LVL177
 8888 0d77 09000000 		.4byte	.LVL178-1
 8889 0d7b 0100     		.2byte	0x1
 8890 0d7d 50       		.byte	0x50
 8891 0d7e 09000000 		.4byte	.LVL178-1
 8892 0d82 0C000000 		.4byte	.LFE30
 8893 0d86 0400     		.2byte	0x4
 8894 0d88 F3       		.byte	0xf3
 8895 0d89 01       		.uleb128 0x1
 8896 0d8a 50       		.byte	0x50
 8897 0d8b 9F       		.byte	0x9f
 8898 0d8c 00000000 		.4byte	0
 8899 0d90 00000000 		.4byte	0
 8900              	.LLST84:
ARM GAS  C:\Users\cronos\AppData\Local\Temp\ccrG4qtQ.s 			page 167


 8901 0d94 00000000 		.4byte	.LVL177
 8902 0d98 09000000 		.4byte	.LVL178-1
 8903 0d9c 0100     		.2byte	0x1
 8904 0d9e 51       		.byte	0x51
 8905 0d9f 09000000 		.4byte	.LVL178-1
 8906 0da3 0C000000 		.4byte	.LFE30
 8907 0da7 0400     		.2byte	0x4
 8908 0da9 F3       		.byte	0xf3
 8909 0daa 01       		.uleb128 0x1
 8910 0dab 51       		.byte	0x51
 8911 0dac 9F       		.byte	0x9f
 8912 0dad 00000000 		.4byte	0
 8913 0db1 00000000 		.4byte	0
 8914              	.LLST85:
 8915 0db5 00000000 		.4byte	.LVL179
 8916 0db9 09000000 		.4byte	.LVL180-1
 8917 0dbd 0100     		.2byte	0x1
 8918 0dbf 50       		.byte	0x50
 8919 0dc0 09000000 		.4byte	.LVL180-1
 8920 0dc4 0C000000 		.4byte	.LFE31
 8921 0dc8 0400     		.2byte	0x4
 8922 0dca F3       		.byte	0xf3
 8923 0dcb 01       		.uleb128 0x1
 8924 0dcc 50       		.byte	0x50
 8925 0dcd 9F       		.byte	0x9f
 8926 0dce 00000000 		.4byte	0
 8927 0dd2 00000000 		.4byte	0
 8928              	.LLST86:
 8929 0dd6 00000000 		.4byte	.LVL179
 8930 0dda 09000000 		.4byte	.LVL180-1
 8931 0dde 0100     		.2byte	0x1
 8932 0de0 51       		.byte	0x51
 8933 0de1 09000000 		.4byte	.LVL180-1
 8934 0de5 0C000000 		.4byte	.LFE31
 8935 0de9 0400     		.2byte	0x4
 8936 0deb F3       		.byte	0xf3
 8937 0dec 01       		.uleb128 0x1
 8938 0ded 51       		.byte	0x51
 8939 0dee 9F       		.byte	0x9f
 8940 0def 00000000 		.4byte	0
 8941 0df3 00000000 		.4byte	0
 8942              	.LLST87:
 8943 0df7 00000000 		.4byte	.LVL181
 8944 0dfb 0F000000 		.4byte	.LVL182-1
 8945 0dff 0100     		.2byte	0x1
 8946 0e01 50       		.byte	0x50
 8947 0e02 0F000000 		.4byte	.LVL182-1
 8948 0e06 14000000 		.4byte	.LFE32
 8949 0e0a 0400     		.2byte	0x4
 8950 0e0c F3       		.byte	0xf3
 8951 0e0d 01       		.uleb128 0x1
 8952 0e0e 50       		.byte	0x50
 8953 0e0f 9F       		.byte	0x9f
 8954 0e10 00000000 		.4byte	0
 8955 0e14 00000000 		.4byte	0
 8956              	.LLST88:
 8957 0e18 00000000 		.4byte	.LVL181
ARM GAS  C:\Users\cronos\AppData\Local\Temp\ccrG4qtQ.s 			page 168


 8958 0e1c 0F000000 		.4byte	.LVL182-1
 8959 0e20 0600     		.2byte	0x6
 8960 0e22 52       		.byte	0x52
 8961 0e23 93       		.byte	0x93
 8962 0e24 04       		.uleb128 0x4
 8963 0e25 53       		.byte	0x53
 8964 0e26 93       		.byte	0x93
 8965 0e27 04       		.uleb128 0x4
 8966 0e28 0F000000 		.4byte	.LVL182-1
 8967 0e2c 14000000 		.4byte	.LFE32
 8968 0e30 0600     		.2byte	0x6
 8969 0e32 F3       		.byte	0xf3
 8970 0e33 03       		.uleb128 0x3
 8971 0e34 F5       		.byte	0xf5
 8972 0e35 02       		.uleb128 0x2
 8973 0e36 25       		.uleb128 0x25
 8974 0e37 9F       		.byte	0x9f
 8975 0e38 00000000 		.4byte	0
 8976 0e3c 00000000 		.4byte	0
 8977              	.LLST89:
 8978 0e40 00000000 		.4byte	.LVL183
 8979 0e44 0F000000 		.4byte	.LVL184-1
 8980 0e48 0100     		.2byte	0x1
 8981 0e4a 50       		.byte	0x50
 8982 0e4b 0F000000 		.4byte	.LVL184-1
 8983 0e4f 14000000 		.4byte	.LFE33
 8984 0e53 0400     		.2byte	0x4
 8985 0e55 F3       		.byte	0xf3
 8986 0e56 01       		.uleb128 0x1
 8987 0e57 50       		.byte	0x50
 8988 0e58 9F       		.byte	0x9f
 8989 0e59 00000000 		.4byte	0
 8990 0e5d 00000000 		.4byte	0
 8991              	.LLST90:
 8992 0e61 00000000 		.4byte	.LVL183
 8993 0e65 0F000000 		.4byte	.LVL184-1
 8994 0e69 0600     		.2byte	0x6
 8995 0e6b 52       		.byte	0x52
 8996 0e6c 93       		.byte	0x93
 8997 0e6d 04       		.uleb128 0x4
 8998 0e6e 53       		.byte	0x53
 8999 0e6f 93       		.byte	0x93
 9000 0e70 04       		.uleb128 0x4
 9001 0e71 0F000000 		.4byte	.LVL184-1
 9002 0e75 14000000 		.4byte	.LFE33
 9003 0e79 0600     		.2byte	0x6
 9004 0e7b F3       		.byte	0xf3
 9005 0e7c 03       		.uleb128 0x3
 9006 0e7d F5       		.byte	0xf5
 9007 0e7e 02       		.uleb128 0x2
 9008 0e7f 25       		.uleb128 0x25
 9009 0e80 9F       		.byte	0x9f
 9010 0e81 00000000 		.4byte	0
 9011 0e85 00000000 		.4byte	0
 9012              	.LLST91:
 9013 0e89 00000000 		.4byte	.LVL185
 9014 0e8d 09000000 		.4byte	.LVL186-1
ARM GAS  C:\Users\cronos\AppData\Local\Temp\ccrG4qtQ.s 			page 169


 9015 0e91 0100     		.2byte	0x1
 9016 0e93 50       		.byte	0x50
 9017 0e94 09000000 		.4byte	.LVL186-1
 9018 0e98 0C000000 		.4byte	.LFE34
 9019 0e9c 0400     		.2byte	0x4
 9020 0e9e F3       		.byte	0xf3
 9021 0e9f 01       		.uleb128 0x1
 9022 0ea0 50       		.byte	0x50
 9023 0ea1 9F       		.byte	0x9f
 9024 0ea2 00000000 		.4byte	0
 9025 0ea6 00000000 		.4byte	0
 9026              	.LLST92:
 9027 0eaa 00000000 		.4byte	.LVL185
 9028 0eae 09000000 		.4byte	.LVL186-1
 9029 0eb2 0100     		.2byte	0x1
 9030 0eb4 51       		.byte	0x51
 9031 0eb5 09000000 		.4byte	.LVL186-1
 9032 0eb9 0C000000 		.4byte	.LFE34
 9033 0ebd 0600     		.2byte	0x6
 9034 0ebf F3       		.byte	0xf3
 9035 0ec0 03       		.uleb128 0x3
 9036 0ec1 F5       		.byte	0xf5
 9037 0ec2 01       		.uleb128 0x1
 9038 0ec3 33       		.uleb128 0x33
 9039 0ec4 9F       		.byte	0x9f
 9040 0ec5 00000000 		.4byte	0
 9041 0ec9 00000000 		.4byte	0
 9042              	.LLST93:
 9043 0ecd 00000000 		.4byte	.LVL187
 9044 0ed1 0F000000 		.4byte	.LVL188-1
 9045 0ed5 0100     		.2byte	0x1
 9046 0ed7 50       		.byte	0x50
 9047 0ed8 0F000000 		.4byte	.LVL188-1
 9048 0edc 14000000 		.4byte	.LFE35
 9049 0ee0 0400     		.2byte	0x4
 9050 0ee2 F3       		.byte	0xf3
 9051 0ee3 01       		.uleb128 0x1
 9052 0ee4 50       		.byte	0x50
 9053 0ee5 9F       		.byte	0x9f
 9054 0ee6 00000000 		.4byte	0
 9055 0eea 00000000 		.4byte	0
 9056              	.LLST94:
 9057 0eee 00000000 		.4byte	.LVL187
 9058 0ef2 0F000000 		.4byte	.LVL188-1
 9059 0ef6 0600     		.2byte	0x6
 9060 0ef8 52       		.byte	0x52
 9061 0ef9 93       		.byte	0x93
 9062 0efa 04       		.uleb128 0x4
 9063 0efb 53       		.byte	0x53
 9064 0efc 93       		.byte	0x93
 9065 0efd 04       		.uleb128 0x4
 9066 0efe 0F000000 		.4byte	.LVL188-1
 9067 0f02 14000000 		.4byte	.LFE35
 9068 0f06 0600     		.2byte	0x6
 9069 0f08 F3       		.byte	0xf3
 9070 0f09 03       		.uleb128 0x3
 9071 0f0a F5       		.byte	0xf5
ARM GAS  C:\Users\cronos\AppData\Local\Temp\ccrG4qtQ.s 			page 170


 9072 0f0b 02       		.uleb128 0x2
 9073 0f0c 2C       		.uleb128 0x2c
 9074 0f0d 9F       		.byte	0x9f
 9075 0f0e 00000000 		.4byte	0
 9076 0f12 00000000 		.4byte	0
 9077              	.LLST95:
 9078 0f16 00000000 		.4byte	.LVL189
 9079 0f1a 09000000 		.4byte	.LVL190-1
 9080 0f1e 0100     		.2byte	0x1
 9081 0f20 50       		.byte	0x50
 9082 0f21 09000000 		.4byte	.LVL190-1
 9083 0f25 0C000000 		.4byte	.LFE36
 9084 0f29 0400     		.2byte	0x4
 9085 0f2b F3       		.byte	0xf3
 9086 0f2c 01       		.uleb128 0x1
 9087 0f2d 50       		.byte	0x50
 9088 0f2e 9F       		.byte	0x9f
 9089 0f2f 00000000 		.4byte	0
 9090 0f33 00000000 		.4byte	0
 9091              	.LLST96:
 9092 0f37 00000000 		.4byte	.LVL189
 9093 0f3b 09000000 		.4byte	.LVL190-1
 9094 0f3f 0100     		.2byte	0x1
 9095 0f41 51       		.byte	0x51
 9096 0f42 09000000 		.4byte	.LVL190-1
 9097 0f46 0C000000 		.4byte	.LFE36
 9098 0f4a 0400     		.2byte	0x4
 9099 0f4c F3       		.byte	0xf3
 9100 0f4d 01       		.uleb128 0x1
 9101 0f4e 51       		.byte	0x51
 9102 0f4f 9F       		.byte	0x9f
 9103 0f50 00000000 		.4byte	0
 9104 0f54 00000000 		.4byte	0
 9105              	.LLST97:
 9106 0f58 00000000 		.4byte	.LVL191
 9107 0f5c 1E000000 		.4byte	.LVL193
 9108 0f60 0100     		.2byte	0x1
 9109 0f62 50       		.byte	0x50
 9110 0f63 1E000000 		.4byte	.LVL193
 9111 0f67 32000000 		.4byte	.LFE37
 9112 0f6b 0100     		.2byte	0x1
 9113 0f6d 55       		.byte	0x55
 9114 0f6e 00000000 		.4byte	0
 9115 0f72 00000000 		.4byte	0
 9116              	.LLST98:
 9117 0f76 00000000 		.4byte	.LVL191
 9118 0f7a 0A000000 		.4byte	.LVL192
 9119 0f7e 0100     		.2byte	0x1
 9120 0f80 51       		.byte	0x51
 9121 0f81 0A000000 		.4byte	.LVL192
 9122 0f85 32000000 		.4byte	.LFE37
 9123 0f89 0100     		.2byte	0x1
 9124 0f8b 54       		.byte	0x54
 9125 0f8c 00000000 		.4byte	0
 9126 0f90 00000000 		.4byte	0
 9127              	.LLST99:
 9128 0f94 00000000 		.4byte	.LVL197
ARM GAS  C:\Users\cronos\AppData\Local\Temp\ccrG4qtQ.s 			page 171


 9129 0f98 1E000000 		.4byte	.LVL199
 9130 0f9c 0100     		.2byte	0x1
 9131 0f9e 50       		.byte	0x50
 9132 0f9f 1E000000 		.4byte	.LVL199
 9133 0fa3 32000000 		.4byte	.LFE40
 9134 0fa7 0100     		.2byte	0x1
 9135 0fa9 55       		.byte	0x55
 9136 0faa 00000000 		.4byte	0
 9137 0fae 00000000 		.4byte	0
 9138              	.LLST100:
 9139 0fb2 00000000 		.4byte	.LVL197
 9140 0fb6 0A000000 		.4byte	.LVL198
 9141 0fba 0100     		.2byte	0x1
 9142 0fbc 51       		.byte	0x51
 9143 0fbd 0A000000 		.4byte	.LVL198
 9144 0fc1 32000000 		.4byte	.LFE40
 9145 0fc5 0100     		.2byte	0x1
 9146 0fc7 54       		.byte	0x54
 9147 0fc8 00000000 		.4byte	0
 9148 0fcc 00000000 		.4byte	0
 9149              	.LLST101:
 9150 0fd0 00000000 		.4byte	.LVL201
 9151 0fd4 20000000 		.4byte	.LVL205
 9152 0fd8 0100     		.2byte	0x1
 9153 0fda 50       		.byte	0x50
 9154 0fdb 20000000 		.4byte	.LVL205
 9155 0fdf 74000000 		.4byte	.LFE41
 9156 0fe3 0100     		.2byte	0x1
 9157 0fe5 57       		.byte	0x57
 9158 0fe6 00000000 		.4byte	0
 9159 0fea 00000000 		.4byte	0
 9160              	.LLST102:
 9161 0fee 00000000 		.4byte	.LVL201
 9162 0ff2 10000000 		.4byte	.LVL203
 9163 0ff6 0100     		.2byte	0x1
 9164 0ff8 51       		.byte	0x51
 9165 0ff9 10000000 		.4byte	.LVL203
 9166 0ffd 74000000 		.4byte	.LFE41
 9167 1001 0100     		.2byte	0x1
 9168 1003 56       		.byte	0x56
 9169 1004 00000000 		.4byte	0
 9170 1008 00000000 		.4byte	0
 9171              	.LLST103:
 9172 100c 00000000 		.4byte	.LVL201
 9173 1010 0E000000 		.4byte	.LVL202
 9174 1014 0100     		.2byte	0x1
 9175 1016 52       		.byte	0x52
 9176 1017 0E000000 		.4byte	.LVL202
 9177 101b 74000000 		.4byte	.LFE41
 9178 101f 0100     		.2byte	0x1
 9179 1021 55       		.byte	0x55
 9180 1022 00000000 		.4byte	0
 9181 1026 00000000 		.4byte	0
 9182              	.LLST104:
 9183 102a 00000000 		.4byte	.LVL201
 9184 102e 1E000000 		.4byte	.LVL204
 9185 1032 0100     		.2byte	0x1
ARM GAS  C:\Users\cronos\AppData\Local\Temp\ccrG4qtQ.s 			page 172


 9186 1034 53       		.byte	0x53
 9187 1035 1E000000 		.4byte	.LVL204
 9188 1039 74000000 		.4byte	.LFE41
 9189 103d 0100     		.2byte	0x1
 9190 103f 54       		.byte	0x54
 9191 1040 00000000 		.4byte	0
 9192 1044 00000000 		.4byte	0
 9193              	.LLST105:
 9194 1048 3E000000 		.4byte	.LVL207
 9195 104c 42000000 		.4byte	.LVL208
 9196 1050 0200     		.2byte	0x2
 9197 1052 30       		.byte	0x30
 9198 1053 9F       		.byte	0x9f
 9199 1054 42000000 		.4byte	.LVL208
 9200 1058 50000000 		.4byte	.LVL209
 9201 105c 0100     		.2byte	0x1
 9202 105e 53       		.byte	0x53
 9203 105f 52000000 		.4byte	.LVL210
 9204 1063 58000000 		.4byte	.LVL211
 9205 1067 0100     		.2byte	0x1
 9206 1069 53       		.byte	0x53
 9207 106a 00000000 		.4byte	0
 9208 106e 00000000 		.4byte	0
 9209              	.LLST106:
 9210 1072 5A000000 		.4byte	.LVL212
 9211 1076 6A000000 		.4byte	.LVL213
 9212 107a 0100     		.2byte	0x1
 9213 107c 53       		.byte	0x53
 9214 107d 6C000000 		.4byte	.LVL214
 9215 1081 70000000 		.4byte	.LVL215
 9216 1085 0100     		.2byte	0x1
 9217 1087 53       		.byte	0x53
 9218 1088 00000000 		.4byte	0
 9219 108c 00000000 		.4byte	0
 9220              	.LLST107:
 9221 1090 00000000 		.4byte	.LVL216
 9222 1094 20000000 		.4byte	.LVL220
 9223 1098 0100     		.2byte	0x1
 9224 109a 50       		.byte	0x50
 9225 109b 20000000 		.4byte	.LVL220
 9226 109f 74000000 		.4byte	.LFE42
 9227 10a3 0100     		.2byte	0x1
 9228 10a5 57       		.byte	0x57
 9229 10a6 00000000 		.4byte	0
 9230 10aa 00000000 		.4byte	0
 9231              	.LLST108:
 9232 10ae 00000000 		.4byte	.LVL216
 9233 10b2 10000000 		.4byte	.LVL218
 9234 10b6 0100     		.2byte	0x1
 9235 10b8 51       		.byte	0x51
 9236 10b9 10000000 		.4byte	.LVL218
 9237 10bd 74000000 		.4byte	.LFE42
 9238 10c1 0100     		.2byte	0x1
 9239 10c3 56       		.byte	0x56
 9240 10c4 00000000 		.4byte	0
 9241 10c8 00000000 		.4byte	0
 9242              	.LLST109:
ARM GAS  C:\Users\cronos\AppData\Local\Temp\ccrG4qtQ.s 			page 173


 9243 10cc 00000000 		.4byte	.LVL216
 9244 10d0 0E000000 		.4byte	.LVL217
 9245 10d4 0100     		.2byte	0x1
 9246 10d6 52       		.byte	0x52
 9247 10d7 0E000000 		.4byte	.LVL217
 9248 10db 74000000 		.4byte	.LFE42
 9249 10df 0100     		.2byte	0x1
 9250 10e1 55       		.byte	0x55
 9251 10e2 00000000 		.4byte	0
 9252 10e6 00000000 		.4byte	0
 9253              	.LLST110:
 9254 10ea 00000000 		.4byte	.LVL216
 9255 10ee 1E000000 		.4byte	.LVL219
 9256 10f2 0100     		.2byte	0x1
 9257 10f4 53       		.byte	0x53
 9258 10f5 1E000000 		.4byte	.LVL219
 9259 10f9 74000000 		.4byte	.LFE42
 9260 10fd 0100     		.2byte	0x1
 9261 10ff 54       		.byte	0x54
 9262 1100 00000000 		.4byte	0
 9263 1104 00000000 		.4byte	0
 9264              	.LLST111:
 9265 1108 3E000000 		.4byte	.LVL222
 9266 110c 42000000 		.4byte	.LVL223
 9267 1110 0200     		.2byte	0x2
 9268 1112 30       		.byte	0x30
 9269 1113 9F       		.byte	0x9f
 9270 1114 42000000 		.4byte	.LVL223
 9271 1118 50000000 		.4byte	.LVL224
 9272 111c 0100     		.2byte	0x1
 9273 111e 53       		.byte	0x53
 9274 111f 52000000 		.4byte	.LVL225
 9275 1123 58000000 		.4byte	.LVL226
 9276 1127 0100     		.2byte	0x1
 9277 1129 53       		.byte	0x53
 9278 112a 00000000 		.4byte	0
 9279 112e 00000000 		.4byte	0
 9280              	.LLST112:
 9281 1132 5A000000 		.4byte	.LVL227
 9282 1136 6A000000 		.4byte	.LVL228
 9283 113a 0100     		.2byte	0x1
 9284 113c 53       		.byte	0x53
 9285 113d 6C000000 		.4byte	.LVL229
 9286 1141 70000000 		.4byte	.LVL230
 9287 1145 0100     		.2byte	0x1
 9288 1147 53       		.byte	0x53
 9289 1148 00000000 		.4byte	0
 9290 114c 00000000 		.4byte	0
 9291              	.LLST113:
 9292 1150 00000000 		.4byte	.LVL231
 9293 1154 1E000000 		.4byte	.LVL233
 9294 1158 0100     		.2byte	0x1
 9295 115a 50       		.byte	0x50
 9296 115b 1E000000 		.4byte	.LVL233
 9297 115f 32000000 		.4byte	.LFE43
 9298 1163 0100     		.2byte	0x1
 9299 1165 55       		.byte	0x55
ARM GAS  C:\Users\cronos\AppData\Local\Temp\ccrG4qtQ.s 			page 174


 9300 1166 00000000 		.4byte	0
 9301 116a 00000000 		.4byte	0
 9302              	.LLST114:
 9303 116e 00000000 		.4byte	.LVL231
 9304 1172 0A000000 		.4byte	.LVL232
 9305 1176 0100     		.2byte	0x1
 9306 1178 51       		.byte	0x51
 9307 1179 0A000000 		.4byte	.LVL232
 9308 117d 32000000 		.4byte	.LFE43
 9309 1181 0100     		.2byte	0x1
 9310 1183 54       		.byte	0x54
 9311 1184 00000000 		.4byte	0
 9312 1188 00000000 		.4byte	0
 9313              	.LLST115:
 9314 118c 00000000 		.4byte	.LVL236
 9315 1190 12000000 		.4byte	.LVL237
 9316 1194 0100     		.2byte	0x1
 9317 1196 50       		.byte	0x50
 9318 1197 12000000 		.4byte	.LVL237
 9319 119b 15000000 		.4byte	.LVL238-1
 9320 119f 0200     		.2byte	0x2
 9321 11a1 72       		.byte	0x72
 9322 11a2 00       		.sleb128 0
 9323 11a3 15000000 		.4byte	.LVL238-1
 9324 11a7 1C000000 		.4byte	.LFE45
 9325 11ab 0200     		.2byte	0x2
 9326 11ad 91       		.byte	0x91
 9327 11ae 76       		.sleb128 -10
 9328 11af 00000000 		.4byte	0
 9329 11b3 00000000 		.4byte	0
 9330              	.LLST116:
 9331 11b7 00000000 		.4byte	.LVL240
 9332 11bb 20000000 		.4byte	.LVL244
 9333 11bf 0100     		.2byte	0x1
 9334 11c1 50       		.byte	0x50
 9335 11c2 20000000 		.4byte	.LVL244
 9336 11c6 50000000 		.4byte	.LFE47
 9337 11ca 0100     		.2byte	0x1
 9338 11cc 57       		.byte	0x57
 9339 11cd 00000000 		.4byte	0
 9340 11d1 00000000 		.4byte	0
 9341              	.LLST117:
 9342 11d5 00000000 		.4byte	.LVL240
 9343 11d9 10000000 		.4byte	.LVL242
 9344 11dd 0100     		.2byte	0x1
 9345 11df 51       		.byte	0x51
 9346 11e0 10000000 		.4byte	.LVL242
 9347 11e4 50000000 		.4byte	.LFE47
 9348 11e8 0100     		.2byte	0x1
 9349 11ea 56       		.byte	0x56
 9350 11eb 00000000 		.4byte	0
 9351 11ef 00000000 		.4byte	0
 9352              	.LLST118:
 9353 11f3 00000000 		.4byte	.LVL240
 9354 11f7 0E000000 		.4byte	.LVL241
 9355 11fb 0100     		.2byte	0x1
 9356 11fd 52       		.byte	0x52
ARM GAS  C:\Users\cronos\AppData\Local\Temp\ccrG4qtQ.s 			page 175


 9357 11fe 0E000000 		.4byte	.LVL241
 9358 1202 50000000 		.4byte	.LFE47
 9359 1206 0100     		.2byte	0x1
 9360 1208 54       		.byte	0x54
 9361 1209 00000000 		.4byte	0
 9362 120d 00000000 		.4byte	0
 9363              	.LLST119:
 9364 1211 00000000 		.4byte	.LVL240
 9365 1215 1E000000 		.4byte	.LVL243
 9366 1219 0100     		.2byte	0x1
 9367 121b 53       		.byte	0x53
 9368 121c 1E000000 		.4byte	.LVL243
 9369 1220 50000000 		.4byte	.LFE47
 9370 1224 0100     		.2byte	0x1
 9371 1226 55       		.byte	0x55
 9372 1227 00000000 		.4byte	0
 9373 122b 00000000 		.4byte	0
 9374              	.LLST120:
 9375 122f 00000000 		.4byte	.LVL246
 9376 1233 16000000 		.4byte	.LVL248
 9377 1237 0100     		.2byte	0x1
 9378 1239 50       		.byte	0x50
 9379 123a 16000000 		.4byte	.LVL248
 9380 123e 34000000 		.4byte	.LFE48
 9381 1242 0100     		.2byte	0x1
 9382 1244 55       		.byte	0x55
 9383 1245 00000000 		.4byte	0
 9384 1249 00000000 		.4byte	0
 9385              	.LLST121:
 9386 124d 00000000 		.4byte	.LVL246
 9387 1251 0C000000 		.4byte	.LVL247
 9388 1255 0100     		.2byte	0x1
 9389 1257 51       		.byte	0x51
 9390 1258 0C000000 		.4byte	.LVL247
 9391 125c 34000000 		.4byte	.LFE48
 9392 1260 0100     		.2byte	0x1
 9393 1262 54       		.byte	0x54
 9394 1263 00000000 		.4byte	0
 9395 1267 00000000 		.4byte	0
 9396              	.LLST122:
 9397 126b 00000000 		.4byte	.LVL250
 9398 126f 0E000000 		.4byte	.LVL252
 9399 1273 0100     		.2byte	0x1
 9400 1275 50       		.byte	0x50
 9401 1276 0E000000 		.4byte	.LVL252
 9402 127a 11000000 		.4byte	.LVL253-1
 9403 127e 0100     		.2byte	0x1
 9404 1280 52       		.byte	0x52
 9405 1281 11000000 		.4byte	.LVL253-1
 9406 1285 18000000 		.4byte	.LFE49
 9407 1289 0400     		.2byte	0x4
 9408 128b F3       		.byte	0xf3
 9409 128c 01       		.uleb128 0x1
 9410 128d 50       		.byte	0x50
 9411 128e 9F       		.byte	0x9f
 9412 128f 00000000 		.4byte	0
 9413 1293 00000000 		.4byte	0
ARM GAS  C:\Users\cronos\AppData\Local\Temp\ccrG4qtQ.s 			page 176


 9414              	.LLST123:
 9415 1297 00000000 		.4byte	.LVL250
 9416 129b 0C000000 		.4byte	.LVL251
 9417 129f 0100     		.2byte	0x1
 9418 12a1 51       		.byte	0x51
 9419 12a2 0C000000 		.4byte	.LVL251
 9420 12a6 11000000 		.4byte	.LVL253-1
 9421 12aa 0200     		.2byte	0x2
 9422 12ac 7D       		.byte	0x7d
 9423 12ad 00       		.sleb128 0
 9424 12ae 11000000 		.4byte	.LVL253-1
 9425 12b2 18000000 		.4byte	.LFE49
 9426 12b6 0400     		.2byte	0x4
 9427 12b8 F3       		.byte	0xf3
 9428 12b9 01       		.uleb128 0x1
 9429 12ba 51       		.byte	0x51
 9430 12bb 9F       		.byte	0x9f
 9431 12bc 00000000 		.4byte	0
 9432 12c0 00000000 		.4byte	0
 9433              	.LLST124:
 9434 12c4 1E000000 		.4byte	.LVL254
 9435 12c8 26000000 		.4byte	.LVL255
 9436 12cc 0100     		.2byte	0x1
 9437 12ce 50       		.byte	0x50
 9438 12cf 28000000 		.4byte	.LVL256
 9439 12d3 2A000000 		.4byte	.LVL257
 9440 12d7 0100     		.2byte	0x1
 9441 12d9 50       		.byte	0x50
 9442 12da 00000000 		.4byte	0
 9443 12de 00000000 		.4byte	0
 9444              	.LLST125:
 9445 12e2 00000000 		.4byte	.LVL258
 9446 12e6 16000000 		.4byte	.LVL259
 9447 12ea 0100     		.2byte	0x1
 9448 12ec 50       		.byte	0x50
 9449 12ed 16000000 		.4byte	.LVL259
 9450 12f1 4A000000 		.4byte	.LFE51
 9451 12f5 0100     		.2byte	0x1
 9452 12f7 54       		.byte	0x54
 9453 12f8 00000000 		.4byte	0
 9454 12fc 00000000 		.4byte	0
 9455              	.LLST126:
 9456 1300 2C000000 		.4byte	.LVL261
 9457 1304 38000000 		.4byte	.LVL262
 9458 1308 0100     		.2byte	0x1
 9459 130a 53       		.byte	0x53
 9460 130b 3A000000 		.4byte	.LVL263
 9461 130f 44000000 		.4byte	.LVL264
 9462 1313 0100     		.2byte	0x1
 9463 1315 53       		.byte	0x53
 9464 1316 00000000 		.4byte	0
 9465 131a 00000000 		.4byte	0
 9466              	.LLST127:
 9467 131e 00000000 		.4byte	.LVL265
 9468 1322 0E000000 		.4byte	.LVL266
 9469 1326 0100     		.2byte	0x1
 9470 1328 50       		.byte	0x50
ARM GAS  C:\Users\cronos\AppData\Local\Temp\ccrG4qtQ.s 			page 177


 9471 1329 0E000000 		.4byte	.LVL266
 9472 132d 4C000000 		.4byte	.LFE52
 9473 1331 0100     		.2byte	0x1
 9474 1333 54       		.byte	0x54
 9475 1334 00000000 		.4byte	0
 9476 1338 00000000 		.4byte	0
 9477              	.LLST128:
 9478 133c 2E000000 		.4byte	.LVL269
 9479 1340 3A000000 		.4byte	.LVL270
 9480 1344 0100     		.2byte	0x1
 9481 1346 53       		.byte	0x53
 9482 1347 3C000000 		.4byte	.LVL271
 9483 134b 46000000 		.4byte	.LVL272
 9484 134f 0100     		.2byte	0x1
 9485 1351 53       		.byte	0x53
 9486 1352 00000000 		.4byte	0
 9487 1356 00000000 		.4byte	0
 9488              	.LLST129:
 9489 135a 00000000 		.4byte	.LVL277
 9490 135e 12000000 		.4byte	.LVL278
 9491 1362 0100     		.2byte	0x1
 9492 1364 50       		.byte	0x50
 9493 1365 12000000 		.4byte	.LVL278
 9494 1369 15000000 		.4byte	.LVL279-1
 9495 136d 0200     		.2byte	0x2
 9496 136f 72       		.byte	0x72
 9497 1370 00       		.sleb128 0
 9498 1371 15000000 		.4byte	.LVL279-1
 9499 1375 1C000000 		.4byte	.LFE57
 9500 1379 0400     		.2byte	0x4
 9501 137b F3       		.byte	0xf3
 9502 137c 01       		.uleb128 0x1
 9503 137d 50       		.byte	0x50
 9504 137e 9F       		.byte	0x9f
 9505 137f 00000000 		.4byte	0
 9506 1383 00000000 		.4byte	0
 9507              		.section	.debug_aranges,"",%progbits
 9508 0000 EC010000 		.4byte	0x1ec
 9509 0004 0200     		.2byte	0x2
 9510 0006 00000000 		.4byte	.Ldebug_info0
 9511 000a 04       		.byte	0x4
 9512 000b 00       		.byte	0
 9513 000c 0000     		.2byte	0
 9514 000e 0000     		.2byte	0
 9515 0010 00000000 		.4byte	.LFB0
 9516 0014 28010000 		.4byte	.LFE0-.LFB0
 9517 0018 00000000 		.4byte	.LFB1
 9518 001c 30000000 		.4byte	.LFE1-.LFB1
 9519 0020 00000000 		.4byte	.LFB2
 9520 0024 32000000 		.4byte	.LFE2-.LFB2
 9521 0028 00000000 		.4byte	.LFB3
 9522 002c 08000000 		.4byte	.LFE3-.LFB3
 9523 0030 00000000 		.4byte	.LFB4
 9524 0034 34000000 		.4byte	.LFE4-.LFB4
 9525 0038 00000000 		.4byte	.LFB5
 9526 003c 28000000 		.4byte	.LFE5-.LFB5
 9527 0040 00000000 		.4byte	.LFB6
ARM GAS  C:\Users\cronos\AppData\Local\Temp\ccrG4qtQ.s 			page 178


 9528 0044 38000000 		.4byte	.LFE6-.LFB6
 9529 0048 00000000 		.4byte	.LFB7
 9530 004c 6E000000 		.4byte	.LFE7-.LFB7
 9531 0050 00000000 		.4byte	.LFB8
 9532 0054 1C000000 		.4byte	.LFE8-.LFB8
 9533 0058 00000000 		.4byte	.LFB9
 9534 005c 1C000000 		.4byte	.LFE9-.LFB9
 9535 0060 00000000 		.4byte	.LFB10
 9536 0064 22000000 		.4byte	.LFE10-.LFB10
 9537 0068 00000000 		.4byte	.LFB11
 9538 006c 22000000 		.4byte	.LFE11-.LFB11
 9539 0070 00000000 		.4byte	.LFB12
 9540 0074 1C000000 		.4byte	.LFE12-.LFB12
 9541 0078 00000000 		.4byte	.LFB13
 9542 007c 22000000 		.4byte	.LFE13-.LFB13
 9543 0080 00000000 		.4byte	.LFB14
 9544 0084 18000000 		.4byte	.LFE14-.LFB14
 9545 0088 00000000 		.4byte	.LFB15
 9546 008c 0C000000 		.4byte	.LFE15-.LFB15
 9547 0090 00000000 		.4byte	.LFB16
 9548 0094 0C000000 		.4byte	.LFE16-.LFB16
 9549 0098 00000000 		.4byte	.LFB17
 9550 009c 14000000 		.4byte	.LFE17-.LFB17
 9551 00a0 00000000 		.4byte	.LFB18
 9552 00a4 14000000 		.4byte	.LFE18-.LFB18
 9553 00a8 00000000 		.4byte	.LFB19
 9554 00ac 0C000000 		.4byte	.LFE19-.LFB19
 9555 00b0 00000000 		.4byte	.LFB20
 9556 00b4 14000000 		.4byte	.LFE20-.LFB20
 9557 00b8 00000000 		.4byte	.LFB21
 9558 00bc 0C000000 		.4byte	.LFE21-.LFB21
 9559 00c0 00000000 		.4byte	.LFB22
 9560 00c4 6E000000 		.4byte	.LFE22-.LFB22
 9561 00c8 00000000 		.4byte	.LFB23
 9562 00cc 1C000000 		.4byte	.LFE23-.LFB23
 9563 00d0 00000000 		.4byte	.LFB24
 9564 00d4 1C000000 		.4byte	.LFE24-.LFB24
 9565 00d8 00000000 		.4byte	.LFB25
 9566 00dc 22000000 		.4byte	.LFE25-.LFB25
 9567 00e0 00000000 		.4byte	.LFB26
 9568 00e4 22000000 		.4byte	.LFE26-.LFB26
 9569 00e8 00000000 		.4byte	.LFB27
 9570 00ec 1C000000 		.4byte	.LFE27-.LFB27
 9571 00f0 00000000 		.4byte	.LFB28
 9572 00f4 22000000 		.4byte	.LFE28-.LFB28
 9573 00f8 00000000 		.4byte	.LFB29
 9574 00fc 18000000 		.4byte	.LFE29-.LFB29
 9575 0100 00000000 		.4byte	.LFB30
 9576 0104 0C000000 		.4byte	.LFE30-.LFB30
 9577 0108 00000000 		.4byte	.LFB31
 9578 010c 0C000000 		.4byte	.LFE31-.LFB31
 9579 0110 00000000 		.4byte	.LFB32
 9580 0114 14000000 		.4byte	.LFE32-.LFB32
 9581 0118 00000000 		.4byte	.LFB33
 9582 011c 14000000 		.4byte	.LFE33-.LFB33
 9583 0120 00000000 		.4byte	.LFB34
 9584 0124 0C000000 		.4byte	.LFE34-.LFB34
ARM GAS  C:\Users\cronos\AppData\Local\Temp\ccrG4qtQ.s 			page 179


 9585 0128 00000000 		.4byte	.LFB35
 9586 012c 14000000 		.4byte	.LFE35-.LFB35
 9587 0130 00000000 		.4byte	.LFB36
 9588 0134 0C000000 		.4byte	.LFE36-.LFB36
 9589 0138 00000000 		.4byte	.LFB37
 9590 013c 32000000 		.4byte	.LFE37-.LFB37
 9591 0140 00000000 		.4byte	.LFB38
 9592 0144 18000000 		.4byte	.LFE38-.LFB38
 9593 0148 00000000 		.4byte	.LFB39
 9594 014c 18000000 		.4byte	.LFE39-.LFB39
 9595 0150 00000000 		.4byte	.LFB40
 9596 0154 32000000 		.4byte	.LFE40-.LFB40
 9597 0158 00000000 		.4byte	.LFB41
 9598 015c 74000000 		.4byte	.LFE41-.LFB41
 9599 0160 00000000 		.4byte	.LFB42
 9600 0164 74000000 		.4byte	.LFE42-.LFB42
 9601 0168 00000000 		.4byte	.LFB43
 9602 016c 32000000 		.4byte	.LFE43-.LFB43
 9603 0170 00000000 		.4byte	.LFB44
 9604 0174 18000000 		.4byte	.LFE44-.LFB44
 9605 0178 00000000 		.4byte	.LFB45
 9606 017c 1C000000 		.4byte	.LFE45-.LFB45
 9607 0180 00000000 		.4byte	.LFB46
 9608 0184 18000000 		.4byte	.LFE46-.LFB46
 9609 0188 00000000 		.4byte	.LFB47
 9610 018c 50000000 		.4byte	.LFE47-.LFB47
 9611 0190 00000000 		.4byte	.LFB48
 9612 0194 34000000 		.4byte	.LFE48-.LFB48
 9613 0198 00000000 		.4byte	.LFB49
 9614 019c 18000000 		.4byte	.LFE49-.LFB49
 9615 01a0 00000000 		.4byte	.LFB50
 9616 01a4 30000000 		.4byte	.LFE50-.LFB50
 9617 01a8 00000000 		.4byte	.LFB51
 9618 01ac 4A000000 		.4byte	.LFE51-.LFB51
 9619 01b0 00000000 		.4byte	.LFB52
 9620 01b4 4C000000 		.4byte	.LFE52-.LFB52
 9621 01b8 00000000 		.4byte	.LFB53
 9622 01bc 24000000 		.4byte	.LFE53-.LFB53
 9623 01c0 00000000 		.4byte	.LFB54
 9624 01c4 18000000 		.4byte	.LFE54-.LFB54
 9625 01c8 00000000 		.4byte	.LFB55
 9626 01cc 30000000 		.4byte	.LFE55-.LFB55
 9627 01d0 00000000 		.4byte	.LFB56
 9628 01d4 18000000 		.4byte	.LFE56-.LFB56
 9629 01d8 00000000 		.4byte	.LFB57
 9630 01dc 1C000000 		.4byte	.LFE57-.LFB57
 9631 01e0 00000000 		.4byte	.LFB58
 9632 01e4 30000000 		.4byte	.LFE58-.LFB58
 9633 01e8 00000000 		.4byte	0
 9634 01ec 00000000 		.4byte	0
 9635              		.section	.debug_ranges,"",%progbits
 9636              	.Ldebug_ranges0:
 9637 0000 40000000 		.4byte	.LBB5
 9638 0004 56000000 		.4byte	.LBE5
 9639 0008 58000000 		.4byte	.LBB6
 9640 000c 5C000000 		.4byte	.LBE6
 9641 0010 00000000 		.4byte	0
ARM GAS  C:\Users\cronos\AppData\Local\Temp\ccrG4qtQ.s 			page 180


 9642 0014 00000000 		.4byte	0
 9643 0018 40000000 		.4byte	.LBB8
 9644 001c 56000000 		.4byte	.LBE8
 9645 0020 58000000 		.4byte	.LBB9
 9646 0024 5C000000 		.4byte	.LBE9
 9647 0028 00000000 		.4byte	0
 9648 002c 00000000 		.4byte	0
 9649 0030 00000000 		.4byte	.LFB0
 9650 0034 28010000 		.4byte	.LFE0
 9651 0038 00000000 		.4byte	.LFB1
 9652 003c 30000000 		.4byte	.LFE1
 9653 0040 00000000 		.4byte	.LFB2
 9654 0044 32000000 		.4byte	.LFE2
 9655 0048 00000000 		.4byte	.LFB3
 9656 004c 08000000 		.4byte	.LFE3
 9657 0050 00000000 		.4byte	.LFB4
 9658 0054 34000000 		.4byte	.LFE4
 9659 0058 00000000 		.4byte	.LFB5
 9660 005c 28000000 		.4byte	.LFE5
 9661 0060 00000000 		.4byte	.LFB6
 9662 0064 38000000 		.4byte	.LFE6
 9663 0068 00000000 		.4byte	.LFB7
 9664 006c 6E000000 		.4byte	.LFE7
 9665 0070 00000000 		.4byte	.LFB8
 9666 0074 1C000000 		.4byte	.LFE8
 9667 0078 00000000 		.4byte	.LFB9
 9668 007c 1C000000 		.4byte	.LFE9
 9669 0080 00000000 		.4byte	.LFB10
 9670 0084 22000000 		.4byte	.LFE10
 9671 0088 00000000 		.4byte	.LFB11
 9672 008c 22000000 		.4byte	.LFE11
 9673 0090 00000000 		.4byte	.LFB12
 9674 0094 1C000000 		.4byte	.LFE12
 9675 0098 00000000 		.4byte	.LFB13
 9676 009c 22000000 		.4byte	.LFE13
 9677 00a0 00000000 		.4byte	.LFB14
 9678 00a4 18000000 		.4byte	.LFE14
 9679 00a8 00000000 		.4byte	.LFB15
 9680 00ac 0C000000 		.4byte	.LFE15
 9681 00b0 00000000 		.4byte	.LFB16
 9682 00b4 0C000000 		.4byte	.LFE16
 9683 00b8 00000000 		.4byte	.LFB17
 9684 00bc 14000000 		.4byte	.LFE17
 9685 00c0 00000000 		.4byte	.LFB18
 9686 00c4 14000000 		.4byte	.LFE18
 9687 00c8 00000000 		.4byte	.LFB19
 9688 00cc 0C000000 		.4byte	.LFE19
 9689 00d0 00000000 		.4byte	.LFB20
 9690 00d4 14000000 		.4byte	.LFE20
 9691 00d8 00000000 		.4byte	.LFB21
 9692 00dc 0C000000 		.4byte	.LFE21
 9693 00e0 00000000 		.4byte	.LFB22
 9694 00e4 6E000000 		.4byte	.LFE22
 9695 00e8 00000000 		.4byte	.LFB23
 9696 00ec 1C000000 		.4byte	.LFE23
 9697 00f0 00000000 		.4byte	.LFB24
 9698 00f4 1C000000 		.4byte	.LFE24
ARM GAS  C:\Users\cronos\AppData\Local\Temp\ccrG4qtQ.s 			page 181


 9699 00f8 00000000 		.4byte	.LFB25
 9700 00fc 22000000 		.4byte	.LFE25
 9701 0100 00000000 		.4byte	.LFB26
 9702 0104 22000000 		.4byte	.LFE26
 9703 0108 00000000 		.4byte	.LFB27
 9704 010c 1C000000 		.4byte	.LFE27
 9705 0110 00000000 		.4byte	.LFB28
 9706 0114 22000000 		.4byte	.LFE28
 9707 0118 00000000 		.4byte	.LFB29
 9708 011c 18000000 		.4byte	.LFE29
 9709 0120 00000000 		.4byte	.LFB30
 9710 0124 0C000000 		.4byte	.LFE30
 9711 0128 00000000 		.4byte	.LFB31
 9712 012c 0C000000 		.4byte	.LFE31
 9713 0130 00000000 		.4byte	.LFB32
 9714 0134 14000000 		.4byte	.LFE32
 9715 0138 00000000 		.4byte	.LFB33
 9716 013c 14000000 		.4byte	.LFE33
 9717 0140 00000000 		.4byte	.LFB34
 9718 0144 0C000000 		.4byte	.LFE34
 9719 0148 00000000 		.4byte	.LFB35
 9720 014c 14000000 		.4byte	.LFE35
 9721 0150 00000000 		.4byte	.LFB36
 9722 0154 0C000000 		.4byte	.LFE36
 9723 0158 00000000 		.4byte	.LFB37
 9724 015c 32000000 		.4byte	.LFE37
 9725 0160 00000000 		.4byte	.LFB38
 9726 0164 18000000 		.4byte	.LFE38
 9727 0168 00000000 		.4byte	.LFB39
 9728 016c 18000000 		.4byte	.LFE39
 9729 0170 00000000 		.4byte	.LFB40
 9730 0174 32000000 		.4byte	.LFE40
 9731 0178 00000000 		.4byte	.LFB41
 9732 017c 74000000 		.4byte	.LFE41
 9733 0180 00000000 		.4byte	.LFB42
 9734 0184 74000000 		.4byte	.LFE42
 9735 0188 00000000 		.4byte	.LFB43
 9736 018c 32000000 		.4byte	.LFE43
 9737 0190 00000000 		.4byte	.LFB44
 9738 0194 18000000 		.4byte	.LFE44
 9739 0198 00000000 		.4byte	.LFB45
 9740 019c 1C000000 		.4byte	.LFE45
 9741 01a0 00000000 		.4byte	.LFB46
 9742 01a4 18000000 		.4byte	.LFE46
 9743 01a8 00000000 		.4byte	.LFB47
 9744 01ac 50000000 		.4byte	.LFE47
 9745 01b0 00000000 		.4byte	.LFB48
 9746 01b4 34000000 		.4byte	.LFE48
 9747 01b8 00000000 		.4byte	.LFB49
 9748 01bc 18000000 		.4byte	.LFE49
 9749 01c0 00000000 		.4byte	.LFB50
 9750 01c4 30000000 		.4byte	.LFE50
 9751 01c8 00000000 		.4byte	.LFB51
 9752 01cc 4A000000 		.4byte	.LFE51
 9753 01d0 00000000 		.4byte	.LFB52
 9754 01d4 4C000000 		.4byte	.LFE52
 9755 01d8 00000000 		.4byte	.LFB53
ARM GAS  C:\Users\cronos\AppData\Local\Temp\ccrG4qtQ.s 			page 182


 9756 01dc 24000000 		.4byte	.LFE53
 9757 01e0 00000000 		.4byte	.LFB54
 9758 01e4 18000000 		.4byte	.LFE54
 9759 01e8 00000000 		.4byte	.LFB55
 9760 01ec 30000000 		.4byte	.LFE55
 9761 01f0 00000000 		.4byte	.LFB56
 9762 01f4 18000000 		.4byte	.LFE56
 9763 01f8 00000000 		.4byte	.LFB57
 9764 01fc 1C000000 		.4byte	.LFE57
 9765 0200 00000000 		.4byte	.LFB58
 9766 0204 30000000 		.4byte	.LFE58
 9767 0208 00000000 		.4byte	0
 9768 020c 00000000 		.4byte	0
 9769              		.section	.debug_line,"",%progbits
 9770              	.Ldebug_line0:
 9771 0000 D3060000 		.section	.debug_str,"MS",%progbits,1
 9771      02004A01 
 9771      00000201 
 9771      FB0E0D00 
 9771      01010101 
 9772              	.LASF34:
 9773 0000 72656365 		.ascii	"receivedResponseLength\000"
 9773      69766564 
 9773      52657370 
 9773      6F6E7365 
 9773      4C656E67 
 9774              	.LASF31:
 9775 0017 72657375 		.ascii	"result\000"
 9775      6C7400
 9776              	.LASF96:
 9777 001e 74696D65 		.ascii	"timestamp\000"
 9777      7374616D 
 9777      7000
 9778              	.LASF75:
 9779 0028 73656E64 		.ascii	"sendImmediately_f\000"
 9779      496D6D65 
 9779      64696174 
 9779      656C795F 
 9779      6600
 9780              	.LASF82:
 9781 003a 73656E64 		.ascii	"send\000"
 9781      00
 9782              	.LASF58:
 9783 003f 656E7175 		.ascii	"enqueueTx_i64\000"
 9783      65756554 
 9783      785F6936 
 9783      3400
 9784              	.LASF24:
 9785 004d 75696E74 		.ascii	"uint64_t\000"
 9785      36345F74 
 9785      00
 9786              	.LASF101:
 9787 0056 67657450 		.ascii	"getProductID\000"
 9787      726F6475 
 9787      63744944 
 9787      00
 9788              	.LASF7:
ARM GAS  C:\Users\cronos\AppData\Local\Temp\ccrG4qtQ.s 			page 183


 9789 0063 73686F72 		.ascii	"short int\000"
 9789      7420696E 
 9789      7400
 9790              	.LASF35:
 9791 006d 73697A65 		.ascii	"sizetype\000"
 9791      74797065 
 9791      00
 9792              	.LASF45:
 9793 0076 656E7175 		.ascii	"enqueueTxRaw\000"
 9793      65756554 
 9793      78526177 
 9793      00
 9794              	.LASF59:
 9795 0083 656E7175 		.ascii	"enqueueTx_ui64\000"
 9795      65756554 
 9795      785F7569 
 9795      363400
 9796              	.LASF66:
 9797 0092 73656E64 		.ascii	"sendImmediately2_i64\000"
 9797      496D6D65 
 9797      64696174 
 9797      656C7932 
 9797      5F693634 
 9798              	.LASF12:
 9799 00a7 5F5F7569 		.ascii	"__uint32_t\000"
 9799      6E743332 
 9799      5F7400
 9800              	.LASF87:
 9801 00b2 7065656B 		.ascii	"peekRx\000"
 9801      527800
 9802              	.LASF106:
 9803 00b9 75706461 		.ascii	"updateFirmware\000"
 9803      74654669 
 9803      726D7761 
 9803      726500
 9804              	.LASF8:
 9805 00c8 5F5F7569 		.ascii	"__uint16_t\000"
 9805      6E743136 
 9805      5F7400
 9806              	.LASF72:
 9807 00d3 73656E64 		.ascii	"sendImmediately_ui32\000"
 9807      496D6D65 
 9807      64696174 
 9807      656C795F 
 9807      75693332 
 9808              	.LASF76:
 9809 00e8 73656E64 		.ascii	"sendImmediately_d\000"
 9809      496D6D65 
 9809      64696174 
 9809      656C795F 
 9809      6400
 9810              	.LASF23:
 9811 00fa 696E7436 		.ascii	"int64_t\000"
 9811      345F7400 
 9812              	.LASF49:
 9813 0102 76616C75 		.ascii	"value\000"
 9813      6500
ARM GAS  C:\Users\cronos\AppData\Local\Temp\ccrG4qtQ.s 			page 184


 9814              	.LASF83:
 9815 0108 67657454 		.ascii	"getTxStatus\000"
 9815      78537461 
 9815      74757300 
 9816              	.LASF54:
 9817 0114 656E7175 		.ascii	"enqueueTx2_d\000"
 9817      65756554 
 9817      78325F64 
 9817      00
 9818              	.LASF53:
 9819 0121 656E7175 		.ascii	"enqueueTx2_f\000"
 9819      65756554 
 9819      78325F66 
 9819      00
 9820              	.LASF18:
 9821 012e 75696E74 		.ascii	"uint8_t\000"
 9821      385F7400 
 9822              	.LASF70:
 9823 0136 73656E64 		.ascii	"sendImmediately2_ui8a\000"
 9823      496D6D65 
 9823      64696174 
 9823      656C7932 
 9823      5F756938 
 9824              	.LASF97:
 9825 014c 67657446 		.ascii	"getFileDownloadStatus\000"
 9825      696C6544 
 9825      6F776E6C 
 9825      6F616453 
 9825      74617475 
 9826              	.LASF124:
 9827 0162 65786563 		.ascii	"executeCommand\000"
 9827      75746543 
 9827      6F6D6D61 
 9827      6E6400
 9828              	.LASF37:
 9829 0171 67657453 		.ascii	"getSignalQuality\000"
 9829      69676E61 
 9829      6C517561 
 9829      6C697479 
 9829      00
 9830              	.LASF123:
 9831 0182 443A5C44 		.ascii	"D:\\Dropbox\\Public\\PSoC_Creator\\GPS_Logger\\GPS_"
 9831      726F7062 
 9831      6F785C50 
 9831      75626C69 
 9831      635C5053 
 9832 01b0 4C6F6767 		.ascii	"Logger.cydsn\000"
 9832      65722E63 
 9832      7964736E 
 9832      00
 9833              	.LASF90:
 9834 01bd 73746172 		.ascii	"startFileDownload\000"
 9834      7446696C 
 9834      65446F77 
 9834      6E6C6F61 
 9834      6400
 9835              	.LASF93:
ARM GAS  C:\Users\cronos\AppData\Local\Temp\ccrG4qtQ.s 			page 185


 9836 01cf 67657446 		.ascii	"getFileMetaData\000"
 9836      696C654D 
 9836      65746144 
 9836      61746100 
 9837              	.LASF40:
 9838 01df 6C656E67 		.ascii	"length\000"
 9838      746800
 9839              	.LASF115:
 9840 01e6 64656C61 		.ascii	"delay\000"
 9840      7900
 9841              	.LASF2:
 9842 01ec 666C6F61 		.ascii	"float\000"
 9842      7400
 9843              	.LASF77:
 9844 01f2 73656E64 		.ascii	"sendImmediately_ui8a\000"
 9844      496D6D65 
 9844      64696174 
 9844      656C795F 
 9844      75693861 
 9845              	.LASF51:
 9846 0207 656E7175 		.ascii	"enqueueTx2_i64\000"
 9846      65756554 
 9846      78325F69 
 9846      363400
 9847              	.LASF57:
 9848 0216 656E7175 		.ascii	"enqueueTx_ui32\000"
 9848      65756554 
 9848      785F7569 
 9848      333200
 9849              	.LASF15:
 9850 0225 6C6F6E67 		.ascii	"long long int\000"
 9850      206C6F6E 
 9850      6720696E 
 9850      7400
 9851              	.LASF42:
 9852 0233 6563686F 		.ascii	"echoback\000"
 9852      6261636B 
 9852      00
 9853              	.LASF64:
 9854 023c 73656E64 		.ascii	"sendImmediately2_i32\000"
 9854      496D6D65 
 9854      64696174 
 9854      656C7932 
 9854      5F693332 
 9855              	.LASF102:
 9856 0251 67657455 		.ascii	"getUniqueID\000"
 9856      6E697175 
 9856      65494400 
 9857              	.LASF33:
 9858 025d 746D7052 		.ascii	"tmpResponse\000"
 9858      6573706F 
 9858      6E736500 
 9859              	.LASF56:
 9860 0269 656E7175 		.ascii	"enqueueTx_i32\000"
 9860      65756554 
 9860      785F6933 
 9860      3200
ARM GAS  C:\Users\cronos\AppData\Local\Temp\ccrG4qtQ.s 			page 186


 9861              	.LASF125:
 9862 0277 6D656D73 		.ascii	"memset\000"
 9862      657400
 9863              	.LASF11:
 9864 027e 6C6F6E67 		.ascii	"long int\000"
 9864      20696E74 
 9864      00
 9865              	.LASF14:
 9866 0287 5F5F696E 		.ascii	"__int64_t\000"
 9866      7436345F 
 9866      7400
 9867              	.LASF47:
 9868 0291 6F666673 		.ascii	"offset\000"
 9868      657400
 9869              	.LASF26:
 9870 0298 72657175 		.ascii	"requestLength\000"
 9870      6573744C 
 9870      656E6774 
 9870      6800
 9871              	.LASF5:
 9872 02a6 5F5F7569 		.ascii	"__uint8_t\000"
 9872      6E74385F 
 9872      7400
 9873              	.LASF30:
 9874 02b0 70617269 		.ascii	"parity\000"
 9874      747900
 9875              	.LASF63:
 9876 02b7 73656E64 		.ascii	"sendImmediatelyRaw\000"
 9876      496D6D65 
 9876      64696174 
 9876      656C7952 
 9876      617700
 9877              	.LASF92:
 9878 02ca 63616E63 		.ascii	"cancelFileDownload\000"
 9878      656C4669 
 9878      6C65446F 
 9878      776E6C6F 
 9878      616400
 9879              	.LASF78:
 9880 02dd 67657454 		.ascii	"getTxQueueLength\000"
 9880      78517565 
 9880      75654C65 
 9880      6E677468 
 9880      00
 9881              	.LASF84:
 9882 02ee 71756575 		.ascii	"queue\000"
 9882      6500
 9883              	.LASF55:
 9884 02f4 656E7175 		.ascii	"enqueueTx2_ui8a\000"
 9884      65756554 
 9884      78325F75 
 9884      69386100 
 9885              	.LASF25:
 9886 0304 6C6F6E67 		.ascii	"long double\000"
 9886      20646F75 
 9886      626C6500 
 9887              	.LASF79:
ARM GAS  C:\Users\cronos\AppData\Local\Temp\ccrG4qtQ.s 			page 187


 9888 0310 61766169 		.ascii	"available\000"
 9888      6C61626C 
 9888      6500
 9889              	.LASF4:
 9890 031a 756E7369 		.ascii	"unsigned char\000"
 9890      676E6564 
 9890      20636861 
 9890      7200
 9891              	.LASF36:
 9892 0328 67657443 		.ascii	"getConnectionStatus\000"
 9892      6F6E6E65 
 9892      6374696F 
 9892      6E537461 
 9892      74757300 
 9893              	.LASF68:
 9894 033c 73656E64 		.ascii	"sendImmediately2_f\000"
 9894      496D6D65 
 9894      64696174 
 9894      656C7932 
 9894      5F6600
 9895              	.LASF62:
 9896 034f 656E7175 		.ascii	"enqueueTx_ui8a\000"
 9896      65756554 
 9896      785F7569 
 9896      386100
 9897              	.LASF3:
 9898 035e 7369676E 		.ascii	"signed char\000"
 9898      65642063 
 9898      68617200 
 9899              	.LASF0:
 9900 036a 6C6F6E67 		.ascii	"long long unsigned int\000"
 9900      206C6F6E 
 9900      6720756E 
 9900      7369676E 
 9900      65642069 
 9901              	.LASF22:
 9902 0381 75696E74 		.ascii	"uint32_t\000"
 9902      33325F74 
 9902      00
 9903              	.LASF118:
 9904 038a 78707574 		.ascii	"xputs\000"
 9904      7300
 9905              	.LASF98:
 9906 0390 63757272 		.ascii	"currentSize\000"
 9906      656E7453 
 9906      697A6500 
 9907              	.LASF17:
 9908 039c 756E7369 		.ascii	"unsigned int\000"
 9908      676E6564 
 9908      20696E74 
 9908      00
 9909              	.LASF120:
 9910 03a9 53616B75 		.ascii	"SakuraIOc_hw_end\000"
 9910      7261494F 
 9910      635F6877 
 9910      5F656E64 
 9910      00
ARM GAS  C:\Users\cronos\AppData\Local\Temp\ccrG4qtQ.s 			page 188


 9911              	.LASF20:
 9912 03ba 75696E74 		.ascii	"uint16_t\000"
 9912      31365F74 
 9912      00
 9913              	.LASF111:
 9914 03c3 67657450 		.ascii	"getPowerSaveMode\000"
 9914      6F776572 
 9914      53617665 
 9914      4D6F6465 
 9914      00
 9915              	.LASF89:
 9916 03d4 636C6561 		.ascii	"clearRx\000"
 9916      72527800 
 9917              	.LASF80:
 9918 03dc 71756575 		.ascii	"queued\000"
 9918      656400
 9919              	.LASF39:
 9920 03e3 67657455 		.ascii	"getUnixtime\000"
 9920      6E697874 
 9920      696D6500 
 9921              	.LASF27:
 9922 03ef 72657175 		.ascii	"request\000"
 9922      65737400 
 9923              	.LASF105:
 9924 03f7 756E6C6F 		.ascii	"unlock\000"
 9924      636B00
 9925              	.LASF109:
 9926 03fe 73657450 		.ascii	"setPowerSaveMode\000"
 9926      6F776572 
 9926      53617665 
 9926      4D6F6465 
 9926      00
 9927              	.LASF9:
 9928 040f 73686F72 		.ascii	"short unsigned int\000"
 9928      7420756E 
 9928      7369676E 
 9928      65642069 
 9928      6E7400
 9929              	.LASF69:
 9930 0422 73656E64 		.ascii	"sendImmediately2_d\000"
 9930      496D6D65 
 9930      64696174 
 9930      656C7932 
 9930      5F6400
 9931              	.LASF94:
 9932 0435 73746174 		.ascii	"status\000"
 9932      757300
 9933              	.LASF103:
 9934 043c 63686172 		.ascii	"char\000"
 9934      00
 9935              	.LASF122:
 9936 0441 53616B75 		.ascii	"SakuraIO\\SakuraIOc.c\000"
 9936      7261494F 
 9936      5C53616B 
 9936      75726149 
 9936      4F632E63 
 9937              	.LASF81:
ARM GAS  C:\Users\cronos\AppData\Local\Temp\ccrG4qtQ.s 			page 189


 9938 0456 636C6561 		.ascii	"clearTx\000"
 9938      72547800 
 9939              	.LASF46:
 9940 045e 74797065 		.ascii	"type\000"
 9940      00
 9941              	.LASF21:
 9942 0463 696E7433 		.ascii	"int32_t\000"
 9942      325F7400 
 9943              	.LASF104:
 9944 046b 67657446 		.ascii	"getFirmwareVersion\000"
 9944      69726D77 
 9944      61726556 
 9944      65727369 
 9944      6F6E00
 9945              	.LASF85:
 9946 047e 696D6D65 		.ascii	"immediate\000"
 9946      64696174 
 9946      6500
 9947              	.LASF110:
 9948 0488 6D6F6465 		.ascii	"mode\000"
 9948      00
 9949              	.LASF19:
 9950 048d 696E7431 		.ascii	"int16_t\000"
 9950      365F7400 
 9951              	.LASF112:
 9952 0495 53616B75 		.ascii	"SakuraIOc_hw_sendByte\000"
 9952      7261494F 
 9952      635F6877 
 9952      5F73656E 
 9952      64427974 
 9953              	.LASF119:
 9954 04ab 78707269 		.ascii	"xprintf\000"
 9954      6E746600 
 9955              	.LASF108:
 9956 04b3 72657365 		.ascii	"reset\000"
 9956      7400
 9957              	.LASF44:
 9958 04b9 6368616E 		.ascii	"channel\000"
 9958      6E656C00 
 9959              	.LASF16:
 9960 04c1 5F5F7569 		.ascii	"__uint64_t\000"
 9960      6E743634 
 9960      5F7400
 9961              	.LASF41:
 9962 04cc 64617461 		.ascii	"data\000"
 9962      00
 9963              	.LASF71:
 9964 04d1 73656E64 		.ascii	"sendImmediately_i32\000"
 9964      496D6D65 
 9964      64696174 
 9964      656C795F 
 9964      69333200 
 9965              	.LASF65:
 9966 04e5 73656E64 		.ascii	"sendImmediately2_ui32\000"
 9966      496D6D65 
 9966      64696174 
 9966      656C7932 
ARM GAS  C:\Users\cronos\AppData\Local\Temp\ccrG4qtQ.s 			page 190


 9966      5F756933 
 9967              	.LASF52:
 9968 04fb 656E7175 		.ascii	"enqueueTx2_ui64\000"
 9968      65756554 
 9968      78325F75 
 9968      69363400 
 9969              	.LASF13:
 9970 050b 6C6F6E67 		.ascii	"long unsigned int\000"
 9970      20756E73 
 9970      69676E65 
 9970      6420696E 
 9970      7400
 9971              	.LASF1:
 9972 051d 646F7562 		.ascii	"double\000"
 9972      6C6500
 9973              	.LASF28:
 9974 0524 72657370 		.ascii	"responseLength\000"
 9974      6F6E7365 
 9974      4C656E67 
 9974      746800
 9975              	.LASF29:
 9976 0533 72657370 		.ascii	"response\000"
 9976      6F6E7365 
 9976      00
 9977              	.LASF100:
 9978 053c 73697A65 		.ascii	"size\000"
 9978      00
 9979              	.LASF38:
 9980 0541 67657453 		.ascii	"getSignalQuarity\000"
 9980      69676E61 
 9980      6C517561 
 9980      72697479 
 9980      00
 9981              	.LASF67:
 9982 0552 73656E64 		.ascii	"sendImmediately2_ui64\000"
 9982      496D6D65 
 9982      64696174 
 9982      656C7932 
 9982      5F756936 
 9983              	.LASF10:
 9984 0568 5F5F696E 		.ascii	"__int32_t\000"
 9984      7433325F 
 9984      7400
 9985              	.LASF95:
 9986 0572 746F7461 		.ascii	"totalSize\000"
 9986      6C53697A 
 9986      6500
 9987              	.LASF32:
 9988 057c 72657365 		.ascii	"reservedResponseLength\000"
 9988      72766564 
 9988      52657370 
 9988      6F6E7365 
 9988      4C656E67 
 9989              	.LASF6:
 9990 0593 5F5F696E 		.ascii	"__int16_t\000"
 9990      7431365F 
 9990      7400
ARM GAS  C:\Users\cronos\AppData\Local\Temp\ccrG4qtQ.s 			page 191


 9991              	.LASF48:
 9992 059d 656E7175 		.ascii	"enqueueTx2_i32\000"
 9992      65756554 
 9992      78325F69 
 9992      333200
 9993              	.LASF74:
 9994 05ac 73656E64 		.ascii	"sendImmediately_ui64\000"
 9994      496D6D65 
 9994      64696174 
 9994      656C795F 
 9994      75693634 
 9995              	.LASF116:
 9996 05c1 53414B55 		.ascii	"SAKURA_SPIM_ClearRxBuffer\000"
 9996      52415F53 
 9996      50494D5F 
 9996      436C6561 
 9996      72527842 
 9997              	.LASF117:
 9998 05db 53616B75 		.ascii	"SakuraIOc_hw_startReceive\000"
 9998      7261494F 
 9998      635F6877 
 9998      5F737461 
 9998      72745265 
 9999              	.LASF61:
 10000 05f5 656E7175 		.ascii	"enqueueTx_d\000"
 10000      65756554 
 10000      785F6400 
 10001              	.LASF73:
 10002 0601 73656E64 		.ascii	"sendImmediately_i64\000"
 10002      496D6D65 
 10002      64696174 
 10002      656C795F 
 10002      69363400 
 10003              	.LASF60:
 10004 0615 656E7175 		.ascii	"enqueueTx_f\000"
 10004      65756554 
 10004      785F6600 
 10005              	.LASF91:
 10006 0621 66696C65 		.ascii	"fileId\000"
 10006      496400
 10007              	.LASF121:
 10008 0628 474E5520 		.ascii	"GNU C11 5.4.1 20160609 (release) [ARM/embedded-5-br"
 10008      43313120 
 10008      352E342E 
 10008      31203230 
 10008      31363036 
 10009 065b 616E6368 		.ascii	"anch revision 237715] -mcpu=cortex-m3 -mthumb -g -O"
 10009      20726576 
 10009      6973696F 
 10009      6E203233 
 10009      37373135 
 10010 068e 67202D66 		.ascii	"g -ffunction-sections -ffat-lto-objects\000"
 10010      66756E63 
 10010      74696F6E 
 10010      2D736563 
 10010      74696F6E 
 10011              	.LASF50:
ARM GAS  C:\Users\cronos\AppData\Local\Temp\ccrG4qtQ.s 			page 192


 10012 06b6 656E7175 		.ascii	"enqueueTx2_ui32\000"
 10012      65756554 
 10012      78325F75 
 10012      69333200 
 10013              	.LASF86:
 10014 06c6 64657175 		.ascii	"dequeueRx\000"
 10014      65756552 
 10014      7800
 10015              	.LASF114:
 10016 06d0 53616B75 		.ascii	"SakuraIOc_hw_begin\000"
 10016      7261494F 
 10016      635F6877 
 10016      5F626567 
 10016      696E00
 10017              	.LASF113:
 10018 06e3 53616B75 		.ascii	"SakuraIOc_hw_receiveByte\000"
 10018      7261494F 
 10018      635F6877 
 10018      5F726563 
 10018      65697665 
 10019              	.LASF99:
 10020 06fc 67657446 		.ascii	"getFileData\000"
 10020      696C6544 
 10020      61746100 
 10021              	.LASF107:
 10022 0708 67657446 		.ascii	"getFirmwareUpdateStatus\000"
 10022      69726D77 
 10022      61726555 
 10022      70646174 
 10022      65537461 
 10023              	.LASF43:
 10024 0720 67657441 		.ascii	"getADC\000"
 10024      444300
 10025              	.LASF88:
 10026 0727 67657452 		.ascii	"getRxQueueLength\000"
 10026      78517565 
 10026      75654C65 
 10026      6E677468 
 10026      00
 10027              		.ident	"GCC: (GNU Tools for ARM Embedded Processors) 5.4.1 20160609 (release) [ARM/embedded-5-bran
