ARM GAS  C:\Users\cronos\AppData\Local\Temp\ccrG4qtQ.s 			page 1


   1              		.syntax unified
   2              		.cpu cortex-m3
   3              		.fpu softvfp
   4              		.eabi_attribute 20, 1
   5              		.eabi_attribute 21, 1
   6              		.eabi_attribute 23, 3
   7              		.eabi_attribute 24, 1
   8              		.eabi_attribute 25, 1
   9              		.eabi_attribute 26, 1
  10              		.eabi_attribute 30, 1
  11              		.eabi_attribute 34, 1
  12              		.eabi_attribute 18, 4
  13              		.thumb
  14              		.syntax unified
  15              		.file	"SakuraIOc.c"
  16              		.text
  17              	.Ltext0:
  18              		.cfi_sections	.debug_frame
  19              		.section	.text.executeCommand,"ax",%progbits
  20              		.align	2
  21              		.thumb
  22              		.thumb_func
  23              		.type	executeCommand, %function
  24              	executeCommand:
  25              	.LFB0:
  26              		.file 1 "SakuraIO\\SakuraIOc.c"
   1:SakuraIO/SakuraIOc.c **** #include "SakuraIOc.h"
   2:SakuraIO/SakuraIOc.c **** #include "SakuraIOc_spi.h"
   3:SakuraIO/SakuraIOc.c **** #include "commands.h"
   4:SakuraIO/SakuraIOc.c **** #include "xprintf.h"
   5:SakuraIO/SakuraIOc.c **** 
   6:SakuraIO/SakuraIOc.c **** static uint8_t executeCommand(uint8_t cmd,uint8_t requestLength, uint8_t *request, uint8_t *respons
   7:SakuraIO/SakuraIOc.c **** {
  27              		.loc 1 7 0
  28              		.cfi_startproc
  29              		@ args = 4, pretend = 0, frame = 0
  30              		@ frame_needed = 0, uses_anonymous_args = 0
  31              	.LVL0:
  32 0000 2DE9F047 		push	{r4, r5, r6, r7, r8, r9, r10, lr}
  33              		.cfi_def_cfa_offset 32
  34              		.cfi_offset 4, -32
  35              		.cfi_offset 5, -28
  36              		.cfi_offset 6, -24
  37              		.cfi_offset 7, -20
  38              		.cfi_offset 8, -16
  39              		.cfi_offset 9, -12
  40              		.cfi_offset 10, -8
  41              		.cfi_offset 14, -4
  42 0004 0546     		mov	r5, r0
  43 0006 0E46     		mov	r6, r1
  44 0008 1746     		mov	r7, r2
  45 000a 9846     		mov	r8, r3
  46 000c DDF82090 		ldr	r9, [sp, #32]
  47              	.LVL1:
   8:SakuraIO/SakuraIOc.c ****   uint8_t parity = 0x00;
   9:SakuraIO/SakuraIOc.c ****   uint8_t result = 0x00;
  10:SakuraIO/SakuraIOc.c ****   uint8_t reservedResponseLength, tmpResponse, receivedResponseLength;
ARM GAS  C:\Users\cronos\AppData\Local\Temp\ccrG4qtQ.s 			page 2


  11:SakuraIO/SakuraIOc.c **** 
  12:SakuraIO/SakuraIOc.c ****   dbgln("executeCommand");
  13:SakuraIO/SakuraIOc.c **** 
  14:SakuraIO/SakuraIOc.c ****   SakuraIOc_hw_begin();
  48              		.loc 1 14 0
  49 0010 FFF7FEFF 		bl	SakuraIOc_hw_begin
  50              	.LVL2:
  15:SakuraIO/SakuraIOc.c **** 
  16:SakuraIO/SakuraIOc.c ****   // request
  17:SakuraIO/SakuraIOc.c ****   SakuraIOc_hw_sendByte(cmd);
  51              		.loc 1 17 0
  52 0014 2846     		mov	r0, r5
  53 0016 FFF7FEFF 		bl	SakuraIOc_hw_sendByte
  54              	.LVL3:
  18:SakuraIO/SakuraIOc.c ****   SakuraIOc_hw_sendByte(requestLength);
  55              		.loc 1 18 0
  56 001a 3046     		mov	r0, r6
  57 001c FFF7FEFF 		bl	SakuraIOc_hw_sendByte
  58              	.LVL4:
  19:SakuraIO/SakuraIOc.c ****   parity = cmd ^ requestLength;
  59              		.loc 1 19 0
  60 0020 7540     		eors	r5, r5, r6
  61              	.LVL5:
  62              	.LBB2:
  20:SakuraIO/SakuraIOc.c ****   for(int16_t i=0; i<requestLength; i++){
  63              		.loc 1 20 0
  64 0022 0024     		movs	r4, #0
  65 0024 05E0     		b	.L2
  66              	.LVL6:
  67              	.L3:
  21:SakuraIO/SakuraIOc.c ****     parity ^= request[i];
  68              		.loc 1 21 0 discriminator 3
  69 0026 385D     		ldrb	r0, [r7, r4]	@ zero_extendqisi2
  70 0028 4540     		eors	r5, r5, r0
  71              	.LVL7:
  22:SakuraIO/SakuraIOc.c ****     SakuraIOc_hw_sendByte(request[i]);
  72              		.loc 1 22 0 discriminator 3
  73 002a FFF7FEFF 		bl	SakuraIOc_hw_sendByte
  74              	.LVL8:
  20:SakuraIO/SakuraIOc.c ****   for(int16_t i=0; i<requestLength; i++){
  75              		.loc 1 20 0 discriminator 3
  76 002e 0134     		adds	r4, r4, #1
  77              	.LVL9:
  78 0030 24B2     		sxth	r4, r4
  79              	.LVL10:
  80              	.L2:
  20:SakuraIO/SakuraIOc.c ****   for(int16_t i=0; i<requestLength; i++){
  81              		.loc 1 20 0 is_stmt 0 discriminator 1
  82 0032 B442     		cmp	r4, r6
  83 0034 F7DB     		blt	.L3
  84              	.LBE2:
  23:SakuraIO/SakuraIOc.c ****   }
  24:SakuraIO/SakuraIOc.c ****   SakuraIOc_hw_sendByte(parity);
  85              		.loc 1 24 0 is_stmt 1
  86 0036 2846     		mov	r0, r5
  87 0038 FFF7FEFF 		bl	SakuraIOc_hw_sendByte
  88              	.LVL11:
ARM GAS  C:\Users\cronos\AppData\Local\Temp\ccrG4qtQ.s 			page 3


  25:SakuraIO/SakuraIOc.c ****   //definishSending();
  26:SakuraIO/SakuraIOc.c **** 
  27:SakuraIO/SakuraIOc.c ****   reservedResponseLength = 0;
  28:SakuraIO/SakuraIOc.c ****   if(responseLength != NULL){
  89              		.loc 1 28 0
  90 003c B8F1000F 		cmp	r8, #0
  91 0040 02D0     		beq	.L21
  29:SakuraIO/SakuraIOc.c ****     reservedResponseLength = *responseLength;
  92              		.loc 1 29 0
  93 0042 98F80060 		ldrb	r6, [r8]	@ zero_extendqisi2
  94              	.LVL12:
  95 0046 00E0     		b	.L4
  96              	.LVL13:
  97              	.L21:
  27:SakuraIO/SakuraIOc.c ****   if(responseLength != NULL){
  98              		.loc 1 27 0
  99 0048 0026     		movs	r6, #0
 100              	.LVL14:
 101              	.L4:
  30:SakuraIO/SakuraIOc.c ****   }
  31:SakuraIO/SakuraIOc.c **** 
  32:SakuraIO/SakuraIOc.c ****   delay(10);
 102              		.loc 1 32 0
 103 004a 0A20     		movs	r0, #10
 104 004c FFF7FEFF 		bl	delay
 105              	.LVL15:
  33:SakuraIO/SakuraIOc.c ****   SAKURA_SPIM_ClearRxBuffer();  // ###DBG 180705
 106              		.loc 1 33 0
 107 0050 FFF7FEFF 		bl	SAKURA_SPIM_ClearRxBuffer
 108              	.LVL16:
  34:SakuraIO/SakuraIOc.c ****   // response
  35:SakuraIO/SakuraIOc.c ****   SakuraIOc_hw_startReceive(reservedResponseLength+3);
 109              		.loc 1 35 0
 110 0054 F01C     		adds	r0, r6, #3
 111 0056 C0B2     		uxtb	r0, r0
 112 0058 FFF7FEFF 		bl	SakuraIOc_hw_startReceive
 113              	.LVL17:
  36:SakuraIO/SakuraIOc.c ****   result = SakuraIOc_hw_receiveByte();
 114              		.loc 1 36 0
 115 005c FFF7FEFF 		bl	SakuraIOc_hw_receiveByte
 116              	.LVL18:
 117 0060 0546     		mov	r5, r0
 118              	.LVL19:
  37:SakuraIO/SakuraIOc.c ****   if(result != CMD_ERROR_NONE){
 119              		.loc 1 37 0
 120 0062 0128     		cmp	r0, #1
 121 0064 26D0     		beq	.L5
  38:SakuraIO/SakuraIOc.c ****     dbgln("Invalid status");
  39:SakuraIO/SakuraIOc.c **** //    #ifdef	_DEBUG
  40:SakuraIO/SakuraIOc.c ****       switch(result)
 122              		.loc 1 40 0
 123 0066 831E     		subs	r3, r0, #2
 124 0068 052B     		cmp	r3, #5
 125 006a 1CD8     		bhi	.L6
 126 006c DFE803F0 		tbb	[pc, r3]
 127              	.L8:
 128 0070 03       		.byte	(.L7-.L8)/2
ARM GAS  C:\Users\cronos\AppData\Local\Temp\ccrG4qtQ.s 			page 4


 129 0071 07       		.byte	(.L9-.L8)/2
 130 0072 0B       		.byte	(.L10-.L8)/2
 131 0073 0F       		.byte	(.L11-.L8)/2
 132 0074 13       		.byte	(.L12-.L8)/2
 133 0075 17       		.byte	(.L13-.L8)/2
 134              		.p2align 1
 135              	.L7:
  41:SakuraIO/SakuraIOc.c ****       {
  42:SakuraIO/SakuraIOc.c ****         case CMD_ERROR_PARITY:
  43:SakuraIO/SakuraIOc.c ****           xputs("CMD_ERROR_PARITY\n");
 136              		.loc 1 43 0
 137 0076 2548     		ldr	r0, .L24
 138              	.LVL20:
 139 0078 FFF7FEFF 		bl	xputs
 140              	.LVL21:
  44:SakuraIO/SakuraIOc.c ****           break;
 141              		.loc 1 44 0
 142 007c 17E0     		b	.L14
 143              	.LVL22:
 144              	.L9:
  45:SakuraIO/SakuraIOc.c **** 
  46:SakuraIO/SakuraIOc.c ****         case CMD_ERROR_MISSING:
  47:SakuraIO/SakuraIOc.c ****           xputs("CMD_ERROR_MISSING\n");
 145              		.loc 1 47 0
 146 007e 2448     		ldr	r0, .L24+4
 147              	.LVL23:
 148 0080 FFF7FEFF 		bl	xputs
 149              	.LVL24:
  48:SakuraIO/SakuraIOc.c ****           break;
 150              		.loc 1 48 0
 151 0084 13E0     		b	.L14
 152              	.LVL25:
 153              	.L10:
  49:SakuraIO/SakuraIOc.c **** 
  50:SakuraIO/SakuraIOc.c ****         case CMD_ERROR_INVALID_SYNTAX:
  51:SakuraIO/SakuraIOc.c ****           xputs("CMD_ERROR_INVALID_SYNTAX\n");
 154              		.loc 1 51 0
 155 0086 2348     		ldr	r0, .L24+8
 156              	.LVL26:
 157 0088 FFF7FEFF 		bl	xputs
 158              	.LVL27:
  52:SakuraIO/SakuraIOc.c ****           break;
 159              		.loc 1 52 0
 160 008c 0FE0     		b	.L14
 161              	.LVL28:
 162              	.L11:
  53:SakuraIO/SakuraIOc.c **** 
  54:SakuraIO/SakuraIOc.c ****         case CMD_ERROR_RUNTIME:
  55:SakuraIO/SakuraIOc.c ****           xputs("CMD_ERROR_RUNTIME\n");
 163              		.loc 1 55 0
 164 008e 2248     		ldr	r0, .L24+12
 165              	.LVL29:
 166 0090 FFF7FEFF 		bl	xputs
 167              	.LVL30:
  56:SakuraIO/SakuraIOc.c ****           break;
 168              		.loc 1 56 0
 169 0094 0BE0     		b	.L14
ARM GAS  C:\Users\cronos\AppData\Local\Temp\ccrG4qtQ.s 			page 5


 170              	.LVL31:
 171              	.L12:
  57:SakuraIO/SakuraIOc.c **** 
  58:SakuraIO/SakuraIOc.c ****         case CMD_ERROR_LOCKED:
  59:SakuraIO/SakuraIOc.c ****           xputs("CMD_ERROR_LOCKED\n");
 172              		.loc 1 59 0
 173 0096 2148     		ldr	r0, .L24+16
 174              	.LVL32:
 175 0098 FFF7FEFF 		bl	xputs
 176              	.LVL33:
  60:SakuraIO/SakuraIOc.c ****           break;
 177              		.loc 1 60 0
 178 009c 07E0     		b	.L14
 179              	.LVL34:
 180              	.L13:
  61:SakuraIO/SakuraIOc.c **** 
  62:SakuraIO/SakuraIOc.c ****         case CMD_ERROR_BUSY:
  63:SakuraIO/SakuraIOc.c ****           xputs("CMD_ERROR_BUSY\n");
 181              		.loc 1 63 0
 182 009e 2048     		ldr	r0, .L24+20
 183              	.LVL35:
 184 00a0 FFF7FEFF 		bl	xputs
 185              	.LVL36:
  64:SakuraIO/SakuraIOc.c ****           break;
 186              		.loc 1 64 0
 187 00a4 03E0     		b	.L14
 188              	.LVL37:
 189              	.L6:
  65:SakuraIO/SakuraIOc.c **** 
  66:SakuraIO/SakuraIOc.c ****         default:
  67:SakuraIO/SakuraIOc.c ****             xprintf("Err: 0x%02X ",result);
 190              		.loc 1 67 0
 191 00a6 0146     		mov	r1, r0
 192 00a8 1E48     		ldr	r0, .L24+24
 193              	.LVL38:
 194 00aa FFF7FEFF 		bl	xprintf
 195              	.LVL39:
 196              	.L14:
  68:SakuraIO/SakuraIOc.c ****         break;
  69:SakuraIO/SakuraIOc.c ****       }
  70:SakuraIO/SakuraIOc.c **** //    #endif
  71:SakuraIO/SakuraIOc.c ****     SakuraIOc_hw_end();
 197              		.loc 1 71 0
 198 00ae FFF7FEFF 		bl	SakuraIOc_hw_end
 199              	.LVL40:
  72:SakuraIO/SakuraIOc.c ****     return result;
 200              		.loc 1 72 0
 201 00b2 27E0     		b	.L15
 202              	.LVL41:
 203              	.L5:
  73:SakuraIO/SakuraIOc.c ****   }
  74:SakuraIO/SakuraIOc.c **** 
  75:SakuraIO/SakuraIOc.c ****   receivedResponseLength = SakuraIOc_hw_receiveByte();
 204              		.loc 1 75 0
 205 00b4 FFF7FEFF 		bl	SakuraIOc_hw_receiveByte
 206              	.LVL42:
 207 00b8 0746     		mov	r7, r0
ARM GAS  C:\Users\cronos\AppData\Local\Temp\ccrG4qtQ.s 			page 6


 208              	.LVL43:
  76:SakuraIO/SakuraIOc.c ****   if(responseLength != NULL){
 209              		.loc 1 76 0
 210 00ba B8F1000F 		cmp	r8, #0
 211 00be 01D0     		beq	.L16
  77:SakuraIO/SakuraIOc.c ****     *responseLength = receivedResponseLength;
 212              		.loc 1 77 0
 213 00c0 88F80000 		strb	r0, [r8]
 214              	.L16:
  78:SakuraIO/SakuraIOc.c ****   }
  79:SakuraIO/SakuraIOc.c **** 
  80:SakuraIO/SakuraIOc.c ****   parity = result ^ receivedResponseLength;
 215              		.loc 1 80 0
 216 00c4 85EA0708 		eor	r8, r5, r7
 217              	.LVL44:
 218 00c8 5FFA88F8 		uxtb	r8, r8
 219              	.LVL45:
 220              	.LBB3:
  81:SakuraIO/SakuraIOc.c ****   for(int16_t i=0; i<receivedResponseLength; i++){
 221              		.loc 1 81 0
 222 00cc 0024     		movs	r4, #0
 223              	.LVL46:
 224 00ce 0EE0     		b	.L17
 225              	.LVL47:
 226              	.L19:
  82:SakuraIO/SakuraIOc.c ****     tmpResponse = SakuraIOc_hw_receiveByte();
 227              		.loc 1 82 0
 228 00d0 FFF7FEFF 		bl	SakuraIOc_hw_receiveByte
 229              	.LVL48:
  83:SakuraIO/SakuraIOc.c ****     parity ^= tmpResponse;
 230              		.loc 1 83 0
 231 00d4 88EA0008 		eor	r8, r8, r0
 232              	.LVL49:
 233 00d8 5FFA88F8 		uxtb	r8, r8
 234              	.LVL50:
  84:SakuraIO/SakuraIOc.c ****     if(response != NULL && i<reservedResponseLength){
 235              		.loc 1 84 0
 236 00dc B9F1000F 		cmp	r9, #0
 237 00e0 03D0     		beq	.L18
 238              		.loc 1 84 0 is_stmt 0 discriminator 1
 239 00e2 B245     		cmp	r10, r6
 240 00e4 01DA     		bge	.L18
  85:SakuraIO/SakuraIOc.c ****       response[i] = tmpResponse;
 241              		.loc 1 85 0 is_stmt 1
 242 00e6 09F80400 		strb	r0, [r9, r4]
 243              	.L18:
  81:SakuraIO/SakuraIOc.c ****     tmpResponse = SakuraIOc_hw_receiveByte();
 244              		.loc 1 81 0 discriminator 2
 245 00ea 0134     		adds	r4, r4, #1
 246              	.LVL51:
 247 00ec 24B2     		sxth	r4, r4
 248              	.LVL52:
 249              	.L17:
  81:SakuraIO/SakuraIOc.c ****     tmpResponse = SakuraIOc_hw_receiveByte();
 250              		.loc 1 81 0 is_stmt 0 discriminator 1
 251 00ee A246     		mov	r10, r4
 252 00f0 BC42     		cmp	r4, r7
ARM GAS  C:\Users\cronos\AppData\Local\Temp\ccrG4qtQ.s 			page 7


 253 00f2 EDDB     		blt	.L19
 254              	.LBE3:
  86:SakuraIO/SakuraIOc.c ****     }
  87:SakuraIO/SakuraIOc.c ****   }
  88:SakuraIO/SakuraIOc.c ****   dbgln("Parity");
  89:SakuraIO/SakuraIOc.c ****   uint8_t p = SakuraIOc_hw_receiveByte(true);
 255              		.loc 1 89 0 is_stmt 1
 256 00f4 0120     		movs	r0, #1
 257 00f6 FFF7FEFF 		bl	SakuraIOc_hw_receiveByte
 258              	.LVL53:
  90:SakuraIO/SakuraIOc.c ****   parity ^= p;
  91:SakuraIO/SakuraIOc.c ****   dbg("Parity=");
  92:SakuraIO/SakuraIOc.c ****   dbgln(p);
  93:SakuraIO/SakuraIOc.c ****   if(parity != 0x00){
 259              		.loc 1 93 0
 260 00fa 8045     		cmp	r8, r0
 261 00fc 00D0     		beq	.L20
  94:SakuraIO/SakuraIOc.c ****     result = CMD_ERROR_PARITY;
 262              		.loc 1 94 0
 263 00fe 0225     		movs	r5, #2
 264              	.L20:
 265              	.LVL54:
  95:SakuraIO/SakuraIOc.c ****     dbgln("Invalid parity\n");
  96:SakuraIO/SakuraIOc.c ****   }else{
  97:SakuraIO/SakuraIOc.c ****     dbgln("Success");
  98:SakuraIO/SakuraIOc.c ****   }
  99:SakuraIO/SakuraIOc.c ****   //finishReceiving();
 100:SakuraIO/SakuraIOc.c **** 
 101:SakuraIO/SakuraIOc.c ****   SakuraIOc_hw_end();
 266              		.loc 1 101 0
 267 0100 FFF7FEFF 		bl	SakuraIOc_hw_end
 268              	.LVL55:
 269              	.L15:
 102:SakuraIO/SakuraIOc.c ****   return result;
 103:SakuraIO/SakuraIOc.c **** }
 270              		.loc 1 103 0
 271 0104 2846     		mov	r0, r5
 272 0106 BDE8F087 		pop	{r4, r5, r6, r7, r8, r9, r10, pc}
 273              	.LVL56:
 274              	.L25:
 275 010a 00BF     		.align	2
 276              	.L24:
 277 010c 00000000 		.word	.LC1
 278 0110 14000000 		.word	.LC2
 279 0114 28000000 		.word	.LC3
 280 0118 44000000 		.word	.LC4
 281 011c 58000000 		.word	.LC5
 282 0120 6C000000 		.word	.LC6
 283 0124 7C000000 		.word	.LC7
 284              		.cfi_endproc
 285              	.LFE0:
 286              		.size	executeCommand, .-executeCommand
 287              		.section	.text.getConnectionStatus,"ax",%progbits
 288              		.align	2
 289              		.global	getConnectionStatus
 290              		.thumb
 291              		.thumb_func
ARM GAS  C:\Users\cronos\AppData\Local\Temp\ccrG4qtQ.s 			page 8


 292              		.type	getConnectionStatus, %function
 293              	getConnectionStatus:
 294              	.LFB1:
 104:SakuraIO/SakuraIOc.c **** 
 105:SakuraIO/SakuraIOc.c **** /* Common Commands */
 106:SakuraIO/SakuraIOc.c **** 
 107:SakuraIO/SakuraIOc.c **** uint8_t getConnectionStatus(){
 295              		.loc 1 107 0
 296              		.cfi_startproc
 297              		@ args = 0, pretend = 0, frame = 8
 298              		@ frame_needed = 0, uses_anonymous_args = 0
 299 0000 00B5     		push	{lr}
 300              		.cfi_def_cfa_offset 4
 301              		.cfi_offset 14, -4
 302 0002 85B0     		sub	sp, sp, #20
 303              		.cfi_def_cfa_offset 24
 108:SakuraIO/SakuraIOc.c ****   uint8_t responseLength = 1;
 304              		.loc 1 108 0
 305 0004 0120     		movs	r0, #1
 306 0006 8DF80F00 		strb	r0, [sp, #15]
 109:SakuraIO/SakuraIOc.c ****   uint8_t response[1] = {0x00};
 307              		.loc 1 109 0
 308 000a 0021     		movs	r1, #0
 309 000c 8DF80C10 		strb	r1, [sp, #12]
 110:SakuraIO/SakuraIOc.c ****   if(executeCommand(CMD_GET_CONNECTION_STATUS, 0, NULL, &responseLength, response) != CMD_ERROR_NON
 310              		.loc 1 110 0
 311 0010 03AB     		add	r3, sp, #12
 312 0012 0093     		str	r3, [sp]
 313 0014 0DF10F03 		add	r3, sp, #15
 314 0018 0A46     		mov	r2, r1
 315 001a FFF7FEFF 		bl	executeCommand
 316              	.LVL57:
 317 001e 0128     		cmp	r0, #1
 318 0020 02D1     		bne	.L28
 111:SakuraIO/SakuraIOc.c ****     return 0x7F;
 112:SakuraIO/SakuraIOc.c ****   }
 113:SakuraIO/SakuraIOc.c ****   return response[0];
 319              		.loc 1 113 0
 320 0022 9DF80C00 		ldrb	r0, [sp, #12]	@ zero_extendqisi2
 321 0026 00E0     		b	.L27
 322              	.L28:
 111:SakuraIO/SakuraIOc.c ****     return 0x7F;
 323              		.loc 1 111 0
 324 0028 7F20     		movs	r0, #127
 325              	.L27:
 114:SakuraIO/SakuraIOc.c **** }
 326              		.loc 1 114 0
 327 002a 05B0     		add	sp, sp, #20
 328              		.cfi_def_cfa_offset 4
 329              		@ sp needed
 330 002c 5DF804FB 		ldr	pc, [sp], #4
 331              		.cfi_endproc
 332              	.LFE1:
 333              		.size	getConnectionStatus, .-getConnectionStatus
 334              		.section	.text.getSignalQuality,"ax",%progbits
 335              		.align	2
 336              		.global	getSignalQuality
ARM GAS  C:\Users\cronos\AppData\Local\Temp\ccrG4qtQ.s 			page 9


 337              		.thumb
 338              		.thumb_func
 339              		.type	getSignalQuality, %function
 340              	getSignalQuality:
 341              	.LFB2:
 115:SakuraIO/SakuraIOc.c **** 
 116:SakuraIO/SakuraIOc.c **** uint8_t getSignalQuality(){
 342              		.loc 1 116 0
 343              		.cfi_startproc
 344              		@ args = 0, pretend = 0, frame = 8
 345              		@ frame_needed = 0, uses_anonymous_args = 0
 346 0000 00B5     		push	{lr}
 347              		.cfi_def_cfa_offset 4
 348              		.cfi_offset 14, -4
 349 0002 85B0     		sub	sp, sp, #20
 350              		.cfi_def_cfa_offset 24
 117:SakuraIO/SakuraIOc.c ****   uint8_t responseLength = 1;
 351              		.loc 1 117 0
 352 0004 0123     		movs	r3, #1
 353 0006 8DF80F30 		strb	r3, [sp, #15]
 118:SakuraIO/SakuraIOc.c ****   uint8_t response[1] = {0x00};
 354              		.loc 1 118 0
 355 000a 0021     		movs	r1, #0
 356 000c 8DF80C10 		strb	r1, [sp, #12]
 119:SakuraIO/SakuraIOc.c **** 
 120:SakuraIO/SakuraIOc.c ****   if(executeCommand(CMD_GET_SIGNAL_QUALITY, 0, NULL, &responseLength, response) != CMD_ERROR_NONE){
 357              		.loc 1 120 0
 358 0010 03AB     		add	r3, sp, #12
 359 0012 0093     		str	r3, [sp]
 360 0014 0DF10F03 		add	r3, sp, #15
 361 0018 0A46     		mov	r2, r1
 362 001a 0220     		movs	r0, #2
 363 001c FFF7FEFF 		bl	executeCommand
 364              	.LVL58:
 365 0020 0128     		cmp	r0, #1
 366 0022 02D1     		bne	.L32
 121:SakuraIO/SakuraIOc.c ****     return 0x00;
 122:SakuraIO/SakuraIOc.c ****   }
 123:SakuraIO/SakuraIOc.c ****   return response[0];
 367              		.loc 1 123 0
 368 0024 9DF80C00 		ldrb	r0, [sp, #12]	@ zero_extendqisi2
 369 0028 00E0     		b	.L31
 370              	.L32:
 121:SakuraIO/SakuraIOc.c ****     return 0x00;
 371              		.loc 1 121 0
 372 002a 0020     		movs	r0, #0
 373              	.L31:
 124:SakuraIO/SakuraIOc.c **** }
 374              		.loc 1 124 0
 375 002c 05B0     		add	sp, sp, #20
 376              		.cfi_def_cfa_offset 4
 377              		@ sp needed
 378 002e 5DF804FB 		ldr	pc, [sp], #4
 379              		.cfi_endproc
 380              	.LFE2:
 381              		.size	getSignalQuality, .-getSignalQuality
 382 0032 00BF     		.section	.text.getSignalQuarity,"ax",%progbits
ARM GAS  C:\Users\cronos\AppData\Local\Temp\ccrG4qtQ.s 			page 10


 383              		.align	2
 384              		.global	getSignalQuarity
 385              		.thumb
 386              		.thumb_func
 387              		.type	getSignalQuarity, %function
 388              	getSignalQuarity:
 389              	.LFB3:
 125:SakuraIO/SakuraIOc.c **** 
 126:SakuraIO/SakuraIOc.c **** uint8_t getSignalQuarity(){
 390              		.loc 1 126 0
 391              		.cfi_startproc
 392              		@ args = 0, pretend = 0, frame = 0
 393              		@ frame_needed = 0, uses_anonymous_args = 0
 394 0000 08B5     		push	{r3, lr}
 395              		.cfi_def_cfa_offset 8
 396              		.cfi_offset 3, -8
 397              		.cfi_offset 14, -4
 127:SakuraIO/SakuraIOc.c ****   // deprecated
 128:SakuraIO/SakuraIOc.c ****   return getSignalQuality();
 398              		.loc 1 128 0
 399 0002 FFF7FEFF 		bl	getSignalQuality
 400              	.LVL59:
 129:SakuraIO/SakuraIOc.c **** }
 401              		.loc 1 129 0
 402 0006 08BD     		pop	{r3, pc}
 403              		.cfi_endproc
 404              	.LFE3:
 405              		.size	getSignalQuarity, .-getSignalQuarity
 406              		.section	.text.getUnixtime,"ax",%progbits
 407              		.align	2
 408              		.global	getUnixtime
 409              		.thumb
 410              		.thumb_func
 411              		.type	getUnixtime, %function
 412              	getUnixtime:
 413              	.LFB4:
 130:SakuraIO/SakuraIOc.c **** 
 131:SakuraIO/SakuraIOc.c **** uint64_t getUnixtime(){
 414              		.loc 1 131 0
 415              		.cfi_startproc
 416              		@ args = 0, pretend = 0, frame = 16
 417              		@ frame_needed = 0, uses_anonymous_args = 0
 418 0000 00B5     		push	{lr}
 419              		.cfi_def_cfa_offset 4
 420              		.cfi_offset 14, -4
 421 0002 87B0     		sub	sp, sp, #28
 422              		.cfi_def_cfa_offset 32
 132:SakuraIO/SakuraIOc.c ****   uint8_t responseLength = 8;
 423              		.loc 1 132 0
 424 0004 0823     		movs	r3, #8
 425 0006 8DF81730 		strb	r3, [sp, #23]
 133:SakuraIO/SakuraIOc.c ****   uint8_t response[8] = {0x00};
 426              		.loc 1 133 0
 427 000a 03AB     		add	r3, sp, #12
 428 000c 0021     		movs	r1, #0
 429 000e 0391     		str	r1, [sp, #12]
 430 0010 0491     		str	r1, [sp, #16]
ARM GAS  C:\Users\cronos\AppData\Local\Temp\ccrG4qtQ.s 			page 11


 134:SakuraIO/SakuraIOc.c ****   if(executeCommand(CMD_GET_DATETIME, 0, NULL, &responseLength, response) != CMD_ERROR_NONE){
 431              		.loc 1 134 0
 432 0012 0093     		str	r3, [sp]
 433 0014 0DF11703 		add	r3, sp, #23
 434 0018 0A46     		mov	r2, r1
 435 001a 0320     		movs	r0, #3
 436 001c FFF7FEFF 		bl	executeCommand
 437              	.LVL60:
 438 0020 0128     		cmp	r0, #1
 439 0022 02D1     		bne	.L38
 135:SakuraIO/SakuraIOc.c ****     return 0x00;
 136:SakuraIO/SakuraIOc.c ****   }
 137:SakuraIO/SakuraIOc.c ****   return *((uint64_t *)response);
 440              		.loc 1 137 0
 441 0024 0398     		ldr	r0, [sp, #12]
 442 0026 0499     		ldr	r1, [sp, #16]
 443 0028 01E0     		b	.L37
 444              	.L38:
 135:SakuraIO/SakuraIOc.c ****     return 0x00;
 445              		.loc 1 135 0
 446 002a 0020     		movs	r0, #0
 447 002c 0146     		mov	r1, r0
 448              	.L37:
 138:SakuraIO/SakuraIOc.c **** }
 449              		.loc 1 138 0
 450 002e 07B0     		add	sp, sp, #28
 451              		.cfi_def_cfa_offset 4
 452              		@ sp needed
 453 0030 5DF804FB 		ldr	pc, [sp], #4
 454              		.cfi_endproc
 455              	.LFE4:
 456              		.size	getUnixtime, .-getUnixtime
 457              		.section	.text.echoback,"ax",%progbits
 458              		.align	2
 459              		.global	echoback
 460              		.thumb
 461              		.thumb_func
 462              		.type	echoback, %function
 463              	echoback:
 464              	.LFB5:
 139:SakuraIO/SakuraIOc.c **** 
 140:SakuraIO/SakuraIOc.c **** uint8_t echoback(uint8_t length, uint8_t *data, uint8_t *response){
 465              		.loc 1 140 0
 466              		.cfi_startproc
 467              		@ args = 0, pretend = 0, frame = 8
 468              		@ frame_needed = 0, uses_anonymous_args = 0
 469              	.LVL61:
 470 0000 00B5     		push	{lr}
 471              		.cfi_def_cfa_offset 4
 472              		.cfi_offset 14, -4
 473 0002 85B0     		sub	sp, sp, #20
 474              		.cfi_def_cfa_offset 24
 141:SakuraIO/SakuraIOc.c ****   uint8_t responseLength = length;
 475              		.loc 1 141 0
 476 0004 04AB     		add	r3, sp, #16
 477 0006 03F8010D 		strb	r0, [r3, #-1]!
 142:SakuraIO/SakuraIOc.c ****   if(executeCommand(CMD_ECHO_BACK, length, data, &responseLength, response) != CMD_ERROR_NONE){
ARM GAS  C:\Users\cronos\AppData\Local\Temp\ccrG4qtQ.s 			page 12


 478              		.loc 1 142 0
 479 000a 0092     		str	r2, [sp]
 480 000c 0A46     		mov	r2, r1
 481              	.LVL62:
 482 000e 0146     		mov	r1, r0
 483              	.LVL63:
 484 0010 0F20     		movs	r0, #15
 485              	.LVL64:
 486 0012 FFF7FEFF 		bl	executeCommand
 487              	.LVL65:
 488 0016 0128     		cmp	r0, #1
 489 0018 02D1     		bne	.L42
 143:SakuraIO/SakuraIOc.c ****     return 0x00;
 144:SakuraIO/SakuraIOc.c ****   }
 145:SakuraIO/SakuraIOc.c ****   return responseLength;
 490              		.loc 1 145 0
 491 001a 9DF80F00 		ldrb	r0, [sp, #15]	@ zero_extendqisi2
 492 001e 00E0     		b	.L41
 493              	.L42:
 143:SakuraIO/SakuraIOc.c ****     return 0x00;
 494              		.loc 1 143 0
 495 0020 0020     		movs	r0, #0
 496              	.L41:
 146:SakuraIO/SakuraIOc.c **** }
 497              		.loc 1 146 0
 498 0022 05B0     		add	sp, sp, #20
 499              		.cfi_def_cfa_offset 4
 500              		@ sp needed
 501 0024 5DF804FB 		ldr	pc, [sp], #4
 502              		.cfi_endproc
 503              	.LFE5:
 504              		.size	echoback, .-echoback
 505              		.section	.text.getADC,"ax",%progbits
 506              		.align	2
 507              		.global	getADC
 508              		.thumb
 509              		.thumb_func
 510              		.type	getADC, %function
 511              	getADC:
 512              	.LFB6:
 147:SakuraIO/SakuraIOc.c **** 
 148:SakuraIO/SakuraIOc.c **** /* IO Commands */
 149:SakuraIO/SakuraIOc.c **** 
 150:SakuraIO/SakuraIOc.c **** uint16_t getADC(uint8_t channel){
 513              		.loc 1 150 0
 514              		.cfi_startproc
 515              		@ args = 0, pretend = 0, frame = 16
 516              		@ frame_needed = 0, uses_anonymous_args = 0
 517              	.LVL66:
 518 0000 00B5     		push	{lr}
 519              		.cfi_def_cfa_offset 4
 520              		.cfi_offset 14, -4
 521 0002 87B0     		sub	sp, sp, #28
 522              		.cfi_def_cfa_offset 32
 151:SakuraIO/SakuraIOc.c ****   uint8_t request[1] = {channel};
 523              		.loc 1 151 0
 524 0004 8DF81400 		strb	r0, [sp, #20]
ARM GAS  C:\Users\cronos\AppData\Local\Temp\ccrG4qtQ.s 			page 13


 152:SakuraIO/SakuraIOc.c ****   uint8_t response[2] = {0x00};
 525              		.loc 1 152 0
 526 0008 0023     		movs	r3, #0
 527 000a ADF81030 		strh	r3, [sp, #16]	@ movhi
 153:SakuraIO/SakuraIOc.c ****   uint8_t responseLength = sizeof(response);
 528              		.loc 1 153 0
 529 000e 06AB     		add	r3, sp, #24
 530 0010 0222     		movs	r2, #2
 531 0012 03F8092D 		strb	r2, [r3, #-9]!
 154:SakuraIO/SakuraIOc.c ****   if(executeCommand(CMD_READ_ADC, 1, request, &responseLength, response) != CMD_ERROR_NONE){
 532              		.loc 1 154 0
 533 0016 04AA     		add	r2, sp, #16
 534 0018 0092     		str	r2, [sp]
 535 001a 05AA     		add	r2, sp, #20
 536 001c 0121     		movs	r1, #1
 537 001e 1020     		movs	r0, #16
 538              	.LVL67:
 539 0020 FFF7FEFF 		bl	executeCommand
 540              	.LVL68:
 541 0024 0128     		cmp	r0, #1
 542 0026 02D1     		bne	.L46
 155:SakuraIO/SakuraIOc.c ****     return 0xffff;
 156:SakuraIO/SakuraIOc.c ****   }
 157:SakuraIO/SakuraIOc.c ****   return *((uint16_t *)response);
 543              		.loc 1 157 0
 544 0028 BDF81000 		ldrh	r0, [sp, #16]
 545 002c 01E0     		b	.L45
 546              	.L46:
 155:SakuraIO/SakuraIOc.c ****     return 0xffff;
 547              		.loc 1 155 0
 548 002e 4FF6FF70 		movw	r0, #65535
 549              	.L45:
 158:SakuraIO/SakuraIOc.c **** }
 550              		.loc 1 158 0
 551 0032 07B0     		add	sp, sp, #28
 552              		.cfi_def_cfa_offset 4
 553              		@ sp needed
 554 0034 5DF804FB 		ldr	pc, [sp], #4
 555              		.cfi_endproc
 556              	.LFE6:
 557              		.size	getADC, .-getADC
 558              		.section	.text.enqueueTxRaw,"ax",%progbits
 559              		.align	2
 560              		.global	enqueueTxRaw
 561              		.thumb
 562              		.thumb_func
 563              		.type	enqueueTxRaw, %function
 564              	enqueueTxRaw:
 565              	.LFB7:
 159:SakuraIO/SakuraIOc.c **** 
 160:SakuraIO/SakuraIOc.c **** /* TX Commands */
 161:SakuraIO/SakuraIOc.c **** uint8_t enqueueTxRaw(uint8_t ch, uint8_t type, uint8_t length, uint8_t *data, uint64_t offset){
 566              		.loc 1 161 0
 567              		.cfi_startproc
 568              		@ args = 8, pretend = 0, frame = 24
 569              		@ frame_needed = 0, uses_anonymous_args = 0
 570              	.LVL69:
ARM GAS  C:\Users\cronos\AppData\Local\Temp\ccrG4qtQ.s 			page 14


 571 0000 10B5     		push	{r4, lr}
 572              		.cfi_def_cfa_offset 8
 573              		.cfi_offset 4, -8
 574              		.cfi_offset 14, -4
 575 0002 88B0     		sub	sp, sp, #32
 576              		.cfi_def_cfa_offset 40
 162:SakuraIO/SakuraIOc.c ****   uint8_t request[18] = {0x00};
 577              		.loc 1 162 0
 578 0004 0024     		movs	r4, #0
 579 0006 0394     		str	r4, [sp, #12]
 580 0008 0494     		str	r4, [sp, #16]
 581 000a 0594     		str	r4, [sp, #20]
 582 000c 0694     		str	r4, [sp, #24]
 583 000e ADF81C40 		strh	r4, [sp, #28]	@ movhi
 584              	.LVL70:
 163:SakuraIO/SakuraIOc.c ****   uint8_t requestLength = 10;
 164:SakuraIO/SakuraIOc.c ****   request[0] = ch;
 585              		.loc 1 164 0
 586 0012 8DF80C00 		strb	r0, [sp, #12]
 165:SakuraIO/SakuraIOc.c ****   request[1] = type;
 587              		.loc 1 165 0
 588 0016 8DF80D10 		strb	r1, [sp, #13]
 589              	.LVL71:
 590              	.LBB4:
 166:SakuraIO/SakuraIOc.c ****   for(uint8_t i=0;i<length;i++){
 591              		.loc 1 166 0
 592 001a 2146     		mov	r1, r4
 593              	.LVL72:
 594 001c 08E0     		b	.L49
 595              	.LVL73:
 596              	.L50:
 167:SakuraIO/SakuraIOc.c ****     request[2+i] = data[i];
 597              		.loc 1 167 0 discriminator 3
 598 001e 881C     		adds	r0, r1, #2
 599 0020 5C5C     		ldrb	r4, [r3, r1]	@ zero_extendqisi2
 600 0022 0DF1200E 		add	lr, sp, #32
 601 0026 7044     		add	r0, r0, lr
 602 0028 00F8144C 		strb	r4, [r0, #-20]
 166:SakuraIO/SakuraIOc.c ****   for(uint8_t i=0;i<length;i++){
 603              		.loc 1 166 0 discriminator 3
 604 002c 0131     		adds	r1, r1, #1
 605              	.LVL74:
 606 002e C9B2     		uxtb	r1, r1
 607              	.LVL75:
 608              	.L49:
 166:SakuraIO/SakuraIOc.c ****   for(uint8_t i=0;i<length;i++){
 609              		.loc 1 166 0 is_stmt 0 discriminator 1
 610 0030 9142     		cmp	r1, r2
 611 0032 F4D3     		bcc	.L50
 612              	.LBE4:
 168:SakuraIO/SakuraIOc.c ****   }
 169:SakuraIO/SakuraIOc.c ****   if(offset != 0){
 613              		.loc 1 169 0 is_stmt 1
 614 0034 DDE90A23 		ldrd	r2, [sp, #40]
 615              	.LVL76:
 616 0038 1343     		orrs	r3, r2, r3
 617              	.LVL77:
ARM GAS  C:\Users\cronos\AppData\Local\Temp\ccrG4qtQ.s 			page 15


 618 003a 0CD1     		bne	.L54
 163:SakuraIO/SakuraIOc.c ****   request[0] = ch;
 619              		.loc 1 163 0
 620 003c 0A21     		movs	r1, #10
 621              	.LVL78:
 622 003e 0EE0     		b	.L52
 623              	.LVL79:
 624              	.L53:
 625              	.LBB5:
 170:SakuraIO/SakuraIOc.c ****     requestLength = 18;
 171:SakuraIO/SakuraIOc.c ****     for(uint8_t i=0;i<8;i++){
 172:SakuraIO/SakuraIOc.c ****       request[10+i] = ((uint8_t *)&offset)[i];
 626              		.loc 1 172 0 discriminator 3
 627 0040 03F10A02 		add	r2, r3, #10
 628 0044 0AA9     		add	r1, sp, #40
 629              	.LVL80:
 630 0046 C95C     		ldrb	r1, [r1, r3]	@ zero_extendqisi2
 631              	.LVL81:
 632 0048 08A8     		add	r0, sp, #32
 633 004a 0244     		add	r2, r2, r0
 634 004c 02F8141C 		strb	r1, [r2, #-20]
 171:SakuraIO/SakuraIOc.c ****       request[10+i] = ((uint8_t *)&offset)[i];
 635              		.loc 1 171 0 discriminator 3
 636 0050 0133     		adds	r3, r3, #1
 637              	.LVL82:
 638 0052 DBB2     		uxtb	r3, r3
 639              	.LVL83:
 640 0054 00E0     		b	.L51
 641              	.LVL84:
 642              	.L54:
 643              	.LBE5:
 644 0056 0023     		movs	r3, #0
 645              	.LVL85:
 646              	.L51:
 647              	.LBB6:
 171:SakuraIO/SakuraIOc.c ****       request[10+i] = ((uint8_t *)&offset)[i];
 648              		.loc 1 171 0 is_stmt 0 discriminator 1
 649 0058 072B     		cmp	r3, #7
 650 005a F1D9     		bls	.L53
 651              	.LBE6:
 170:SakuraIO/SakuraIOc.c ****     requestLength = 18;
 652              		.loc 1 170 0 is_stmt 1
 653 005c 1221     		movs	r1, #18
 654              	.LVL86:
 655              	.L52:
 173:SakuraIO/SakuraIOc.c ****     }
 174:SakuraIO/SakuraIOc.c ****   }
 175:SakuraIO/SakuraIOc.c ****   return executeCommand(CMD_TX_ENQUEUE, requestLength, request, NULL, NULL);
 656              		.loc 1 175 0
 657 005e 0023     		movs	r3, #0
 658 0060 0093     		str	r3, [sp]
 659 0062 03AA     		add	r2, sp, #12
 660 0064 2020     		movs	r0, #32
 661 0066 FFF7FEFF 		bl	executeCommand
 662              	.LVL87:
 176:SakuraIO/SakuraIOc.c **** }
 663              		.loc 1 176 0
ARM GAS  C:\Users\cronos\AppData\Local\Temp\ccrG4qtQ.s 			page 16


 664 006a 08B0     		add	sp, sp, #32
 665              		.cfi_def_cfa_offset 8
 666              		@ sp needed
 667 006c 10BD     		pop	{r4, pc}
 668              		.cfi_endproc
 669              	.LFE7:
 670              		.size	enqueueTxRaw, .-enqueueTxRaw
 671 006e 00BF     		.section	.text.enqueueTx2_i32,"ax",%progbits
 672              		.align	2
 673              		.global	enqueueTx2_i32
 674              		.thumb
 675              		.thumb_func
 676              		.type	enqueueTx2_i32, %function
 677              	enqueueTx2_i32:
 678              	.LFB8:
 177:SakuraIO/SakuraIOc.c **** 
 178:SakuraIO/SakuraIOc.c **** uint8_t enqueueTx2_i32(uint8_t ch, int32_t value, uint64_t offset){
 679              		.loc 1 178 0
 680              		.cfi_startproc
 681              		@ args = 0, pretend = 0, frame = 8
 682              		@ frame_needed = 0, uses_anonymous_args = 0
 683              	.LVL88:
 684 0000 10B5     		push	{r4, lr}
 685              		.cfi_def_cfa_offset 8
 686              		.cfi_offset 4, -8
 687              		.cfi_offset 14, -4
 688 0002 84B0     		sub	sp, sp, #16
 689              		.cfi_def_cfa_offset 24
 690 0004 04AC     		add	r4, sp, #16
 691 0006 44F8041D 		str	r1, [r4, #-4]!
 179:SakuraIO/SakuraIOc.c ****   return enqueueTxRaw(ch, 'i', 4, (uint8_t *)&value, offset);
 692              		.loc 1 179 0
 693 000a CDE90023 		strd	r2, [sp]
 694 000e 2346     		mov	r3, r4
 695 0010 0422     		movs	r2, #4
 696              	.LVL89:
 697 0012 6921     		movs	r1, #105
 698              	.LVL90:
 699 0014 FFF7FEFF 		bl	enqueueTxRaw
 700              	.LVL91:
 180:SakuraIO/SakuraIOc.c **** }
 701              		.loc 1 180 0
 702 0018 04B0     		add	sp, sp, #16
 703              		.cfi_def_cfa_offset 8
 704              		@ sp needed
 705 001a 10BD     		pop	{r4, pc}
 706              		.cfi_endproc
 707              	.LFE8:
 708              		.size	enqueueTx2_i32, .-enqueueTx2_i32
 709              		.section	.text.enqueueTx2_ui32,"ax",%progbits
 710              		.align	2
 711              		.global	enqueueTx2_ui32
 712              		.thumb
 713              		.thumb_func
 714              		.type	enqueueTx2_ui32, %function
 715              	enqueueTx2_ui32:
 716              	.LFB9:
ARM GAS  C:\Users\cronos\AppData\Local\Temp\ccrG4qtQ.s 			page 17


 181:SakuraIO/SakuraIOc.c **** 
 182:SakuraIO/SakuraIOc.c **** uint8_t enqueueTx2_ui32(uint8_t ch, uint32_t value, uint64_t offset){
 717              		.loc 1 182 0
 718              		.cfi_startproc
 719              		@ args = 0, pretend = 0, frame = 8
 720              		@ frame_needed = 0, uses_anonymous_args = 0
 721              	.LVL92:
 722 0000 10B5     		push	{r4, lr}
 723              		.cfi_def_cfa_offset 8
 724              		.cfi_offset 4, -8
 725              		.cfi_offset 14, -4
 726 0002 84B0     		sub	sp, sp, #16
 727              		.cfi_def_cfa_offset 24
 728 0004 04AC     		add	r4, sp, #16
 729 0006 44F8041D 		str	r1, [r4, #-4]!
 183:SakuraIO/SakuraIOc.c ****   return enqueueTxRaw(ch, 'I', 4, (uint8_t *)&value, offset);
 730              		.loc 1 183 0
 731 000a CDE90023 		strd	r2, [sp]
 732 000e 2346     		mov	r3, r4
 733 0010 0422     		movs	r2, #4
 734              	.LVL93:
 735 0012 4921     		movs	r1, #73
 736              	.LVL94:
 737 0014 FFF7FEFF 		bl	enqueueTxRaw
 738              	.LVL95:
 184:SakuraIO/SakuraIOc.c **** }
 739              		.loc 1 184 0
 740 0018 04B0     		add	sp, sp, #16
 741              		.cfi_def_cfa_offset 8
 742              		@ sp needed
 743 001a 10BD     		pop	{r4, pc}
 744              		.cfi_endproc
 745              	.LFE9:
 746              		.size	enqueueTx2_ui32, .-enqueueTx2_ui32
 747              		.section	.text.enqueueTx2_i64,"ax",%progbits
 748              		.align	2
 749              		.global	enqueueTx2_i64
 750              		.thumb
 751              		.thumb_func
 752              		.type	enqueueTx2_i64, %function
 753              	enqueueTx2_i64:
 754              	.LFB10:
 185:SakuraIO/SakuraIOc.c **** 
 186:SakuraIO/SakuraIOc.c **** uint8_t enqueueTx2_i64(uint8_t ch, int64_t value, uint64_t offset){
 755              		.loc 1 186 0
 756              		.cfi_startproc
 757              		@ args = 8, pretend = 0, frame = 8
 758              		@ frame_needed = 0, uses_anonymous_args = 0
 759              	.LVL96:
 760 0000 00B5     		push	{lr}
 761              		.cfi_def_cfa_offset 4
 762              		.cfi_offset 14, -4
 763 0002 85B0     		sub	sp, sp, #20
 764              		.cfi_def_cfa_offset 24
 765 0004 04A9     		add	r1, sp, #16
 766 0006 61E90223 		strd	r2, [r1, #-8]!
 187:SakuraIO/SakuraIOc.c ****   return enqueueTxRaw(ch, 'l', 8, (uint8_t *)&value, offset);
ARM GAS  C:\Users\cronos\AppData\Local\Temp\ccrG4qtQ.s 			page 18


 767              		.loc 1 187 0
 768 000a DDE90623 		ldrd	r2, [sp, #24]
 769              	.LVL97:
 770 000e CDE90023 		strd	r2, [sp]
 771 0012 0B46     		mov	r3, r1
 772 0014 0822     		movs	r2, #8
 773 0016 6C21     		movs	r1, #108
 774              	.LVL98:
 775 0018 FFF7FEFF 		bl	enqueueTxRaw
 776              	.LVL99:
 188:SakuraIO/SakuraIOc.c **** }
 777              		.loc 1 188 0
 778 001c 05B0     		add	sp, sp, #20
 779              		.cfi_def_cfa_offset 4
 780              		@ sp needed
 781 001e 5DF804FB 		ldr	pc, [sp], #4
 782              		.cfi_endproc
 783              	.LFE10:
 784              		.size	enqueueTx2_i64, .-enqueueTx2_i64
 785 0022 00BF     		.section	.text.enqueueTx2_ui64,"ax",%progbits
 786              		.align	2
 787              		.global	enqueueTx2_ui64
 788              		.thumb
 789              		.thumb_func
 790              		.type	enqueueTx2_ui64, %function
 791              	enqueueTx2_ui64:
 792              	.LFB11:
 189:SakuraIO/SakuraIOc.c **** 
 190:SakuraIO/SakuraIOc.c **** uint8_t enqueueTx2_ui64(uint8_t ch, uint64_t value, uint64_t offset){
 793              		.loc 1 190 0
 794              		.cfi_startproc
 795              		@ args = 8, pretend = 0, frame = 8
 796              		@ frame_needed = 0, uses_anonymous_args = 0
 797              	.LVL100:
 798 0000 00B5     		push	{lr}
 799              		.cfi_def_cfa_offset 4
 800              		.cfi_offset 14, -4
 801 0002 85B0     		sub	sp, sp, #20
 802              		.cfi_def_cfa_offset 24
 803 0004 04A9     		add	r1, sp, #16
 804 0006 61E90223 		strd	r2, [r1, #-8]!
 191:SakuraIO/SakuraIOc.c ****   return enqueueTxRaw(ch, 'L', 8, (uint8_t *)&value, offset);
 805              		.loc 1 191 0
 806 000a DDE90623 		ldrd	r2, [sp, #24]
 807              	.LVL101:
 808 000e CDE90023 		strd	r2, [sp]
 809 0012 0B46     		mov	r3, r1
 810 0014 0822     		movs	r2, #8
 811 0016 4C21     		movs	r1, #76
 812              	.LVL102:
 813 0018 FFF7FEFF 		bl	enqueueTxRaw
 814              	.LVL103:
 192:SakuraIO/SakuraIOc.c **** }
 815              		.loc 1 192 0
 816 001c 05B0     		add	sp, sp, #20
 817              		.cfi_def_cfa_offset 4
 818              		@ sp needed
ARM GAS  C:\Users\cronos\AppData\Local\Temp\ccrG4qtQ.s 			page 19


 819 001e 5DF804FB 		ldr	pc, [sp], #4
 820              		.cfi_endproc
 821              	.LFE11:
 822              		.size	enqueueTx2_ui64, .-enqueueTx2_ui64
 823 0022 00BF     		.section	.text.enqueueTx2_f,"ax",%progbits
 824              		.align	2
 825              		.global	enqueueTx2_f
 826              		.thumb
 827              		.thumb_func
 828              		.type	enqueueTx2_f, %function
 829              	enqueueTx2_f:
 830              	.LFB12:
 193:SakuraIO/SakuraIOc.c **** 
 194:SakuraIO/SakuraIOc.c **** uint8_t enqueueTx2_f(uint8_t ch, float value, uint64_t offset){
 831              		.loc 1 194 0
 832              		.cfi_startproc
 833              		@ args = 0, pretend = 0, frame = 8
 834              		@ frame_needed = 0, uses_anonymous_args = 0
 835              	.LVL104:
 836 0000 10B5     		push	{r4, lr}
 837              		.cfi_def_cfa_offset 8
 838              		.cfi_offset 4, -8
 839              		.cfi_offset 14, -4
 840 0002 84B0     		sub	sp, sp, #16
 841              		.cfi_def_cfa_offset 24
 842 0004 04AC     		add	r4, sp, #16
 843 0006 44F8041D 		str	r1, [r4, #-4]!	@ float
 195:SakuraIO/SakuraIOc.c ****   return enqueueTxRaw(ch, 'f', 4, (uint8_t *)&value, offset);
 844              		.loc 1 195 0
 845 000a CDE90023 		strd	r2, [sp]
 846 000e 2346     		mov	r3, r4
 847 0010 0422     		movs	r2, #4
 848              	.LVL105:
 849 0012 6621     		movs	r1, #102
 850              	.LVL106:
 851 0014 FFF7FEFF 		bl	enqueueTxRaw
 852              	.LVL107:
 196:SakuraIO/SakuraIOc.c **** }
 853              		.loc 1 196 0
 854 0018 04B0     		add	sp, sp, #16
 855              		.cfi_def_cfa_offset 8
 856              		@ sp needed
 857 001a 10BD     		pop	{r4, pc}
 858              		.cfi_endproc
 859              	.LFE12:
 860              		.size	enqueueTx2_f, .-enqueueTx2_f
 861              		.section	.text.enqueueTx2_d,"ax",%progbits
 862              		.align	2
 863              		.global	enqueueTx2_d
 864              		.thumb
 865              		.thumb_func
 866              		.type	enqueueTx2_d, %function
 867              	enqueueTx2_d:
 868              	.LFB13:
 197:SakuraIO/SakuraIOc.c **** 
 198:SakuraIO/SakuraIOc.c **** uint8_t enqueueTx2_d(uint8_t ch, double value, uint64_t offset){
 869              		.loc 1 198 0
ARM GAS  C:\Users\cronos\AppData\Local\Temp\ccrG4qtQ.s 			page 20


 870              		.cfi_startproc
 871              		@ args = 8, pretend = 0, frame = 8
 872              		@ frame_needed = 0, uses_anonymous_args = 0
 873              	.LVL108:
 874 0000 00B5     		push	{lr}
 875              		.cfi_def_cfa_offset 4
 876              		.cfi_offset 14, -4
 877 0002 85B0     		sub	sp, sp, #20
 878              		.cfi_def_cfa_offset 24
 879 0004 04A9     		add	r1, sp, #16
 880 0006 61E90223 		strd	r2, [r1, #-8]!
 199:SakuraIO/SakuraIOc.c ****   return enqueueTxRaw(ch, 'd', 8, (uint8_t *)&value, offset);
 881              		.loc 1 199 0
 882 000a DDE90623 		ldrd	r2, [sp, #24]
 883              	.LVL109:
 884 000e CDE90023 		strd	r2, [sp]
 885 0012 0B46     		mov	r3, r1
 886 0014 0822     		movs	r2, #8
 887 0016 6421     		movs	r1, #100
 888              	.LVL110:
 889 0018 FFF7FEFF 		bl	enqueueTxRaw
 890              	.LVL111:
 200:SakuraIO/SakuraIOc.c **** }
 891              		.loc 1 200 0
 892 001c 05B0     		add	sp, sp, #20
 893              		.cfi_def_cfa_offset 4
 894              		@ sp needed
 895 001e 5DF804FB 		ldr	pc, [sp], #4
 896              		.cfi_endproc
 897              	.LFE13:
 898              		.size	enqueueTx2_d, .-enqueueTx2_d
 899 0022 00BF     		.section	.text.enqueueTx2_ui8a,"ax",%progbits
 900              		.align	2
 901              		.global	enqueueTx2_ui8a
 902              		.thumb
 903              		.thumb_func
 904              		.type	enqueueTx2_ui8a, %function
 905              	enqueueTx2_ui8a:
 906              	.LFB14:
 201:SakuraIO/SakuraIOc.c **** 
 202:SakuraIO/SakuraIOc.c **** uint8_t enqueueTx2_ui8a(uint8_t ch, uint8_t value[8], uint64_t offset){
 907              		.loc 1 202 0
 908              		.cfi_startproc
 909              		@ args = 0, pretend = 0, frame = 0
 910              		@ frame_needed = 0, uses_anonymous_args = 0
 911              	.LVL112:
 912 0000 00B5     		push	{lr}
 913              		.cfi_def_cfa_offset 4
 914              		.cfi_offset 14, -4
 915 0002 83B0     		sub	sp, sp, #12
 916              		.cfi_def_cfa_offset 16
 203:SakuraIO/SakuraIOc.c ****   return enqueueTxRaw(ch, 'b', 8, (uint8_t *)value, offset);
 917              		.loc 1 203 0
 918 0004 CDE90023 		strd	r2, [sp]
 919 0008 0B46     		mov	r3, r1
 920 000a 0822     		movs	r2, #8
 921              	.LVL113:
ARM GAS  C:\Users\cronos\AppData\Local\Temp\ccrG4qtQ.s 			page 21


 922 000c 6221     		movs	r1, #98
 923              	.LVL114:
 924 000e FFF7FEFF 		bl	enqueueTxRaw
 925              	.LVL115:
 204:SakuraIO/SakuraIOc.c **** }
 926              		.loc 1 204 0
 927 0012 03B0     		add	sp, sp, #12
 928              		.cfi_def_cfa_offset 4
 929              		@ sp needed
 930 0014 5DF804FB 		ldr	pc, [sp], #4
 931              		.cfi_endproc
 932              	.LFE14:
 933              		.size	enqueueTx2_ui8a, .-enqueueTx2_ui8a
 934              		.section	.text.enqueueTx_i32,"ax",%progbits
 935              		.align	2
 936              		.global	enqueueTx_i32
 937              		.thumb
 938              		.thumb_func
 939              		.type	enqueueTx_i32, %function
 940              	enqueueTx_i32:
 941              	.LFB15:
 205:SakuraIO/SakuraIOc.c **** 
 206:SakuraIO/SakuraIOc.c **** uint8_t enqueueTx_i32(uint8_t ch, int32_t value){
 942              		.loc 1 206 0
 943              		.cfi_startproc
 944              		@ args = 0, pretend = 0, frame = 0
 945              		@ frame_needed = 0, uses_anonymous_args = 0
 946              	.LVL116:
 947 0000 08B5     		push	{r3, lr}
 948              		.cfi_def_cfa_offset 8
 949              		.cfi_offset 3, -8
 950              		.cfi_offset 14, -4
 207:SakuraIO/SakuraIOc.c ****   return enqueueTx2_i32(ch, value, UINT32_C(0));
 951              		.loc 1 207 0
 952 0002 0022     		movs	r2, #0
 953 0004 0023     		movs	r3, #0
 954 0006 FFF7FEFF 		bl	enqueueTx2_i32
 955              	.LVL117:
 208:SakuraIO/SakuraIOc.c **** }
 956              		.loc 1 208 0
 957 000a 08BD     		pop	{r3, pc}
 958              		.cfi_endproc
 959              	.LFE15:
 960              		.size	enqueueTx_i32, .-enqueueTx_i32
 961              		.section	.text.enqueueTx_ui32,"ax",%progbits
 962              		.align	2
 963              		.global	enqueueTx_ui32
 964              		.thumb
 965              		.thumb_func
 966              		.type	enqueueTx_ui32, %function
 967              	enqueueTx_ui32:
 968              	.LFB16:
 209:SakuraIO/SakuraIOc.c **** 
 210:SakuraIO/SakuraIOc.c **** uint8_t enqueueTx_ui32(uint8_t ch, uint32_t value){
 969              		.loc 1 210 0
 970              		.cfi_startproc
 971              		@ args = 0, pretend = 0, frame = 0
ARM GAS  C:\Users\cronos\AppData\Local\Temp\ccrG4qtQ.s 			page 22


 972              		@ frame_needed = 0, uses_anonymous_args = 0
 973              	.LVL118:
 974 0000 08B5     		push	{r3, lr}
 975              		.cfi_def_cfa_offset 8
 976              		.cfi_offset 3, -8
 977              		.cfi_offset 14, -4
 211:SakuraIO/SakuraIOc.c ****   return enqueueTx2_ui32(ch, value, UINT32_C(0));
 978              		.loc 1 211 0
 979 0002 0022     		movs	r2, #0
 980 0004 0023     		movs	r3, #0
 981 0006 FFF7FEFF 		bl	enqueueTx2_ui32
 982              	.LVL119:
 212:SakuraIO/SakuraIOc.c **** }
 983              		.loc 1 212 0
 984 000a 08BD     		pop	{r3, pc}
 985              		.cfi_endproc
 986              	.LFE16:
 987              		.size	enqueueTx_ui32, .-enqueueTx_ui32
 988              		.section	.text.enqueueTx_i64,"ax",%progbits
 989              		.align	2
 990              		.global	enqueueTx_i64
 991              		.thumb
 992              		.thumb_func
 993              		.type	enqueueTx_i64, %function
 994              	enqueueTx_i64:
 995              	.LFB17:
 213:SakuraIO/SakuraIOc.c **** 
 214:SakuraIO/SakuraIOc.c **** uint8_t enqueueTx_i64(uint8_t ch, int64_t value){
 996              		.loc 1 214 0
 997              		.cfi_startproc
 998              		@ args = 0, pretend = 0, frame = 0
 999              		@ frame_needed = 0, uses_anonymous_args = 0
 1000              	.LVL120:
 1001 0000 30B5     		push	{r4, r5, lr}
 1002              		.cfi_def_cfa_offset 12
 1003              		.cfi_offset 4, -12
 1004              		.cfi_offset 5, -8
 1005              		.cfi_offset 14, -4
 1006 0002 83B0     		sub	sp, sp, #12
 1007              		.cfi_def_cfa_offset 24
 215:SakuraIO/SakuraIOc.c ****   return enqueueTx2_i64(ch, value, UINT32_C(0));
 1008              		.loc 1 215 0
 1009 0004 0024     		movs	r4, #0
 1010 0006 0025     		movs	r5, #0
 1011 0008 CDE90045 		strd	r4, [sp]
 1012 000c FFF7FEFF 		bl	enqueueTx2_i64
 1013              	.LVL121:
 216:SakuraIO/SakuraIOc.c **** }
 1014              		.loc 1 216 0
 1015 0010 03B0     		add	sp, sp, #12
 1016              		.cfi_def_cfa_offset 12
 1017              		@ sp needed
 1018 0012 30BD     		pop	{r4, r5, pc}
 1019              		.cfi_endproc
 1020              	.LFE17:
 1021              		.size	enqueueTx_i64, .-enqueueTx_i64
 1022              		.section	.text.enqueueTx_ui64,"ax",%progbits
ARM GAS  C:\Users\cronos\AppData\Local\Temp\ccrG4qtQ.s 			page 23


 1023              		.align	2
 1024              		.global	enqueueTx_ui64
 1025              		.thumb
 1026              		.thumb_func
 1027              		.type	enqueueTx_ui64, %function
 1028              	enqueueTx_ui64:
 1029              	.LFB18:
 217:SakuraIO/SakuraIOc.c **** 
 218:SakuraIO/SakuraIOc.c **** uint8_t enqueueTx_ui64(uint8_t ch, uint64_t value){
 1030              		.loc 1 218 0
 1031              		.cfi_startproc
 1032              		@ args = 0, pretend = 0, frame = 0
 1033              		@ frame_needed = 0, uses_anonymous_args = 0
 1034              	.LVL122:
 1035 0000 30B5     		push	{r4, r5, lr}
 1036              		.cfi_def_cfa_offset 12
 1037              		.cfi_offset 4, -12
 1038              		.cfi_offset 5, -8
 1039              		.cfi_offset 14, -4
 1040 0002 83B0     		sub	sp, sp, #12
 1041              		.cfi_def_cfa_offset 24
 219:SakuraIO/SakuraIOc.c ****   return enqueueTx2_ui64(ch, value, UINT32_C(0));
 1042              		.loc 1 219 0
 1043 0004 0024     		movs	r4, #0
 1044 0006 0025     		movs	r5, #0
 1045 0008 CDE90045 		strd	r4, [sp]
 1046 000c FFF7FEFF 		bl	enqueueTx2_ui64
 1047              	.LVL123:
 220:SakuraIO/SakuraIOc.c **** }
 1048              		.loc 1 220 0
 1049 0010 03B0     		add	sp, sp, #12
 1050              		.cfi_def_cfa_offset 12
 1051              		@ sp needed
 1052 0012 30BD     		pop	{r4, r5, pc}
 1053              		.cfi_endproc
 1054              	.LFE18:
 1055              		.size	enqueueTx_ui64, .-enqueueTx_ui64
 1056              		.section	.text.enqueueTx_f,"ax",%progbits
 1057              		.align	2
 1058              		.global	enqueueTx_f
 1059              		.thumb
 1060              		.thumb_func
 1061              		.type	enqueueTx_f, %function
 1062              	enqueueTx_f:
 1063              	.LFB19:
 221:SakuraIO/SakuraIOc.c **** 
 222:SakuraIO/SakuraIOc.c **** uint8_t enqueueTx_f(uint8_t ch, float value){
 1064              		.loc 1 222 0
 1065              		.cfi_startproc
 1066              		@ args = 0, pretend = 0, frame = 0
 1067              		@ frame_needed = 0, uses_anonymous_args = 0
 1068              	.LVL124:
 1069 0000 08B5     		push	{r3, lr}
 1070              		.cfi_def_cfa_offset 8
 1071              		.cfi_offset 3, -8
 1072              		.cfi_offset 14, -4
 223:SakuraIO/SakuraIOc.c ****   return enqueueTx2_f(ch, value, UINT32_C(0));
ARM GAS  C:\Users\cronos\AppData\Local\Temp\ccrG4qtQ.s 			page 24


 1073              		.loc 1 223 0
 1074 0002 0022     		movs	r2, #0
 1075 0004 0023     		movs	r3, #0
 1076 0006 FFF7FEFF 		bl	enqueueTx2_f
 1077              	.LVL125:
 224:SakuraIO/SakuraIOc.c **** }
 1078              		.loc 1 224 0
 1079 000a 08BD     		pop	{r3, pc}
 1080              		.cfi_endproc
 1081              	.LFE19:
 1082              		.size	enqueueTx_f, .-enqueueTx_f
 1083              		.section	.text.enqueueTx_d,"ax",%progbits
 1084              		.align	2
 1085              		.global	enqueueTx_d
 1086              		.thumb
 1087              		.thumb_func
 1088              		.type	enqueueTx_d, %function
 1089              	enqueueTx_d:
 1090              	.LFB20:
 225:SakuraIO/SakuraIOc.c **** 
 226:SakuraIO/SakuraIOc.c **** uint8_t enqueueTx_d(uint8_t ch, double value){
 1091              		.loc 1 226 0
 1092              		.cfi_startproc
 1093              		@ args = 0, pretend = 0, frame = 0
 1094              		@ frame_needed = 0, uses_anonymous_args = 0
 1095              	.LVL126:
 1096 0000 30B5     		push	{r4, r5, lr}
 1097              		.cfi_def_cfa_offset 12
 1098              		.cfi_offset 4, -12
 1099              		.cfi_offset 5, -8
 1100              		.cfi_offset 14, -4
 1101 0002 83B0     		sub	sp, sp, #12
 1102              		.cfi_def_cfa_offset 24
 227:SakuraIO/SakuraIOc.c ****   return enqueueTx2_d(ch, value, UINT32_C(0));
 1103              		.loc 1 227 0
 1104 0004 0024     		movs	r4, #0
 1105 0006 0025     		movs	r5, #0
 1106 0008 CDE90045 		strd	r4, [sp]
 1107 000c FFF7FEFF 		bl	enqueueTx2_d
 1108              	.LVL127:
 228:SakuraIO/SakuraIOc.c **** }
 1109              		.loc 1 228 0
 1110 0010 03B0     		add	sp, sp, #12
 1111              		.cfi_def_cfa_offset 12
 1112              		@ sp needed
 1113 0012 30BD     		pop	{r4, r5, pc}
 1114              		.cfi_endproc
 1115              	.LFE20:
 1116              		.size	enqueueTx_d, .-enqueueTx_d
 1117              		.section	.text.enqueueTx_ui8a,"ax",%progbits
 1118              		.align	2
 1119              		.global	enqueueTx_ui8a
 1120              		.thumb
 1121              		.thumb_func
 1122              		.type	enqueueTx_ui8a, %function
 1123              	enqueueTx_ui8a:
 1124              	.LFB21:
ARM GAS  C:\Users\cronos\AppData\Local\Temp\ccrG4qtQ.s 			page 25


 229:SakuraIO/SakuraIOc.c **** 
 230:SakuraIO/SakuraIOc.c **** uint8_t enqueueTx_ui8a(uint8_t ch, uint8_t value[8]){
 1125              		.loc 1 230 0
 1126              		.cfi_startproc
 1127              		@ args = 0, pretend = 0, frame = 0
 1128              		@ frame_needed = 0, uses_anonymous_args = 0
 1129              	.LVL128:
 1130 0000 08B5     		push	{r3, lr}
 1131              		.cfi_def_cfa_offset 8
 1132              		.cfi_offset 3, -8
 1133              		.cfi_offset 14, -4
 231:SakuraIO/SakuraIOc.c ****   return enqueueTx2_ui8a(ch, value, UINT32_C(0));
 1134              		.loc 1 231 0
 1135 0002 0022     		movs	r2, #0
 1136 0004 0023     		movs	r3, #0
 1137 0006 FFF7FEFF 		bl	enqueueTx2_ui8a
 1138              	.LVL129:
 232:SakuraIO/SakuraIOc.c **** }
 1139              		.loc 1 232 0
 1140 000a 08BD     		pop	{r3, pc}
 1141              		.cfi_endproc
 1142              	.LFE21:
 1143              		.size	enqueueTx_ui8a, .-enqueueTx_ui8a
 1144              		.section	.text.sendImmediatelyRaw,"ax",%progbits
 1145              		.align	2
 1146              		.global	sendImmediatelyRaw
 1147              		.thumb
 1148              		.thumb_func
 1149              		.type	sendImmediatelyRaw, %function
 1150              	sendImmediatelyRaw:
 1151              	.LFB22:
 233:SakuraIO/SakuraIOc.c **** 
 234:SakuraIO/SakuraIOc.c **** uint8_t sendImmediatelyRaw(uint8_t ch, uint8_t type, uint8_t length, uint8_t *data, uint64_t offset
 1152              		.loc 1 234 0
 1153              		.cfi_startproc
 1154              		@ args = 8, pretend = 0, frame = 24
 1155              		@ frame_needed = 0, uses_anonymous_args = 0
 1156              	.LVL130:
 1157 0000 10B5     		push	{r4, lr}
 1158              		.cfi_def_cfa_offset 8
 1159              		.cfi_offset 4, -8
 1160              		.cfi_offset 14, -4
 1161 0002 88B0     		sub	sp, sp, #32
 1162              		.cfi_def_cfa_offset 40
 235:SakuraIO/SakuraIOc.c ****   uint8_t request[18] = {0x00};
 1163              		.loc 1 235 0
 1164 0004 0024     		movs	r4, #0
 1165 0006 0394     		str	r4, [sp, #12]
 1166 0008 0494     		str	r4, [sp, #16]
 1167 000a 0594     		str	r4, [sp, #20]
 1168 000c 0694     		str	r4, [sp, #24]
 1169 000e ADF81C40 		strh	r4, [sp, #28]	@ movhi
 1170              	.LVL131:
 236:SakuraIO/SakuraIOc.c ****   uint8_t requestLength = 10;
 237:SakuraIO/SakuraIOc.c ****   request[0] = ch;
 1171              		.loc 1 237 0
 1172 0012 8DF80C00 		strb	r0, [sp, #12]
ARM GAS  C:\Users\cronos\AppData\Local\Temp\ccrG4qtQ.s 			page 26


 238:SakuraIO/SakuraIOc.c ****   request[1] = type;
 1173              		.loc 1 238 0
 1174 0016 8DF80D10 		strb	r1, [sp, #13]
 1175              	.LVL132:
 1176              	.LBB7:
 239:SakuraIO/SakuraIOc.c ****   for(uint8_t i=0;i<length;i++){
 1177              		.loc 1 239 0
 1178 001a 2146     		mov	r1, r4
 1179              	.LVL133:
 1180 001c 08E0     		b	.L85
 1181              	.LVL134:
 1182              	.L86:
 240:SakuraIO/SakuraIOc.c ****     request[2+i] = data[i];
 1183              		.loc 1 240 0 discriminator 3
 1184 001e 881C     		adds	r0, r1, #2
 1185 0020 5C5C     		ldrb	r4, [r3, r1]	@ zero_extendqisi2
 1186 0022 0DF1200E 		add	lr, sp, #32
 1187 0026 7044     		add	r0, r0, lr
 1188 0028 00F8144C 		strb	r4, [r0, #-20]
 239:SakuraIO/SakuraIOc.c ****   for(uint8_t i=0;i<length;i++){
 1189              		.loc 1 239 0 discriminator 3
 1190 002c 0131     		adds	r1, r1, #1
 1191              	.LVL135:
 1192 002e C9B2     		uxtb	r1, r1
 1193              	.LVL136:
 1194              	.L85:
 239:SakuraIO/SakuraIOc.c ****   for(uint8_t i=0;i<length;i++){
 1195              		.loc 1 239 0 is_stmt 0 discriminator 1
 1196 0030 9142     		cmp	r1, r2
 1197 0032 F4D3     		bcc	.L86
 1198              	.LBE7:
 241:SakuraIO/SakuraIOc.c ****   }
 242:SakuraIO/SakuraIOc.c ****   if(offset != 0){
 1199              		.loc 1 242 0 is_stmt 1
 1200 0034 DDE90A23 		ldrd	r2, [sp, #40]
 1201              	.LVL137:
 1202 0038 1343     		orrs	r3, r2, r3
 1203              	.LVL138:
 1204 003a 0CD1     		bne	.L90
 236:SakuraIO/SakuraIOc.c ****   request[0] = ch;
 1205              		.loc 1 236 0
 1206 003c 0A21     		movs	r1, #10
 1207              	.LVL139:
 1208 003e 0EE0     		b	.L88
 1209              	.LVL140:
 1210              	.L89:
 1211              	.LBB8:
 243:SakuraIO/SakuraIOc.c ****     requestLength = 18;
 244:SakuraIO/SakuraIOc.c ****     for(uint8_t i=0;i<8;i++){
 245:SakuraIO/SakuraIOc.c ****       request[10+i] = ((uint8_t *)&offset)[i];
 1212              		.loc 1 245 0 discriminator 3
 1213 0040 03F10A02 		add	r2, r3, #10
 1214 0044 0AA9     		add	r1, sp, #40
 1215              	.LVL141:
 1216 0046 C95C     		ldrb	r1, [r1, r3]	@ zero_extendqisi2
 1217              	.LVL142:
 1218 0048 08A8     		add	r0, sp, #32
ARM GAS  C:\Users\cronos\AppData\Local\Temp\ccrG4qtQ.s 			page 27


 1219 004a 0244     		add	r2, r2, r0
 1220 004c 02F8141C 		strb	r1, [r2, #-20]
 244:SakuraIO/SakuraIOc.c ****       request[10+i] = ((uint8_t *)&offset)[i];
 1221              		.loc 1 244 0 discriminator 3
 1222 0050 0133     		adds	r3, r3, #1
 1223              	.LVL143:
 1224 0052 DBB2     		uxtb	r3, r3
 1225              	.LVL144:
 1226 0054 00E0     		b	.L87
 1227              	.LVL145:
 1228              	.L90:
 1229              	.LBE8:
 1230 0056 0023     		movs	r3, #0
 1231              	.LVL146:
 1232              	.L87:
 1233              	.LBB9:
 244:SakuraIO/SakuraIOc.c ****       request[10+i] = ((uint8_t *)&offset)[i];
 1234              		.loc 1 244 0 is_stmt 0 discriminator 1
 1235 0058 072B     		cmp	r3, #7
 1236 005a F1D9     		bls	.L89
 1237              	.LBE9:
 243:SakuraIO/SakuraIOc.c ****     requestLength = 18;
 1238              		.loc 1 243 0 is_stmt 1
 1239 005c 1221     		movs	r1, #18
 1240              	.LVL147:
 1241              	.L88:
 246:SakuraIO/SakuraIOc.c ****     }
 247:SakuraIO/SakuraIOc.c ****   }
 248:SakuraIO/SakuraIOc.c ****   return executeCommand(CMD_TX_SENDIMMED, requestLength, request, NULL, NULL);
 1242              		.loc 1 248 0
 1243 005e 0023     		movs	r3, #0
 1244 0060 0093     		str	r3, [sp]
 1245 0062 03AA     		add	r2, sp, #12
 1246 0064 2120     		movs	r0, #33
 1247 0066 FFF7FEFF 		bl	executeCommand
 1248              	.LVL148:
 249:SakuraIO/SakuraIOc.c **** }
 1249              		.loc 1 249 0
 1250 006a 08B0     		add	sp, sp, #32
 1251              		.cfi_def_cfa_offset 8
 1252              		@ sp needed
 1253 006c 10BD     		pop	{r4, pc}
 1254              		.cfi_endproc
 1255              	.LFE22:
 1256              		.size	sendImmediatelyRaw, .-sendImmediatelyRaw
 1257 006e 00BF     		.section	.text.sendImmediately2_i32,"ax",%progbits
 1258              		.align	2
 1259              		.global	sendImmediately2_i32
 1260              		.thumb
 1261              		.thumb_func
 1262              		.type	sendImmediately2_i32, %function
 1263              	sendImmediately2_i32:
 1264              	.LFB23:
 250:SakuraIO/SakuraIOc.c **** 
 251:SakuraIO/SakuraIOc.c **** uint8_t sendImmediately2_i32(uint8_t ch, int32_t value, uint64_t offset){
 1265              		.loc 1 251 0
 1266              		.cfi_startproc
ARM GAS  C:\Users\cronos\AppData\Local\Temp\ccrG4qtQ.s 			page 28


 1267              		@ args = 0, pretend = 0, frame = 8
 1268              		@ frame_needed = 0, uses_anonymous_args = 0
 1269              	.LVL149:
 1270 0000 10B5     		push	{r4, lr}
 1271              		.cfi_def_cfa_offset 8
 1272              		.cfi_offset 4, -8
 1273              		.cfi_offset 14, -4
 1274 0002 84B0     		sub	sp, sp, #16
 1275              		.cfi_def_cfa_offset 24
 1276 0004 04AC     		add	r4, sp, #16
 1277 0006 44F8041D 		str	r1, [r4, #-4]!
 252:SakuraIO/SakuraIOc.c ****   return sendImmediatelyRaw(ch, 'i', 4, (uint8_t *)&value, offset);
 1278              		.loc 1 252 0
 1279 000a CDE90023 		strd	r2, [sp]
 1280 000e 2346     		mov	r3, r4
 1281 0010 0422     		movs	r2, #4
 1282              	.LVL150:
 1283 0012 6921     		movs	r1, #105
 1284              	.LVL151:
 1285 0014 FFF7FEFF 		bl	sendImmediatelyRaw
 1286              	.LVL152:
 253:SakuraIO/SakuraIOc.c **** }
 1287              		.loc 1 253 0
 1288 0018 04B0     		add	sp, sp, #16
 1289              		.cfi_def_cfa_offset 8
 1290              		@ sp needed
 1291 001a 10BD     		pop	{r4, pc}
 1292              		.cfi_endproc
 1293              	.LFE23:
 1294              		.size	sendImmediately2_i32, .-sendImmediately2_i32
 1295              		.section	.text.sendImmediately2_ui32,"ax",%progbits
 1296              		.align	2
 1297              		.global	sendImmediately2_ui32
 1298              		.thumb
 1299              		.thumb_func
 1300              		.type	sendImmediately2_ui32, %function
 1301              	sendImmediately2_ui32:
 1302              	.LFB24:
 254:SakuraIO/SakuraIOc.c **** 
 255:SakuraIO/SakuraIOc.c **** uint8_t sendImmediately2_ui32(uint8_t ch, uint32_t value, uint64_t offset){
 1303              		.loc 1 255 0
 1304              		.cfi_startproc
 1305              		@ args = 0, pretend = 0, frame = 8
 1306              		@ frame_needed = 0, uses_anonymous_args = 0
 1307              	.LVL153:
 1308 0000 10B5     		push	{r4, lr}
 1309              		.cfi_def_cfa_offset 8
 1310              		.cfi_offset 4, -8
 1311              		.cfi_offset 14, -4
 1312 0002 84B0     		sub	sp, sp, #16
 1313              		.cfi_def_cfa_offset 24
 1314 0004 04AC     		add	r4, sp, #16
 1315 0006 44F8041D 		str	r1, [r4, #-4]!
 256:SakuraIO/SakuraIOc.c ****   return sendImmediatelyRaw(ch, 'I', 4, (uint8_t *)&value, offset);
 1316              		.loc 1 256 0
 1317 000a CDE90023 		strd	r2, [sp]
 1318 000e 2346     		mov	r3, r4
ARM GAS  C:\Users\cronos\AppData\Local\Temp\ccrG4qtQ.s 			page 29


 1319 0010 0422     		movs	r2, #4
 1320              	.LVL154:
 1321 0012 4921     		movs	r1, #73
 1322              	.LVL155:
 1323 0014 FFF7FEFF 		bl	sendImmediatelyRaw
 1324              	.LVL156:
 257:SakuraIO/SakuraIOc.c **** }
 1325              		.loc 1 257 0
 1326 0018 04B0     		add	sp, sp, #16
 1327              		.cfi_def_cfa_offset 8
 1328              		@ sp needed
 1329 001a 10BD     		pop	{r4, pc}
 1330              		.cfi_endproc
 1331              	.LFE24:
 1332              		.size	sendImmediately2_ui32, .-sendImmediately2_ui32
 1333              		.section	.text.sendImmediately2_i64,"ax",%progbits
 1334              		.align	2
 1335              		.global	sendImmediately2_i64
 1336              		.thumb
 1337              		.thumb_func
 1338              		.type	sendImmediately2_i64, %function
 1339              	sendImmediately2_i64:
 1340              	.LFB25:
 258:SakuraIO/SakuraIOc.c **** 
 259:SakuraIO/SakuraIOc.c **** uint8_t sendImmediately2_i64(uint8_t ch, int64_t value, uint64_t offset){
 1341              		.loc 1 259 0
 1342              		.cfi_startproc
 1343              		@ args = 8, pretend = 0, frame = 8
 1344              		@ frame_needed = 0, uses_anonymous_args = 0
 1345              	.LVL157:
 1346 0000 00B5     		push	{lr}
 1347              		.cfi_def_cfa_offset 4
 1348              		.cfi_offset 14, -4
 1349 0002 85B0     		sub	sp, sp, #20
 1350              		.cfi_def_cfa_offset 24
 1351 0004 04A9     		add	r1, sp, #16
 1352 0006 61E90223 		strd	r2, [r1, #-8]!
 260:SakuraIO/SakuraIOc.c ****   return sendImmediatelyRaw(ch, 'l', 8, (uint8_t *)&value, offset);
 1353              		.loc 1 260 0
 1354 000a DDE90623 		ldrd	r2, [sp, #24]
 1355              	.LVL158:
 1356 000e CDE90023 		strd	r2, [sp]
 1357 0012 0B46     		mov	r3, r1
 1358 0014 0822     		movs	r2, #8
 1359 0016 6C21     		movs	r1, #108
 1360              	.LVL159:
 1361 0018 FFF7FEFF 		bl	sendImmediatelyRaw
 1362              	.LVL160:
 261:SakuraIO/SakuraIOc.c **** }
 1363              		.loc 1 261 0
 1364 001c 05B0     		add	sp, sp, #20
 1365              		.cfi_def_cfa_offset 4
 1366              		@ sp needed
 1367 001e 5DF804FB 		ldr	pc, [sp], #4
 1368              		.cfi_endproc
 1369              	.LFE25:
 1370              		.size	sendImmediately2_i64, .-sendImmediately2_i64
ARM GAS  C:\Users\cronos\AppData\Local\Temp\ccrG4qtQ.s 			page 30


 1371 0022 00BF     		.section	.text.sendImmediately2_ui64,"ax",%progbits
 1372              		.align	2
 1373              		.global	sendImmediately2_ui64
 1374              		.thumb
 1375              		.thumb_func
 1376              		.type	sendImmediately2_ui64, %function
 1377              	sendImmediately2_ui64:
 1378              	.LFB26:
 262:SakuraIO/SakuraIOc.c **** 
 263:SakuraIO/SakuraIOc.c **** uint8_t sendImmediately2_ui64(uint8_t ch, uint64_t value, uint64_t offset){
 1379              		.loc 1 263 0
 1380              		.cfi_startproc
 1381              		@ args = 8, pretend = 0, frame = 8
 1382              		@ frame_needed = 0, uses_anonymous_args = 0
 1383              	.LVL161:
 1384 0000 00B5     		push	{lr}
 1385              		.cfi_def_cfa_offset 4
 1386              		.cfi_offset 14, -4
 1387 0002 85B0     		sub	sp, sp, #20
 1388              		.cfi_def_cfa_offset 24
 1389 0004 04A9     		add	r1, sp, #16
 1390 0006 61E90223 		strd	r2, [r1, #-8]!
 264:SakuraIO/SakuraIOc.c ****   return sendImmediatelyRaw(ch, 'L', 8, (uint8_t *)&value, offset);
 1391              		.loc 1 264 0
 1392 000a DDE90623 		ldrd	r2, [sp, #24]
 1393              	.LVL162:
 1394 000e CDE90023 		strd	r2, [sp]
 1395 0012 0B46     		mov	r3, r1
 1396 0014 0822     		movs	r2, #8
 1397 0016 4C21     		movs	r1, #76
 1398              	.LVL163:
 1399 0018 FFF7FEFF 		bl	sendImmediatelyRaw
 1400              	.LVL164:
 265:SakuraIO/SakuraIOc.c **** }
 1401              		.loc 1 265 0
 1402 001c 05B0     		add	sp, sp, #20
 1403              		.cfi_def_cfa_offset 4
 1404              		@ sp needed
 1405 001e 5DF804FB 		ldr	pc, [sp], #4
 1406              		.cfi_endproc
 1407              	.LFE26:
 1408              		.size	sendImmediately2_ui64, .-sendImmediately2_ui64
 1409 0022 00BF     		.section	.text.sendImmediately2_f,"ax",%progbits
 1410              		.align	2
 1411              		.global	sendImmediately2_f
 1412              		.thumb
 1413              		.thumb_func
 1414              		.type	sendImmediately2_f, %function
 1415              	sendImmediately2_f:
 1416              	.LFB27:
 266:SakuraIO/SakuraIOc.c **** 
 267:SakuraIO/SakuraIOc.c **** uint8_t sendImmediately2_f(uint8_t ch, float value, uint64_t offset){
 1417              		.loc 1 267 0
 1418              		.cfi_startproc
 1419              		@ args = 0, pretend = 0, frame = 8
 1420              		@ frame_needed = 0, uses_anonymous_args = 0
 1421              	.LVL165:
ARM GAS  C:\Users\cronos\AppData\Local\Temp\ccrG4qtQ.s 			page 31


 1422 0000 10B5     		push	{r4, lr}
 1423              		.cfi_def_cfa_offset 8
 1424              		.cfi_offset 4, -8
 1425              		.cfi_offset 14, -4
 1426 0002 84B0     		sub	sp, sp, #16
 1427              		.cfi_def_cfa_offset 24
 1428 0004 04AC     		add	r4, sp, #16
 1429 0006 44F8041D 		str	r1, [r4, #-4]!	@ float
 268:SakuraIO/SakuraIOc.c ****   return sendImmediatelyRaw(ch, 'f', 4, (uint8_t *)&value, offset);
 1430              		.loc 1 268 0
 1431 000a CDE90023 		strd	r2, [sp]
 1432 000e 2346     		mov	r3, r4
 1433 0010 0422     		movs	r2, #4
 1434              	.LVL166:
 1435 0012 6621     		movs	r1, #102
 1436              	.LVL167:
 1437 0014 FFF7FEFF 		bl	sendImmediatelyRaw
 1438              	.LVL168:
 269:SakuraIO/SakuraIOc.c **** }
 1439              		.loc 1 269 0
 1440 0018 04B0     		add	sp, sp, #16
 1441              		.cfi_def_cfa_offset 8
 1442              		@ sp needed
 1443 001a 10BD     		pop	{r4, pc}
 1444              		.cfi_endproc
 1445              	.LFE27:
 1446              		.size	sendImmediately2_f, .-sendImmediately2_f
 1447              		.section	.text.sendImmediately2_d,"ax",%progbits
 1448              		.align	2
 1449              		.global	sendImmediately2_d
 1450              		.thumb
 1451              		.thumb_func
 1452              		.type	sendImmediately2_d, %function
 1453              	sendImmediately2_d:
 1454              	.LFB28:
 270:SakuraIO/SakuraIOc.c **** 
 271:SakuraIO/SakuraIOc.c **** uint8_t sendImmediately2_d(uint8_t ch, double value, uint64_t offset){
 1455              		.loc 1 271 0
 1456              		.cfi_startproc
 1457              		@ args = 8, pretend = 0, frame = 8
 1458              		@ frame_needed = 0, uses_anonymous_args = 0
 1459              	.LVL169:
 1460 0000 00B5     		push	{lr}
 1461              		.cfi_def_cfa_offset 4
 1462              		.cfi_offset 14, -4
 1463 0002 85B0     		sub	sp, sp, #20
 1464              		.cfi_def_cfa_offset 24
 1465 0004 04A9     		add	r1, sp, #16
 1466 0006 61E90223 		strd	r2, [r1, #-8]!
 272:SakuraIO/SakuraIOc.c ****   return sendImmediatelyRaw(ch, 'd', 8, (uint8_t *)&value, offset);
 1467              		.loc 1 272 0
 1468 000a DDE90623 		ldrd	r2, [sp, #24]
 1469              	.LVL170:
 1470 000e CDE90023 		strd	r2, [sp]
 1471 0012 0B46     		mov	r3, r1
 1472 0014 0822     		movs	r2, #8
 1473 0016 6421     		movs	r1, #100
ARM GAS  C:\Users\cronos\AppData\Local\Temp\ccrG4qtQ.s 			page 32


 1474              	.LVL171:
 1475 0018 FFF7FEFF 		bl	sendImmediatelyRaw
 1476              	.LVL172:
 273:SakuraIO/SakuraIOc.c **** }
 1477              		.loc 1 273 0
 1478 001c 05B0     		add	sp, sp, #20
 1479              		.cfi_def_cfa_offset 4
 1480              		@ sp needed
 1481 001e 5DF804FB 		ldr	pc, [sp], #4
 1482              		.cfi_endproc
 1483              	.LFE28:
 1484              		.size	sendImmediately2_d, .-sendImmediately2_d
 1485 0022 00BF     		.section	.text.sendImmediately2_ui8a,"ax",%progbits
 1486              		.align	2
 1487              		.global	sendImmediately2_ui8a
 1488              		.thumb
 1489              		.thumb_func
 1490              		.type	sendImmediately2_ui8a, %function
 1491              	sendImmediately2_ui8a:
 1492              	.LFB29:
 274:SakuraIO/SakuraIOc.c **** 
 275:SakuraIO/SakuraIOc.c **** uint8_t sendImmediately2_ui8a(uint8_t ch, uint8_t value[8], uint64_t offset){
 1493              		.loc 1 275 0
 1494              		.cfi_startproc
 1495              		@ args = 0, pretend = 0, frame = 0
 1496              		@ frame_needed = 0, uses_anonymous_args = 0
 1497              	.LVL173:
 1498 0000 00B5     		push	{lr}
 1499              		.cfi_def_cfa_offset 4
 1500              		.cfi_offset 14, -4
 1501 0002 83B0     		sub	sp, sp, #12
 1502              		.cfi_def_cfa_offset 16
 276:SakuraIO/SakuraIOc.c ****   return sendImmediatelyRaw(ch, 'b', 8, (uint8_t *)value, offset);
 1503              		.loc 1 276 0
 1504 0004 CDE90023 		strd	r2, [sp]
 1505 0008 0B46     		mov	r3, r1
 1506 000a 0822     		movs	r2, #8
 1507              	.LVL174:
 1508 000c 6221     		movs	r1, #98
 1509              	.LVL175:
 1510 000e FFF7FEFF 		bl	sendImmediatelyRaw
 1511              	.LVL176:
 277:SakuraIO/SakuraIOc.c **** }
 1512              		.loc 1 277 0
 1513 0012 03B0     		add	sp, sp, #12
 1514              		.cfi_def_cfa_offset 4
 1515              		@ sp needed
 1516 0014 5DF804FB 		ldr	pc, [sp], #4
 1517              		.cfi_endproc
 1518              	.LFE29:
 1519              		.size	sendImmediately2_ui8a, .-sendImmediately2_ui8a
 1520              		.section	.text.sendImmediately_i32,"ax",%progbits
 1521              		.align	2
 1522              		.global	sendImmediately_i32
 1523              		.thumb
 1524              		.thumb_func
 1525              		.type	sendImmediately_i32, %function
ARM GAS  C:\Users\cronos\AppData\Local\Temp\ccrG4qtQ.s 			page 33


 1526              	sendImmediately_i32:
 1527              	.LFB30:
 278:SakuraIO/SakuraIOc.c **** 
 279:SakuraIO/SakuraIOc.c **** uint8_t sendImmediately_i32(uint8_t ch, int32_t value){
 1528              		.loc 1 279 0
 1529              		.cfi_startproc
 1530              		@ args = 0, pretend = 0, frame = 0
 1531              		@ frame_needed = 0, uses_anonymous_args = 0
 1532              	.LVL177:
 1533 0000 08B5     		push	{r3, lr}
 1534              		.cfi_def_cfa_offset 8
 1535              		.cfi_offset 3, -8
 1536              		.cfi_offset 14, -4
 280:SakuraIO/SakuraIOc.c ****   return sendImmediately2_i32(ch, value, UINT32_C(0));
 1537              		.loc 1 280 0
 1538 0002 0022     		movs	r2, #0
 1539 0004 0023     		movs	r3, #0
 1540 0006 FFF7FEFF 		bl	sendImmediately2_i32
 1541              	.LVL178:
 281:SakuraIO/SakuraIOc.c **** }
 1542              		.loc 1 281 0
 1543 000a 08BD     		pop	{r3, pc}
 1544              		.cfi_endproc
 1545              	.LFE30:
 1546              		.size	sendImmediately_i32, .-sendImmediately_i32
 1547              		.section	.text.sendImmediately_ui32,"ax",%progbits
 1548              		.align	2
 1549              		.global	sendImmediately_ui32
 1550              		.thumb
 1551              		.thumb_func
 1552              		.type	sendImmediately_ui32, %function
 1553              	sendImmediately_ui32:
 1554              	.LFB31:
 282:SakuraIO/SakuraIOc.c **** 
 283:SakuraIO/SakuraIOc.c **** uint8_t sendImmediately_ui32(uint8_t ch, uint32_t value){
 1555              		.loc 1 283 0
 1556              		.cfi_startproc
 1557              		@ args = 0, pretend = 0, frame = 0
 1558              		@ frame_needed = 0, uses_anonymous_args = 0
 1559              	.LVL179:
 1560 0000 08B5     		push	{r3, lr}
 1561              		.cfi_def_cfa_offset 8
 1562              		.cfi_offset 3, -8
 1563              		.cfi_offset 14, -4
 284:SakuraIO/SakuraIOc.c ****   return sendImmediately2_ui32(ch, value, UINT32_C(0));
 1564              		.loc 1 284 0
 1565 0002 0022     		movs	r2, #0
 1566 0004 0023     		movs	r3, #0
 1567 0006 FFF7FEFF 		bl	sendImmediately2_ui32
 1568              	.LVL180:
 285:SakuraIO/SakuraIOc.c **** }
 1569              		.loc 1 285 0
 1570 000a 08BD     		pop	{r3, pc}
 1571              		.cfi_endproc
 1572              	.LFE31:
 1573              		.size	sendImmediately_ui32, .-sendImmediately_ui32
 1574              		.section	.text.sendImmediately_i64,"ax",%progbits
ARM GAS  C:\Users\cronos\AppData\Local\Temp\ccrG4qtQ.s 			page 34


 1575              		.align	2
 1576              		.global	sendImmediately_i64
 1577              		.thumb
 1578              		.thumb_func
 1579              		.type	sendImmediately_i64, %function
 1580              	sendImmediately_i64:
 1581              	.LFB32:
 286:SakuraIO/SakuraIOc.c **** 
 287:SakuraIO/SakuraIOc.c **** uint8_t sendImmediately_i64(uint8_t ch, int64_t value){
 1582              		.loc 1 287 0
 1583              		.cfi_startproc
 1584              		@ args = 0, pretend = 0, frame = 0
 1585              		@ frame_needed = 0, uses_anonymous_args = 0
 1586              	.LVL181:
 1587 0000 30B5     		push	{r4, r5, lr}
 1588              		.cfi_def_cfa_offset 12
 1589              		.cfi_offset 4, -12
 1590              		.cfi_offset 5, -8
 1591              		.cfi_offset 14, -4
 1592 0002 83B0     		sub	sp, sp, #12
 1593              		.cfi_def_cfa_offset 24
 288:SakuraIO/SakuraIOc.c ****   return sendImmediately2_i64(ch, value, UINT32_C(0));
 1594              		.loc 1 288 0
 1595 0004 0024     		movs	r4, #0
 1596 0006 0025     		movs	r5, #0
 1597 0008 CDE90045 		strd	r4, [sp]
 1598 000c FFF7FEFF 		bl	sendImmediately2_i64
 1599              	.LVL182:
 289:SakuraIO/SakuraIOc.c **** }
 1600              		.loc 1 289 0
 1601 0010 03B0     		add	sp, sp, #12
 1602              		.cfi_def_cfa_offset 12
 1603              		@ sp needed
 1604 0012 30BD     		pop	{r4, r5, pc}
 1605              		.cfi_endproc
 1606              	.LFE32:
 1607              		.size	sendImmediately_i64, .-sendImmediately_i64
 1608              		.section	.text.sendImmediately_ui64,"ax",%progbits
 1609              		.align	2
 1610              		.global	sendImmediately_ui64
 1611              		.thumb
 1612              		.thumb_func
 1613              		.type	sendImmediately_ui64, %function
 1614              	sendImmediately_ui64:
 1615              	.LFB33:
 290:SakuraIO/SakuraIOc.c **** 
 291:SakuraIO/SakuraIOc.c **** uint8_t sendImmediately_ui64(uint8_t ch, uint64_t value){
 1616              		.loc 1 291 0
 1617              		.cfi_startproc
 1618              		@ args = 0, pretend = 0, frame = 0
 1619              		@ frame_needed = 0, uses_anonymous_args = 0
 1620              	.LVL183:
 1621 0000 30B5     		push	{r4, r5, lr}
 1622              		.cfi_def_cfa_offset 12
 1623              		.cfi_offset 4, -12
 1624              		.cfi_offset 5, -8
 1625              		.cfi_offset 14, -4
ARM GAS  C:\Users\cronos\AppData\Local\Temp\ccrG4qtQ.s 			page 35


 1626 0002 83B0     		sub	sp, sp, #12
 1627              		.cfi_def_cfa_offset 24
 292:SakuraIO/SakuraIOc.c ****   return sendImmediately2_ui64(ch, value, UINT32_C(0));
 1628              		.loc 1 292 0
 1629 0004 0024     		movs	r4, #0
 1630 0006 0025     		movs	r5, #0
 1631 0008 CDE90045 		strd	r4, [sp]
 1632 000c FFF7FEFF 		bl	sendImmediately2_ui64
 1633              	.LVL184:
 293:SakuraIO/SakuraIOc.c **** }
 1634              		.loc 1 293 0
 1635 0010 03B0     		add	sp, sp, #12
 1636              		.cfi_def_cfa_offset 12
 1637              		@ sp needed
 1638 0012 30BD     		pop	{r4, r5, pc}
 1639              		.cfi_endproc
 1640              	.LFE33:
 1641              		.size	sendImmediately_ui64, .-sendImmediately_ui64
 1642              		.section	.text.sendImmediately_f,"ax",%progbits
 1643              		.align	2
 1644              		.global	sendImmediately_f
 1645              		.thumb
 1646              		.thumb_func
 1647              		.type	sendImmediately_f, %function
 1648              	sendImmediately_f:
 1649              	.LFB34:
 294:SakuraIO/SakuraIOc.c **** 
 295:SakuraIO/SakuraIOc.c **** uint8_t sendImmediately_f(uint8_t ch, float value){
 1650              		.loc 1 295 0
 1651              		.cfi_startproc
 1652              		@ args = 0, pretend = 0, frame = 0
 1653              		@ frame_needed = 0, uses_anonymous_args = 0
 1654              	.LVL185:
 1655 0000 08B5     		push	{r3, lr}
 1656              		.cfi_def_cfa_offset 8
 1657              		.cfi_offset 3, -8
 1658              		.cfi_offset 14, -4
 296:SakuraIO/SakuraIOc.c ****   return sendImmediately2_f(ch, value, UINT32_C(0));
 1659              		.loc 1 296 0
 1660 0002 0022     		movs	r2, #0
 1661 0004 0023     		movs	r3, #0
 1662 0006 FFF7FEFF 		bl	sendImmediately2_f
 1663              	.LVL186:
 297:SakuraIO/SakuraIOc.c **** }
 1664              		.loc 1 297 0
 1665 000a 08BD     		pop	{r3, pc}
 1666              		.cfi_endproc
 1667              	.LFE34:
 1668              		.size	sendImmediately_f, .-sendImmediately_f
 1669              		.section	.text.sendImmediately_d,"ax",%progbits
 1670              		.align	2
 1671              		.global	sendImmediately_d
 1672              		.thumb
 1673              		.thumb_func
 1674              		.type	sendImmediately_d, %function
 1675              	sendImmediately_d:
 1676              	.LFB35:
ARM GAS  C:\Users\cronos\AppData\Local\Temp\ccrG4qtQ.s 			page 36


 298:SakuraIO/SakuraIOc.c **** 
 299:SakuraIO/SakuraIOc.c **** uint8_t sendImmediately_d(uint8_t ch, double value){
 1677              		.loc 1 299 0
 1678              		.cfi_startproc
 1679              		@ args = 0, pretend = 0, frame = 0
 1680              		@ frame_needed = 0, uses_anonymous_args = 0
 1681              	.LVL187:
 1682 0000 30B5     		push	{r4, r5, lr}
 1683              		.cfi_def_cfa_offset 12
 1684              		.cfi_offset 4, -12
 1685              		.cfi_offset 5, -8
 1686              		.cfi_offset 14, -4
 1687 0002 83B0     		sub	sp, sp, #12
 1688              		.cfi_def_cfa_offset 24
 300:SakuraIO/SakuraIOc.c ****   return sendImmediately2_d(ch, value, UINT32_C(0));
 1689              		.loc 1 300 0
 1690 0004 0024     		movs	r4, #0
 1691 0006 0025     		movs	r5, #0
 1692 0008 CDE90045 		strd	r4, [sp]
 1693 000c FFF7FEFF 		bl	sendImmediately2_d
 1694              	.LVL188:
 301:SakuraIO/SakuraIOc.c **** }
 1695              		.loc 1 301 0
 1696 0010 03B0     		add	sp, sp, #12
 1697              		.cfi_def_cfa_offset 12
 1698              		@ sp needed
 1699 0012 30BD     		pop	{r4, r5, pc}
 1700              		.cfi_endproc
 1701              	.LFE35:
 1702              		.size	sendImmediately_d, .-sendImmediately_d
 1703              		.section	.text.sendImmediately_ui8a,"ax",%progbits
 1704              		.align	2
 1705              		.global	sendImmediately_ui8a
 1706              		.thumb
 1707              		.thumb_func
 1708              		.type	sendImmediately_ui8a, %function
 1709              	sendImmediately_ui8a:
 1710              	.LFB36:
 302:SakuraIO/SakuraIOc.c **** 
 303:SakuraIO/SakuraIOc.c **** uint8_t sendImmediately_ui8a(uint8_t ch, uint8_t value[8]){
 1711              		.loc 1 303 0
 1712              		.cfi_startproc
 1713              		@ args = 0, pretend = 0, frame = 0
 1714              		@ frame_needed = 0, uses_anonymous_args = 0
 1715              	.LVL189:
 1716 0000 08B5     		push	{r3, lr}
 1717              		.cfi_def_cfa_offset 8
 1718              		.cfi_offset 3, -8
 1719              		.cfi_offset 14, -4
 304:SakuraIO/SakuraIOc.c ****   return sendImmediately2_ui8a(ch, value, UINT32_C(0));
 1720              		.loc 1 304 0
 1721 0002 0022     		movs	r2, #0
 1722 0004 0023     		movs	r3, #0
 1723 0006 FFF7FEFF 		bl	sendImmediately2_ui8a
 1724              	.LVL190:
 305:SakuraIO/SakuraIOc.c **** }
 1725              		.loc 1 305 0
ARM GAS  C:\Users\cronos\AppData\Local\Temp\ccrG4qtQ.s 			page 37


 1726 000a 08BD     		pop	{r3, pc}
 1727              		.cfi_endproc
 1728              	.LFE36:
 1729              		.size	sendImmediately_ui8a, .-sendImmediately_ui8a
 1730              		.section	.text.getTxQueueLength,"ax",%progbits
 1731              		.align	2
 1732              		.global	getTxQueueLength
 1733              		.thumb
 1734              		.thumb_func
 1735              		.type	getTxQueueLength, %function
 1736              	getTxQueueLength:
 1737              	.LFB37:
 306:SakuraIO/SakuraIOc.c **** 
 307:SakuraIO/SakuraIOc.c **** 
 308:SakuraIO/SakuraIOc.c **** 
 309:SakuraIO/SakuraIOc.c **** uint8_t getTxQueueLength(uint8_t *available, uint8_t *queued){
 1738              		.loc 1 309 0
 1739              		.cfi_startproc
 1740              		@ args = 0, pretend = 0, frame = 8
 1741              		@ frame_needed = 0, uses_anonymous_args = 0
 1742              	.LVL191:
 1743 0000 30B5     		push	{r4, r5, lr}
 1744              		.cfi_def_cfa_offset 12
 1745              		.cfi_offset 4, -12
 1746              		.cfi_offset 5, -8
 1747              		.cfi_offset 14, -4
 1748 0002 85B0     		sub	sp, sp, #20
 1749              		.cfi_def_cfa_offset 32
 1750 0004 0546     		mov	r5, r0
 1751 0006 0C46     		mov	r4, r1
 310:SakuraIO/SakuraIOc.c ****   uint8_t response[2] = {0x00};
 1752              		.loc 1 310 0
 1753 0008 0021     		movs	r1, #0
 1754              	.LVL192:
 1755 000a ADF80C10 		strh	r1, [sp, #12]	@ movhi
 311:SakuraIO/SakuraIOc.c ****   uint8_t responseLength = 2;
 1756              		.loc 1 311 0
 1757 000e 04AB     		add	r3, sp, #16
 1758 0010 0222     		movs	r2, #2
 1759 0012 03F8052D 		strb	r2, [r3, #-5]!
 312:SakuraIO/SakuraIOc.c ****   uint8_t ret = executeCommand(CMD_TX_LENGTH, 0, NULL, &responseLength, response);
 1760              		.loc 1 312 0
 1761 0016 03AA     		add	r2, sp, #12
 1762 0018 0092     		str	r2, [sp]
 1763 001a 0A46     		mov	r2, r1
 1764 001c 2220     		movs	r0, #34
 1765              	.LVL193:
 1766 001e FFF7FEFF 		bl	executeCommand
 1767              	.LVL194:
 313:SakuraIO/SakuraIOc.c ****   *available = response[0];
 1768              		.loc 1 313 0
 1769 0022 9DF80C30 		ldrb	r3, [sp, #12]	@ zero_extendqisi2
 1770 0026 2B70     		strb	r3, [r5]
 314:SakuraIO/SakuraIOc.c ****   *queued = response[1];
 1771              		.loc 1 314 0
 1772 0028 9DF80D30 		ldrb	r3, [sp, #13]	@ zero_extendqisi2
 1773 002c 2370     		strb	r3, [r4]
ARM GAS  C:\Users\cronos\AppData\Local\Temp\ccrG4qtQ.s 			page 38


 315:SakuraIO/SakuraIOc.c ****   return ret;
 316:SakuraIO/SakuraIOc.c **** }
 1774              		.loc 1 316 0
 1775 002e 05B0     		add	sp, sp, #20
 1776              		.cfi_def_cfa_offset 12
 1777              		@ sp needed
 1778 0030 30BD     		pop	{r4, r5, pc}
 1779              		.cfi_endproc
 1780              	.LFE37:
 1781              		.size	getTxQueueLength, .-getTxQueueLength
 1782 0032 00BF     		.section	.text.clearTx,"ax",%progbits
 1783              		.align	2
 1784              		.global	clearTx
 1785              		.thumb
 1786              		.thumb_func
 1787              		.type	clearTx, %function
 1788              	clearTx:
 1789              	.LFB38:
 317:SakuraIO/SakuraIOc.c **** 
 318:SakuraIO/SakuraIOc.c **** uint8_t clearTx(){
 1790              		.loc 1 318 0
 1791              		.cfi_startproc
 1792              		@ args = 0, pretend = 0, frame = 0
 1793              		@ frame_needed = 0, uses_anonymous_args = 0
 1794 0000 00B5     		push	{lr}
 1795              		.cfi_def_cfa_offset 4
 1796              		.cfi_offset 14, -4
 1797 0002 83B0     		sub	sp, sp, #12
 1798              		.cfi_def_cfa_offset 16
 319:SakuraIO/SakuraIOc.c ****   return executeCommand(CMD_TX_CLEAR, 0, NULL, NULL, NULL);
 1799              		.loc 1 319 0
 1800 0004 0021     		movs	r1, #0
 1801 0006 0091     		str	r1, [sp]
 1802 0008 0B46     		mov	r3, r1
 1803 000a 0A46     		mov	r2, r1
 1804 000c 2320     		movs	r0, #35
 1805 000e FFF7FEFF 		bl	executeCommand
 1806              	.LVL195:
 320:SakuraIO/SakuraIOc.c **** }
 1807              		.loc 1 320 0
 1808 0012 03B0     		add	sp, sp, #12
 1809              		.cfi_def_cfa_offset 4
 1810              		@ sp needed
 1811 0014 5DF804FB 		ldr	pc, [sp], #4
 1812              		.cfi_endproc
 1813              	.LFE38:
 1814              		.size	clearTx, .-clearTx
 1815              		.section	.text.send,"ax",%progbits
 1816              		.align	2
 1817              		.global	send
 1818              		.thumb
 1819              		.thumb_func
 1820              		.type	send, %function
 1821              	send:
 1822              	.LFB39:
 321:SakuraIO/SakuraIOc.c **** 
 322:SakuraIO/SakuraIOc.c **** uint8_t send(){
ARM GAS  C:\Users\cronos\AppData\Local\Temp\ccrG4qtQ.s 			page 39


 1823              		.loc 1 322 0
 1824              		.cfi_startproc
 1825              		@ args = 0, pretend = 0, frame = 0
 1826              		@ frame_needed = 0, uses_anonymous_args = 0
 1827 0000 00B5     		push	{lr}
 1828              		.cfi_def_cfa_offset 4
 1829              		.cfi_offset 14, -4
 1830 0002 83B0     		sub	sp, sp, #12
 1831              		.cfi_def_cfa_offset 16
 323:SakuraIO/SakuraIOc.c ****   return executeCommand(CMD_TX_SEND, 0, NULL, NULL, NULL);
 1832              		.loc 1 323 0
 1833 0004 0021     		movs	r1, #0
 1834 0006 0091     		str	r1, [sp]
 1835 0008 0B46     		mov	r3, r1
 1836 000a 0A46     		mov	r2, r1
 1837 000c 2420     		movs	r0, #36
 1838 000e FFF7FEFF 		bl	executeCommand
 1839              	.LVL196:
 324:SakuraIO/SakuraIOc.c **** }
 1840              		.loc 1 324 0
 1841 0012 03B0     		add	sp, sp, #12
 1842              		.cfi_def_cfa_offset 4
 1843              		@ sp needed
 1844 0014 5DF804FB 		ldr	pc, [sp], #4
 1845              		.cfi_endproc
 1846              	.LFE39:
 1847              		.size	send, .-send
 1848              		.section	.text.getTxStatus,"ax",%progbits
 1849              		.align	2
 1850              		.global	getTxStatus
 1851              		.thumb
 1852              		.thumb_func
 1853              		.type	getTxStatus, %function
 1854              	getTxStatus:
 1855              	.LFB40:
 325:SakuraIO/SakuraIOc.c **** 
 326:SakuraIO/SakuraIOc.c **** uint8_t getTxStatus(uint8_t *queue, uint8_t *immediate){
 1856              		.loc 1 326 0
 1857              		.cfi_startproc
 1858              		@ args = 0, pretend = 0, frame = 8
 1859              		@ frame_needed = 0, uses_anonymous_args = 0
 1860              	.LVL197:
 1861 0000 30B5     		push	{r4, r5, lr}
 1862              		.cfi_def_cfa_offset 12
 1863              		.cfi_offset 4, -12
 1864              		.cfi_offset 5, -8
 1865              		.cfi_offset 14, -4
 1866 0002 85B0     		sub	sp, sp, #20
 1867              		.cfi_def_cfa_offset 32
 1868 0004 0546     		mov	r5, r0
 1869 0006 0C46     		mov	r4, r1
 327:SakuraIO/SakuraIOc.c ****   uint8_t response[2] = {0x00};
 1870              		.loc 1 327 0
 1871 0008 0021     		movs	r1, #0
 1872              	.LVL198:
 1873 000a ADF80C10 		strh	r1, [sp, #12]	@ movhi
 328:SakuraIO/SakuraIOc.c ****   uint8_t responseLength = 2;
ARM GAS  C:\Users\cronos\AppData\Local\Temp\ccrG4qtQ.s 			page 40


 1874              		.loc 1 328 0
 1875 000e 04AB     		add	r3, sp, #16
 1876 0010 0222     		movs	r2, #2
 1877 0012 03F8052D 		strb	r2, [r3, #-5]!
 329:SakuraIO/SakuraIOc.c ****   uint8_t ret = executeCommand(CMD_TX_STAT, 0, NULL, &responseLength, response);
 1878              		.loc 1 329 0
 1879 0016 03AA     		add	r2, sp, #12
 1880 0018 0092     		str	r2, [sp]
 1881 001a 0A46     		mov	r2, r1
 1882 001c 2520     		movs	r0, #37
 1883              	.LVL199:
 1884 001e FFF7FEFF 		bl	executeCommand
 1885              	.LVL200:
 330:SakuraIO/SakuraIOc.c ****   *queue = response[0];
 1886              		.loc 1 330 0
 1887 0022 9DF80C30 		ldrb	r3, [sp, #12]	@ zero_extendqisi2
 1888 0026 2B70     		strb	r3, [r5]
 331:SakuraIO/SakuraIOc.c ****   *immediate = response[1];
 1889              		.loc 1 331 0
 1890 0028 9DF80D30 		ldrb	r3, [sp, #13]	@ zero_extendqisi2
 1891 002c 2370     		strb	r3, [r4]
 332:SakuraIO/SakuraIOc.c ****   return ret;
 333:SakuraIO/SakuraIOc.c **** }
 1892              		.loc 1 333 0
 1893 002e 05B0     		add	sp, sp, #20
 1894              		.cfi_def_cfa_offset 12
 1895              		@ sp needed
 1896 0030 30BD     		pop	{r4, r5, pc}
 1897              		.cfi_endproc
 1898              	.LFE40:
 1899              		.size	getTxStatus, .-getTxStatus
 1900 0032 00BF     		.section	.text.dequeueRx,"ax",%progbits
 1901              		.align	2
 1902              		.global	dequeueRx
 1903              		.thumb
 1904              		.thumb_func
 1905              		.type	dequeueRx, %function
 1906              	dequeueRx:
 1907              	.LFB41:
 334:SakuraIO/SakuraIOc.c **** 
 335:SakuraIO/SakuraIOc.c **** /* RX Commands */
 336:SakuraIO/SakuraIOc.c **** 
 337:SakuraIO/SakuraIOc.c **** uint8_t dequeueRx(uint8_t *ch, uint8_t *type, uint8_t *value, int64_t *offset){
 1908              		.loc 1 337 0
 1909              		.cfi_startproc
 1910              		@ args = 0, pretend = 0, frame = 24
 1911              		@ frame_needed = 0, uses_anonymous_args = 0
 1912              	.LVL201:
 1913 0000 F0B5     		push	{r4, r5, r6, r7, lr}
 1914              		.cfi_def_cfa_offset 20
 1915              		.cfi_offset 4, -20
 1916              		.cfi_offset 5, -16
 1917              		.cfi_offset 6, -12
 1918              		.cfi_offset 7, -8
 1919              		.cfi_offset 14, -4
 1920 0002 89B0     		sub	sp, sp, #36
 1921              		.cfi_def_cfa_offset 56
ARM GAS  C:\Users\cronos\AppData\Local\Temp\ccrG4qtQ.s 			page 41


 1922 0004 0746     		mov	r7, r0
 1923 0006 0E46     		mov	r6, r1
 1924 0008 1546     		mov	r5, r2
 1925 000a 1C46     		mov	r4, r3
 338:SakuraIO/SakuraIOc.c ****   uint8_t response[18] = {0x00};
 1926              		.loc 1 338 0
 1927 000c 03AA     		add	r2, sp, #12
 1928              	.LVL202:
 1929 000e 0021     		movs	r1, #0
 1930              	.LVL203:
 1931 0010 0391     		str	r1, [sp, #12]
 1932 0012 0491     		str	r1, [sp, #16]
 1933 0014 0591     		str	r1, [sp, #20]
 1934 0016 0691     		str	r1, [sp, #24]
 1935 0018 ADF81C10 		strh	r1, [sp, #28]	@ movhi
 339:SakuraIO/SakuraIOc.c ****   uint8_t responseLength = 18;
 1936              		.loc 1 339 0
 1937 001c 08AB     		add	r3, sp, #32
 1938              	.LVL204:
 1939 001e 1220     		movs	r0, #18
 1940              	.LVL205:
 1941 0020 03F8150D 		strb	r0, [r3, #-21]!
 340:SakuraIO/SakuraIOc.c ****   uint8_t ret = executeCommand(CMD_RX_DEQUEUE, 0, NULL, &responseLength, response);
 1942              		.loc 1 340 0
 1943 0024 0092     		str	r2, [sp]
 1944 0026 0A46     		mov	r2, r1
 1945 0028 3020     		movs	r0, #48
 1946 002a FFF7FEFF 		bl	executeCommand
 1947              	.LVL206:
 341:SakuraIO/SakuraIOc.c ****   if(ret != CMD_ERROR_NONE){
 1948              		.loc 1 341 0
 1949 002e 0128     		cmp	r0, #1
 1950 0030 1ED1     		bne	.L129
 342:SakuraIO/SakuraIOc.c ****     return ret;
 343:SakuraIO/SakuraIOc.c ****   }
 344:SakuraIO/SakuraIOc.c **** 
 345:SakuraIO/SakuraIOc.c ****   *ch = response[0];
 1951              		.loc 1 345 0
 1952 0032 9DF80C30 		ldrb	r3, [sp, #12]	@ zero_extendqisi2
 1953 0036 3B70     		strb	r3, [r7]
 346:SakuraIO/SakuraIOc.c ****   *type = response[1];
 1954              		.loc 1 346 0
 1955 0038 9DF80D30 		ldrb	r3, [sp, #13]	@ zero_extendqisi2
 1956 003c 3370     		strb	r3, [r6]
 1957              	.LVL207:
 1958              	.LBB10:
 347:SakuraIO/SakuraIOc.c ****   for(uint8_t i=0; i<8; i++){
 1959              		.loc 1 347 0
 1960 003e 0023     		movs	r3, #0
 1961 0040 07E0     		b	.L130
 1962              	.LVL208:
 1963              	.L131:
 348:SakuraIO/SakuraIOc.c ****     value[i] = response[2+i];
 1964              		.loc 1 348 0 discriminator 3
 1965 0042 9A1C     		adds	r2, r3, #2
 1966 0044 08A9     		add	r1, sp, #32
 1967 0046 0A44     		add	r2, r2, r1
ARM GAS  C:\Users\cronos\AppData\Local\Temp\ccrG4qtQ.s 			page 42


 1968 0048 12F8142C 		ldrb	r2, [r2, #-20]	@ zero_extendqisi2
 1969 004c EA54     		strb	r2, [r5, r3]
 347:SakuraIO/SakuraIOc.c ****   for(uint8_t i=0; i<8; i++){
 1970              		.loc 1 347 0 discriminator 3
 1971 004e 0133     		adds	r3, r3, #1
 1972              	.LVL209:
 1973 0050 DBB2     		uxtb	r3, r3
 1974              	.LVL210:
 1975              	.L130:
 347:SakuraIO/SakuraIOc.c ****   for(uint8_t i=0; i<8; i++){
 1976              		.loc 1 347 0 is_stmt 0 discriminator 1
 1977 0052 072B     		cmp	r3, #7
 1978 0054 F5D9     		bls	.L131
 1979 0056 0023     		movs	r3, #0
 1980              	.LVL211:
 1981 0058 08E0     		b	.L132
 1982              	.LVL212:
 1983              	.L133:
 1984              	.LBE10:
 1985              	.LBB11:
 349:SakuraIO/SakuraIOc.c ****   }
 350:SakuraIO/SakuraIOc.c ****   for(uint8_t i=0; i<8; i++){
 351:SakuraIO/SakuraIOc.c ****     ((uint8_t *)offset)[i] = response[10+i];
 1986              		.loc 1 351 0 is_stmt 1 discriminator 3
 1987 005a 03F10A02 		add	r2, r3, #10
 1988 005e 08A9     		add	r1, sp, #32
 1989 0060 0A44     		add	r2, r2, r1
 1990 0062 12F8142C 		ldrb	r2, [r2, #-20]	@ zero_extendqisi2
 1991 0066 E254     		strb	r2, [r4, r3]
 350:SakuraIO/SakuraIOc.c ****     ((uint8_t *)offset)[i] = response[10+i];
 1992              		.loc 1 350 0 discriminator 3
 1993 0068 0133     		adds	r3, r3, #1
 1994              	.LVL213:
 1995 006a DBB2     		uxtb	r3, r3
 1996              	.LVL214:
 1997              	.L132:
 350:SakuraIO/SakuraIOc.c ****     ((uint8_t *)offset)[i] = response[10+i];
 1998              		.loc 1 350 0 is_stmt 0 discriminator 1
 1999 006c 072B     		cmp	r3, #7
 2000 006e F4D9     		bls	.L133
 2001              	.LVL215:
 2002              	.L129:
 2003              	.LBE11:
 352:SakuraIO/SakuraIOc.c ****   }
 353:SakuraIO/SakuraIOc.c **** 
 354:SakuraIO/SakuraIOc.c ****   return ret;
 355:SakuraIO/SakuraIOc.c **** }
 2004              		.loc 1 355 0 is_stmt 1
 2005 0070 09B0     		add	sp, sp, #36
 2006              		.cfi_def_cfa_offset 20
 2007              		@ sp needed
 2008 0072 F0BD     		pop	{r4, r5, r6, r7, pc}
 2009              		.cfi_endproc
 2010              	.LFE41:
 2011              		.size	dequeueRx, .-dequeueRx
 2012              		.section	.text.peekRx,"ax",%progbits
 2013              		.align	2
ARM GAS  C:\Users\cronos\AppData\Local\Temp\ccrG4qtQ.s 			page 43


 2014              		.global	peekRx
 2015              		.thumb
 2016              		.thumb_func
 2017              		.type	peekRx, %function
 2018              	peekRx:
 2019              	.LFB42:
 356:SakuraIO/SakuraIOc.c **** 
 357:SakuraIO/SakuraIOc.c **** uint8_t peekRx(uint8_t *ch, uint8_t *type, uint8_t *value, int64_t *offset){
 2020              		.loc 1 357 0
 2021              		.cfi_startproc
 2022              		@ args = 0, pretend = 0, frame = 24
 2023              		@ frame_needed = 0, uses_anonymous_args = 0
 2024              	.LVL216:
 2025 0000 F0B5     		push	{r4, r5, r6, r7, lr}
 2026              		.cfi_def_cfa_offset 20
 2027              		.cfi_offset 4, -20
 2028              		.cfi_offset 5, -16
 2029              		.cfi_offset 6, -12
 2030              		.cfi_offset 7, -8
 2031              		.cfi_offset 14, -4
 2032 0002 89B0     		sub	sp, sp, #36
 2033              		.cfi_def_cfa_offset 56
 2034 0004 0746     		mov	r7, r0
 2035 0006 0E46     		mov	r6, r1
 2036 0008 1546     		mov	r5, r2
 2037 000a 1C46     		mov	r4, r3
 358:SakuraIO/SakuraIOc.c ****   uint8_t response[18] = {0x00};
 2038              		.loc 1 358 0
 2039 000c 03AA     		add	r2, sp, #12
 2040              	.LVL217:
 2041 000e 0021     		movs	r1, #0
 2042              	.LVL218:
 2043 0010 0391     		str	r1, [sp, #12]
 2044 0012 0491     		str	r1, [sp, #16]
 2045 0014 0591     		str	r1, [sp, #20]
 2046 0016 0691     		str	r1, [sp, #24]
 2047 0018 ADF81C10 		strh	r1, [sp, #28]	@ movhi
 359:SakuraIO/SakuraIOc.c ****   uint8_t responseLength = 18;
 2048              		.loc 1 359 0
 2049 001c 08AB     		add	r3, sp, #32
 2050              	.LVL219:
 2051 001e 1220     		movs	r0, #18
 2052              	.LVL220:
 2053 0020 03F8150D 		strb	r0, [r3, #-21]!
 360:SakuraIO/SakuraIOc.c ****   uint8_t ret = executeCommand(CMD_RX_PEEK, 0, NULL, &responseLength, response);
 2054              		.loc 1 360 0
 2055 0024 0092     		str	r2, [sp]
 2056 0026 0A46     		mov	r2, r1
 2057 0028 3120     		movs	r0, #49
 2058 002a FFF7FEFF 		bl	executeCommand
 2059              	.LVL221:
 361:SakuraIO/SakuraIOc.c ****   if(ret != CMD_ERROR_NONE){
 2060              		.loc 1 361 0
 2061 002e 0128     		cmp	r0, #1
 2062 0030 1ED1     		bne	.L136
 362:SakuraIO/SakuraIOc.c ****     return ret;
 363:SakuraIO/SakuraIOc.c ****   }
ARM GAS  C:\Users\cronos\AppData\Local\Temp\ccrG4qtQ.s 			page 44


 364:SakuraIO/SakuraIOc.c **** 
 365:SakuraIO/SakuraIOc.c ****   *ch = response[0];
 2063              		.loc 1 365 0
 2064 0032 9DF80C30 		ldrb	r3, [sp, #12]	@ zero_extendqisi2
 2065 0036 3B70     		strb	r3, [r7]
 366:SakuraIO/SakuraIOc.c ****   *type = response[1];
 2066              		.loc 1 366 0
 2067 0038 9DF80D30 		ldrb	r3, [sp, #13]	@ zero_extendqisi2
 2068 003c 3370     		strb	r3, [r6]
 2069              	.LVL222:
 2070              	.LBB12:
 367:SakuraIO/SakuraIOc.c ****   for(uint8_t i=0; i<8; i++){
 2071              		.loc 1 367 0
 2072 003e 0023     		movs	r3, #0
 2073 0040 07E0     		b	.L137
 2074              	.LVL223:
 2075              	.L138:
 368:SakuraIO/SakuraIOc.c ****     value[i] = response[2+i];
 2076              		.loc 1 368 0 discriminator 3
 2077 0042 9A1C     		adds	r2, r3, #2
 2078 0044 08A9     		add	r1, sp, #32
 2079 0046 0A44     		add	r2, r2, r1
 2080 0048 12F8142C 		ldrb	r2, [r2, #-20]	@ zero_extendqisi2
 2081 004c EA54     		strb	r2, [r5, r3]
 367:SakuraIO/SakuraIOc.c ****   for(uint8_t i=0; i<8; i++){
 2082              		.loc 1 367 0 discriminator 3
 2083 004e 0133     		adds	r3, r3, #1
 2084              	.LVL224:
 2085 0050 DBB2     		uxtb	r3, r3
 2086              	.LVL225:
 2087              	.L137:
 367:SakuraIO/SakuraIOc.c ****   for(uint8_t i=0; i<8; i++){
 2088              		.loc 1 367 0 is_stmt 0 discriminator 1
 2089 0052 072B     		cmp	r3, #7
 2090 0054 F5D9     		bls	.L138
 2091 0056 0023     		movs	r3, #0
 2092              	.LVL226:
 2093 0058 08E0     		b	.L139
 2094              	.LVL227:
 2095              	.L140:
 2096              	.LBE12:
 2097              	.LBB13:
 369:SakuraIO/SakuraIOc.c ****   }
 370:SakuraIO/SakuraIOc.c ****   for(uint8_t i=0; i<8; i++){
 371:SakuraIO/SakuraIOc.c ****     ((uint8_t *)offset)[i] = response[10+i];
 2098              		.loc 1 371 0 is_stmt 1 discriminator 3
 2099 005a 03F10A02 		add	r2, r3, #10
 2100 005e 08A9     		add	r1, sp, #32
 2101 0060 0A44     		add	r2, r2, r1
 2102 0062 12F8142C 		ldrb	r2, [r2, #-20]	@ zero_extendqisi2
 2103 0066 E254     		strb	r2, [r4, r3]
 370:SakuraIO/SakuraIOc.c ****     ((uint8_t *)offset)[i] = response[10+i];
 2104              		.loc 1 370 0 discriminator 3
 2105 0068 0133     		adds	r3, r3, #1
 2106              	.LVL228:
 2107 006a DBB2     		uxtb	r3, r3
 2108              	.LVL229:
ARM GAS  C:\Users\cronos\AppData\Local\Temp\ccrG4qtQ.s 			page 45


 2109              	.L139:
 370:SakuraIO/SakuraIOc.c ****     ((uint8_t *)offset)[i] = response[10+i];
 2110              		.loc 1 370 0 is_stmt 0 discriminator 1
 2111 006c 072B     		cmp	r3, #7
 2112 006e F4D9     		bls	.L140
 2113              	.LVL230:
 2114              	.L136:
 2115              	.LBE13:
 372:SakuraIO/SakuraIOc.c ****   }
 373:SakuraIO/SakuraIOc.c **** 
 374:SakuraIO/SakuraIOc.c ****   return ret;
 375:SakuraIO/SakuraIOc.c **** }
 2116              		.loc 1 375 0 is_stmt 1
 2117 0070 09B0     		add	sp, sp, #36
 2118              		.cfi_def_cfa_offset 20
 2119              		@ sp needed
 2120 0072 F0BD     		pop	{r4, r5, r6, r7, pc}
 2121              		.cfi_endproc
 2122              	.LFE42:
 2123              		.size	peekRx, .-peekRx
 2124              		.section	.text.getRxQueueLength,"ax",%progbits
 2125              		.align	2
 2126              		.global	getRxQueueLength
 2127              		.thumb
 2128              		.thumb_func
 2129              		.type	getRxQueueLength, %function
 2130              	getRxQueueLength:
 2131              	.LFB43:
 376:SakuraIO/SakuraIOc.c **** 
 377:SakuraIO/SakuraIOc.c **** uint8_t getRxQueueLength(uint8_t *available, uint8_t *queued){
 2132              		.loc 1 377 0
 2133              		.cfi_startproc
 2134              		@ args = 0, pretend = 0, frame = 8
 2135              		@ frame_needed = 0, uses_anonymous_args = 0
 2136              	.LVL231:
 2137 0000 30B5     		push	{r4, r5, lr}
 2138              		.cfi_def_cfa_offset 12
 2139              		.cfi_offset 4, -12
 2140              		.cfi_offset 5, -8
 2141              		.cfi_offset 14, -4
 2142 0002 85B0     		sub	sp, sp, #20
 2143              		.cfi_def_cfa_offset 32
 2144 0004 0546     		mov	r5, r0
 2145 0006 0C46     		mov	r4, r1
 378:SakuraIO/SakuraIOc.c ****   uint8_t response[2] = {0x00};
 2146              		.loc 1 378 0
 2147 0008 0021     		movs	r1, #0
 2148              	.LVL232:
 2149 000a ADF80C10 		strh	r1, [sp, #12]	@ movhi
 379:SakuraIO/SakuraIOc.c ****   uint8_t responseLength = 2;
 2150              		.loc 1 379 0
 2151 000e 04AB     		add	r3, sp, #16
 2152 0010 0222     		movs	r2, #2
 2153 0012 03F8052D 		strb	r2, [r3, #-5]!
 380:SakuraIO/SakuraIOc.c ****   uint8_t ret = executeCommand(CMD_RX_LENGTH, 0, NULL, &responseLength, response);
 2154              		.loc 1 380 0
 2155 0016 03AA     		add	r2, sp, #12
ARM GAS  C:\Users\cronos\AppData\Local\Temp\ccrG4qtQ.s 			page 46


 2156 0018 0092     		str	r2, [sp]
 2157 001a 0A46     		mov	r2, r1
 2158 001c 3220     		movs	r0, #50
 2159              	.LVL233:
 2160 001e FFF7FEFF 		bl	executeCommand
 2161              	.LVL234:
 381:SakuraIO/SakuraIOc.c ****   *available = response[0];
 2162              		.loc 1 381 0
 2163 0022 9DF80C30 		ldrb	r3, [sp, #12]	@ zero_extendqisi2
 2164 0026 2B70     		strb	r3, [r5]
 382:SakuraIO/SakuraIOc.c ****   *queued = response[1];
 2165              		.loc 1 382 0
 2166 0028 9DF80D30 		ldrb	r3, [sp, #13]	@ zero_extendqisi2
 2167 002c 2370     		strb	r3, [r4]
 383:SakuraIO/SakuraIOc.c ****   return ret;
 384:SakuraIO/SakuraIOc.c **** }
 2168              		.loc 1 384 0
 2169 002e 05B0     		add	sp, sp, #20
 2170              		.cfi_def_cfa_offset 12
 2171              		@ sp needed
 2172 0030 30BD     		pop	{r4, r5, pc}
 2173              		.cfi_endproc
 2174              	.LFE43:
 2175              		.size	getRxQueueLength, .-getRxQueueLength
 2176 0032 00BF     		.section	.text.clearRx,"ax",%progbits
 2177              		.align	2
 2178              		.global	clearRx
 2179              		.thumb
 2180              		.thumb_func
 2181              		.type	clearRx, %function
 2182              	clearRx:
 2183              	.LFB44:
 385:SakuraIO/SakuraIOc.c **** 
 386:SakuraIO/SakuraIOc.c **** uint8_t clearRx(){
 2184              		.loc 1 386 0
 2185              		.cfi_startproc
 2186              		@ args = 0, pretend = 0, frame = 0
 2187              		@ frame_needed = 0, uses_anonymous_args = 0
 2188 0000 00B5     		push	{lr}
 2189              		.cfi_def_cfa_offset 4
 2190              		.cfi_offset 14, -4
 2191 0002 83B0     		sub	sp, sp, #12
 2192              		.cfi_def_cfa_offset 16
 387:SakuraIO/SakuraIOc.c ****   return executeCommand(CMD_RX_CLEAR, 0, NULL, NULL, NULL);
 2193              		.loc 1 387 0
 2194 0004 0021     		movs	r1, #0
 2195 0006 0091     		str	r1, [sp]
 2196 0008 0B46     		mov	r3, r1
 2197 000a 0A46     		mov	r2, r1
 2198 000c 3320     		movs	r0, #51
 2199 000e FFF7FEFF 		bl	executeCommand
 2200              	.LVL235:
 388:SakuraIO/SakuraIOc.c **** }
 2201              		.loc 1 388 0
 2202 0012 03B0     		add	sp, sp, #12
 2203              		.cfi_def_cfa_offset 4
 2204              		@ sp needed
ARM GAS  C:\Users\cronos\AppData\Local\Temp\ccrG4qtQ.s 			page 47


 2205 0014 5DF804FB 		ldr	pc, [sp], #4
 2206              		.cfi_endproc
 2207              	.LFE44:
 2208              		.size	clearRx, .-clearRx
 2209              		.section	.text.startFileDownload,"ax",%progbits
 2210              		.align	2
 2211              		.global	startFileDownload
 2212              		.thumb
 2213              		.thumb_func
 2214              		.type	startFileDownload, %function
 2215              	startFileDownload:
 2216              	.LFB45:
 389:SakuraIO/SakuraIOc.c **** 
 390:SakuraIO/SakuraIOc.c **** /* File command */
 391:SakuraIO/SakuraIOc.c **** uint8_t startFileDownload(uint16_t fileId){
 2217              		.loc 1 391 0
 2218              		.cfi_startproc
 2219              		@ args = 0, pretend = 0, frame = 8
 2220              		@ frame_needed = 0, uses_anonymous_args = 0
 2221              	.LVL236:
 2222 0000 00B5     		push	{lr}
 2223              		.cfi_def_cfa_offset 4
 2224              		.cfi_offset 14, -4
 2225 0002 85B0     		sub	sp, sp, #20
 2226              		.cfi_def_cfa_offset 24
 2227 0004 04AA     		add	r2, sp, #16
 2228 0006 22F8020D 		strh	r0, [r2, #-2]!	@ movhi
 392:SakuraIO/SakuraIOc.c ****   return executeCommand(CMD_START_FILE_DOWNLOAD, 2, (uint8_t *)&fileId, NULL, NULL);
 2229              		.loc 1 392 0
 2230 000a 0023     		movs	r3, #0
 2231 000c 0093     		str	r3, [sp]
 2232 000e 0221     		movs	r1, #2
 2233 0010 4020     		movs	r0, #64
 2234              	.LVL237:
 2235 0012 FFF7FEFF 		bl	executeCommand
 2236              	.LVL238:
 393:SakuraIO/SakuraIOc.c **** }
 2237              		.loc 1 393 0
 2238 0016 05B0     		add	sp, sp, #20
 2239              		.cfi_def_cfa_offset 4
 2240              		@ sp needed
 2241 0018 5DF804FB 		ldr	pc, [sp], #4
 2242              		.cfi_endproc
 2243              	.LFE45:
 2244              		.size	startFileDownload, .-startFileDownload
 2245              		.section	.text.cancelFileDownload,"ax",%progbits
 2246              		.align	2
 2247              		.global	cancelFileDownload
 2248              		.thumb
 2249              		.thumb_func
 2250              		.type	cancelFileDownload, %function
 2251              	cancelFileDownload:
 2252              	.LFB46:
 394:SakuraIO/SakuraIOc.c **** 
 395:SakuraIO/SakuraIOc.c **** uint8_t cancelFileDownload(){
 2253              		.loc 1 395 0
 2254              		.cfi_startproc
ARM GAS  C:\Users\cronos\AppData\Local\Temp\ccrG4qtQ.s 			page 48


 2255              		@ args = 0, pretend = 0, frame = 0
 2256              		@ frame_needed = 0, uses_anonymous_args = 0
 2257 0000 00B5     		push	{lr}
 2258              		.cfi_def_cfa_offset 4
 2259              		.cfi_offset 14, -4
 2260 0002 83B0     		sub	sp, sp, #12
 2261              		.cfi_def_cfa_offset 16
 396:SakuraIO/SakuraIOc.c ****   return executeCommand(CMD_CANCEL_FILE_DOWNLOAD, 0, NULL, NULL, NULL);
 2262              		.loc 1 396 0
 2263 0004 0021     		movs	r1, #0
 2264 0006 0091     		str	r1, [sp]
 2265 0008 0B46     		mov	r3, r1
 2266 000a 0A46     		mov	r2, r1
 2267 000c 4320     		movs	r0, #67
 2268 000e FFF7FEFF 		bl	executeCommand
 2269              	.LVL239:
 397:SakuraIO/SakuraIOc.c **** }
 2270              		.loc 1 397 0
 2271 0012 03B0     		add	sp, sp, #12
 2272              		.cfi_def_cfa_offset 4
 2273              		@ sp needed
 2274 0014 5DF804FB 		ldr	pc, [sp], #4
 2275              		.cfi_endproc
 2276              	.LFE46:
 2277              		.size	cancelFileDownload, .-cancelFileDownload
 2278              		.section	.text.getFileMetaData,"ax",%progbits
 2279              		.align	2
 2280              		.global	getFileMetaData
 2281              		.thumb
 2282              		.thumb_func
 2283              		.type	getFileMetaData, %function
 2284              	getFileMetaData:
 2285              	.LFB47:
 398:SakuraIO/SakuraIOc.c **** 
 399:SakuraIO/SakuraIOc.c **** uint8_t getFileMetaData(uint8_t *status, uint32_t *totalSize, uint64_t *timestamp, uint32_t *crc){
 2286              		.loc 1 399 0
 2287              		.cfi_startproc
 2288              		@ args = 0, pretend = 0, frame = 24
 2289              		@ frame_needed = 0, uses_anonymous_args = 0
 2290              	.LVL240:
 2291 0000 F0B5     		push	{r4, r5, r6, r7, lr}
 2292              		.cfi_def_cfa_offset 20
 2293              		.cfi_offset 4, -20
 2294              		.cfi_offset 5, -16
 2295              		.cfi_offset 6, -12
 2296              		.cfi_offset 7, -8
 2297              		.cfi_offset 14, -4
 2298 0002 89B0     		sub	sp, sp, #36
 2299              		.cfi_def_cfa_offset 56
 2300 0004 0746     		mov	r7, r0
 2301 0006 0E46     		mov	r6, r1
 2302 0008 1446     		mov	r4, r2
 2303 000a 1D46     		mov	r5, r3
 400:SakuraIO/SakuraIOc.c ****   uint8_t response[17] = {0x00};
 2304              		.loc 1 400 0
 2305 000c 03AA     		add	r2, sp, #12
 2306              	.LVL241:
ARM GAS  C:\Users\cronos\AppData\Local\Temp\ccrG4qtQ.s 			page 49


 2307 000e 0021     		movs	r1, #0
 2308              	.LVL242:
 2309 0010 0391     		str	r1, [sp, #12]
 2310 0012 0491     		str	r1, [sp, #16]
 2311 0014 0591     		str	r1, [sp, #20]
 2312 0016 0691     		str	r1, [sp, #24]
 2313 0018 8DF81C10 		strb	r1, [sp, #28]
 401:SakuraIO/SakuraIOc.c ****   uint8_t responseLength = 17;
 2314              		.loc 1 401 0
 2315 001c 08AB     		add	r3, sp, #32
 2316              	.LVL243:
 2317 001e 1120     		movs	r0, #17
 2318              	.LVL244:
 2319 0020 03F8150D 		strb	r0, [r3, #-21]!
 402:SakuraIO/SakuraIOc.c ****   uint8_t ret = executeCommand(CMD_GET_FILE_METADATA, 0, NULL, &responseLength, response);
 2320              		.loc 1 402 0
 2321 0024 0092     		str	r2, [sp]
 2322 0026 0A46     		mov	r2, r1
 2323 0028 4120     		movs	r0, #65
 2324 002a FFF7FEFF 		bl	executeCommand
 2325              	.LVL245:
 403:SakuraIO/SakuraIOc.c ****   *status = response[0];
 2326              		.loc 1 403 0
 2327 002e 9DF80C30 		ldrb	r3, [sp, #12]	@ zero_extendqisi2
 2328 0032 3B70     		strb	r3, [r7]
 404:SakuraIO/SakuraIOc.c ****   *totalSize = *(uint32_t *)(response+1);
 2329              		.loc 1 404 0
 2330 0034 DDF80D30 		ldr	r3, [sp, #13]	@ unaligned
 2331 0038 3360     		str	r3, [r6]
 405:SakuraIO/SakuraIOc.c ****   *timestamp = *(uint64_t *)(response+5);
 2332              		.loc 1 405 0
 2333 003a 08AB     		add	r3, sp, #32
 2334 003c 53F80F2D 		ldr	r2, [r3, #-15]!	@ unaligned
 2335 0040 5B68     		ldr	r3, [r3, #4]	@ unaligned
 2336 0042 2260     		str	r2, [r4]
 2337 0044 6360     		str	r3, [r4, #4]
 406:SakuraIO/SakuraIOc.c ****   *crc = *(uint32_t *)(response+13);
 2338              		.loc 1 406 0
 2339 0046 DDF81930 		ldr	r3, [sp, #25]	@ unaligned
 2340 004a 2B60     		str	r3, [r5]
 407:SakuraIO/SakuraIOc.c ****   return ret;
 408:SakuraIO/SakuraIOc.c **** }
 2341              		.loc 1 408 0
 2342 004c 09B0     		add	sp, sp, #36
 2343              		.cfi_def_cfa_offset 20
 2344              		@ sp needed
 2345 004e F0BD     		pop	{r4, r5, r6, r7, pc}
 2346              		.cfi_endproc
 2347              	.LFE47:
 2348              		.size	getFileMetaData, .-getFileMetaData
 2349              		.section	.text.getFileDownloadStatus,"ax",%progbits
 2350              		.align	2
 2351              		.global	getFileDownloadStatus
 2352              		.thumb
 2353              		.thumb_func
 2354              		.type	getFileDownloadStatus, %function
 2355              	getFileDownloadStatus:
ARM GAS  C:\Users\cronos\AppData\Local\Temp\ccrG4qtQ.s 			page 50


 2356              	.LFB48:
 409:SakuraIO/SakuraIOc.c **** 
 410:SakuraIO/SakuraIOc.c **** uint8_t getFileDownloadStatus(uint8_t *status, uint32_t *currentSize){
 2357              		.loc 1 410 0
 2358              		.cfi_startproc
 2359              		@ args = 0, pretend = 0, frame = 16
 2360              		@ frame_needed = 0, uses_anonymous_args = 0
 2361              	.LVL246:
 2362 0000 30B5     		push	{r4, r5, lr}
 2363              		.cfi_def_cfa_offset 12
 2364              		.cfi_offset 4, -12
 2365              		.cfi_offset 5, -8
 2366              		.cfi_offset 14, -4
 2367 0002 87B0     		sub	sp, sp, #28
 2368              		.cfi_def_cfa_offset 40
 2369 0004 0546     		mov	r5, r0
 2370 0006 0C46     		mov	r4, r1
 411:SakuraIO/SakuraIOc.c ****   uint8_t response[5] = {0x00};
 2371              		.loc 1 411 0
 2372 0008 04AA     		add	r2, sp, #16
 2373 000a 0021     		movs	r1, #0
 2374              	.LVL247:
 2375 000c 0491     		str	r1, [sp, #16]
 2376 000e 8DF81410 		strb	r1, [sp, #20]
 412:SakuraIO/SakuraIOc.c ****   uint8_t responseLength = 5;
 2377              		.loc 1 412 0
 2378 0012 06AB     		add	r3, sp, #24
 2379 0014 0520     		movs	r0, #5
 2380              	.LVL248:
 2381 0016 03F8090D 		strb	r0, [r3, #-9]!
 413:SakuraIO/SakuraIOc.c ****   uint8_t ret = executeCommand(CMD_GET_FILE_DOWNLOAD_STATUS, 0, NULL, &responseLength, response);
 2382              		.loc 1 413 0
 2383 001a 0092     		str	r2, [sp]
 2384 001c 0A46     		mov	r2, r1
 2385 001e 4220     		movs	r0, #66
 2386 0020 FFF7FEFF 		bl	executeCommand
 2387              	.LVL249:
 414:SakuraIO/SakuraIOc.c ****   *status = response[0];
 2388              		.loc 1 414 0
 2389 0024 9DF81030 		ldrb	r3, [sp, #16]	@ zero_extendqisi2
 2390 0028 2B70     		strb	r3, [r5]
 415:SakuraIO/SakuraIOc.c ****   *currentSize = *(uint32_t *)(response+1);
 2391              		.loc 1 415 0
 2392 002a DDF81130 		ldr	r3, [sp, #17]	@ unaligned
 2393 002e 2360     		str	r3, [r4]
 416:SakuraIO/SakuraIOc.c ****   return ret;
 417:SakuraIO/SakuraIOc.c **** }
 2394              		.loc 1 417 0
 2395 0030 07B0     		add	sp, sp, #28
 2396              		.cfi_def_cfa_offset 12
 2397              		@ sp needed
 2398 0032 30BD     		pop	{r4, r5, pc}
 2399              		.cfi_endproc
 2400              	.LFE48:
 2401              		.size	getFileDownloadStatus, .-getFileDownloadStatus
 2402              		.section	.text.getFileData,"ax",%progbits
 2403              		.align	2
ARM GAS  C:\Users\cronos\AppData\Local\Temp\ccrG4qtQ.s 			page 51


 2404              		.global	getFileData
 2405              		.thumb
 2406              		.thumb_func
 2407              		.type	getFileData, %function
 2408              	getFileData:
 2409              	.LFB49:
 418:SakuraIO/SakuraIOc.c **** 
 419:SakuraIO/SakuraIOc.c **** uint8_t getFileData(uint8_t *size, uint8_t *data){
 2410              		.loc 1 419 0
 2411              		.cfi_startproc
 2412              		@ args = 0, pretend = 0, frame = 0
 2413              		@ frame_needed = 0, uses_anonymous_args = 0
 2414              	.LVL250:
 2415 0000 00B5     		push	{lr}
 2416              		.cfi_def_cfa_offset 4
 2417              		.cfi_offset 14, -4
 2418 0002 83B0     		sub	sp, sp, #12
 2419              		.cfi_def_cfa_offset 16
 2420 0004 0246     		mov	r2, r0
 420:SakuraIO/SakuraIOc.c ****   return executeCommand(CMD_GET_FILE_DATA, 1, size, size, data);
 2421              		.loc 1 420 0
 2422 0006 0091     		str	r1, [sp]
 2423 0008 0346     		mov	r3, r0
 2424 000a 0121     		movs	r1, #1
 2425              	.LVL251:
 2426 000c 4420     		movs	r0, #68
 2427              	.LVL252:
 2428 000e FFF7FEFF 		bl	executeCommand
 2429              	.LVL253:
 421:SakuraIO/SakuraIOc.c **** }
 2430              		.loc 1 421 0
 2431 0012 03B0     		add	sp, sp, #12
 2432              		.cfi_def_cfa_offset 4
 2433              		@ sp needed
 2434 0014 5DF804FB 		ldr	pc, [sp], #4
 2435              		.cfi_endproc
 2436              	.LFE49:
 2437              		.size	getFileData, .-getFileData
 2438              		.section	.text.getProductID,"ax",%progbits
 2439              		.align	2
 2440              		.global	getProductID
 2441              		.thumb
 2442              		.thumb_func
 2443              		.type	getProductID, %function
 2444              	getProductID:
 2445              	.LFB50:
 422:SakuraIO/SakuraIOc.c **** 
 423:SakuraIO/SakuraIOc.c **** /* Operation command */
 424:SakuraIO/SakuraIOc.c **** 
 425:SakuraIO/SakuraIOc.c **** uint16_t getProductID(){
 2446              		.loc 1 425 0
 2447              		.cfi_startproc
 2448              		@ args = 0, pretend = 0, frame = 8
 2449              		@ frame_needed = 0, uses_anonymous_args = 0
 2450 0000 00B5     		push	{lr}
 2451              		.cfi_def_cfa_offset 4
 2452              		.cfi_offset 14, -4
ARM GAS  C:\Users\cronos\AppData\Local\Temp\ccrG4qtQ.s 			page 52


 2453 0002 85B0     		sub	sp, sp, #20
 2454              		.cfi_def_cfa_offset 24
 426:SakuraIO/SakuraIOc.c ****   uint8_t response[2] = {0x00};
 2455              		.loc 1 426 0
 2456 0004 0021     		movs	r1, #0
 2457 0006 ADF80C10 		strh	r1, [sp, #12]	@ movhi
 427:SakuraIO/SakuraIOc.c ****   uint8_t responseLength = 2;
 2458              		.loc 1 427 0
 2459 000a 04AB     		add	r3, sp, #16
 2460 000c 0222     		movs	r2, #2
 2461 000e 03F8052D 		strb	r2, [r3, #-5]!
 428:SakuraIO/SakuraIOc.c ****   uint8_t ret = executeCommand(CMD_GET_PRODUCT_ID, 0, NULL, &responseLength, response);
 2462              		.loc 1 428 0
 2463 0012 03AA     		add	r2, sp, #12
 2464 0014 0092     		str	r2, [sp]
 2465 0016 0A46     		mov	r2, r1
 2466 0018 A020     		movs	r0, #160
 2467 001a FFF7FEFF 		bl	executeCommand
 2468              	.LVL254:
 429:SakuraIO/SakuraIOc.c ****   if(ret != CMD_ERROR_NONE){
 2469              		.loc 1 429 0
 2470 001e 0128     		cmp	r0, #1
 2471 0020 02D1     		bne	.L158
 430:SakuraIO/SakuraIOc.c ****     return 0x00;
 431:SakuraIO/SakuraIOc.c ****   }
 432:SakuraIO/SakuraIOc.c ****   return *((uint16_t *)response);
 2472              		.loc 1 432 0
 2473 0022 BDF80C00 		ldrh	r0, [sp, #12]
 2474              	.LVL255:
 2475 0026 00E0     		b	.L157
 2476              	.LVL256:
 2477              	.L158:
 430:SakuraIO/SakuraIOc.c ****     return 0x00;
 2478              		.loc 1 430 0
 2479 0028 0020     		movs	r0, #0
 2480              	.LVL257:
 2481              	.L157:
 433:SakuraIO/SakuraIOc.c **** }
 2482              		.loc 1 433 0
 2483 002a 05B0     		add	sp, sp, #20
 2484              		.cfi_def_cfa_offset 4
 2485              		@ sp needed
 2486 002c 5DF804FB 		ldr	pc, [sp], #4
 2487              		.cfi_endproc
 2488              	.LFE50:
 2489              		.size	getProductID, .-getProductID
 2490              		.section	.text.getUniqueID,"ax",%progbits
 2491              		.align	2
 2492              		.global	getUniqueID
 2493              		.thumb
 2494              		.thumb_func
 2495              		.type	getUniqueID, %function
 2496              	getUniqueID:
 2497              	.LFB51:
 434:SakuraIO/SakuraIOc.c **** 
 435:SakuraIO/SakuraIOc.c **** uint8_t getUniqueID(char *data){
 2498              		.loc 1 435 0
ARM GAS  C:\Users\cronos\AppData\Local\Temp\ccrG4qtQ.s 			page 53


 2499              		.cfi_startproc
 2500              		@ args = 0, pretend = 0, frame = 16
 2501              		@ frame_needed = 0, uses_anonymous_args = 0
 2502              	.LVL258:
 2503 0000 10B5     		push	{r4, lr}
 2504              		.cfi_def_cfa_offset 8
 2505              		.cfi_offset 4, -8
 2506              		.cfi_offset 14, -4
 2507 0002 86B0     		sub	sp, sp, #24
 2508              		.cfi_def_cfa_offset 32
 2509 0004 0446     		mov	r4, r0
 436:SakuraIO/SakuraIOc.c ****   uint8_t response[11] = {0x00};
 2510              		.loc 1 436 0
 2511 0006 03AA     		add	r2, sp, #12
 2512 0008 0021     		movs	r1, #0
 2513 000a 0391     		str	r1, [sp, #12]
 2514 000c 0491     		str	r1, [sp, #16]
 2515 000e CDF81310 		str	r1, [sp, #19]	@ unaligned
 437:SakuraIO/SakuraIOc.c ****   uint8_t responseLength = 10;
 2516              		.loc 1 437 0
 2517 0012 06AB     		add	r3, sp, #24
 2518 0014 0A20     		movs	r0, #10
 2519              	.LVL259:
 2520 0016 03F80D0D 		strb	r0, [r3, #-13]!
 438:SakuraIO/SakuraIOc.c ****   uint8_t ret = executeCommand(CMD_GET_UNIQUE_ID, 0, NULL, &responseLength, response);
 2521              		.loc 1 438 0
 2522 001a 0092     		str	r2, [sp]
 2523 001c 0A46     		mov	r2, r1
 2524 001e A120     		movs	r0, #161
 2525 0020 FFF7FEFF 		bl	executeCommand
 2526              	.LVL260:
 439:SakuraIO/SakuraIOc.c ****   if(ret != CMD_ERROR_NONE){
 2527              		.loc 1 439 0
 2528 0024 0128     		cmp	r0, #1
 2529 0026 0ED1     		bne	.L161
 2530 0028 0023     		movs	r3, #0
 2531 002a 06E0     		b	.L162
 2532              	.LVL261:
 2533              	.L163:
 2534              	.LBB14:
 440:SakuraIO/SakuraIOc.c ****     return ret;
 441:SakuraIO/SakuraIOc.c ****   }
 442:SakuraIO/SakuraIOc.c ****   for(uint8_t i=0; i<responseLength; i++){
 443:SakuraIO/SakuraIOc.c ****     data[i] = (char)response[i];
 2535              		.loc 1 443 0 discriminator 3
 2536 002c 06AA     		add	r2, sp, #24
 2537 002e 1A44     		add	r2, r2, r3
 2538 0030 12F80C2C 		ldrb	r2, [r2, #-12]	@ zero_extendqisi2
 2539 0034 E254     		strb	r2, [r4, r3]
 442:SakuraIO/SakuraIOc.c ****     data[i] = (char)response[i];
 2540              		.loc 1 442 0 discriminator 3
 2541 0036 0133     		adds	r3, r3, #1
 2542              	.LVL262:
 2543 0038 DBB2     		uxtb	r3, r3
 2544              	.LVL263:
 2545              	.L162:
 442:SakuraIO/SakuraIOc.c ****     data[i] = (char)response[i];
ARM GAS  C:\Users\cronos\AppData\Local\Temp\ccrG4qtQ.s 			page 54


 2546              		.loc 1 442 0 is_stmt 0 discriminator 1
 2547 003a 9DF80B20 		ldrb	r2, [sp, #11]	@ zero_extendqisi2
 2548 003e 9342     		cmp	r3, r2
 2549 0040 F4D3     		bcc	.L163
 2550              	.LBE14:
 444:SakuraIO/SakuraIOc.c ****   }
 445:SakuraIO/SakuraIOc.c ****   data[responseLength] = 0x00;
 2551              		.loc 1 445 0 is_stmt 1
 2552 0042 0023     		movs	r3, #0
 2553              	.LVL264:
 2554 0044 A354     		strb	r3, [r4, r2]
 2555              	.L161:
 446:SakuraIO/SakuraIOc.c ****   return ret;
 447:SakuraIO/SakuraIOc.c **** }
 2556              		.loc 1 447 0
 2557 0046 06B0     		add	sp, sp, #24
 2558              		.cfi_def_cfa_offset 8
 2559              		@ sp needed
 2560 0048 10BD     		pop	{r4, pc}
 2561              		.cfi_endproc
 2562              	.LFE51:
 2563              		.size	getUniqueID, .-getUniqueID
 2564 004a 00BF     		.section	.text.getFirmwareVersion,"ax",%progbits
 2565              		.align	2
 2566              		.global	getFirmwareVersion
 2567              		.thumb
 2568              		.thumb_func
 2569              		.type	getFirmwareVersion, %function
 2570              	getFirmwareVersion:
 2571              	.LFB52:
 448:SakuraIO/SakuraIOc.c **** 
 449:SakuraIO/SakuraIOc.c **** uint8_t getFirmwareVersion(char *data){
 2572              		.loc 1 449 0
 2573              		.cfi_startproc
 2574              		@ args = 0, pretend = 0, frame = 40
 2575              		@ frame_needed = 0, uses_anonymous_args = 0
 2576              	.LVL265:
 2577 0000 30B5     		push	{r4, r5, lr}
 2578              		.cfi_def_cfa_offset 12
 2579              		.cfi_offset 4, -12
 2580              		.cfi_offset 5, -8
 2581              		.cfi_offset 14, -4
 2582 0002 8DB0     		sub	sp, sp, #52
 2583              		.cfi_def_cfa_offset 64
 2584 0004 0446     		mov	r4, r0
 450:SakuraIO/SakuraIOc.c ****   uint8_t response[33] = {0x00};
 2585              		.loc 1 450 0
 2586 0006 03AD     		add	r5, sp, #12
 2587 0008 2122     		movs	r2, #33
 2588 000a 0021     		movs	r1, #0
 2589 000c 2846     		mov	r0, r5
 2590              	.LVL266:
 2591 000e FFF7FEFF 		bl	memset
 2592              	.LVL267:
 451:SakuraIO/SakuraIOc.c ****   uint8_t responseLength = 32;
 2593              		.loc 1 451 0
 2594 0012 0CAB     		add	r3, sp, #48
ARM GAS  C:\Users\cronos\AppData\Local\Temp\ccrG4qtQ.s 			page 55


 2595 0014 2022     		movs	r2, #32
 2596 0016 03F8252D 		strb	r2, [r3, #-37]!
 452:SakuraIO/SakuraIOc.c ****   uint8_t ret = executeCommand(CMD_GET_FIRMWARE_VERSION, 0, NULL, &responseLength, response);
 2597              		.loc 1 452 0
 2598 001a 0095     		str	r5, [sp]
 2599 001c 0022     		movs	r2, #0
 2600 001e 1146     		mov	r1, r2
 2601 0020 A220     		movs	r0, #162
 2602 0022 FFF7FEFF 		bl	executeCommand
 2603              	.LVL268:
 453:SakuraIO/SakuraIOc.c ****   if(ret != CMD_ERROR_NONE){
 2604              		.loc 1 453 0
 2605 0026 0128     		cmp	r0, #1
 2606 0028 0ED1     		bne	.L166
 2607 002a 0023     		movs	r3, #0
 2608 002c 06E0     		b	.L167
 2609              	.LVL269:
 2610              	.L168:
 2611              	.LBB15:
 454:SakuraIO/SakuraIOc.c ****     return ret;
 455:SakuraIO/SakuraIOc.c ****   }
 456:SakuraIO/SakuraIOc.c ****   for(uint8_t i=0; i<responseLength; i++){
 457:SakuraIO/SakuraIOc.c ****     data[i] = (char)response[i];
 2612              		.loc 1 457 0 discriminator 3
 2613 002e 0CAA     		add	r2, sp, #48
 2614 0030 1A44     		add	r2, r2, r3
 2615 0032 12F8242C 		ldrb	r2, [r2, #-36]	@ zero_extendqisi2
 2616 0036 E254     		strb	r2, [r4, r3]
 456:SakuraIO/SakuraIOc.c ****     data[i] = (char)response[i];
 2617              		.loc 1 456 0 discriminator 3
 2618 0038 0133     		adds	r3, r3, #1
 2619              	.LVL270:
 2620 003a DBB2     		uxtb	r3, r3
 2621              	.LVL271:
 2622              	.L167:
 456:SakuraIO/SakuraIOc.c ****     data[i] = (char)response[i];
 2623              		.loc 1 456 0 is_stmt 0 discriminator 1
 2624 003c 9DF80B20 		ldrb	r2, [sp, #11]	@ zero_extendqisi2
 2625 0040 9342     		cmp	r3, r2
 2626 0042 F4D3     		bcc	.L168
 2627              	.LBE15:
 458:SakuraIO/SakuraIOc.c ****   }
 459:SakuraIO/SakuraIOc.c ****   data[responseLength] = 0x00;
 2628              		.loc 1 459 0 is_stmt 1
 2629 0044 0023     		movs	r3, #0
 2630              	.LVL272:
 2631 0046 A354     		strb	r3, [r4, r2]
 2632              	.L166:
 460:SakuraIO/SakuraIOc.c ****   return ret;
 461:SakuraIO/SakuraIOc.c **** }
 2633              		.loc 1 461 0
 2634 0048 0DB0     		add	sp, sp, #52
 2635              		.cfi_def_cfa_offset 12
 2636              		@ sp needed
 2637 004a 30BD     		pop	{r4, r5, pc}
 2638              		.cfi_endproc
 2639              	.LFE52:
ARM GAS  C:\Users\cronos\AppData\Local\Temp\ccrG4qtQ.s 			page 56


 2640              		.size	getFirmwareVersion, .-getFirmwareVersion
 2641              		.section	.text.unlock,"ax",%progbits
 2642              		.align	2
 2643              		.global	unlock
 2644              		.thumb
 2645              		.thumb_func
 2646              		.type	unlock, %function
 2647              	unlock:
 2648              	.LFB53:
 462:SakuraIO/SakuraIOc.c **** 
 463:SakuraIO/SakuraIOc.c **** uint8_t unlock(){
 2649              		.loc 1 463 0
 2650              		.cfi_startproc
 2651              		@ args = 0, pretend = 0, frame = 8
 2652              		@ frame_needed = 0, uses_anonymous_args = 0
 2653 0000 00B5     		push	{lr}
 2654              		.cfi_def_cfa_offset 4
 2655              		.cfi_offset 14, -4
 2656 0002 85B0     		sub	sp, sp, #20
 2657              		.cfi_def_cfa_offset 24
 464:SakuraIO/SakuraIOc.c ****   uint8_t request[4] = {0x53, 0x6B, 0x72, 0x61};
 2658              		.loc 1 464 0
 2659 0004 064B     		ldr	r3, .L172
 2660 0006 1868     		ldr	r0, [r3]	@ unaligned
 2661 0008 0390     		str	r0, [sp, #12]	@ unaligned
 465:SakuraIO/SakuraIOc.c ****   return executeCommand(CMD_UNLOCK, 4, request, NULL, NULL);
 2662              		.loc 1 465 0
 2663 000a 0023     		movs	r3, #0
 2664 000c 0093     		str	r3, [sp]
 2665 000e 03AA     		add	r2, sp, #12
 2666 0010 0421     		movs	r1, #4
 2667 0012 A820     		movs	r0, #168
 2668 0014 FFF7FEFF 		bl	executeCommand
 2669              	.LVL273:
 466:SakuraIO/SakuraIOc.c **** }
 2670              		.loc 1 466 0
 2671 0018 05B0     		add	sp, sp, #20
 2672              		.cfi_def_cfa_offset 4
 2673              		@ sp needed
 2674 001a 5DF804FB 		ldr	pc, [sp], #4
 2675              	.L173:
 2676 001e 00BF     		.align	2
 2677              	.L172:
 2678 0020 00000000 		.word	.LANCHOR0
 2679              		.cfi_endproc
 2680              	.LFE53:
 2681              		.size	unlock, .-unlock
 2682              		.section	.text.updateFirmware,"ax",%progbits
 2683              		.align	2
 2684              		.global	updateFirmware
 2685              		.thumb
 2686              		.thumb_func
 2687              		.type	updateFirmware, %function
 2688              	updateFirmware:
 2689              	.LFB54:
 467:SakuraIO/SakuraIOc.c **** 
 468:SakuraIO/SakuraIOc.c **** uint8_t updateFirmware(){
ARM GAS  C:\Users\cronos\AppData\Local\Temp\ccrG4qtQ.s 			page 57


 2690              		.loc 1 468 0
 2691              		.cfi_startproc
 2692              		@ args = 0, pretend = 0, frame = 0
 2693              		@ frame_needed = 0, uses_anonymous_args = 0
 2694 0000 00B5     		push	{lr}
 2695              		.cfi_def_cfa_offset 4
 2696              		.cfi_offset 14, -4
 2697 0002 83B0     		sub	sp, sp, #12
 2698              		.cfi_def_cfa_offset 16
 469:SakuraIO/SakuraIOc.c ****   return executeCommand(CMD_UPDATE_FIRMWARE, 0, 0, NULL, NULL);
 2699              		.loc 1 469 0
 2700 0004 0021     		movs	r1, #0
 2701 0006 0091     		str	r1, [sp]
 2702 0008 0B46     		mov	r3, r1
 2703 000a 0A46     		mov	r2, r1
 2704 000c A920     		movs	r0, #169
 2705 000e FFF7FEFF 		bl	executeCommand
 2706              	.LVL274:
 470:SakuraIO/SakuraIOc.c **** }
 2707              		.loc 1 470 0
 2708 0012 03B0     		add	sp, sp, #12
 2709              		.cfi_def_cfa_offset 4
 2710              		@ sp needed
 2711 0014 5DF804FB 		ldr	pc, [sp], #4
 2712              		.cfi_endproc
 2713              	.LFE54:
 2714              		.size	updateFirmware, .-updateFirmware
 2715              		.section	.text.getFirmwareUpdateStatus,"ax",%progbits
 2716              		.align	2
 2717              		.global	getFirmwareUpdateStatus
 2718              		.thumb
 2719              		.thumb_func
 2720              		.type	getFirmwareUpdateStatus, %function
 2721              	getFirmwareUpdateStatus:
 2722              	.LFB55:
 471:SakuraIO/SakuraIOc.c **** 
 472:SakuraIO/SakuraIOc.c **** uint8_t getFirmwareUpdateStatus(){
 2723              		.loc 1 472 0
 2724              		.cfi_startproc
 2725              		@ args = 0, pretend = 0, frame = 8
 2726              		@ frame_needed = 0, uses_anonymous_args = 0
 2727 0000 00B5     		push	{lr}
 2728              		.cfi_def_cfa_offset 4
 2729              		.cfi_offset 14, -4
 2730 0002 85B0     		sub	sp, sp, #20
 2731              		.cfi_def_cfa_offset 24
 473:SakuraIO/SakuraIOc.c ****   uint8_t response[1] = {0x00};
 2732              		.loc 1 473 0
 2733 0004 0021     		movs	r1, #0
 2734 0006 8DF80C10 		strb	r1, [sp, #12]
 474:SakuraIO/SakuraIOc.c ****   uint8_t responseLength = 1;
 2735              		.loc 1 474 0
 2736 000a 04AB     		add	r3, sp, #16
 2737 000c 0122     		movs	r2, #1
 2738 000e 03F8052D 		strb	r2, [r3, #-5]!
 475:SakuraIO/SakuraIOc.c ****   if(executeCommand(CMD_GET_UPDATE_FIRMWARE_STATUS, 0, 0, &responseLength, response) != CMD_ERROR_N
 2739              		.loc 1 475 0
ARM GAS  C:\Users\cronos\AppData\Local\Temp\ccrG4qtQ.s 			page 58


 2740 0012 03AA     		add	r2, sp, #12
 2741 0014 0092     		str	r2, [sp]
 2742 0016 0A46     		mov	r2, r1
 2743 0018 AA20     		movs	r0, #170
 2744 001a FFF7FEFF 		bl	executeCommand
 2745              	.LVL275:
 2746 001e 0128     		cmp	r0, #1
 2747 0020 02D1     		bne	.L178
 476:SakuraIO/SakuraIOc.c ****       return 0xff;
 477:SakuraIO/SakuraIOc.c ****   }
 478:SakuraIO/SakuraIOc.c ****   return response[0];
 2748              		.loc 1 478 0
 2749 0022 9DF80C00 		ldrb	r0, [sp, #12]	@ zero_extendqisi2
 2750 0026 00E0     		b	.L177
 2751              	.L178:
 476:SakuraIO/SakuraIOc.c ****       return 0xff;
 2752              		.loc 1 476 0
 2753 0028 FF20     		movs	r0, #255
 2754              	.L177:
 479:SakuraIO/SakuraIOc.c **** }
 2755              		.loc 1 479 0
 2756 002a 05B0     		add	sp, sp, #20
 2757              		.cfi_def_cfa_offset 4
 2758              		@ sp needed
 2759 002c 5DF804FB 		ldr	pc, [sp], #4
 2760              		.cfi_endproc
 2761              	.LFE55:
 2762              		.size	getFirmwareUpdateStatus, .-getFirmwareUpdateStatus
 2763              		.section	.text.reset,"ax",%progbits
 2764              		.align	2
 2765              		.global	reset
 2766              		.thumb
 2767              		.thumb_func
 2768              		.type	reset, %function
 2769              	reset:
 2770              	.LFB56:
 480:SakuraIO/SakuraIOc.c **** 
 481:SakuraIO/SakuraIOc.c **** uint8_t reset(){
 2771              		.loc 1 481 0
 2772              		.cfi_startproc
 2773              		@ args = 0, pretend = 0, frame = 0
 2774              		@ frame_needed = 0, uses_anonymous_args = 0
 2775 0000 00B5     		push	{lr}
 2776              		.cfi_def_cfa_offset 4
 2777              		.cfi_offset 14, -4
 2778 0002 83B0     		sub	sp, sp, #12
 2779              		.cfi_def_cfa_offset 16
 482:SakuraIO/SakuraIOc.c ****   return executeCommand(CMD_SOFTWARE_RESET, 0, 0, NULL, NULL);
 2780              		.loc 1 482 0
 2781 0004 0021     		movs	r1, #0
 2782 0006 0091     		str	r1, [sp]
 2783 0008 0B46     		mov	r3, r1
 2784 000a 0A46     		mov	r2, r1
 2785 000c AF20     		movs	r0, #175
 2786 000e FFF7FEFF 		bl	executeCommand
 2787              	.LVL276:
 483:SakuraIO/SakuraIOc.c **** }
ARM GAS  C:\Users\cronos\AppData\Local\Temp\ccrG4qtQ.s 			page 59


 2788              		.loc 1 483 0
 2789 0012 03B0     		add	sp, sp, #12
 2790              		.cfi_def_cfa_offset 4
 2791              		@ sp needed
 2792 0014 5DF804FB 		ldr	pc, [sp], #4
 2793              		.cfi_endproc
 2794              	.LFE56:
 2795              		.size	reset, .-reset
 2796              		.section	.text.setPowerSaveMode,"ax",%progbits
 2797              		.align	2
 2798              		.global	setPowerSaveMode
 2799              		.thumb
 2800              		.thumb_func
 2801              		.type	setPowerSaveMode, %function
 2802              	setPowerSaveMode:
 2803              	.LFB57:
 484:SakuraIO/SakuraIOc.c **** 
 485:SakuraIO/SakuraIOc.c **** uint8_t setPowerSaveMode(uint8_t mode)
 486:SakuraIO/SakuraIOc.c **** {
 2804              		.loc 1 486 0
 2805              		.cfi_startproc
 2806              		@ args = 0, pretend = 0, frame = 8
 2807              		@ frame_needed = 0, uses_anonymous_args = 0
 2808              	.LVL277:
 2809 0000 00B5     		push	{lr}
 2810              		.cfi_def_cfa_offset 4
 2811              		.cfi_offset 14, -4
 2812 0002 85B0     		sub	sp, sp, #20
 2813              		.cfi_def_cfa_offset 24
 487:SakuraIO/SakuraIOc.c ****   uint8_t request[1] = {mode};
 2814              		.loc 1 487 0
 2815 0004 04AA     		add	r2, sp, #16
 2816 0006 02F8040D 		strb	r0, [r2, #-4]!
 488:SakuraIO/SakuraIOc.c ****   return executeCommand(CMD_SET_POWER_SAVE_MODE, 1, request, NULL, NULL);
 2817              		.loc 1 488 0
 2818 000a 0023     		movs	r3, #0
 2819 000c 0093     		str	r3, [sp]
 2820 000e 0121     		movs	r1, #1
 2821 0010 B020     		movs	r0, #176
 2822              	.LVL278:
 2823 0012 FFF7FEFF 		bl	executeCommand
 2824              	.LVL279:
 489:SakuraIO/SakuraIOc.c **** }
 2825              		.loc 1 489 0
 2826 0016 05B0     		add	sp, sp, #20
 2827              		.cfi_def_cfa_offset 4
 2828              		@ sp needed
 2829 0018 5DF804FB 		ldr	pc, [sp], #4
 2830              		.cfi_endproc
 2831              	.LFE57:
 2832              		.size	setPowerSaveMode, .-setPowerSaveMode
 2833              		.section	.text.getPowerSaveMode,"ax",%progbits
 2834              		.align	2
 2835              		.global	getPowerSaveMode
 2836              		.thumb
 2837              		.thumb_func
 2838              		.type	getPowerSaveMode, %function
ARM GAS  C:\Users\cronos\AppData\Local\Temp\ccrG4qtQ.s 			page 60


 2839              	getPowerSaveMode:
 2840              	.LFB58:
 490:SakuraIO/SakuraIOc.c **** 
 491:SakuraIO/SakuraIOc.c **** uint8_t getPowerSaveMode()
 492:SakuraIO/SakuraIOc.c **** {
 2841              		.loc 1 492 0
 2842              		.cfi_startproc
 2843              		@ args = 0, pretend = 0, frame = 8
 2844              		@ frame_needed = 0, uses_anonymous_args = 0
 2845 0000 00B5     		push	{lr}
 2846              		.cfi_def_cfa_offset 4
 2847              		.cfi_offset 14, -4
 2848 0002 85B0     		sub	sp, sp, #20
 2849              		.cfi_def_cfa_offset 24
 493:SakuraIO/SakuraIOc.c ****   uint8_t response[1] = {0x00};
 2850              		.loc 1 493 0
 2851 0004 0021     		movs	r1, #0
 2852 0006 8DF80C10 		strb	r1, [sp, #12]
 494:SakuraIO/SakuraIOc.c ****   uint8_t responseLength = 1;
 2853              		.loc 1 494 0
 2854 000a 04AB     		add	r3, sp, #16
 2855 000c 0122     		movs	r2, #1
 2856 000e 03F8052D 		strb	r2, [r3, #-5]!
 495:SakuraIO/SakuraIOc.c ****   if (executeCommand(CMD_GET_POWER_SAVE_MODE, 0, NULL, &responseLength, response) != CMD_ERROR_NONE
 2857              		.loc 1 495 0
 2858 0012 03AA     		add	r2, sp, #12
 2859 0014 0092     		str	r2, [sp]
 2860 0016 0A46     		mov	r2, r1
 2861 0018 B120     		movs	r0, #177
 2862 001a FFF7FEFF 		bl	executeCommand
 2863              	.LVL280:
 2864 001e 0128     		cmp	r0, #1
 2865 0020 02D1     		bne	.L186
 496:SakuraIO/SakuraIOc.c ****     return 0xff;
 497:SakuraIO/SakuraIOc.c ****   }
 498:SakuraIO/SakuraIOc.c ****   return response[0];
 2866              		.loc 1 498 0
 2867 0022 9DF80C00 		ldrb	r0, [sp, #12]	@ zero_extendqisi2
 2868 0026 00E0     		b	.L185
 2869              	.L186:
 496:SakuraIO/SakuraIOc.c ****     return 0xff;
 2870              		.loc 1 496 0
 2871 0028 FF20     		movs	r0, #255
 2872              	.L185:
 499:SakuraIO/SakuraIOc.c **** }
 2873              		.loc 1 499 0
 2874 002a 05B0     		add	sp, sp, #20
 2875              		.cfi_def_cfa_offset 4
 2876              		@ sp needed
 2877 002c 5DF804FB 		ldr	pc, [sp], #4
 2878              		.cfi_endproc
 2879              	.LFE58:
 2880              		.size	getPowerSaveMode, .-getPowerSaveMode
 2881              		.section	.rodata
 2882              		.align	2
 2883              		.set	.LANCHOR0,. + 0
 2884              	.LC0:
ARM GAS  C:\Users\cronos\AppData\Local\Temp\ccrG4qtQ.s 			page 61


 2885 0000 53       		.byte	83
 2886 0001 6B       		.byte	107
 2887 0002 72       		.byte	114
 2888 0003 61       		.byte	97
 2889              		.section	.rodata.str1.4,"aMS",%progbits,1
 2890              		.align	2
 2891              	.LC1:
 2892 0000 434D445F 		.ascii	"CMD_ERROR_PARITY\012\000"
 2892      4552524F 
 2892      525F5041 
 2892      52495459 
 2892      0A00
 2893 0012 0000     		.space	2
 2894              	.LC2:
 2895 0014 434D445F 		.ascii	"CMD_ERROR_MISSING\012\000"
 2895      4552524F 
 2895      525F4D49 
 2895      5353494E 
 2895      470A00
 2896 0027 00       		.space	1
 2897              	.LC3:
 2898 0028 434D445F 		.ascii	"CMD_ERROR_INVALID_SYNTAX\012\000"
 2898      4552524F 
 2898      525F494E 
 2898      56414C49 
 2898      445F5359 
 2899 0042 0000     		.space	2
 2900              	.LC4:
 2901 0044 434D445F 		.ascii	"CMD_ERROR_RUNTIME\012\000"
 2901      4552524F 
 2901      525F5255 
 2901      4E54494D 
 2901      450A00
 2902 0057 00       		.space	1
 2903              	.LC5:
 2904 0058 434D445F 		.ascii	"CMD_ERROR_LOCKED\012\000"
 2904      4552524F 
 2904      525F4C4F 
 2904      434B4544 
 2904      0A00
 2905 006a 0000     		.space	2
 2906              	.LC6:
 2907 006c 434D445F 		.ascii	"CMD_ERROR_BUSY\012\000"
 2907      4552524F 
 2907      525F4255 
 2907      53590A00 
 2908              	.LC7:
 2909 007c 4572723A 		.ascii	"Err: 0x%02X \000"
 2909      20307825 
 2909      30325820 
 2909      00
 2910              		.text
 2911              	.Letext0:
 2912              		.file 2 "c:\\program files (x86)\\cypress\\psoc creator\\4.2\\psoc creator\\import\\gnu\\arm\\5.4.
 2913              		.file 3 "c:\\program files (x86)\\cypress\\psoc creator\\4.2\\psoc creator\\import\\gnu\\arm\\5.4.
 2914              		.file 4 "SakuraIO\\SakuraIOc_spi.h"
 2915              		.file 5 "./xprintf.h"
ARM GAS  C:\Users\cronos\AppData\Local\Temp\ccrG4qtQ.s 			page 62

