ARM GAS  C:\Users\cronos\AppData\Local\Temp\ccLE4NE8.s 			page 1


   1              		.syntax unified
   2              		.cpu cortex-m3
   3              		.fpu softvfp
   4              		.eabi_attribute 20, 1
   5              		.eabi_attribute 21, 1
   6              		.eabi_attribute 23, 3
   7              		.eabi_attribute 24, 1
   8              		.eabi_attribute 25, 1
   9              		.eabi_attribute 26, 1
  10              		.eabi_attribute 30, 1
  11              		.eabi_attribute 34, 1
  12              		.eabi_attribute 18, 4
  13              		.thumb
  14              		.syntax unified
  15              		.file	"SakuraIOc_spi.c"
  16              		.text
  17              	.Ltext0:
  18              		.cfi_sections	.debug_frame
  19              		.section	.text.delay,"ax",%progbits
  20              		.align	2
  21              		.global	delay
  22              		.thumb
  23              		.thumb_func
  24              		.type	delay, %function
  25              	delay:
  26              	.LFB63:
  27              		.file 1 "SakuraIO\\SakuraIOc_spi.c"
   1:SakuraIO/SakuraIOc_spi.c **** #include "SakuraIOc_spi.h"
   2:SakuraIO/SakuraIOc_spi.c **** #include "spi_interface.h"  //コンパイルできるようにするためのダミーファイル
   3:SakuraIO/SakuraIOc_spi.c **** #include "project.h"
   4:SakuraIO/SakuraIOc_spi.c **** 
   5:SakuraIO/SakuraIOc_spi.c **** #define SAKURA_CSn_IDLE()  SAKURA_CSn_Write(1)
   6:SakuraIO/SakuraIOc_spi.c **** #define SAKURA_CSn_Active()  SAKURA_CSn_Write(0)
   7:SakuraIO/SakuraIOc_spi.c **** 
   8:SakuraIO/SakuraIOc_spi.c **** inline void delay(uint32_t ms){
  28              		.loc 1 8 0
  29              		.cfi_startproc
  30              		@ args = 0, pretend = 0, frame = 0
  31              		@ frame_needed = 0, uses_anonymous_args = 0
  32              	.LVL0:
  33 0000 08B5     		push	{r3, lr}
  34              		.cfi_def_cfa_offset 8
  35              		.cfi_offset 3, -8
  36              		.cfi_offset 14, -4
   9:SakuraIO/SakuraIOc_spi.c ****     CyDelay(ms);
  37              		.loc 1 9 0
  38 0002 FFF7FEFF 		bl	CyDelay
  39              	.LVL1:
  40 0006 08BD     		pop	{r3, pc}
  41              		.cfi_endproc
  42              	.LFE63:
  43              		.size	delay, .-delay
  44              		.section	.text.SakuraIOc_hw_init,"ax",%progbits
  45              		.align	2
  46              		.global	SakuraIOc_hw_init
  47              		.thumb
  48              		.thumb_func
ARM GAS  C:\Users\cronos\AppData\Local\Temp\ccLE4NE8.s 			page 2


  49              		.type	SakuraIOc_hw_init, %function
  50              	SakuraIOc_hw_init:
  51              	.LFB64:
  10:SakuraIO/SakuraIOc_spi.c **** }
  11:SakuraIO/SakuraIOc_spi.c **** 
  12:SakuraIO/SakuraIOc_spi.c **** void SakuraIOc_hw_init(){
  52              		.loc 1 12 0
  53              		.cfi_startproc
  54              		@ args = 0, pretend = 0, frame = 0
  55              		@ frame_needed = 0, uses_anonymous_args = 0
  56 0000 08B5     		push	{r3, lr}
  57              		.cfi_def_cfa_offset 8
  58              		.cfi_offset 3, -8
  59              		.cfi_offset 14, -4
  13:SakuraIO/SakuraIOc_spi.c ****     //元関数のコンストラクタ
  14:SakuraIO/SakuraIOc_spi.c ****     //SPIの初期化をする
  15:SakuraIO/SakuraIOc_spi.c ****     SAKURA_SPIM_Init();
  60              		.loc 1 15 0
  61 0002 FFF7FEFF 		bl	SAKURA_SPIM_Init
  62              	.LVL2:
  16:SakuraIO/SakuraIOc_spi.c ****     SAKURA_SPIM_Enable();
  63              		.loc 1 16 0
  64 0006 FFF7FEFF 		bl	SAKURA_SPIM_Enable
  65              	.LVL3:
  17:SakuraIO/SakuraIOc_spi.c ****     SAKURA_SPIM_EnableInt();
  66              		.loc 1 17 0
  67 000a FFF7FEFF 		bl	SAKURA_SPIM_EnableInt
  68              	.LVL4:
  18:SakuraIO/SakuraIOc_spi.c ****     SAKURA_SPIM_Start();
  69              		.loc 1 18 0
  70 000e FFF7FEFF 		bl	SAKURA_SPIM_Start
  71              	.LVL5:
  72 0012 08BD     		pop	{r3, pc}
  73              		.cfi_endproc
  74              	.LFE64:
  75              		.size	SakuraIOc_hw_init, .-SakuraIOc_hw_init
  76              		.section	.text.SakuraIOc_hw_begin,"ax",%progbits
  77              		.align	2
  78              		.global	SakuraIOc_hw_begin
  79              		.thumb
  80              		.thumb_func
  81              		.type	SakuraIOc_hw_begin, %function
  82              	SakuraIOc_hw_begin:
  83              	.LFB65:
  19:SakuraIO/SakuraIOc_spi.c **** }
  20:SakuraIO/SakuraIOc_spi.c **** 
  21:SakuraIO/SakuraIOc_spi.c **** void SakuraIOc_hw_begin(){
  84              		.loc 1 21 0
  85              		.cfi_startproc
  86              		@ args = 0, pretend = 0, frame = 0
  87              		@ frame_needed = 0, uses_anonymous_args = 0
  88 0000 08B5     		push	{r3, lr}
  89              		.cfi_def_cfa_offset 8
  90              		.cfi_offset 3, -8
  91              		.cfi_offset 14, -4
  22:SakuraIO/SakuraIOc_spi.c ****     //SPIを転送可能状態にする関数
  23:SakuraIO/SakuraIOc_spi.c ****     //CSをアサート
ARM GAS  C:\Users\cronos\AppData\Local\Temp\ccLE4NE8.s 			page 3


  24:SakuraIO/SakuraIOc_spi.c ****     SAKURA_CSn_Active();
  92              		.loc 1 24 0
  93 0002 0020     		movs	r0, #0
  94 0004 FFF7FEFF 		bl	SAKURA_CSn_Write
  95              	.LVL6:
  96 0008 08BD     		pop	{r3, pc}
  97              		.cfi_endproc
  98              	.LFE65:
  99              		.size	SakuraIOc_hw_begin, .-SakuraIOc_hw_begin
 100 000a 00BF     		.section	.text.SakuraIOc_hw_end,"ax",%progbits
 101              		.align	2
 102              		.global	SakuraIOc_hw_end
 103              		.thumb
 104              		.thumb_func
 105              		.type	SakuraIOc_hw_end, %function
 106              	SakuraIOc_hw_end:
 107              	.LFB66:
  25:SakuraIO/SakuraIOc_spi.c **** }
  26:SakuraIO/SakuraIOc_spi.c **** 
  27:SakuraIO/SakuraIOc_spi.c **** void SakuraIOc_hw_end(){
 108              		.loc 1 27 0
 109              		.cfi_startproc
 110              		@ args = 0, pretend = 0, frame = 0
 111              		@ frame_needed = 0, uses_anonymous_args = 0
 112 0000 08B5     		push	{r3, lr}
 113              		.cfi_def_cfa_offset 8
 114              		.cfi_offset 3, -8
 115              		.cfi_offset 14, -4
  28:SakuraIO/SakuraIOc_spi.c ****     //SPIを転送終了状態にする関数
  29:SakuraIO/SakuraIOc_spi.c ****     //CSをネゲート
  30:SakuraIO/SakuraIOc_spi.c ****     //元関数では最後に20us待ってる
  31:SakuraIO/SakuraIOc_spi.c ****     SAKURA_CSn_IDLE();
 116              		.loc 1 31 0
 117 0002 0120     		movs	r0, #1
 118 0004 FFF7FEFF 		bl	SAKURA_CSn_Write
 119              	.LVL7:
  32:SakuraIO/SakuraIOc_spi.c ****     CyDelayUs(20);
 120              		.loc 1 32 0
 121 0008 1420     		movs	r0, #20
 122 000a FFF7FEFF 		bl	CyDelayUs
 123              	.LVL8:
 124 000e 08BD     		pop	{r3, pc}
 125              		.cfi_endproc
 126              	.LFE66:
 127              		.size	SakuraIOc_hw_end, .-SakuraIOc_hw_end
 128              		.section	.text.SakuraIOc_hw_sendByte,"ax",%progbits
 129              		.align	2
 130              		.global	SakuraIOc_hw_sendByte
 131              		.thumb
 132              		.thumb_func
 133              		.type	SakuraIOc_hw_sendByte, %function
 134              	SakuraIOc_hw_sendByte:
 135              	.LFB67:
  33:SakuraIO/SakuraIOc_spi.c **** }
  34:SakuraIO/SakuraIOc_spi.c **** 
  35:SakuraIO/SakuraIOc_spi.c **** void SakuraIOc_hw_sendByte(uint8_t data){
 136              		.loc 1 35 0
ARM GAS  C:\Users\cronos\AppData\Local\Temp\ccLE4NE8.s 			page 4


 137              		.cfi_startproc
 138              		@ args = 0, pretend = 0, frame = 0
 139              		@ frame_needed = 0, uses_anonymous_args = 0
 140              	.LVL9:
 141 0000 10B5     		push	{r4, lr}
 142              		.cfi_def_cfa_offset 8
 143              		.cfi_offset 4, -8
 144              		.cfi_offset 14, -4
 145 0002 0446     		mov	r4, r0
  36:SakuraIO/SakuraIOc_spi.c ****     //SPIで1byte送る関数
  37:SakuraIO/SakuraIOc_spi.c ****     //元関数では送る前に20us待ってる
  38:SakuraIO/SakuraIOc_spi.c ****     CyDelayUs(20);
 146              		.loc 1 38 0
 147 0004 1420     		movs	r0, #20
 148              	.LVL10:
 149 0006 FFF7FEFF 		bl	CyDelayUs
 150              	.LVL11:
  39:SakuraIO/SakuraIOc_spi.c ****     SAKURA_SPIM_WriteTxData(data);
 151              		.loc 1 39 0
 152 000a 2046     		mov	r0, r4
 153 000c FFF7FEFF 		bl	SAKURA_SPIM_WriteTxData
 154              	.LVL12:
 155              	.L10:
  40:SakuraIO/SakuraIOc_spi.c **** 	while(!(SAKURA_SPIM_ReadTxStatus() & SAKURA_SPIM_STS_SPI_DONE)){};
 156              		.loc 1 40 0 discriminator 1
 157 0010 FFF7FEFF 		bl	SAKURA_SPIM_ReadTxStatus
 158              	.LVL13:
 159 0014 10F0010F 		tst	r0, #1
 160 0018 FAD0     		beq	.L10
  41:SakuraIO/SakuraIOc_spi.c **** }
 161              		.loc 1 41 0
 162 001a 10BD     		pop	{r4, pc}
 163              		.cfi_endproc
 164              	.LFE67:
 165              		.size	SakuraIOc_hw_sendByte, .-SakuraIOc_hw_sendByte
 166              		.section	.text.SakuraIOc_hw_startReceive,"ax",%progbits
 167              		.align	2
 168              		.global	SakuraIOc_hw_startReceive
 169              		.thumb
 170              		.thumb_func
 171              		.type	SakuraIOc_hw_startReceive, %function
 172              	SakuraIOc_hw_startReceive:
 173              	.LFB68:
  42:SakuraIO/SakuraIOc_spi.c **** 
  43:SakuraIO/SakuraIOc_spi.c **** uint8_t SakuraIOc_hw_startReceive(uint8_t length){
 174              		.loc 1 43 0
 175              		.cfi_startproc
 176              		@ args = 0, pretend = 0, frame = 0
 177              		@ frame_needed = 0, uses_anonymous_args = 0
 178              		@ link register save eliminated.
 179              	.LVL14:
  44:SakuraIO/SakuraIOc_spi.c ****     //I2C用の関数なのでSPIはダミー動作させる
  45:SakuraIO/SakuraIOc_spi.c ****     return length;
  46:SakuraIO/SakuraIOc_spi.c **** }
 180              		.loc 1 46 0
 181 0000 7047     		bx	lr
 182              		.cfi_endproc
ARM GAS  C:\Users\cronos\AppData\Local\Temp\ccLE4NE8.s 			page 5


 183              	.LFE68:
 184              		.size	SakuraIOc_hw_startReceive, .-SakuraIOc_hw_startReceive
 185 0002 00BF     		.section	.text.SakuraIOc_hw_receiveByte,"ax",%progbits
 186              		.align	2
 187              		.global	SakuraIOc_hw_receiveByte
 188              		.thumb
 189              		.thumb_func
 190              		.type	SakuraIOc_hw_receiveByte, %function
 191              	SakuraIOc_hw_receiveByte:
 192              	.LFB69:
  47:SakuraIO/SakuraIOc_spi.c **** 
  48:SakuraIO/SakuraIOc_spi.c **** uint8_t SakuraIOc_hw_receiveByte(){
 193              		.loc 1 48 0
 194              		.cfi_startproc
 195              		@ args = 0, pretend = 0, frame = 0
 196              		@ frame_needed = 0, uses_anonymous_args = 0
 197 0000 08B5     		push	{r3, lr}
 198              		.cfi_def_cfa_offset 8
 199              		.cfi_offset 3, -8
 200              		.cfi_offset 14, -4
  49:SakuraIO/SakuraIOc_spi.c ****     //SPIから1byte読む関数
  50:SakuraIO/SakuraIOc_spi.c ****     //元の関数では読む前に20us待ってる
  51:SakuraIO/SakuraIOc_spi.c ****     //送信ダミーデータは0x00にしてある
  52:SakuraIO/SakuraIOc_spi.c **** 	SAKURA_SPIM_WriteTxData(0x00);
 201              		.loc 1 52 0
 202 0002 0020     		movs	r0, #0
 203 0004 FFF7FEFF 		bl	SAKURA_SPIM_WriteTxData
 204              	.LVL15:
 205              	.L14:
  53:SakuraIO/SakuraIOc_spi.c **** 	while(!(SAKURA_SPIM_ReadTxStatus() & SAKURA_SPIM_STS_SPI_DONE)){};
 206              		.loc 1 53 0 discriminator 1
 207 0008 FFF7FEFF 		bl	SAKURA_SPIM_ReadTxStatus
 208              	.LVL16:
 209 000c 10F0010F 		tst	r0, #1
 210 0010 FAD0     		beq	.L14
  54:SakuraIO/SakuraIOc_spi.c **** 
  55:SakuraIO/SakuraIOc_spi.c ****     return SAKURA_SPIM_ReadRxData();
 211              		.loc 1 55 0
 212 0012 FFF7FEFF 		bl	SAKURA_SPIM_ReadRxData
 213              	.LVL17:
  56:SakuraIO/SakuraIOc_spi.c **** }
 214              		.loc 1 56 0
 215 0016 08BD     		pop	{r3, pc}
 216              		.cfi_endproc
 217              	.LFE69:
 218              		.size	SakuraIOc_hw_receiveByte, .-SakuraIOc_hw_receiveByte
 219              		.section	.text.SakuraIOc_hw_receiveByte2,"ax",%progbits
 220              		.align	2
 221              		.global	SakuraIOc_hw_receiveByte2
 222              		.thumb
 223              		.thumb_func
 224              		.type	SakuraIOc_hw_receiveByte2, %function
 225              	SakuraIOc_hw_receiveByte2:
 226              	.LFB70:
  57:SakuraIO/SakuraIOc_spi.c **** 
  58:SakuraIO/SakuraIOc_spi.c **** uint8_t SakuraIOc_hw_receiveByte2(bool stop){
 227              		.loc 1 58 0
ARM GAS  C:\Users\cronos\AppData\Local\Temp\ccLE4NE8.s 			page 6


 228              		.cfi_startproc
 229              		@ args = 0, pretend = 0, frame = 0
 230              		@ frame_needed = 0, uses_anonymous_args = 0
 231              		@ link register save eliminated.
 232              	.LVL18:
  59:SakuraIO/SakuraIOc_spi.c ****     //元の関数ではstopが使われてない．
  60:SakuraIO/SakuraIOc_spi.c ****     return 0;
  61:SakuraIO/SakuraIOc_spi.c **** }
 233              		.loc 1 61 0
 234 0000 0020     		movs	r0, #0
 235              	.LVL19:
 236 0002 7047     		bx	lr
 237              		.cfi_endproc
 238              	.LFE70:
 239              		.size	SakuraIOc_hw_receiveByte2, .-SakuraIOc_hw_receiveByte2
 240              		.text
 241              	.Letext0:
 242              		.file 2 "c:\\program files (x86)\\cypress\\psoc creator\\4.2\\psoc creator\\import\\gnu\\arm\\5.4.
 243              		.file 3 "c:\\program files (x86)\\cypress\\psoc creator\\4.2\\psoc creator\\import\\gnu\\arm\\5.4.
 244              		.file 4 "Generated_Source\\PSoC5/cytypes.h"
 245              		.file 5 "Generated_Source\\PSoC5/CyLib.h"
 246              		.file 6 "Generated_Source\\PSoC5/SAKURA_SPIM.h"
 247              		.file 7 "Generated_Source\\PSoC5/SAKURA_CSn.h"
 248              		.file 8 "Generated_Source\\PSoC5/core_cm3.h"