ARM GAS  C:\Users\cronos\AppData\Local\Temp\ccqH5Z7B.s 			page 1


   1              		.syntax unified
   2              		.cpu cortex-m3
   3              		.fpu softvfp
   4              		.eabi_attribute 20, 1
   5              		.eabi_attribute 21, 1
   6              		.eabi_attribute 23, 3
   7              		.eabi_attribute 24, 1
   8              		.eabi_attribute 25, 1
   9              		.eabi_attribute 26, 1
  10              		.eabi_attribute 30, 1
  11              		.eabi_attribute 34, 1
  12              		.eabi_attribute 18, 4
  13              		.thumb
  14              		.syntax unified
  15              		.file	"xprintf.c"
  16              		.text
  17              	.Ltext0:
  18              		.cfi_sections	.debug_frame
  19              		.section	.text.xputc,"ax",%progbits
  20              		.align	2
  21              		.global	xputc
  22              		.thumb
  23              		.thumb_func
  24              		.type	xputc, %function
  25              	xputc:
  26              	.LFB0:
  27              		.file 1 "xprintf.c"
   1:xprintf.c     **** /*------------------------------------------------------------------------/
   2:xprintf.c     **** /  Universal string handler for user console interface
   3:xprintf.c     **** /-------------------------------------------------------------------------/
   4:xprintf.c     **** /
   5:xprintf.c     **** /  Copyright (C) 2011, ChaN, all right reserved.
   6:xprintf.c     **** /
   7:xprintf.c     **** / * This software is a free software and there is NO WARRANTY.
   8:xprintf.c     **** / * No restriction on use. You can use, modify and redistribute it for
   9:xprintf.c     **** /   personal, non-profit or commercial products UNDER YOUR RESPONSIBILITY.
  10:xprintf.c     **** / * Redistributions of source code must retain the above copyright notice.
  11:xprintf.c     **** /
  12:xprintf.c     **** /-------------------------------------------------------------------------*/
  13:xprintf.c     **** 
  14:xprintf.c     **** #include "xprintf.h"
  15:xprintf.c     **** 
  16:xprintf.c     **** 
  17:xprintf.c     **** #if _USE_XFUNC_OUT
  18:xprintf.c     **** #include <stdarg.h>
  19:xprintf.c     **** void (*xfunc_out)(unsigned char);	/* Pointer to the output stream */
  20:xprintf.c     **** static char *outptr;
  21:xprintf.c     **** 
  22:xprintf.c     **** /*----------------------------------------------*/
  23:xprintf.c     **** /* Put a character                              */
  24:xprintf.c     **** /*----------------------------------------------*/
  25:xprintf.c     **** 
  26:xprintf.c     **** void xputc (char c)
  27:xprintf.c     **** {
  28              		.loc 1 27 0
  29              		.cfi_startproc
  30              		@ args = 0, pretend = 0, frame = 0
ARM GAS  C:\Users\cronos\AppData\Local\Temp\ccqH5Z7B.s 			page 2


  31              		@ frame_needed = 0, uses_anonymous_args = 0
  32              	.LVL0:
  33 0000 10B5     		push	{r4, lr}
  34              		.cfi_def_cfa_offset 8
  35              		.cfi_offset 4, -8
  36              		.cfi_offset 14, -4
  37 0002 0446     		mov	r4, r0
  28:xprintf.c     **** 	if (_CR_CRLF && c == '\n') xputc('\r');		/* CR -> CRLF */
  38              		.loc 1 28 0
  39 0004 0A28     		cmp	r0, #10
  40 0006 02D1     		bne	.L2
  41              		.loc 1 28 0 is_stmt 0 discriminator 1
  42 0008 0D20     		movs	r0, #13
  43              	.LVL1:
  44 000a FFF7FEFF 		bl	xputc
  45              	.LVL2:
  46              	.L2:
  29:xprintf.c     **** 
  30:xprintf.c     **** 	if (outptr) {
  47              		.loc 1 30 0 is_stmt 1
  48 000e 074B     		ldr	r3, .L6
  49 0010 1B68     		ldr	r3, [r3]
  50 0012 23B1     		cbz	r3, .L3
  31:xprintf.c     **** 		*outptr++ = (unsigned char)c;
  51              		.loc 1 31 0
  52 0014 591C     		adds	r1, r3, #1
  53 0016 054A     		ldr	r2, .L6
  54 0018 1160     		str	r1, [r2]
  55 001a 1C70     		strb	r4, [r3]
  32:xprintf.c     **** 		return;
  56              		.loc 1 32 0
  57 001c 10BD     		pop	{r4, pc}
  58              	.L3:
  33:xprintf.c     **** 	}
  34:xprintf.c     **** 
  35:xprintf.c     **** 	if (xfunc_out) xfunc_out((unsigned char)c);
  59              		.loc 1 35 0
  60 001e 044B     		ldr	r3, .L6+4
  61 0020 1B68     		ldr	r3, [r3]
  62 0022 0BB1     		cbz	r3, .L1
  63              		.loc 1 35 0 is_stmt 0 discriminator 1
  64 0024 2046     		mov	r0, r4
  65 0026 9847     		blx	r3
  66              	.LVL3:
  67              	.L1:
  68 0028 10BD     		pop	{r4, pc}
  69              	.L7:
  70 002a 00BF     		.align	2
  71              	.L6:
  72 002c 00000000 		.word	.LANCHOR0
  73 0030 00000000 		.word	xfunc_out
  74              		.cfi_endproc
  75              	.LFE0:
  76              		.size	xputc, .-xputc
  77              		.section	.text.xputs,"ax",%progbits
  78              		.align	2
  79              		.global	xputs
ARM GAS  C:\Users\cronos\AppData\Local\Temp\ccqH5Z7B.s 			page 3


  80              		.thumb
  81              		.thumb_func
  82              		.type	xputs, %function
  83              	xputs:
  84              	.LFB1:
  36:xprintf.c     **** }
  37:xprintf.c     **** 
  38:xprintf.c     **** 
  39:xprintf.c     **** 
  40:xprintf.c     **** /*----------------------------------------------*/
  41:xprintf.c     **** /* Put a null-terminated string                 */
  42:xprintf.c     **** /*----------------------------------------------*/
  43:xprintf.c     **** 
  44:xprintf.c     **** void xputs (					/* Put a string to the default device */
  45:xprintf.c     **** 	const char* str				/* Pointer to the string */
  46:xprintf.c     **** )
  47:xprintf.c     **** {
  85              		.loc 1 47 0 is_stmt 1
  86              		.cfi_startproc
  87              		@ args = 0, pretend = 0, frame = 0
  88              		@ frame_needed = 0, uses_anonymous_args = 0
  89              	.LVL4:
  90 0000 10B5     		push	{r4, lr}
  91              		.cfi_def_cfa_offset 8
  92              		.cfi_offset 4, -8
  93              		.cfi_offset 14, -4
  94 0002 0446     		mov	r4, r0
  48:xprintf.c     **** 	while (*str)
  95              		.loc 1 48 0
  96 0004 02E0     		b	.L9
  97              	.LVL5:
  98              	.L10:
  49:xprintf.c     **** 		xputc(*str++);
  99              		.loc 1 49 0
 100 0006 0134     		adds	r4, r4, #1
 101              	.LVL6:
 102 0008 FFF7FEFF 		bl	xputc
 103              	.LVL7:
 104              	.L9:
  48:xprintf.c     **** 	while (*str)
 105              		.loc 1 48 0
 106 000c 2078     		ldrb	r0, [r4]	@ zero_extendqisi2
 107 000e 0028     		cmp	r0, #0
 108 0010 F9D1     		bne	.L10
  50:xprintf.c     **** }
 109              		.loc 1 50 0
 110 0012 10BD     		pop	{r4, pc}
 111              		.cfi_endproc
 112              	.LFE1:
 113              		.size	xputs, .-xputs
 114              		.section	.text.xvprintf,"ax",%progbits
 115              		.align	2
 116              		.thumb
 117              		.thumb_func
 118              		.type	xvprintf, %function
 119              	xvprintf:
 120              	.LFB3:
ARM GAS  C:\Users\cronos\AppData\Local\Temp\ccqH5Z7B.s 			page 4


  51:xprintf.c     **** 
  52:xprintf.c     **** 
  53:xprintf.c     **** void xfputs (					/* Put a string to the specified device */
  54:xprintf.c     **** 	void(*func)(unsigned char),	/* Pointer to the output function */
  55:xprintf.c     **** 	const char*	str				/* Pointer to the string */
  56:xprintf.c     **** )
  57:xprintf.c     **** {
  58:xprintf.c     **** 	void (*pf)(unsigned char);
  59:xprintf.c     **** 
  60:xprintf.c     **** 
  61:xprintf.c     **** 	pf = xfunc_out;		/* Save current output device */
  62:xprintf.c     **** 	xfunc_out = func;	/* Switch output to specified device */
  63:xprintf.c     **** 	while (*str)		/* Put the string */
  64:xprintf.c     **** 		xputc(*str++);
  65:xprintf.c     **** 	xfunc_out = pf;		/* Restore output device */
  66:xprintf.c     **** }
  67:xprintf.c     **** 
  68:xprintf.c     **** 
  69:xprintf.c     **** 
  70:xprintf.c     **** /*----------------------------------------------*/
  71:xprintf.c     **** /* Formatted string output                      */
  72:xprintf.c     **** /*----------------------------------------------*/
  73:xprintf.c     **** /*  xprintf("%d", 1234);			"1234"
  74:xprintf.c     ****     xprintf("%6d,%3d%%", -200, 5);	"  -200,  5%"
  75:xprintf.c     ****     xprintf("%-6u", 100);			"100   "
  76:xprintf.c     ****     xprintf("%ld", 12345678L);		"12345678"
  77:xprintf.c     ****     xprintf("%04x", 0xA3);			"00a3"
  78:xprintf.c     ****     xprintf("%08LX", 0x123ABC);		"00123ABC"
  79:xprintf.c     ****     xprintf("%016b", 0x550F);		"0101010100001111"
  80:xprintf.c     ****     xprintf("%s", "String");		"String"
  81:xprintf.c     ****     xprintf("%-4s", "abc");			"abc "
  82:xprintf.c     ****     xprintf("%4s", "abc");			" abc"
  83:xprintf.c     ****     xprintf("%c", 'a');				"a"
  84:xprintf.c     ****     xprintf("%f", 10.0);            <xprintf lacks floating point support>
  85:xprintf.c     **** */
  86:xprintf.c     **** 
  87:xprintf.c     **** static
  88:xprintf.c     **** void xvprintf (
  89:xprintf.c     **** 	const char*	fmt,	/* Pointer to the format string */
  90:xprintf.c     **** 	va_list arp			/* Pointer to arguments */
  91:xprintf.c     **** )
  92:xprintf.c     **** {
 121              		.loc 1 92 0
 122              		.cfi_startproc
 123              		@ args = 0, pretend = 0, frame = 16
 124              		@ frame_needed = 0, uses_anonymous_args = 0
 125              	.LVL8:
 126 0000 2DE9F04F 		push	{r4, r5, r6, r7, r8, r9, r10, fp, lr}
 127              		.cfi_def_cfa_offset 36
 128              		.cfi_offset 4, -36
 129              		.cfi_offset 5, -32
 130              		.cfi_offset 6, -28
 131              		.cfi_offset 7, -24
 132              		.cfi_offset 8, -20
 133              		.cfi_offset 9, -16
 134              		.cfi_offset 10, -12
 135              		.cfi_offset 11, -8
ARM GAS  C:\Users\cronos\AppData\Local\Temp\ccqH5Z7B.s 			page 5


 136              		.cfi_offset 14, -4
 137 0004 85B0     		sub	sp, sp, #20
 138              		.cfi_def_cfa_offset 56
 139 0006 0646     		mov	r6, r0
 140 0008 8846     		mov	r8, r1
 141              	.LVL9:
 142              	.L13:
  93:xprintf.c     **** 	unsigned int r, i, j, w, f;
  94:xprintf.c     **** 	unsigned long v;
  95:xprintf.c     **** 	char s[16], c, d, *p;
  96:xprintf.c     **** 
  97:xprintf.c     **** 
  98:xprintf.c     **** 	for (;;) {
  99:xprintf.c     **** 		c = *fmt++;					/* Get a char */
 143              		.loc 1 99 0
 144 000a 741C     		adds	r4, r6, #1
 145              	.LVL10:
 146 000c 3078     		ldrb	r0, [r6]	@ zero_extendqisi2
 147              	.LVL11:
 100:xprintf.c     **** 		if (!c) break;				/* End of format? */
 148              		.loc 1 100 0
 149 000e 0028     		cmp	r0, #0
 150 0010 00F0ED80 		beq	.L12
 101:xprintf.c     **** 		if (c != '%') {				/* Pass through it if not a % sequense */
 151              		.loc 1 101 0
 152 0014 2528     		cmp	r0, #37
 153 0016 03D0     		beq	.L15
 102:xprintf.c     **** 			xputc(c); continue;
 154              		.loc 1 102 0
 155 0018 FFF7FEFF 		bl	xputc
 156              	.LVL12:
  99:xprintf.c     **** 		if (!c) break;				/* End of format? */
 157              		.loc 1 99 0
 158 001c 2646     		mov	r6, r4
 159              		.loc 1 102 0
 160 001e F4E7     		b	.L13
 161              	.LVL13:
 162              	.L15:
 103:xprintf.c     **** 		}
 104:xprintf.c     **** 		f = 0;
 105:xprintf.c     **** 		c = *fmt++;					/* Get first char of the sequense */
 163              		.loc 1 105 0
 164 0020 B31C     		adds	r3, r6, #2
 165              	.LVL14:
 166 0022 7078     		ldrb	r0, [r6, #1]	@ zero_extendqisi2
 167              	.LVL15:
 106:xprintf.c     **** 		if (c == '0') {				/* Flag: '0' padded */
 168              		.loc 1 106 0
 169 0024 3028     		cmp	r0, #48
 170 0026 03D1     		bne	.L17
 171              	.LVL16:
 107:xprintf.c     **** 			f = 1; c = *fmt++;
 172              		.loc 1 107 0
 173 0028 F31C     		adds	r3, r6, #3
 174              	.LVL17:
 175 002a B078     		ldrb	r0, [r6, #2]	@ zero_extendqisi2
 176              	.LVL18:
ARM GAS  C:\Users\cronos\AppData\Local\Temp\ccqH5Z7B.s 			page 6


 177 002c 0127     		movs	r7, #1
 178 002e 06E0     		b	.L18
 179              	.LVL19:
 180              	.L17:
 108:xprintf.c     **** 		} else {
 109:xprintf.c     **** 			if (c == '-') {			/* Flag: left justified */
 181              		.loc 1 109 0
 182 0030 2D28     		cmp	r0, #45
 183 0032 03D1     		bne	.L55
 184              	.LVL20:
 110:xprintf.c     **** 				f = 2; c = *fmt++;
 185              		.loc 1 110 0
 186 0034 F31C     		adds	r3, r6, #3
 187              	.LVL21:
 188 0036 B078     		ldrb	r0, [r6, #2]	@ zero_extendqisi2
 189              	.LVL22:
 190 0038 0227     		movs	r7, #2
 191 003a 00E0     		b	.L18
 192              	.LVL23:
 193              	.L55:
 104:xprintf.c     **** 		c = *fmt++;					/* Get first char of the sequense */
 194              		.loc 1 104 0
 195 003c 0027     		movs	r7, #0
 196              	.LVL24:
 197              	.L18:
 111:xprintf.c     **** 			}
 112:xprintf.c     **** 		}
 113:xprintf.c     **** 		for (w = 0; c >= '0' && c <= '9'; c = *fmt++)	/* Minimum width */
 198              		.loc 1 113 0
 199 003e 1E46     		mov	r6, r3
 200 0040 0024     		movs	r4, #0
 201 0042 06E0     		b	.L19
 202              	.LVL25:
 203              	.L20:
 114:xprintf.c     **** 			w = w * 10 + c - '0';
 204              		.loc 1 114 0 discriminator 3
 205 0044 04EB8404 		add	r4, r4, r4, lsl #2
 206              	.LVL26:
 207 0048 6300     		lsls	r3, r4, #1
 208 004a C418     		adds	r4, r0, r3
 209 004c 303C     		subs	r4, r4, #48
 210              	.LVL27:
 113:xprintf.c     **** 			w = w * 10 + c - '0';
 211              		.loc 1 113 0 discriminator 3
 212 004e 3078     		ldrb	r0, [r6]	@ zero_extendqisi2
 213              	.LVL28:
 214 0050 0136     		adds	r6, r6, #1
 215              	.LVL29:
 216              	.L19:
 113:xprintf.c     **** 			w = w * 10 + c - '0';
 217              		.loc 1 113 0 is_stmt 0 discriminator 1
 218 0052 A0F13002 		sub	r2, r0, #48
 219 0056 D2B2     		uxtb	r2, r2
 220 0058 092A     		cmp	r2, #9
 221 005a F3D9     		bls	.L20
 115:xprintf.c     **** 		if (c == 'l' || c == 'L') {	/* Prefix: Size is long int */
 222              		.loc 1 115 0 is_stmt 1
ARM GAS  C:\Users\cronos\AppData\Local\Temp\ccqH5Z7B.s 			page 7


 223 005c 6C28     		cmp	r0, #108
 224 005e 01D0     		beq	.L21
 225              		.loc 1 115 0 is_stmt 0 discriminator 1
 226 0060 4C28     		cmp	r0, #76
 227 0062 03D1     		bne	.L22
 228              	.L21:
 116:xprintf.c     **** 			f |= 4; c = *fmt++;
 229              		.loc 1 116 0 is_stmt 1
 230 0064 47F00407 		orr	r7, r7, #4
 231              	.LVL30:
 232 0068 3078     		ldrb	r0, [r6]	@ zero_extendqisi2
 233              	.LVL31:
 234 006a 0136     		adds	r6, r6, #1
 235              	.LVL32:
 236              	.L22:
 117:xprintf.c     **** 		}
 118:xprintf.c     **** 		if (!c) break;				/* End of format? */
 237              		.loc 1 118 0
 238 006c 0028     		cmp	r0, #0
 239 006e 00F0BE80 		beq	.L12
 240              	.LVL33:
 119:xprintf.c     **** 		d = c;
 120:xprintf.c     **** 		if (d >= 'a') d -= 0x20;
 241              		.loc 1 120 0
 242 0072 6028     		cmp	r0, #96
 243 0074 03D9     		bls	.L56
 244              		.loc 1 120 0 is_stmt 0 discriminator 1
 245 0076 A0F12003 		sub	r3, r0, #32
 246 007a DBB2     		uxtb	r3, r3
 247              	.LVL34:
 248 007c 00E0     		b	.L23
 249              	.LVL35:
 250              	.L56:
 119:xprintf.c     **** 		d = c;
 251              		.loc 1 119 0 is_stmt 1
 252 007e 0346     		mov	r3, r0
 253              	.LVL36:
 254              	.L23:
 121:xprintf.c     **** 		switch (d) {				/* Type is... */
 255              		.loc 1 121 0
 256 0080 A3F14202 		sub	r2, r3, #66
 257 0084 162A     		cmp	r2, #22
 258 0086 3ED8     		bhi	.L24
 259 0088 DFE802F0 		tbb	[pc, r2]
 260              	.LVL37:
 261              	.L26:
 262 008c 40       		.byte	(.L25-.L26)/2
 263 008d 30       		.byte	(.L27-.L26)/2
 264 008e 37       		.byte	(.L28-.L26)/2
 265 008f 3D       		.byte	(.L24-.L26)/2
 266 0090 3D       		.byte	(.L24-.L26)/2
 267 0091 3D       		.byte	(.L24-.L26)/2
 268 0092 3D       		.byte	(.L24-.L26)/2
 269 0093 3D       		.byte	(.L24-.L26)/2
 270 0094 3D       		.byte	(.L24-.L26)/2
 271 0095 3D       		.byte	(.L24-.L26)/2
 272 0096 3D       		.byte	(.L24-.L26)/2
ARM GAS  C:\Users\cronos\AppData\Local\Temp\ccqH5Z7B.s 			page 8


 273 0097 3D       		.byte	(.L24-.L26)/2
 274 0098 3D       		.byte	(.L24-.L26)/2
 275 0099 43       		.byte	(.L57-.L26)/2
 276 009a 3D       		.byte	(.L24-.L26)/2
 277 009b 3D       		.byte	(.L24-.L26)/2
 278 009c 3D       		.byte	(.L24-.L26)/2
 279 009d 0C       		.byte	(.L30-.L26)/2
 280 009e 3D       		.byte	(.L24-.L26)/2
 281 009f 37       		.byte	(.L28-.L26)/2
 282 00a0 3D       		.byte	(.L24-.L26)/2
 283 00a1 3D       		.byte	(.L24-.L26)/2
 284 00a2 3A       		.byte	(.L31-.L26)/2
 285 00a3 00       		.p2align 1
 286              	.L30:
 122:xprintf.c     **** 		case 'S' :					/* String */
 123:xprintf.c     **** 			p = va_arg(arp, char*);
 287              		.loc 1 123 0
 288 00a4 D8F800A0 		ldr	r10, [r8]
 289              	.LVL38:
 290 00a8 08F10408 		add	r8, r8, #4
 291              	.LVL39:
 124:xprintf.c     **** 			for (j = 0; p[j]; j++) ;
 292              		.loc 1 124 0
 293 00ac 0025     		movs	r5, #0
 294 00ae 00E0     		b	.L32
 295              	.LVL40:
 296              	.L33:
 297              		.loc 1 124 0 is_stmt 0 discriminator 3
 298 00b0 0135     		adds	r5, r5, #1
 299              	.LVL41:
 300              	.L32:
 301              		.loc 1 124 0 discriminator 1
 302 00b2 1AF80530 		ldrb	r3, [r10, r5]	@ zero_extendqisi2
 303 00b6 002B     		cmp	r3, #0
 304 00b8 FAD1     		bne	.L33
 305 00ba 03E0     		b	.L34
 306              	.LVL42:
 307              	.L36:
 125:xprintf.c     **** 			while (!(f & 2) && j++ < w) xputc(' ');
 308              		.loc 1 125 0 is_stmt 1 discriminator 3
 309 00bc 2020     		movs	r0, #32
 310 00be FFF7FEFF 		bl	xputc
 311              	.LVL43:
 312 00c2 4D46     		mov	r5, r9
 313              	.LVL44:
 314              	.L34:
 315              		.loc 1 125 0 is_stmt 0 discriminator 1
 316 00c4 17F0020F 		tst	r7, #2
 317 00c8 04D1     		bne	.L35
 318              		.loc 1 125 0 discriminator 2
 319 00ca 05F10109 		add	r9, r5, #1
 320              	.LVL45:
 321 00ce A542     		cmp	r5, r4
 322 00d0 F4D3     		bcc	.L36
 323              		.loc 1 125 0
 324 00d2 4D46     		mov	r5, r9
 325              	.LVL46:
ARM GAS  C:\Users\cronos\AppData\Local\Temp\ccqH5Z7B.s 			page 9


 326              	.L35:
 126:xprintf.c     **** 			xputs(p);
 327              		.loc 1 126 0 is_stmt 1
 328 00d4 5046     		mov	r0, r10
 329 00d6 FFF7FEFF 		bl	xputs
 330              	.LVL47:
 127:xprintf.c     **** 			while (j++ < w) xputc(' ');
 331              		.loc 1 127 0
 332 00da 03E0     		b	.L37
 333              	.LVL48:
 334              	.L38:
 335              		.loc 1 127 0 is_stmt 0 discriminator 2
 336 00dc 2020     		movs	r0, #32
 337 00de FFF7FEFF 		bl	xputc
 338              	.LVL49:
 339 00e2 3D46     		mov	r5, r7
 340              	.LVL50:
 341              	.L37:
 342              		.loc 1 127 0 discriminator 1
 343 00e4 6F1C     		adds	r7, r5, #1
 344              	.LVL51:
 345 00e6 A542     		cmp	r5, r4
 346 00e8 F8D3     		bcc	.L38
 347 00ea 8EE7     		b	.L13
 348              	.LVL52:
 349              	.L27:
 128:xprintf.c     **** 			continue;
 129:xprintf.c     **** 		case 'C' :					/* Character */
 130:xprintf.c     **** 			xputc((char)va_arg(arp, int)); continue;
 350              		.loc 1 130 0 is_stmt 1
 351 00ec 98F80000 		ldrb	r0, [r8]	@ zero_extendqisi2
 352              	.LVL53:
 353 00f0 08F10408 		add	r8, r8, #4
 354              	.LVL54:
 355 00f4 FFF7FEFF 		bl	xputc
 356              	.LVL55:
 357 00f8 87E7     		b	.L13
 358              	.LVL56:
 359              	.L28:
 131:xprintf.c     **** 		case 'B' :					/* Binary */
 132:xprintf.c     **** 			r = 2; break;
 133:xprintf.c     **** 		case 'O' :					/* Octal */
 134:xprintf.c     **** 			r = 8; break;
 135:xprintf.c     **** 		case 'D' :					/* Signed decimal */
 136:xprintf.c     **** 		case 'U' :					/* Unsigned decimal */
 137:xprintf.c     **** 			r = 10; break;
 360              		.loc 1 137 0
 361 00fa 4FF00A0C 		mov	ip, #10
 362 00fe 0AE0     		b	.L29
 363              	.LVL57:
 364              	.L31:
 138:xprintf.c     **** 		case 'X' :					/* Hexdecimal */
 139:xprintf.c     **** 			r = 16; break;
 365              		.loc 1 139 0
 366 0100 4FF0100C 		mov	ip, #16
 367 0104 07E0     		b	.L29
 368              	.LVL58:
ARM GAS  C:\Users\cronos\AppData\Local\Temp\ccqH5Z7B.s 			page 10


 369              	.L24:
 140:xprintf.c     **** 		default:					/* Unknown type (passthrough) */
 141:xprintf.c     **** 			xputc(c); continue;
 370              		.loc 1 141 0
 371 0106 FFF7FEFF 		bl	xputc
 372              	.LVL59:
 373 010a 7EE7     		b	.L13
 374              	.LVL60:
 375              	.L25:
 132:xprintf.c     **** 		case 'O' :					/* Octal */
 376              		.loc 1 132 0
 377 010c 4FF0020C 		mov	ip, #2
 378 0110 01E0     		b	.L29
 379              	.L57:
 134:xprintf.c     **** 		case 'D' :					/* Signed decimal */
 380              		.loc 1 134 0
 381 0112 4FF0080C 		mov	ip, #8
 382              	.L29:
 383              	.LVL61:
 142:xprintf.c     **** 		}
 143:xprintf.c     **** 
 144:xprintf.c     **** 		/* Get an argument and put it in numeral */
 145:xprintf.c     **** 		v = (f & 4) ? va_arg(arp, long) : ((d == 'D') ? (long)va_arg(arp, int) : (long)va_arg(arp, unsign
 384              		.loc 1 145 0
 385 0116 17F0040F 		tst	r7, #4
 386 011a 04D0     		beq	.L39
 387              		.loc 1 145 0 is_stmt 0 discriminator 1
 388 011c D8F80090 		ldr	r9, [r8]
 389              	.LVL62:
 390 0120 08F10408 		add	r8, r8, #4
 391              	.LVL63:
 392 0124 0AE0     		b	.L40
 393              	.L39:
 394              		.loc 1 145 0 discriminator 2
 395 0126 442B     		cmp	r3, #68
 396 0128 04D1     		bne	.L41
 397              		.loc 1 145 0 discriminator 4
 398 012a D8F80090 		ldr	r9, [r8]
 399              	.LVL64:
 400 012e 08F10408 		add	r8, r8, #4
 401              	.LVL65:
 402 0132 03E0     		b	.L40
 403              	.L41:
 404              		.loc 1 145 0 discriminator 5
 405 0134 D8F80090 		ldr	r9, [r8]
 406              	.LVL66:
 407 0138 08F10408 		add	r8, r8, #4
 408              	.LVL67:
 409              	.L40:
 146:xprintf.c     **** 		if (d == 'D' && (v & 0x80000000)) {
 410              		.loc 1 146 0 is_stmt 1 discriminator 8
 411 013c 442B     		cmp	r3, #68
 412 013e 06D1     		bne	.L42
 413              		.loc 1 146 0 is_stmt 0 discriminator 1
 414 0140 B9F1000F 		cmp	r9, #0
 415 0144 03DA     		bge	.L42
 147:xprintf.c     **** 			v = 0 - v;
ARM GAS  C:\Users\cronos\AppData\Local\Temp\ccqH5Z7B.s 			page 11


 416              		.loc 1 147 0 is_stmt 1
 417 0146 C9F10009 		rsb	r9, r9, #0
 418              	.LVL68:
 148:xprintf.c     **** 			f |= 8;
 419              		.loc 1 148 0
 420 014a 47F00807 		orr	r7, r7, #8
 421              	.LVL69:
 422              	.L42:
 149:xprintf.c     **** 		}
 150:xprintf.c     **** 		i = 0;
 423              		.loc 1 150 0
 424 014e 4FF0000E 		mov	lr, #0
 425 0152 00E0     		b	.L46
 426              	.LVL70:
 427              	.L59:
 151:xprintf.c     **** 		do {
 152:xprintf.c     **** 			d = (char)(v % r); v /= r;
 153:xprintf.c     **** 			if (d > 9) d += (c == 'x') ? 0x27 : 0x07;
 154:xprintf.c     **** 			s[i++] = d + '0';
 428              		.loc 1 154 0
 429 0154 AE46     		mov	lr, r5
 430              	.LVL71:
 431              	.L46:
 152:xprintf.c     **** 			if (d > 9) d += (c == 'x') ? 0x27 : 0x07;
 432              		.loc 1 152 0
 433 0156 B9FBFCF3 		udiv	r3, r9, ip
 434 015a 0CFB1392 		mls	r2, ip, r3, r9
 435 015e D2B2     		uxtb	r2, r2
 436              	.LVL72:
 437 0160 9946     		mov	r9, r3
 438              	.LVL73:
 153:xprintf.c     **** 			s[i++] = d + '0';
 439              		.loc 1 153 0
 440 0162 092A     		cmp	r2, #9
 441 0164 06D9     		bls	.L43
 153:xprintf.c     **** 			s[i++] = d + '0';
 442              		.loc 1 153 0 is_stmt 0 discriminator 1
 443 0166 7828     		cmp	r0, #120
 444 0168 01D1     		bne	.L58
 153:xprintf.c     **** 			s[i++] = d + '0';
 445              		.loc 1 153 0
 446 016a 2721     		movs	r1, #39
 447 016c 00E0     		b	.L44
 448              	.L58:
 449 016e 0721     		movs	r1, #7
 450              	.L44:
 153:xprintf.c     **** 			s[i++] = d + '0';
 451              		.loc 1 153 0 discriminator 5
 452 0170 1144     		add	r1, r1, r2
 453 0172 CAB2     		uxtb	r2, r1
 454              	.LVL74:
 455              	.L43:
 456              		.loc 1 154 0 is_stmt 1
 457 0174 0EF10105 		add	r5, lr, #1
 458              	.LVL75:
 459 0178 3032     		adds	r2, r2, #48
 460              	.LVL76:
ARM GAS  C:\Users\cronos\AppData\Local\Temp\ccqH5Z7B.s 			page 12


 461 017a 04A9     		add	r1, sp, #16
 462 017c 7144     		add	r1, r1, lr
 463 017e 01F8102C 		strb	r2, [r1, #-16]
 155:xprintf.c     **** 		} while (v && i < sizeof(s));
 464              		.loc 1 155 0
 465 0182 0BB1     		cbz	r3, .L45
 466              		.loc 1 155 0 is_stmt 0 discriminator 1
 467 0184 0F2D     		cmp	r5, #15
 468 0186 E5D9     		bls	.L59
 469              	.L45:
 156:xprintf.c     **** 		if (f & 8) s[i++] = '-';
 470              		.loc 1 156 0 is_stmt 1
 471 0188 17F0080F 		tst	r7, #8
 472 018c 06D0     		beq	.L47
 473              	.LVL77:
 474              		.loc 1 156 0 is_stmt 0 discriminator 1
 475 018e 04AB     		add	r3, sp, #16
 476              	.LVL78:
 477 0190 1D44     		add	r5, r5, r3
 478 0192 2D23     		movs	r3, #45
 479 0194 05F8103C 		strb	r3, [r5, #-16]
 480 0198 0EF10205 		add	r5, lr, #2
 481              	.LVL79:
 482              	.L47:
 157:xprintf.c     **** 		j = i; d = (f & 1) ? '0' : ' ';
 483              		.loc 1 157 0 is_stmt 1
 484 019c 17F0010F 		tst	r7, #1
 485 01a0 02D0     		beq	.L60
 486 01a2 4FF0300B 		mov	fp, #48
 487 01a6 01E0     		b	.L48
 488              	.L60:
 489 01a8 4FF0200B 		mov	fp, #32
 490              	.L48:
 491              	.LVL80:
 492              		.loc 1 157 0 is_stmt 0 discriminator 4
 493 01ac A946     		mov	r9, r5
 494              	.LVL81:
 158:xprintf.c     **** 		while (!(f & 2) && j++ < w) xputc(d);
 495              		.loc 1 158 0 is_stmt 1 discriminator 4
 496 01ae 03E0     		b	.L49
 497              	.LVL82:
 498              	.L51:
 499              		.loc 1 158 0 is_stmt 0 discriminator 3
 500 01b0 5846     		mov	r0, fp
 501 01b2 FFF7FEFF 		bl	xputc
 502              	.LVL83:
 503 01b6 D146     		mov	r9, r10
 504              	.LVL84:
 505              	.L49:
 506              		.loc 1 158 0 discriminator 1
 507 01b8 17F0020F 		tst	r7, #2
 508 01bc 04D1     		bne	.L52
 509              		.loc 1 158 0 discriminator 2
 510 01be 09F1010A 		add	r10, r9, #1
 511              	.LVL85:
 512 01c2 A145     		cmp	r9, r4
 513 01c4 F4D3     		bcc	.L51
ARM GAS  C:\Users\cronos\AppData\Local\Temp\ccqH5Z7B.s 			page 13


 514              		.loc 1 158 0
 515 01c6 D146     		mov	r9, r10
 516              	.LVL86:
 517              	.L52:
 159:xprintf.c     **** 		do xputc(s[--i]); while(i);
 518              		.loc 1 159 0 is_stmt 1 discriminator 1
 519 01c8 013D     		subs	r5, r5, #1
 520              	.LVL87:
 521 01ca 04AB     		add	r3, sp, #16
 522 01cc 2B44     		add	r3, r3, r5
 523 01ce 13F8100C 		ldrb	r0, [r3, #-16]	@ zero_extendqisi2
 524 01d2 FFF7FEFF 		bl	xputc
 525              	.LVL88:
 526 01d6 002D     		cmp	r5, #0
 527 01d8 F6D1     		bne	.L52
 528 01da 03E0     		b	.L53
 529              	.LVL89:
 530              	.L54:
 160:xprintf.c     **** 		while (j++ < w) xputc(' ');
 531              		.loc 1 160 0 discriminator 2
 532 01dc 2020     		movs	r0, #32
 533 01de FFF7FEFF 		bl	xputc
 534              	.LVL90:
 535 01e2 A946     		mov	r9, r5
 536              	.LVL91:
 537              	.L53:
 538              		.loc 1 160 0 is_stmt 0 discriminator 1
 539 01e4 09F10105 		add	r5, r9, #1
 540              	.LVL92:
 541 01e8 A145     		cmp	r9, r4
 542 01ea F7D3     		bcc	.L54
 543 01ec 0DE7     		b	.L13
 544              	.LVL93:
 545              	.L12:
 161:xprintf.c     **** 	}
 162:xprintf.c     **** }
 546              		.loc 1 162 0 is_stmt 1
 547 01ee 05B0     		add	sp, sp, #20
 548              		.cfi_def_cfa_offset 36
 549              		@ sp needed
 550 01f0 BDE8F08F 		pop	{r4, r5, r6, r7, r8, r9, r10, fp, pc}
 551              		.cfi_endproc
 552              	.LFE3:
 553              		.size	xvprintf, .-xvprintf
 554              		.section	.text.xfputs,"ax",%progbits
 555              		.align	2
 556              		.global	xfputs
 557              		.thumb
 558              		.thumb_func
 559              		.type	xfputs, %function
 560              	xfputs:
 561              	.LFB2:
  57:xprintf.c     **** 	void (*pf)(unsigned char);
 562              		.loc 1 57 0
 563              		.cfi_startproc
 564              		@ args = 0, pretend = 0, frame = 0
 565              		@ frame_needed = 0, uses_anonymous_args = 0
ARM GAS  C:\Users\cronos\AppData\Local\Temp\ccqH5Z7B.s 			page 14


 566              	.LVL94:
 567 0000 38B5     		push	{r3, r4, r5, lr}
 568              		.cfi_def_cfa_offset 16
 569              		.cfi_offset 3, -16
 570              		.cfi_offset 4, -12
 571              		.cfi_offset 5, -8
 572              		.cfi_offset 14, -4
 573 0002 0C46     		mov	r4, r1
  61:xprintf.c     **** 	xfunc_out = func;	/* Switch output to specified device */
 574              		.loc 1 61 0
 575 0004 064B     		ldr	r3, .L66
 576 0006 1D68     		ldr	r5, [r3]
 577              	.LVL95:
  62:xprintf.c     **** 	while (*str)		/* Put the string */
 578              		.loc 1 62 0
 579 0008 1860     		str	r0, [r3]
  63:xprintf.c     **** 		xputc(*str++);
 580              		.loc 1 63 0
 581 000a 02E0     		b	.L63
 582              	.LVL96:
 583              	.L64:
  64:xprintf.c     **** 	xfunc_out = pf;		/* Restore output device */
 584              		.loc 1 64 0
 585 000c 0134     		adds	r4, r4, #1
 586              	.LVL97:
 587 000e FFF7FEFF 		bl	xputc
 588              	.LVL98:
 589              	.L63:
  63:xprintf.c     **** 		xputc(*str++);
 590              		.loc 1 63 0
 591 0012 2078     		ldrb	r0, [r4]	@ zero_extendqisi2
 592 0014 0028     		cmp	r0, #0
 593 0016 F9D1     		bne	.L64
  65:xprintf.c     **** }
 594              		.loc 1 65 0
 595 0018 014B     		ldr	r3, .L66
 596 001a 1D60     		str	r5, [r3]
 597 001c 38BD     		pop	{r3, r4, r5, pc}
 598              	.LVL99:
 599              	.L67:
 600 001e 00BF     		.align	2
 601              	.L66:
 602 0020 00000000 		.word	xfunc_out
 603              		.cfi_endproc
 604              	.LFE2:
 605              		.size	xfputs, .-xfputs
 606              		.section	.text.xprintf,"ax",%progbits
 607              		.align	2
 608              		.global	xprintf
 609              		.thumb
 610              		.thumb_func
 611              		.type	xprintf, %function
 612              	xprintf:
 613              	.LFB4:
 163:xprintf.c     **** 
 164:xprintf.c     **** 
 165:xprintf.c     **** void xprintf (			/* Put a formatted string to the default device */
ARM GAS  C:\Users\cronos\AppData\Local\Temp\ccqH5Z7B.s 			page 15


 166:xprintf.c     **** 	const char*	fmt,	/* Pointer to the format string */
 167:xprintf.c     **** 	...					/* Optional arguments */
 168:xprintf.c     **** )
 169:xprintf.c     **** {
 614              		.loc 1 169 0
 615              		.cfi_startproc
 616              		@ args = 4, pretend = 16, frame = 8
 617              		@ frame_needed = 0, uses_anonymous_args = 1
 618              	.LVL100:
 619 0000 0FB4     		push	{r0, r1, r2, r3}
 620              		.cfi_def_cfa_offset 16
 621              		.cfi_offset 0, -16
 622              		.cfi_offset 1, -12
 623              		.cfi_offset 2, -8
 624              		.cfi_offset 3, -4
 625 0002 00B5     		push	{lr}
 626              		.cfi_def_cfa_offset 20
 627              		.cfi_offset 14, -20
 628 0004 83B0     		sub	sp, sp, #12
 629              		.cfi_def_cfa_offset 32
 630 0006 04A9     		add	r1, sp, #16
 631 0008 51F8040B 		ldr	r0, [r1], #4
 170:xprintf.c     **** 	va_list arp;
 171:xprintf.c     **** 
 172:xprintf.c     **** 
 173:xprintf.c     **** 	va_start(arp, fmt);
 632              		.loc 1 173 0
 633 000c 0191     		str	r1, [sp, #4]
 174:xprintf.c     **** 	xvprintf(fmt, arp);
 634              		.loc 1 174 0
 635 000e FFF7FEFF 		bl	xvprintf
 636              	.LVL101:
 175:xprintf.c     **** 	va_end(arp);
 176:xprintf.c     **** }
 637              		.loc 1 176 0
 638 0012 03B0     		add	sp, sp, #12
 639              		.cfi_def_cfa_offset 20
 640              		@ sp needed
 641 0014 5DF804EB 		ldr	lr, [sp], #4
 642              		.cfi_restore 14
 643              		.cfi_def_cfa_offset 16
 644 0018 04B0     		add	sp, sp, #16
 645              		.cfi_restore 3
 646              		.cfi_restore 2
 647              		.cfi_restore 1
 648              		.cfi_restore 0
 649              		.cfi_def_cfa_offset 0
 650 001a 7047     		bx	lr
 651              		.cfi_endproc
 652              	.LFE4:
 653              		.size	xprintf, .-xprintf
 654              		.section	.text.xsprintf,"ax",%progbits
 655              		.align	2
 656              		.global	xsprintf
 657              		.thumb
 658              		.thumb_func
 659              		.type	xsprintf, %function
ARM GAS  C:\Users\cronos\AppData\Local\Temp\ccqH5Z7B.s 			page 16


 660              	xsprintf:
 661              	.LFB5:
 177:xprintf.c     **** 
 178:xprintf.c     **** 
 179:xprintf.c     **** void xsprintf (			/* Put a formatted string to the memory */
 180:xprintf.c     **** 	char* buff,			/* Pointer to the output buffer */
 181:xprintf.c     **** 	const char*	fmt,	/* Pointer to the format string */
 182:xprintf.c     **** 	...					/* Optional arguments */
 183:xprintf.c     **** )
 184:xprintf.c     **** {
 662              		.loc 1 184 0
 663              		.cfi_startproc
 664              		@ args = 4, pretend = 12, frame = 8
 665              		@ frame_needed = 0, uses_anonymous_args = 1
 666              	.LVL102:
 667 0000 0EB4     		push	{r1, r2, r3}
 668              		.cfi_def_cfa_offset 12
 669              		.cfi_offset 1, -12
 670              		.cfi_offset 2, -8
 671              		.cfi_offset 3, -4
 672 0002 10B5     		push	{r4, lr}
 673              		.cfi_def_cfa_offset 20
 674              		.cfi_offset 4, -20
 675              		.cfi_offset 14, -16
 676 0004 83B0     		sub	sp, sp, #12
 677              		.cfi_def_cfa_offset 32
 678 0006 05A9     		add	r1, sp, #20
 679 0008 51F8043B 		ldr	r3, [r1], #4
 185:xprintf.c     **** 	va_list arp;
 186:xprintf.c     **** 
 187:xprintf.c     **** 
 188:xprintf.c     **** 	outptr = buff;		/* Switch destination for memory */
 680              		.loc 1 188 0
 681 000c 074C     		ldr	r4, .L72
 682 000e 2060     		str	r0, [r4]
 189:xprintf.c     **** 
 190:xprintf.c     **** 	va_start(arp, fmt);
 683              		.loc 1 190 0
 684 0010 0191     		str	r1, [sp, #4]
 191:xprintf.c     **** 	xvprintf(fmt, arp);
 685              		.loc 1 191 0
 686 0012 1846     		mov	r0, r3
 687              	.LVL103:
 688 0014 FFF7FEFF 		bl	xvprintf
 689              	.LVL104:
 192:xprintf.c     **** 	va_end(arp);
 193:xprintf.c     **** 
 194:xprintf.c     **** 	*outptr = 0;		/* Terminate output string with a \0 */
 690              		.loc 1 194 0
 691 0018 2268     		ldr	r2, [r4]
 692 001a 0023     		movs	r3, #0
 693 001c 1370     		strb	r3, [r2]
 195:xprintf.c     **** 	outptr = 0;			/* Switch destination for device */
 694              		.loc 1 195 0
 695 001e 2360     		str	r3, [r4]
 196:xprintf.c     **** }
 696              		.loc 1 196 0
ARM GAS  C:\Users\cronos\AppData\Local\Temp\ccqH5Z7B.s 			page 17


 697 0020 03B0     		add	sp, sp, #12
 698              		.cfi_def_cfa_offset 20
 699              		@ sp needed
 700 0022 BDE81040 		pop	{r4, lr}
 701              		.cfi_restore 14
 702              		.cfi_restore 4
 703              		.cfi_def_cfa_offset 12
 704 0026 03B0     		add	sp, sp, #12
 705              		.cfi_restore 3
 706              		.cfi_restore 2
 707              		.cfi_restore 1
 708              		.cfi_def_cfa_offset 0
 709 0028 7047     		bx	lr
 710              	.L73:
 711 002a 00BF     		.align	2
 712              	.L72:
 713 002c 00000000 		.word	.LANCHOR0
 714              		.cfi_endproc
 715              	.LFE5:
 716              		.size	xsprintf, .-xsprintf
 717              		.section	.text.xfprintf,"ax",%progbits
 718              		.align	2
 719              		.global	xfprintf
 720              		.thumb
 721              		.thumb_func
 722              		.type	xfprintf, %function
 723              	xfprintf:
 724              	.LFB6:
 197:xprintf.c     **** 
 198:xprintf.c     **** 
 199:xprintf.c     **** void xfprintf (					/* Put a formatted string to the specified device */
 200:xprintf.c     **** 	void(*func)(unsigned char),	/* Pointer to the output function */
 201:xprintf.c     **** 	const char*	fmt,			/* Pointer to the format string */
 202:xprintf.c     **** 	...							/* Optional arguments */
 203:xprintf.c     **** )
 204:xprintf.c     **** {
 725              		.loc 1 204 0
 726              		.cfi_startproc
 727              		@ args = 4, pretend = 12, frame = 8
 728              		@ frame_needed = 0, uses_anonymous_args = 1
 729              	.LVL105:
 730 0000 0EB4     		push	{r1, r2, r3}
 731              		.cfi_def_cfa_offset 12
 732              		.cfi_offset 1, -12
 733              		.cfi_offset 2, -8
 734              		.cfi_offset 3, -4
 735 0002 30B5     		push	{r4, r5, lr}
 736              		.cfi_def_cfa_offset 24
 737              		.cfi_offset 4, -24
 738              		.cfi_offset 5, -20
 739              		.cfi_offset 14, -16
 740 0004 82B0     		sub	sp, sp, #8
 741              		.cfi_def_cfa_offset 32
 742 0006 05A9     		add	r1, sp, #20
 743 0008 51F8043B 		ldr	r3, [r1], #4
 205:xprintf.c     **** 	va_list arp;
 206:xprintf.c     **** 	void (*pf)(unsigned char);
ARM GAS  C:\Users\cronos\AppData\Local\Temp\ccqH5Z7B.s 			page 18


 207:xprintf.c     **** 
 208:xprintf.c     **** 
 209:xprintf.c     **** 	pf = xfunc_out;		/* Save current output device */
 744              		.loc 1 209 0
 745 000c 064C     		ldr	r4, .L76
 746 000e 2568     		ldr	r5, [r4]
 747              	.LVL106:
 210:xprintf.c     **** 	xfunc_out = func;	/* Switch output to specified device */
 748              		.loc 1 210 0
 749 0010 2060     		str	r0, [r4]
 211:xprintf.c     **** 
 212:xprintf.c     **** 	va_start(arp, fmt);
 750              		.loc 1 212 0
 751 0012 0191     		str	r1, [sp, #4]
 213:xprintf.c     **** 	xvprintf(fmt, arp);
 752              		.loc 1 213 0
 753 0014 1846     		mov	r0, r3
 754              	.LVL107:
 755 0016 FFF7FEFF 		bl	xvprintf
 756              	.LVL108:
 214:xprintf.c     **** 	va_end(arp);
 215:xprintf.c     **** 
 216:xprintf.c     **** 	xfunc_out = pf;		/* Restore output device */
 757              		.loc 1 216 0
 758 001a 2560     		str	r5, [r4]
 217:xprintf.c     **** }
 759              		.loc 1 217 0
 760 001c 02B0     		add	sp, sp, #8
 761              		.cfi_def_cfa_offset 24
 762              		@ sp needed
 763 001e BDE83040 		pop	{r4, r5, lr}
 764              		.cfi_restore 14
 765              		.cfi_restore 5
 766              		.cfi_restore 4
 767              		.cfi_def_cfa_offset 12
 768              	.LVL109:
 769 0022 03B0     		add	sp, sp, #12
 770              		.cfi_restore 3
 771              		.cfi_restore 2
 772              		.cfi_restore 1
 773              		.cfi_def_cfa_offset 0
 774 0024 7047     		bx	lr
 775              	.L77:
 776 0026 00BF     		.align	2
 777              	.L76:
 778 0028 00000000 		.word	xfunc_out
 779              		.cfi_endproc
 780              	.LFE6:
 781              		.size	xfprintf, .-xfprintf
 782              		.section	.text.put_dump,"ax",%progbits
 783              		.align	2
 784              		.global	put_dump
 785              		.thumb
 786              		.thumb_func
 787              		.type	put_dump, %function
 788              	put_dump:
 789              	.LFB7:
ARM GAS  C:\Users\cronos\AppData\Local\Temp\ccqH5Z7B.s 			page 19


 218:xprintf.c     **** 
 219:xprintf.c     **** 
 220:xprintf.c     **** 
 221:xprintf.c     **** /*----------------------------------------------*/
 222:xprintf.c     **** /* Dump a line of binary dump                   */
 223:xprintf.c     **** /*----------------------------------------------*/
 224:xprintf.c     **** 
 225:xprintf.c     **** void put_dump (
 226:xprintf.c     **** 	const void* buff,		/* Pointer to the array to be dumped */
 227:xprintf.c     **** 	unsigned long addr,		/* Heading address value */
 228:xprintf.c     **** 	int len,				/* Number of items to be dumped */
 229:xprintf.c     **** 	int width				/* Size of the items (DF_CHAR, DF_SHORT, DF_LONG) */
 230:xprintf.c     **** )
 231:xprintf.c     **** {
 790              		.loc 1 231 0
 791              		.cfi_startproc
 792              		@ args = 0, pretend = 0, frame = 0
 793              		@ frame_needed = 0, uses_anonymous_args = 0
 794              	.LVL110:
 795 0000 70B5     		push	{r4, r5, r6, lr}
 796              		.cfi_def_cfa_offset 16
 797              		.cfi_offset 4, -16
 798              		.cfi_offset 5, -12
 799              		.cfi_offset 6, -8
 800              		.cfi_offset 14, -4
 801 0002 0546     		mov	r5, r0
 802 0004 1446     		mov	r4, r2
 803 0006 1E46     		mov	r6, r3
 232:xprintf.c     **** 	int i;
 233:xprintf.c     **** 	const unsigned char *bp;
 234:xprintf.c     **** 	const unsigned short *sp;
 235:xprintf.c     **** 	const unsigned long *lp;
 236:xprintf.c     **** 
 237:xprintf.c     **** 
 238:xprintf.c     **** 	xprintf("%08lX ", addr);		/* address */
 804              		.loc 1 238 0
 805 0008 1C48     		ldr	r0, .L90
 806              	.LVL111:
 807 000a FFF7FEFF 		bl	xprintf
 808              	.LVL112:
 239:xprintf.c     **** 
 240:xprintf.c     **** 	switch (width) {
 809              		.loc 1 240 0
 810 000e 022E     		cmp	r6, #2
 811 0010 1FD0     		beq	.L80
 812 0012 042E     		cmp	r6, #4
 813 0014 26D0     		beq	.L81
 814 0016 012E     		cmp	r6, #1
 815 0018 2CD1     		bne	.L79
 816 001a 05E0     		b	.L87
 817              	.LVL113:
 818              	.L83:
 241:xprintf.c     **** 	case DW_CHAR:
 242:xprintf.c     **** 		bp = buff;
 243:xprintf.c     **** 		for (i = 0; i < len; i++)		/* Hexdecimal dump */
 244:xprintf.c     **** 			xprintf(" %02X", bp[i]);
 819              		.loc 1 244 0 discriminator 3
ARM GAS  C:\Users\cronos\AppData\Local\Temp\ccqH5Z7B.s 			page 20


 820 001c A95D     		ldrb	r1, [r5, r6]	@ zero_extendqisi2
 821 001e 1848     		ldr	r0, .L90+4
 822 0020 FFF7FEFF 		bl	xprintf
 823              	.LVL114:
 243:xprintf.c     **** 			xprintf(" %02X", bp[i]);
 824              		.loc 1 243 0 discriminator 3
 825 0024 0136     		adds	r6, r6, #1
 826              	.LVL115:
 827 0026 00E0     		b	.L82
 828              	.LVL116:
 829              	.L87:
 240:xprintf.c     **** 	case DW_CHAR:
 830              		.loc 1 240 0
 831 0028 0026     		movs	r6, #0
 832              	.LVL117:
 833              	.L82:
 243:xprintf.c     **** 			xprintf(" %02X", bp[i]);
 834              		.loc 1 243 0 discriminator 1
 835 002a A642     		cmp	r6, r4
 836 002c F6DB     		blt	.L83
 245:xprintf.c     **** 		xputc(' ');
 837              		.loc 1 245 0
 838 002e 2020     		movs	r0, #32
 839 0030 FFF7FEFF 		bl	xputc
 840              	.LVL118:
 246:xprintf.c     **** 		for (i = 0; i < len; i++)		/* ASCII dump */
 841              		.loc 1 246 0
 842 0034 0026     		movs	r6, #0
 843 0036 09E0     		b	.L84
 844              	.LVL119:
 845              	.L86:
 247:xprintf.c     **** 			xputc((bp[i] >= ' ' && bp[i] <= '~') ? bp[i] : '.');
 846              		.loc 1 247 0
 847 0038 A85D     		ldrb	r0, [r5, r6]	@ zero_extendqisi2
 848 003a A0F12003 		sub	r3, r0, #32
 849 003e DBB2     		uxtb	r3, r3
 850 0040 5E2B     		cmp	r3, #94
 851 0042 00D9     		bls	.L85
 852 0044 2E20     		movs	r0, #46
 853              	.L85:
 854              		.loc 1 247 0 is_stmt 0 discriminator 4
 855 0046 FFF7FEFF 		bl	xputc
 856              	.LVL120:
 246:xprintf.c     **** 		for (i = 0; i < len; i++)		/* ASCII dump */
 857              		.loc 1 246 0 is_stmt 1 discriminator 4
 858 004a 0136     		adds	r6, r6, #1
 859              	.LVL121:
 860              	.L84:
 246:xprintf.c     **** 		for (i = 0; i < len; i++)		/* ASCII dump */
 861              		.loc 1 246 0 is_stmt 0 discriminator 2
 862 004c A642     		cmp	r6, r4
 863 004e F3DB     		blt	.L86
 864 0050 10E0     		b	.L79
 865              	.LVL122:
 866              	.L80:
 248:xprintf.c     **** 		break;
 249:xprintf.c     **** 	case DW_SHORT:
ARM GAS  C:\Users\cronos\AppData\Local\Temp\ccqH5Z7B.s 			page 21


 250:xprintf.c     **** 		sp = buff;
 251:xprintf.c     **** 		do								/* Hexdecimal dump */
 252:xprintf.c     **** 			xprintf(" %04X", *sp++);
 867              		.loc 1 252 0 is_stmt 1 discriminator 1
 868 0052 AE1C     		adds	r6, r5, #2
 869              	.LVL123:
 870 0054 2988     		ldrh	r1, [r5]
 871 0056 0B48     		ldr	r0, .L90+8
 872 0058 FFF7FEFF 		bl	xprintf
 873              	.LVL124:
 874 005c 3546     		mov	r5, r6
 253:xprintf.c     **** 		while (--len);
 875              		.loc 1 253 0 discriminator 1
 876 005e 013C     		subs	r4, r4, #1
 877              	.LVL125:
 878 0060 F7D1     		bne	.L80
 879 0062 07E0     		b	.L79
 880              	.LVL126:
 881              	.L81:
 254:xprintf.c     **** 		break;
 255:xprintf.c     **** 	case DW_LONG:
 256:xprintf.c     **** 		lp = buff;
 257:xprintf.c     **** 		do								/* Hexdecimal dump */
 258:xprintf.c     **** 			xprintf(" %08LX", *lp++);
 882              		.loc 1 258 0 discriminator 1
 883 0064 2E1D     		adds	r6, r5, #4
 884              	.LVL127:
 885 0066 2968     		ldr	r1, [r5]
 886 0068 0748     		ldr	r0, .L90+12
 887 006a FFF7FEFF 		bl	xprintf
 888              	.LVL128:
 889 006e 3546     		mov	r5, r6
 259:xprintf.c     **** 		while (--len);
 890              		.loc 1 259 0 discriminator 1
 891 0070 013C     		subs	r4, r4, #1
 892              	.LVL129:
 893 0072 F7D1     		bne	.L81
 894              	.LVL130:
 895              	.L79:
 260:xprintf.c     **** 		break;
 261:xprintf.c     **** 	}
 262:xprintf.c     **** 
 263:xprintf.c     **** 	xputc('\n');
 896              		.loc 1 263 0
 897 0074 0A20     		movs	r0, #10
 898 0076 FFF7FEFF 		bl	xputc
 899              	.LVL131:
 900 007a 70BD     		pop	{r4, r5, r6, pc}
 901              	.LVL132:
 902              	.L91:
 903              		.align	2
 904              	.L90:
 905 007c 00000000 		.word	.LC0
 906 0080 08000000 		.word	.LC1
 907 0084 10000000 		.word	.LC2
 908 0088 18000000 		.word	.LC3
 909              		.cfi_endproc
ARM GAS  C:\Users\cronos\AppData\Local\Temp\ccqH5Z7B.s 			page 22


 910              	.LFE7:
 911              		.size	put_dump, .-put_dump
 912              		.section	.text.xgets,"ax",%progbits
 913              		.align	2
 914              		.global	xgets
 915              		.thumb
 916              		.thumb_func
 917              		.type	xgets, %function
 918              	xgets:
 919              	.LFB8:
 264:xprintf.c     **** }
 265:xprintf.c     **** 
 266:xprintf.c     **** #endif /* _USE_XFUNC_OUT */
 267:xprintf.c     **** 
 268:xprintf.c     **** 
 269:xprintf.c     **** 
 270:xprintf.c     **** #if _USE_XFUNC_IN
 271:xprintf.c     **** unsigned char (*xfunc_in)(void);	/* Pointer to the input stream */
 272:xprintf.c     **** 
 273:xprintf.c     **** /*----------------------------------------------*/
 274:xprintf.c     **** /* Get a line from the input                    */
 275:xprintf.c     **** /*----------------------------------------------*/
 276:xprintf.c     **** 
 277:xprintf.c     **** int xgets (		/* 0:End of stream, 1:A line arrived */
 278:xprintf.c     **** 	char* buff,	/* Pointer to the buffer */
 279:xprintf.c     **** 	int len		/* Buffer length */
 280:xprintf.c     **** )
 281:xprintf.c     **** {
 920              		.loc 1 281 0
 921              		.cfi_startproc
 922              		@ args = 0, pretend = 0, frame = 0
 923              		@ frame_needed = 0, uses_anonymous_args = 0
 924              	.LVL133:
 282:xprintf.c     **** 	int c, i;
 283:xprintf.c     **** 
 284:xprintf.c     **** 
 285:xprintf.c     **** 	if (!xfunc_in) return 0;		/* No input function specified */
 925              		.loc 1 285 0
 926 0000 114B     		ldr	r3, .L101
 927 0002 1B68     		ldr	r3, [r3]
 928 0004 DBB1     		cbz	r3, .L98
 281:xprintf.c     **** 	int c, i;
 929              		.loc 1 281 0
 930 0006 70B5     		push	{r4, r5, r6, lr}
 931              		.cfi_def_cfa_offset 16
 932              		.cfi_offset 4, -16
 933              		.cfi_offset 5, -12
 934              		.cfi_offset 6, -8
 935              		.cfi_offset 14, -4
 936 0008 0D46     		mov	r5, r1
 937 000a 0646     		mov	r6, r0
 938 000c 0024     		movs	r4, #0
 939              	.LVL134:
 940              	.L94:
 286:xprintf.c     **** 
 287:xprintf.c     **** 	i = 0;
 288:xprintf.c     **** 	for (;;) {
ARM GAS  C:\Users\cronos\AppData\Local\Temp\ccqH5Z7B.s 			page 23


 289:xprintf.c     **** 		c = xfunc_in();				/* Get a char from the incoming stream */
 941              		.loc 1 289 0
 942 000e 0E4B     		ldr	r3, .L101
 943 0010 1B68     		ldr	r3, [r3]
 944 0012 9847     		blx	r3
 945              	.LVL135:
 290:xprintf.c     **** 		if (!c) return 0;			/* End of stream? */
 946              		.loc 1 290 0
 947 0014 0346     		mov	r3, r0
 948 0016 A0B1     		cbz	r0, .L99
 291:xprintf.c     **** 		if (c == '\r') break;		/* End of line? */
 949              		.loc 1 291 0
 950 0018 0D28     		cmp	r0, #13
 951 001a 0CD0     		beq	.L95
 292:xprintf.c     **** 		if (c == '\b' && i) {		/* Back space? */
 952              		.loc 1 292 0
 953 001c 0828     		cmp	r0, #8
 954 001e 02D1     		bne	.L96
 955              		.loc 1 292 0 is_stmt 0 discriminator 1
 956 0020 0CB1     		cbz	r4, .L96
 293:xprintf.c     **** 			i--;
 957              		.loc 1 293 0 is_stmt 1
 958 0022 013C     		subs	r4, r4, #1
 959              	.LVL136:
 294:xprintf.c     **** 			if (_LINE_ECHO) xputc(c);
 295:xprintf.c     **** 			continue;
 960              		.loc 1 295 0
 961 0024 F3E7     		b	.L94
 962              	.L96:
 296:xprintf.c     **** 		}
 297:xprintf.c     **** 		if (c >= ' ' && i < len - 1) {	/* Visible chars */
 963              		.loc 1 297 0
 964 0026 1F2B     		cmp	r3, #31
 965 0028 F1DD     		ble	.L94
 966              		.loc 1 297 0 is_stmt 0 discriminator 1
 967 002a 6A1E     		subs	r2, r5, #1
 968 002c 9442     		cmp	r4, r2
 969 002e EEDA     		bge	.L94
 970              	.LVL137:
 298:xprintf.c     **** 			buff[i++] = c;
 971              		.loc 1 298 0 is_stmt 1
 972 0030 3355     		strb	r3, [r6, r4]
 973 0032 0134     		adds	r4, r4, #1
 974              	.LVL138:
 975 0034 EBE7     		b	.L94
 976              	.L95:
 299:xprintf.c     **** 			if (_LINE_ECHO) xputc(c);
 300:xprintf.c     **** 		}
 301:xprintf.c     **** 	}
 302:xprintf.c     **** 	buff[i] = 0;	/* Terminate with a \0 */
 977              		.loc 1 302 0
 978 0036 0023     		movs	r3, #0
 979 0038 3355     		strb	r3, [r6, r4]
 303:xprintf.c     **** 	if (_LINE_ECHO) xputc('\n');
 304:xprintf.c     **** 	return 1;
 980              		.loc 1 304 0
 981 003a 0120     		movs	r0, #1
ARM GAS  C:\Users\cronos\AppData\Local\Temp\ccqH5Z7B.s 			page 24


 982              	.LVL139:
 983 003c 70BD     		pop	{r4, r5, r6, pc}
 984              	.LVL140:
 985              	.L98:
 986              		.cfi_def_cfa_offset 0
 987              		.cfi_restore 4
 988              		.cfi_restore 5
 989              		.cfi_restore 6
 990              		.cfi_restore 14
 285:xprintf.c     **** 
 991              		.loc 1 285 0
 992 003e 0020     		movs	r0, #0
 993              	.LVL141:
 305:xprintf.c     **** }
 994              		.loc 1 305 0
 995 0040 7047     		bx	lr
 996              	.LVL142:
 997              	.L99:
 998              		.cfi_def_cfa_offset 16
 999              		.cfi_offset 4, -16
 1000              		.cfi_offset 5, -12
 1001              		.cfi_offset 6, -8
 1002              		.cfi_offset 14, -4
 290:xprintf.c     **** 		if (c == '\r') break;		/* End of line? */
 1003              		.loc 1 290 0
 1004 0042 0020     		movs	r0, #0
 1005              	.LVL143:
 1006              		.loc 1 305 0
 1007 0044 70BD     		pop	{r4, r5, r6, pc}
 1008              	.LVL144:
 1009              	.L102:
 1010 0046 00BF     		.align	2
 1011              	.L101:
 1012 0048 00000000 		.word	xfunc_in
 1013              		.cfi_endproc
 1014              	.LFE8:
 1015              		.size	xgets, .-xgets
 1016              		.section	.text.xfgets,"ax",%progbits
 1017              		.align	2
 1018              		.global	xfgets
 1019              		.thumb
 1020              		.thumb_func
 1021              		.type	xfgets, %function
 1022              	xfgets:
 1023              	.LFB9:
 306:xprintf.c     **** 
 307:xprintf.c     **** 
 308:xprintf.c     **** int xfgets (	/* 0:End of stream, 1:A line arrived */
 309:xprintf.c     **** 	unsigned char (*func)(void),	/* Pointer to the input stream function */
 310:xprintf.c     **** 	char* buff,	/* Pointer to the buffer */
 311:xprintf.c     **** 	int len		/* Buffer length */
 312:xprintf.c     **** )
 313:xprintf.c     **** {
 1024              		.loc 1 313 0
 1025              		.cfi_startproc
 1026              		@ args = 0, pretend = 0, frame = 0
 1027              		@ frame_needed = 0, uses_anonymous_args = 0
ARM GAS  C:\Users\cronos\AppData\Local\Temp\ccqH5Z7B.s 			page 25


 1028              	.LVL145:
 1029 0000 38B5     		push	{r3, r4, r5, lr}
 1030              		.cfi_def_cfa_offset 16
 1031              		.cfi_offset 3, -16
 1032              		.cfi_offset 4, -12
 1033              		.cfi_offset 5, -8
 1034              		.cfi_offset 14, -4
 1035 0002 0B46     		mov	r3, r1
 314:xprintf.c     **** 	unsigned char (*pf)(void);
 315:xprintf.c     **** 	int n;
 316:xprintf.c     **** 
 317:xprintf.c     **** 
 318:xprintf.c     **** 	pf = xfunc_in;			/* Save current input device */
 1036              		.loc 1 318 0
 1037 0004 044C     		ldr	r4, .L105
 1038 0006 2568     		ldr	r5, [r4]
 1039              	.LVL146:
 319:xprintf.c     **** 	xfunc_in = func;		/* Switch input to specified device */
 1040              		.loc 1 319 0
 1041 0008 2060     		str	r0, [r4]
 320:xprintf.c     **** 	n = xgets(buff, len);	/* Get a line */
 1042              		.loc 1 320 0
 1043 000a 1146     		mov	r1, r2
 1044              	.LVL147:
 1045 000c 1846     		mov	r0, r3
 1046              	.LVL148:
 1047 000e FFF7FEFF 		bl	xgets
 1048              	.LVL149:
 321:xprintf.c     **** 	xfunc_in = pf;			/* Restore input device */
 1049              		.loc 1 321 0
 1050 0012 2560     		str	r5, [r4]
 322:xprintf.c     **** 
 323:xprintf.c     **** 	return n;
 324:xprintf.c     **** }
 1051              		.loc 1 324 0
 1052 0014 38BD     		pop	{r3, r4, r5, pc}
 1053              	.LVL150:
 1054              	.L106:
 1055 0016 00BF     		.align	2
 1056              	.L105:
 1057 0018 00000000 		.word	xfunc_in
 1058              		.cfi_endproc
 1059              	.LFE9:
 1060              		.size	xfgets, .-xfgets
 1061              		.section	.text.xatoi,"ax",%progbits
 1062              		.align	2
 1063              		.global	xatoi
 1064              		.thumb
 1065              		.thumb_func
 1066              		.type	xatoi, %function
 1067              	xatoi:
 1068              	.LFB10:
 325:xprintf.c     **** 
 326:xprintf.c     **** 
 327:xprintf.c     **** /*----------------------------------------------*/
 328:xprintf.c     **** /* Get a value of the string                    */
 329:xprintf.c     **** /*----------------------------------------------*/
ARM GAS  C:\Users\cronos\AppData\Local\Temp\ccqH5Z7B.s 			page 26


 330:xprintf.c     **** /*	"123 -5   0x3ff 0b1111 0377  w "
 331:xprintf.c     **** 	    ^                           1st call returns 123 and next ptr
 332:xprintf.c     **** 	       ^                        2nd call returns -5 and next ptr
 333:xprintf.c     ****                    ^                3rd call returns 1023 and next ptr
 334:xprintf.c     ****                           ^         4th call returns 15 and next ptr
 335:xprintf.c     ****                                ^    5th call returns 255 and next ptr
 336:xprintf.c     ****                                   ^ 6th call fails and returns 0
 337:xprintf.c     **** */
 338:xprintf.c     **** 
 339:xprintf.c     **** int xatoi (			/* 0:Failed, 1:Successful */
 340:xprintf.c     **** 	char **str,		/* Pointer to pointer to the string */
 341:xprintf.c     **** 	long *res		/* Pointer to the valiable to store the value */
 342:xprintf.c     **** )
 343:xprintf.c     **** {
 1069              		.loc 1 343 0
 1070              		.cfi_startproc
 1071              		@ args = 0, pretend = 0, frame = 0
 1072              		@ frame_needed = 0, uses_anonymous_args = 0
 1073              		@ link register save eliminated.
 1074              	.LVL151:
 344:xprintf.c     **** 	unsigned long val;
 345:xprintf.c     **** 	unsigned char c, r, s = 0;
 346:xprintf.c     **** 
 347:xprintf.c     **** 
 348:xprintf.c     **** 	*res = 0;
 1075              		.loc 1 348 0
 1076 0000 0023     		movs	r3, #0
 1077 0002 0B60     		str	r3, [r1]
 349:xprintf.c     **** 
 350:xprintf.c     **** 	while ((c = **str) == ' ') (*str)++;	/* Skip leading spaces */
 1078              		.loc 1 350 0
 1079 0004 01E0     		b	.L108
 1080              	.LVL152:
 1081              	.L109:
 1082              		.loc 1 350 0 is_stmt 0 discriminator 2
 1083 0006 0132     		adds	r2, r2, #1
 1084 0008 0260     		str	r2, [r0]
 1085              	.LVL153:
 1086              	.L108:
 1087              		.loc 1 350 0 discriminator 1
 1088 000a 0268     		ldr	r2, [r0]
 1089 000c 1378     		ldrb	r3, [r2]	@ zero_extendqisi2
 1090              	.LVL154:
 1091 000e 202B     		cmp	r3, #32
 1092 0010 F9D0     		beq	.L109
 343:xprintf.c     **** 	unsigned long val;
 1093              		.loc 1 343 0 is_stmt 1
 1094 0012 70B4     		push	{r4, r5, r6}
 1095              		.cfi_def_cfa_offset 12
 1096              		.cfi_offset 4, -12
 1097              		.cfi_offset 5, -8
 1098              		.cfi_offset 6, -4
 351:xprintf.c     **** 
 352:xprintf.c     **** 	if (c == '-') {		/* negative? */
 1099              		.loc 1 352 0
 1100 0014 2D2B     		cmp	r3, #45
 1101 0016 04D1     		bne	.L122
ARM GAS  C:\Users\cronos\AppData\Local\Temp\ccqH5Z7B.s 			page 27


 1102              	.LVL155:
 353:xprintf.c     **** 		s = 1;
 354:xprintf.c     **** 		c = *(++(*str));
 1103              		.loc 1 354 0
 1104 0018 531C     		adds	r3, r2, #1
 1105              	.LVL156:
 1106 001a 0360     		str	r3, [r0]
 1107              	.LVL157:
 1108 001c 5378     		ldrb	r3, [r2, #1]	@ zero_extendqisi2
 1109              	.LVL158:
 353:xprintf.c     **** 		s = 1;
 1110              		.loc 1 353 0
 1111 001e 0126     		movs	r6, #1
 1112 0020 00E0     		b	.L110
 1113              	.LVL159:
 1114              	.L122:
 345:xprintf.c     **** 
 1115              		.loc 1 345 0
 1116 0022 0026     		movs	r6, #0
 1117              	.LVL160:
 1118              	.L110:
 355:xprintf.c     **** 	}
 356:xprintf.c     **** 
 357:xprintf.c     **** 	if (c == '0') {
 1119              		.loc 1 357 0
 1120 0024 302B     		cmp	r3, #48
 1121 0026 1AD1     		bne	.L111
 358:xprintf.c     **** 		c = *(++(*str));
 1122              		.loc 1 358 0
 1123 0028 0368     		ldr	r3, [r0]
 1124              	.LVL161:
 1125 002a 5A1C     		adds	r2, r3, #1
 1126 002c 0260     		str	r2, [r0]
 1127 002e 5B78     		ldrb	r3, [r3, #1]	@ zero_extendqisi2
 1128              	.LVL162:
 359:xprintf.c     **** 		switch (c) {
 1129              		.loc 1 359 0
 1130 0030 622B     		cmp	r3, #98
 1131 0032 06D0     		beq	.L113
 1132 0034 782B     		cmp	r3, #120
 1133 0036 09D1     		bne	.L128
 1134              	.LVL163:
 360:xprintf.c     **** 		case 'x':		/* hexdecimal */
 361:xprintf.c     **** 			r = 16; c = *(++(*str));
 1135              		.loc 1 361 0
 1136 0038 531C     		adds	r3, r2, #1
 1137              	.LVL164:
 1138 003a 0360     		str	r3, [r0]
 1139              	.LVL165:
 1140 003c 5378     		ldrb	r3, [r2, #1]	@ zero_extendqisi2
 1141              	.LVL166:
 1142 003e 1025     		movs	r5, #16
 362:xprintf.c     **** 			break;
 1143              		.loc 1 362 0
 1144 0040 13E0     		b	.L115
 1145              	.LVL167:
 1146              	.L113:
ARM GAS  C:\Users\cronos\AppData\Local\Temp\ccqH5Z7B.s 			page 28


 363:xprintf.c     **** 		case 'b':		/* binary */
 364:xprintf.c     **** 			r = 2; c = *(++(*str));
 1147              		.loc 1 364 0
 1148 0042 531C     		adds	r3, r2, #1
 1149              	.LVL168:
 1150 0044 0360     		str	r3, [r0]
 1151              	.LVL169:
 1152 0046 5378     		ldrb	r3, [r2, #1]	@ zero_extendqisi2
 1153              	.LVL170:
 1154 0048 0225     		movs	r5, #2
 365:xprintf.c     **** 			break;
 1155              		.loc 1 365 0
 1156 004a 0EE0     		b	.L115
 1157              	.LVL171:
 1158              	.L128:
 366:xprintf.c     **** 		default:
 367:xprintf.c     **** 			if (c <= ' ') return 1;	/* single zero */
 1159              		.loc 1 367 0
 1160 004c 202B     		cmp	r3, #32
 1161 004e 2AD9     		bls	.L123
 368:xprintf.c     **** 			if (c < '0' || c > '9') return 0;	/* invalid char */
 1162              		.loc 1 368 0
 1163 0050 A3F13002 		sub	r2, r3, #48
 1164 0054 D2B2     		uxtb	r2, r2
 1165 0056 092A     		cmp	r2, #9
 1166 0058 27D8     		bhi	.L124
 369:xprintf.c     **** 			r = 8;		/* octal */
 1167              		.loc 1 369 0
 1168 005a 0825     		movs	r5, #8
 1169 005c 05E0     		b	.L115
 1170              	.L111:
 370:xprintf.c     **** 		}
 371:xprintf.c     **** 	} else {
 372:xprintf.c     **** 		if (c < '0' || c > '9') return 0;	/* EOL or invalid char */
 1171              		.loc 1 372 0
 1172 005e A3F13002 		sub	r2, r3, #48
 1173 0062 D2B2     		uxtb	r2, r2
 1174 0064 092A     		cmp	r2, #9
 1175 0066 22D8     		bhi	.L125
 373:xprintf.c     **** 		r = 10;			/* decimal */
 1176              		.loc 1 373 0
 1177 0068 0A25     		movs	r5, #10
 1178              	.L115:
 1179              	.LVL172:
 374:xprintf.c     **** 	}
 375:xprintf.c     **** 
 376:xprintf.c     **** 	val = 0;
 1180              		.loc 1 376 0
 1181 006a 0024     		movs	r4, #0
 377:xprintf.c     **** 	while (c > ' ') {
 1182              		.loc 1 377 0
 1183 006c 14E0     		b	.L117
 1184              	.LVL173:
 1185              	.L120:
 378:xprintf.c     **** 		if (c >= 'a') c -= 0x20;
 1186              		.loc 1 378 0
 1187 006e 602B     		cmp	r3, #96
ARM GAS  C:\Users\cronos\AppData\Local\Temp\ccqH5Z7B.s 			page 29


 1188 0070 01D9     		bls	.L118
 1189              		.loc 1 378 0 is_stmt 0 discriminator 1
 1190 0072 203B     		subs	r3, r3, #32
 1191              	.LVL174:
 1192 0074 DBB2     		uxtb	r3, r3
 1193              	.LVL175:
 1194              	.L118:
 379:xprintf.c     **** 		c -= '0';
 1195              		.loc 1 379 0 is_stmt 1
 1196 0076 A3F13002 		sub	r2, r3, #48
 1197 007a D2B2     		uxtb	r2, r2
 1198              	.LVL176:
 380:xprintf.c     **** 		if (c >= 17) {
 1199              		.loc 1 380 0
 1200 007c 102A     		cmp	r2, #16
 1201 007e 03D9     		bls	.L119
 381:xprintf.c     **** 			c -= 7;
 1202              		.loc 1 381 0
 1203 0080 373B     		subs	r3, r3, #55
 1204 0082 DAB2     		uxtb	r2, r3
 1205              	.LVL177:
 382:xprintf.c     **** 			if (c <= 9) return 0;	/* invalid char */
 1206              		.loc 1 382 0
 1207 0084 092A     		cmp	r2, #9
 1208 0086 14D9     		bls	.L126
 1209              	.L119:
 383:xprintf.c     **** 		}
 384:xprintf.c     **** 		if (c >= r) return 0;		/* invalid char for current radix */
 1210              		.loc 1 384 0
 1211 0088 AA42     		cmp	r2, r5
 1212 008a 14D2     		bcs	.L127
 385:xprintf.c     **** 		val = val * r + c;
 1213              		.loc 1 385 0
 1214 008c 04FB0524 		mla	r4, r4, r5, r2
 1215              	.LVL178:
 386:xprintf.c     **** 		c = *(++(*str));
 1216              		.loc 1 386 0
 1217 0090 0368     		ldr	r3, [r0]
 1218 0092 5A1C     		adds	r2, r3, #1
 1219              	.LVL179:
 1220 0094 0260     		str	r2, [r0]
 1221 0096 5B78     		ldrb	r3, [r3, #1]	@ zero_extendqisi2
 1222              	.LVL180:
 1223              	.L117:
 377:xprintf.c     **** 		if (c >= 'a') c -= 0x20;
 1224              		.loc 1 377 0
 1225 0098 202B     		cmp	r3, #32
 1226 009a E8D8     		bhi	.L120
 387:xprintf.c     **** 	}
 388:xprintf.c     **** 	if (s) val = 0 - val;			/* apply sign if needed */
 1227              		.loc 1 388 0
 1228 009c 06B1     		cbz	r6, .L121
 1229              		.loc 1 388 0 is_stmt 0 discriminator 1
 1230 009e 6442     		negs	r4, r4
 1231              	.LVL181:
 1232              	.L121:
 389:xprintf.c     **** 
ARM GAS  C:\Users\cronos\AppData\Local\Temp\ccqH5Z7B.s 			page 30


 390:xprintf.c     **** 	*res = val;
 1233              		.loc 1 390 0 is_stmt 1
 1234 00a0 0C60     		str	r4, [r1]
 391:xprintf.c     **** 	return 1;
 1235              		.loc 1 391 0
 1236 00a2 0120     		movs	r0, #1
 1237              	.LVL182:
 1238 00a4 08E0     		b	.L116
 1239              	.LVL183:
 1240              	.L123:
 367:xprintf.c     **** 			if (c < '0' || c > '9') return 0;	/* invalid char */
 1241              		.loc 1 367 0
 1242 00a6 0120     		movs	r0, #1
 1243              	.LVL184:
 1244 00a8 06E0     		b	.L116
 1245              	.LVL185:
 1246              	.L124:
 368:xprintf.c     **** 			r = 8;		/* octal */
 1247              		.loc 1 368 0
 1248 00aa 0020     		movs	r0, #0
 1249              	.LVL186:
 1250 00ac 04E0     		b	.L116
 1251              	.LVL187:
 1252              	.L125:
 372:xprintf.c     **** 		r = 10;			/* decimal */
 1253              		.loc 1 372 0
 1254 00ae 0020     		movs	r0, #0
 1255              	.LVL188:
 1256 00b0 02E0     		b	.L116
 1257              	.LVL189:
 1258              	.L126:
 382:xprintf.c     **** 		}
 1259              		.loc 1 382 0
 1260 00b2 0020     		movs	r0, #0
 1261              	.LVL190:
 1262 00b4 00E0     		b	.L116
 1263              	.LVL191:
 1264              	.L127:
 384:xprintf.c     **** 		val = val * r + c;
 1265              		.loc 1 384 0
 1266 00b6 0020     		movs	r0, #0
 1267              	.LVL192:
 1268              	.L116:
 392:xprintf.c     **** }
 1269              		.loc 1 392 0
 1270 00b8 70BC     		pop	{r4, r5, r6}
 1271              		.cfi_restore 6
 1272              		.cfi_restore 5
 1273              		.cfi_restore 4
 1274              		.cfi_def_cfa_offset 0
 1275              	.LVL193:
 1276 00ba 7047     		bx	lr
 1277              		.cfi_endproc
 1278              	.LFE10:
 1279              		.size	xatoi, .-xatoi
 1280              		.comm	xfunc_in,4,4
 1281              		.comm	xfunc_out,4,4
ARM GAS  C:\Users\cronos\AppData\Local\Temp\ccqH5Z7B.s 			page 31


 1282              		.section	.rodata.str1.4,"aMS",%progbits,1
 1283              		.align	2
 1284              	.LC0:
 1285 0000 2530386C 		.ascii	"%08lX \000"
 1285      582000
 1286 0007 00       		.space	1
 1287              	.LC1:
 1288 0008 20253032 		.ascii	" %02X\000"
 1288      5800
 1289 000e 0000     		.space	2
 1290              	.LC2:
 1291 0010 20253034 		.ascii	" %04X\000"
 1291      5800
 1292 0016 0000     		.space	2
 1293              	.LC3:
 1294 0018 20253038 		.ascii	" %08LX\000"
 1294      4C5800
 1295              		.bss
 1296              		.align	2
 1297              		.set	.LANCHOR0,. + 0
 1298              		.type	outptr, %object
 1299              		.size	outptr, 4
 1300              	outptr:
 1301 0000 00000000 		.space	4
 1302              		.text
 1303              	.Letext0:
 1304              		.file 2 "c:\\program files (x86)\\cypress\\psoc creator\\4.2\\psoc creator\\import\\gnu\\arm\\5.4.
 1305              		.file 3 "<built-in>"